EXPORTS
??$g_GetHashValue@PEAD@@YAKAEBQEAD@Z
??$g_GetHashValue@VbCGuid@@@@YAKAEBVbCGuid@@@Z
??$g_GetHashValue@VbCPropertyID@@@@YAKAEBVbCPropertyID@@@Z
??$g_GetHashValue@VbCString@@@@YAKAEBVbCString@@@Z
??0bCAccessorCreator@@IEAA@XZ
??0bCAccessorCreator@@QEAA@AEBV0@@Z
??0bCAccessorCreator@@QEAA@AEBVbCPropertyID@@PEBVbCString@@@Z
??0bCAccessorCreator@@QEAA@AEBVbCString@@@Z
??0bCAccessorCreator@@QEAA@PEAVbCObjectBase@@@Z
??0bCAccessorProperty@@QEAA@AEBV0@@Z
??0bCAccessorProperty@@QEAA@AEBVbCAccessorCreator@@@Z
??0bCAccessorProperty@@QEAA@AEBVbCAccessorCreator@@AEBVbCPropertyID@@@Z
??0bCAccessorProperty@@QEAA@AEBVbCAccessorCreator@@AEBVbCString@@@Z
??0bCAccessorProperty@@QEAA@AEBVbCAccessorPropertyObject@@@Z
??0bCAccessorProperty@@QEAA@PEBVbCObjectBase@@@Z
??0bCAccessorProperty@@QEAA@PEBVbCObjectBase@@AEBVbCString@@@Z
??0bCAccessorProperty@@QEAA@XZ
??0bCAccessorPropertyObject@@QEAA@AEBV0@@Z
??0bCAccessorPropertyObject@@QEAA@AEBVbCAccessorCreator@@@Z
??0bCAccessorPropertyObject@@QEAA@AEBVbCString@@@Z
??0bCAccessorPropertyObject@@QEAA@PEAVbCObjectBase@@@Z
??0bCAccessorPropertyObject@@QEAA@PEAVbCObjectRefBase@@@Z
??0bCAccessorPropertyObject@@QEAA@PEBVbCObjectBase@@@Z
??0bCAccessorPropertyObject@@QEAA@PEBVbCObjectRefBase@@@Z
??0bCAccessorPropertyObject@@QEAA@XZ
??0bCAxisAngle@@QEAA@AEBV0@@Z
??0bCAxisAngle@@QEAA@AEBVbCEulerAngles@@@Z
??0bCAxisAngle@@QEAA@AEBVbCQuaternion@@@Z
??0bCAxisAngle@@QEAA@AEBVbCVector@@M@Z
??0bCAxisAngle@@QEAA@XZ
??0bCBitField@@QEAA@AEBV0@@Z
??0bCBitField@@QEAA@H@Z
??0bCBox@@QEAA@AEBV0@@Z
??0bCBox@@QEAA@AEBVbCVector@@0@Z
??0bCBox@@QEAA@AEBVbCVector@@M@Z
??0bCBox@@QEAA@XZ
??0bCByteAlphaColor@@QEAA@AEBV0@@Z
??0bCByteAlphaColor@@QEAA@AEBVbCByteColor@@E@Z
??0bCByteAlphaColor@@QEAA@AEBVbCFloatAlphaColor@@@Z
??0bCByteAlphaColor@@QEAA@AEBVbCFloatColor@@E@Z
??0bCByteAlphaColor@@QEAA@AEBVbCFloatColorHSV@@E@Z
??0bCByteAlphaColor@@QEAA@EEEE@Z
??0bCByteAlphaColor@@QEAA@W4bEColor@bCColorBase@@@Z
??0bCByteAlphaColor@@QEAA@XZ
??0bCByteColor@@QEAA@AEBV0@@Z
??0bCByteColor@@QEAA@AEBVbCByteAlphaColor@@@Z
??0bCByteColor@@QEAA@AEBVbCFloatAlphaColor@@@Z
??0bCByteColor@@QEAA@AEBVbCFloatColor@@@Z
??0bCByteColor@@QEAA@AEBVbCFloatColorHSV@@@Z
??0bCByteColor@@QEAA@EEE@Z
??0bCByteColor@@QEAA@W4bEColor@bCColorBase@@@Z
??0bCByteColor@@QEAA@XZ
??0bCCapsule@@QEAA@AEBV0@@Z
??0bCCapsule@@QEAA@XZ
??0bCClock@@QEAA@AEBV0@@Z
??0bCClock@@QEAA@XZ
??0bCColorBase@@IEAA@XZ
??0bCColorBase@@QEAA@AEBV0@@Z
??0bCCommandLine@@QEAA@AEBV0@@Z
??0bCCommandLine@@QEAA@AEBVbCString@@@Z
??0bCCommandLine@@QEAA@XZ
??0bCCriticalSection@@QEAA@XZ
??0bCDateTime@@QEAA@AEBUtagUI_FILETIME@@@Z
??0bCDateTime@@QEAA@AEBV0@@Z
??0bCDateTime@@QEAA@XZ
??0bCDateTime@@QEAA@_K@Z
??0bCDialogHandle@bCEngineDialogs@@IEAA@XZ
??0bCEbertNoise@@IEAA@AEBV0@@Z
??0bCEbertNoise@@IEAA@XZ
??0bCEigenVector@@QEAA@J@Z
??0bCEngineDialogs@@QEAA@XZ
??0bCErrorAdmin@@IEAA@AEBV0@@Z
??0bCErrorAdmin@@IEAA@XZ
??0bCEulerAngles@@QEAA@AEBV0@@Z
??0bCEulerAngles@@QEAA@AEBVbCAxisAngle@@@Z
??0bCEulerAngles@@QEAA@AEBVbCQuaternion@@@Z
??0bCEulerAngles@@QEAA@AEBVbCVector@@@Z
??0bCEulerAngles@@QEAA@MMM@Z
??0bCEulerAngles@@QEAA@XZ
??0bCEvent@@QEAA@AEBV0@@Z
??0bCEvent@@QEAA@XZ
??0bCFPUAdmin@@IEAA@AEBV0@@Z
??0bCFPUAdmin@@IEAA@XZ
??0bCFile@@QEAA@AEBV0@@Z
??0bCFile@@QEAA@XZ
??0bCFileSystem@@QEAA@AEBV0@@Z
??0bCFileSystem@@QEAA@XZ
??0bCFlexibleVertexFormat@@QEAA@AEBV0@@Z
??0bCFlexibleVertexFormat@@QEAA@K@Z
??0bCFlexibleVertexPtr@@QEAA@AEBV0@@Z
??0bCFlexibleVertexPtr@@QEAA@XZ
??0bCFloatAlphaColor@@QEAA@AEBV0@@Z
??0bCFloatAlphaColor@@QEAA@AEBVbCByteAlphaColor@@@Z
??0bCFloatAlphaColor@@QEAA@AEBVbCByteColor@@M@Z
??0bCFloatAlphaColor@@QEAA@AEBVbCFloatColor@@M@Z
??0bCFloatAlphaColor@@QEAA@AEBVbCFloatColorHSV@@M@Z
??0bCFloatAlphaColor@@QEAA@AEBVbCVector4@@@Z
??0bCFloatAlphaColor@@QEAA@MMMM@Z
??0bCFloatAlphaColor@@QEAA@W4bEColor@bCColorBase@@@Z
??0bCFloatAlphaColor@@QEAA@XZ
??0bCFloatColor@@QEAA@AEBV0@@Z
??0bCFloatColor@@QEAA@AEBVbCByteAlphaColor@@@Z
??0bCFloatColor@@QEAA@AEBVbCByteColor@@@Z
??0bCFloatColor@@QEAA@AEBVbCFloatAlphaColor@@@Z
??0bCFloatColor@@QEAA@AEBVbCFloatColorHSV@@@Z
??0bCFloatColor@@QEAA@MMM@Z
??0bCFloatColor@@QEAA@W4bEColor@bCColorBase@@@Z
??0bCFloatColor@@QEAA@XZ
??0bCFloatColorHSV@@QEAA@AEBV0@@Z
??0bCFloatColorHSV@@QEAA@AEBVbCByteAlphaColor@@@Z
??0bCFloatColorHSV@@QEAA@AEBVbCByteColor@@@Z
??0bCFloatColorHSV@@QEAA@AEBVbCFloatAlphaColor@@@Z
??0bCFloatColorHSV@@QEAA@AEBVbCFloatColor@@@Z
??0bCFloatColorHSV@@QEAA@MMM@Z
??0bCFloatColorHSV@@QEAA@W4bEColor@bCColorBase@@@Z
??0bCFloatColorHSV@@QEAA@XZ
??0bCFrustum@@QEAA@AEBV0@@Z
??0bCFrustum@@QEAA@AEBVbCBox@@@Z
??0bCFrustum@@QEAA@XZ
??0bCGCMem@@QEAA@XZ
??0bCGCMemGeneration@@QEAA@AEBV0@@Z
??0bCGCMemGeneration@@QEAA@G@Z
??0bCGuid@@QEAA@AEBU_GUID@@@Z
??0bCGuid@@QEAA@AEBV0@@Z
??0bCGuid@@QEAA@AEBVbCString@@@Z
??0bCGuid@@QEAA@PEBU_GUID@@@Z
??0bCGuid@@QEAA@XZ
??0bCIOStream@@QEAA@AEBV0@@Z
??0bCIOStream@@QEAA@XZ
??0bCIStream@@QEAA@AEBV0@@Z
??0bCIStream@@QEAA@XZ
??0bCInfCylinder@@QEAA@AEBV0@@Z
??0bCInfCylinder@@QEAA@AEBVbCVector@@M@Z
??0bCInfCylinder@@QEAA@XZ
??0bCInfDoubleCylinder@@QEAA@AEBV0@@Z
??0bCInfDoubleCylinder@@QEAA@AEBVbCVector@@M0M@Z
??0bCInfDoubleCylinder@@QEAA@XZ
??0bCLine@@QEAA@AEBV0@@Z
??0bCLine@@QEAA@XZ
??0bCLockSystem@@QEAA@AEAVbCCriticalSection@@@Z
??0bCMatrix2@@QEAA@AEBV0@@Z
??0bCMatrix2@@QEAA@M@Z
??0bCMatrix2@@QEAA@QEAY01$$CBM@Z
??0bCMatrix2@@QEAA@QEBM@Z
??0bCMatrix2@@QEAA@QEBVbCVector2@@@Z
??0bCMatrix2@@QEAA@XZ
??0bCMatrix3@@QEAA@AEAVbCQuaternion@@@Z
??0bCMatrix3@@QEAA@AEBV0@@Z
??0bCMatrix3@@QEAA@AEBVbCMatrix@@@Z
??0bCMatrix3@@QEAA@AEBVbCQuaternion@@@Z
??0bCMatrix3@@QEAA@M@Z
??0bCMatrix3@@QEAA@QEAY02$$CBM@Z
??0bCMatrix3@@QEAA@QEBM@Z
??0bCMatrix3@@QEAA@QEBVbCVector@@@Z
??0bCMatrix3@@QEAA@XZ
??0bCMatrix@@QEAA@AEBV0@@Z
??0bCMatrix@@QEAA@AEBVbCAxisAngle@@AEBVbCVector@@@Z
??0bCMatrix@@QEAA@AEBVbCEulerAngles@@AEBVbCVector@@@Z
??0bCMatrix@@QEAA@AEBVbCQuaternion@@AEBVbCVector@@@Z
??0bCMatrix@@QEAA@M@Z
??0bCMatrix@@QEAA@QEAY03$$CBM@Z
??0bCMatrix@@QEAA@QEBM@Z
??0bCMatrix@@QEAA@QEBVbCVector4@@@Z
??0bCMatrix@@QEAA@QEBVbCVector@@@Z
??0bCMatrix@@QEAA@XZ
??0bCMd5@@QEAA@XZ
??0bCMemPool@@QEAA@XZ
??0bCMemoryAdmin@@QEAA@XZ
??0bCMemoryAdmin@@QEAA@_N@Z
??0bCMemoryGuard@@QEAA@W4bEMemorySubSystem@@@Z
??0bCMemoryStream@@QEAA@AEBV0@@Z
??0bCMemoryStream@@QEAA@XZ
??0bCMemorySubSystemStack@@QEAA@XZ
??0bCMersenneTwister@@AEAA@AEBV0@@Z
??0bCMersenneTwister@@AEAA@XZ
??0bCMessageAdmin@@QEAA@XZ
??0bCNoise@@IEAA@AEBV0@@Z
??0bCNoise@@IEAA@XZ
??0bCNullStream@@QEAA@AEBV0@@Z
??0bCNullStream@@QEAA@XZ
??0bCOStream@@QEAA@AEBV0@@Z
??0bCOStream@@QEAA@XZ
??0bCObjectBase@@QEAA@AEBV0@@Z
??0bCObjectBase@@QEAA@XZ
??0bCObjectBase@@QEAA@_N@Z
??0bCObjectRefBase@@QEAA@AEBV0@@Z
??0bCObjectRefBase@@QEAA@XZ
??0bCOctTree@@QEAA@AEBVbCBox@@@Z
??0bCOrientedBox@@QEAA@AEBV0@@Z
??0bCOrientedBox@@QEAA@AEBVbCBox@@AEBVbCMatrix3@@@Z
??0bCOrientedBox@@QEAA@XZ
??0bCPOStream@@QEAA@AEBV0@@Z
??0bCPOStream@@QEAA@XZ
??0bCPeacheyNoise@@IEAA@AEBV0@@Z
??0bCPeacheyNoise@@IEAA@XZ
??0bCPerlinNoise@@IEAA@AEBV0@@Z
??0bCPerlinNoise@@IEAA@XZ
??0bCPlane@@QEAA@AEBV0@@Z
??0bCPlane@@QEAA@AEBVbCVector@@00@Z
??0bCPlane@@QEAA@AEBVbCVector@@0@Z
??0bCPlane@@QEAA@MMMM@Z
??0bCPlane@@QEAA@XZ
??0bCPoint@@QEAA@AEBUtagPOINT@@@Z
??0bCPoint@@QEAA@AEBV0@@Z
??0bCPoint@@QEAA@JJ@Z
??0bCPoint@@QEAA@XZ
??0bCProfileNode@@QEAA@AEBV0@@Z
??0bCProfileNode@@QEAA@PEBDPEAV0@_N@Z
??0bCPropertyConverter@@QEAA@AEBV0@@Z
??0bCPropertyConverter@@QEAA@XZ
??0bCPropertyConverterPtr@@QEAA@AEBV0@@Z
??0bCPropertyConverterPtr@@QEAA@XZ
??0bCPropertyID@@QEAA@AEBV0@@Z
??0bCPropertyID@@QEAA@AEBVbCGuid@@@Z
??0bCPropertyID@@QEAA@XZ
??0bCPropertyObjectTypeBase@@QEAA@PEBD00PEAV0@P6APEAVbCObjectBase@@XZP6AXAEAV0@@ZK@Z
??0bCPropertyTypeBase@@AEAA@AEBV0@@Z
??0bCPropertyTypeBase@@AEAA@XZ
??0bCPropertyTypeBase@@IEAA@AEBVbCString@@00W4bEPropertyType@@H@Z
??0bCPropertyTypeBase@@IEAA@AEBVbCString@@0W4bEPropertyType@@H@Z
??0bCPropertyTypeBase@@IEAA@AEBVbCString@@W4bEPropertyType@@@Z
??0bCQuaternion@@QEAA@AEBV0@@Z
??0bCQuaternion@@QEAA@AEBVbCAxisAngle@@@Z
??0bCQuaternion@@QEAA@AEBVbCEulerAngles@@@Z
??0bCQuaternion@@QEAA@AEBVbCMatrix3@@@Z
??0bCQuaternion@@QEAA@AEBVbCMatrix@@@Z
??0bCQuaternion@@QEAA@AEBVbCSphericalRotation@@@Z
??0bCQuaternion@@QEAA@MMMM@Z
??0bCQuaternion@@QEAA@XZ
??0bCRandom@@IEAA@AEBV0@@Z
??0bCRandom@@IEAA@XZ
??0bCRange2@@QEAA@$$QEAV0@@Z
??0bCRange2@@QEAA@AEBV0@@Z
??0bCRange2@@QEAA@XZ
??0bCRange3@@QEAA@$$QEAV0@@Z
??0bCRange3@@QEAA@AEBV0@@Z
??0bCRange3@@QEAA@XZ
??0bCRange4@@QEAA@$$QEAV0@@Z
??0bCRange4@@QEAA@AEBV0@@Z
??0bCRange4@@QEAA@XZ
??0bCRay@@QEAA@AEBV0@@Z
??0bCRay@@QEAA@AEBVbCVector@@0@Z
??0bCRay@@QEAA@PEBV0@@Z
??0bCRay@@QEAA@XZ
??0bCRect@@QEAA@AEBUtagRECT@@@Z
??0bCRect@@QEAA@AEBV0@@Z
??0bCRect@@QEAA@AEBVbCPoint@@0@Z
??0bCRect@@QEAA@JJJJ@Z
??0bCRect@@QEAA@XZ
??0bCSphere@@QEAA@AEBV0@@Z
??0bCSphere@@QEAA@AEBVbCVector@@M@Z
??0bCSphere@@QEAA@XZ
??0bCSphericalRotation@@QEAA@XZ
??0bCStretch@@QEAA@AEBV0@@Z
??0bCStretch@@QEAA@XZ
??0bCString@@QEAA@AEBV0@@Z
??0bCString@@QEAA@AEBV0@H@Z
??0bCString@@QEAA@AEBVbCUnicodeString@@@Z
??0bCString@@QEAA@DH@Z
??0bCString@@QEAA@MH@Z
??0bCString@@QEAA@PEBD@Z
??0bCString@@QEAA@PEBDH@Z
??0bCString@@QEAA@XZ
??0bCThread@@QEAA@AEBV0@@Z
??0bCThread@@QEAA@XZ
??0bCThreadEx@@QEAA@XZ
??0bCThreadObjectRefBase@@QEAA@XZ
??0bCTimer@@QEAA@AEBV0@@Z
??0bCTimer@@QEAA@XZ
??0bCTrackBitField@@QEAA@AEBV0@@Z
??0bCTrackBitField@@QEAA@H@Z
??0bCTriangle@@QEAA@AEBV0@@Z
??0bCTriangle@@QEAA@AEBVbCVector@@00@Z
??0bCTriangle@@QEAA@QEAVbCVector@@@Z
??0bCTriangle@@QEAA@XZ
??0bCUnicodeString@@QEAA@AEBV0@@Z
??0bCUnicodeString@@QEAA@AEBV0@H@Z
??0bCUnicodeString@@QEAA@H@Z
??0bCUnicodeString@@QEAA@J@Z
??0bCUnicodeString@@QEAA@K@Z
??0bCUnicodeString@@QEAA@MH@Z
??0bCUnicodeString@@QEAA@PEBD@Z
??0bCUnicodeString@@QEAA@PEBDH@Z
??0bCUnicodeString@@QEAA@PEB_W@Z
??0bCUnicodeString@@QEAA@PEB_WH@Z
??0bCUnicodeString@@QEAA@XZ
??0bCUnicodeString@@QEAA@_WH@Z
??0bCUnitedRay@@QEAA@AEBV0@@Z
??0bCUnitedRay@@QEAA@AEBVbCLine@@@Z
??0bCUnitedRay@@QEAA@AEBVbCRay@@@Z
??0bCUnitedRay@@QEAA@AEBVbCStretch@@@Z
??0bCUnitedRay@@QEAA@XZ
??0bCValidateMemory@@IEAA@XZ
??0bCValidateMemory@@IEAA@_N000@Z
??0bCVariant@@QEAA@AEBC@Z
??0bCVariant@@QEAA@AEBE@Z
??0bCVariant@@QEAA@AEBF@Z
??0bCVariant@@QEAA@AEBG@Z
??0bCVariant@@QEAA@AEBH@Z
??0bCVariant@@QEAA@AEBJ@Z
??0bCVariant@@QEAA@AEBK@Z
??0bCVariant@@QEAA@AEBM@Z
??0bCVariant@@QEAA@AEBN@Z
??0bCVariant@@QEAA@AEBQEAD@Z
??0bCVariant@@QEAA@AEBQEAX@Z
??0bCVariant@@QEAA@AEBV0@@Z
??0bCVariant@@QEAA@AEB_J@Z
??0bCVariant@@QEAA@AEB_K@Z
??0bCVariant@@QEAA@AEB_N@Z
??0bCVariant@@QEAA@XZ
??0bCVector2@@QEAA@AEBV0@@Z
??0bCVector2@@QEAA@M@Z
??0bCVector2@@QEAA@MM@Z
??0bCVector2@@QEAA@QEBM@Z
??0bCVector2@@QEAA@XZ
??0bCVector4@@QEAA@AEBV0@@Z
??0bCVector4@@QEAA@M@Z
??0bCVector4@@QEAA@MMMM@Z
??0bCVector4@@QEAA@QEBM@Z
??0bCVector4@@QEAA@XZ
??0bCVector@@QEAA@AEBV0@@Z
??0bCVector@@QEAA@AEBVNxVec3@@@Z
??0bCVector@@QEAA@M@Z
??0bCVector@@QEAA@MMM@Z
??0bCVector@@QEAA@QEBM@Z
??0bCVector@@QEAA@XZ
??0bCVolume@@QEAA@AEBV0@@Z
??0bCVolume@@QEAA@XZ
??0bCXMLParser@@QEAA@XZ
??0bCXMLParserNode@@QEAA@AEBV0@@Z
??0bCXMLParserNode@@QEAA@XZ
??0bCZoneRaster@@QEAA@AEBV0@@Z
??0bCZoneRaster@@QEAA@AEBV?$bTValArray@VbCVector@@@@@Z
??0bSThreadContext@bCThread@@QEAA@XZ
??1bCAccessorCreator@@QEAA@XZ
??1bCAccessorProperty@@QEAA@XZ
??1bCAccessorPropertyObject@@QEAA@XZ
??1bCAxisAngle@@QEAA@XZ
??1bCBitField@@QEAA@XZ
??1bCBox@@QEAA@XZ
??1bCByteAlphaColor@@QEAA@XZ
??1bCByteColor@@QEAA@XZ
??1bCCapsule@@QEAA@XZ
??1bCClock@@QEAA@XZ
??1bCColorBase@@IEAA@XZ
??1bCCommandLine@@QEAA@XZ
??1bCCriticalSection@@QEAA@XZ
??1bCDateTime@@QEAA@XZ
??1bCDialogHandle@bCEngineDialogs@@IEAA@XZ
??1bCEbertNoise@@UEAA@XZ
??1bCEigenVector@@QEAA@XZ
??1bCEngineDialogs@@QEAA@XZ
??1bCErrorAdmin@@QEAA@XZ
??1bCEulerAngles@@QEAA@XZ
??1bCEvent@@MEAA@XZ
??1bCFPUAdmin@@QEAA@XZ
??1bCFile@@UEAA@XZ
??1bCFileSystem@@UEAA@XZ
??1bCFlexibleVertexFormat@@QEAA@XZ
??1bCFlexibleVertexPtr@@QEAA@XZ
??1bCFloatAlphaColor@@QEAA@XZ
??1bCFloatColor@@QEAA@XZ
??1bCFloatColorHSV@@QEAA@XZ
??1bCFrustum@@QEAA@XZ
??1bCGCMem@@QEAA@XZ
??1bCGCMemGeneration@@QEAA@XZ
??1bCGuid@@QEAA@XZ
??1bCIOStream@@UEAA@XZ
??1bCIStream@@UEAA@XZ
??1bCInfCylinder@@QEAA@XZ
??1bCInfDoubleCylinder@@QEAA@XZ
??1bCLine@@QEAA@XZ
??1bCLockSystem@@QEAA@XZ
??1bCMatrix2@@QEAA@XZ
??1bCMatrix3@@QEAA@XZ
??1bCMatrix@@QEAA@XZ
??1bCMd5@@QEAA@XZ
??1bCMemPool@@QEAA@XZ
??1bCMemoryAdmin@@QEAA@XZ
??1bCMemoryGuard@@QEAA@XZ
??1bCMemoryStream@@UEAA@XZ
??1bCMemorySubSystemStack@@QEAA@XZ
??1bCMersenneTwister@@QEAA@XZ
??1bCMessageAdmin@@QEAA@XZ
??1bCNoise@@UEAA@XZ
??1bCNullStream@@UEAA@XZ
??1bCOStream@@UEAA@XZ
??1bCObjectBase@@UEAA@XZ
??1bCObjectRefBase@@MEAA@XZ
??1bCOctTree@@QEAA@XZ
??1bCOrientedBox@@QEAA@XZ
??1bCPOStream@@UEAA@XZ
??1bCPeacheyNoise@@UEAA@XZ
??1bCPerlinNoise@@UEAA@XZ
??1bCPlane@@QEAA@XZ
??1bCPoint@@QEAA@XZ
??1bCProfileNode@@QEAA@XZ
??1bCPropertyConverter@@UEAA@XZ
??1bCPropertyConverterPtr@@QEAA@XZ
??1bCPropertyID@@QEAA@XZ
??1bCPropertyObjectTypeBase@@QEAA@XZ
??1bCPropertyTypeBase@@UEAA@XZ
??1bCQuaternion@@QEAA@XZ
??1bCRandom@@QEAA@XZ
??1bCRange2@@QEAA@XZ
??1bCRange3@@QEAA@XZ
??1bCRange4@@QEAA@XZ
??1bCRay@@QEAA@XZ
??1bCRect@@QEAA@XZ
??1bCSphere@@QEAA@XZ
??1bCSphericalRotation@@QEAA@XZ
??1bCStretch@@QEAA@XZ
??1bCString@@QEAA@XZ
??1bCThread@@UEAA@XZ
??1bCThreadEx@@UEAA@XZ
??1bCThreadObjectRefBase@@UEAA@XZ
??1bCTimer@@QEAA@XZ
??1bCTrackBitField@@QEAA@XZ
??1bCTriangle@@QEAA@XZ
??1bCUnicodeString@@QEAA@XZ
??1bCUnitedRay@@QEAA@XZ
??1bCValidateMemory@@IEAA@XZ
??1bCVariant@@QEAA@XZ
??1bCVector2@@QEAA@XZ
??1bCVector4@@QEAA@XZ
??1bCVector@@QEAA@XZ
??1bCVolume@@UEAA@XZ
??1bCXMLParser@@QEAA@XZ
??1bCXMLParserNode@@UEAA@XZ
??1bCZoneRaster@@QEAA@XZ
??4bCAccessorCreator@@QEAAAEBV0@AEBV0@@Z
??4bCAccessorProperty@@QEAAAEBV0@AEBV0@@Z
??4bCAccessorPropertyObject@@QEAAAEBV0@AEBV0@@Z
??4bCAxisAngle@@QEAAAEAV0@AEBV0@@Z
??4bCAxisAngle@@QEAAAEAV0@AEBVbCEulerAngles@@@Z
??4bCAxisAngle@@QEAAAEAV0@AEBVbCQuaternion@@@Z
??4bCBitField@@QEAAAEAV0@AEBV0@@Z
??4bCBox@@QEAAAEAV0@AEBV0@@Z
??4bCByteAlphaColor@@QEAAAEAV0@AEBV0@@Z
??4bCByteColor@@QEAAAEAV0@AEBV0@@Z
??4bCCapsule@@QEAAAEBV0@AEBV0@@Z
??4bCClassNameBase@@QEAAAEAV0@$$QEAV0@@Z
??4bCClassNameBase@@QEAAAEAV0@AEBV0@@Z
??4bCClock@@QEAAAEAV0@AEBV0@@Z
??4bCColorBase@@QEAAAEAV0@AEBV0@@Z
??4bCCommandLine@@QEAAAEAV0@AEBV0@@Z
??4bCDateTime@@QEAAAEBV0@AEBUtagUI_FILETIME@@@Z
??4bCDateTime@@QEAAAEBV0@AEBV0@@Z
??4bCDialogHandle@bCEngineDialogs@@QEAAAEAV01@AEBV01@@Z
??4bCEbertNoise@@IEAAAEAV0@AEBV0@@Z
??4bCEigenVector@@QEAAAEAV0@AEBV0@@Z
??4bCEngineDialogs@@QEAAAEAV0@AEBV0@@Z
??4bCErrorAdmin@@IEAAAEBV0@AEBV0@@Z
??4bCEulerAngles@@QEAAAEAV0@AEBV0@@Z
??4bCEvent@@QEAAAEAV0@AEBV0@@Z
??4bCFPUAdmin@@IEAAAEBV0@AEBV0@@Z
??4bCFile@@QEAAAEAV0@AEBV0@@Z
??4bCFileSystem@@QEAAAEAV0@AEBV0@@Z
??4bCFlexibleVertexFormat@@QEAAAEAV0@AEBV0@@Z
??4bCFlexibleVertexPtr@@QEAAAEAV0@AEBV0@@Z
??4bCFloatAlphaColor@@QEAAAEAV0@AEBV0@@Z
??4bCFloatColor@@QEAAAEAV0@AEBV0@@Z
??4bCFloatColorHSV@@QEAAAEAV0@AEBV0@@Z
??4bCFrustum@@QEAAAEAV0@AEBV0@@Z
??4bCGCMemGeneration@@QEAAAEAV0@AEBV0@@Z
??4bCGuid@@QEAAAEAV0@AEBU_GUID@@@Z
??4bCGuid@@QEAAAEAV0@AEBV0@@Z
??4bCGuid@@QEAAAEAV0@AEBVbCString@@@Z
??4bCGuid@@QEAAAEAV0@PEBU_GUID@@@Z
??4bCIOStream@@QEAAAEAV0@AEBV0@@Z
??4bCIStream@@QEAAAEAV0@AEBV0@@Z
??4bCInfCylinder@@QEAAAEBV0@AEBV0@@Z
??4bCInfDoubleCylinder@@QEAAAEBV0@AEBV0@@Z
??4bCLine@@QEAAAEAV0@AEBV0@@Z
??4bCMatrix2@@QEAAAEAV0@AEBV0@@Z
??4bCMatrix3@@QEAAAEAV0@AEBV0@@Z
??4bCMatrix@@QEAAAEAV0@AEBV0@@Z
??4bCMemPool@@QEAAAEAV0@AEBV0@@Z
??4bCMemoryGuard@@QEAAAEAV0@AEBV0@@Z
??4bCMemoryStream@@QEAAAEAV0@AEBV0@@Z
??4bCMemorySubSystemStack@@QEAAAEAV0@AEBV0@@Z
??4bCMersenneTwister@@AEAAAEAV0@AEBV0@@Z
??4bCNoise@@IEAAAEAV0@AEBV0@@Z
??4bCNullStream@@QEAAAEAV0@AEBV0@@Z
??4bCOStream@@QEAAAEAV0@AEBV0@@Z
??4bCObjectBase@@QEAAAEBV0@AEBV0@@Z
??4bCObjectRefBase@@QEAAAEAV0@AEBV0@@Z
??4bCOctTree@@QEAAAEAV0@AEBV0@@Z
??4bCOrientedBox@@QEAAAEAV0@AEBV0@@Z
??4bCPOStream@@QEAAAEAV0@AEBV0@@Z
??4bCPeacheyNoise@@IEAAAEAV0@AEBV0@@Z
??4bCPerlinNoise@@IEAAAEAV0@AEBV0@@Z
??4bCPlane@@QEAAAEAV0@AEBV0@@Z
??4bCPoint@@QEAAAEBV0@AEBUtagPOINT@@@Z
??4bCPoint@@QEAAAEBV0@AEBV0@@Z
??4bCProfileManager@@QEAAAEAV0@$$QEAV0@@Z
??4bCProfileManager@@QEAAAEAV0@AEBV0@@Z
??4bCProfileNode@@QEAAAEAV0@AEBV0@@Z
??4bCPropertyConverter@@QEAAAEAV0@AEBV0@@Z
??4bCPropertyConverterPtr@@QEAAAEBV0@AEBV0@@Z
??4bCPropertyConverterPtr@@QEAAAEBV0@PEBVbCPropertyConverter@@@Z
??4bCPropertyID@@QEAAAEAV0@AEBV0@@Z
??4bCPropertyTypeBase@@IEAAAEBV0@AEBV0@@Z
??4bCQuaternion@@QEAAAEAV0@AEBV0@@Z
??4bCQuaternion@@QEAAAEAV0@AEBVbCAxisAngle@@@Z
??4bCQuaternion@@QEAAAEAV0@AEBVbCEulerAngles@@@Z
??4bCQuaternion@@QEAAAEAV0@AEBVbCMatrix3@@@Z
??4bCQuaternion@@QEAAAEAV0@AEBVbCMatrix@@@Z
??4bCQuaternion@@QEAAAEAV0@AEBVbCSphericalRotation@@@Z
??4bCRandom@@IEAAAEAV0@AEBV0@@Z
??4bCRange1@@QEAAAEAV0@$$QEAV0@@Z
??4bCRange1@@QEAAAEAV0@AEBV0@@Z
??4bCRange2@@QEAAAEAV0@$$QEAV0@@Z
??4bCRange2@@QEAAAEAV0@AEBV0@@Z
??4bCRange3@@QEAAAEAV0@$$QEAV0@@Z
??4bCRange3@@QEAAAEAV0@AEBV0@@Z
??4bCRange4@@QEAAAEAV0@$$QEAV0@@Z
??4bCRange4@@QEAAAEAV0@AEBV0@@Z
??4bCRay@@QEAAAEBV0@AEBV0@@Z
??4bCRect@@QEAAAEAV0@AEBUtagRECT@@@Z
??4bCRect@@QEAAAEAV0@AEBV0@@Z
??4bCSphere@@QEAAAEBV0@AEBV0@@Z
??4bCSphericalRotation@@QEAAAEAV0@AEBV0@@Z
??4bCStretch@@QEAAAEAV0@AEBV0@@Z
??4bCString@@QEAAAEAV0@AEBV0@@Z
??4bCString@@QEAAAEAV0@D@Z
??4bCString@@QEAAAEAV0@PEBD@Z
??4bCThread@@QEAAAEAV0@AEBV0@@Z
??4bCTimer@@QEAAAEAV0@AEBV0@@Z
??4bCTrackBitField@@QEAAAEAV0@AEBV0@@Z
??4bCTriangle@@QEAAAEAV0@AEBV0@@Z
??4bCUnicodeString@@QEAAAEAV0@AEBV0@@Z
??4bCUnicodeString@@QEAAAEAV0@PEBD@Z
??4bCUnicodeString@@QEAAAEAV0@PEB_W@Z
??4bCUnicodeString@@QEAAAEAV0@_W@Z
??4bCUnitedRay@@QEAAAEAV0@AEBV0@@Z
??4bCValidateMemory@@QEAAAEAV0@AEBV0@@Z
??4bCVariant@@QEAAAEBV0@AEBC@Z
??4bCVariant@@QEAAAEBV0@AEBE@Z
??4bCVariant@@QEAAAEBV0@AEBF@Z
??4bCVariant@@QEAAAEBV0@AEBG@Z
??4bCVariant@@QEAAAEBV0@AEBH@Z
??4bCVariant@@QEAAAEBV0@AEBJ@Z
??4bCVariant@@QEAAAEBV0@AEBK@Z
??4bCVariant@@QEAAAEBV0@AEBM@Z
??4bCVariant@@QEAAAEBV0@AEBN@Z
??4bCVariant@@QEAAAEBV0@AEBQEAD@Z
??4bCVariant@@QEAAAEBV0@AEBQEAX@Z
??4bCVariant@@QEAAAEBV0@AEBV0@@Z
??4bCVariant@@QEAAAEBV0@AEB_J@Z
??4bCVariant@@QEAAAEBV0@AEB_K@Z
??4bCVariant@@QEAAAEBV0@AEB_N@Z
??4bCVector2@@QEAAAEAV0@AEBV0@@Z
??4bCVector4@@QEAAAEAV0@AEBV0@@Z
??4bCVector@@QEAAAEAV0@AEBV0@@Z
??4bCVolume@@QEAAAEAV0@AEBV0@@Z
??4bCXMLParser@@QEAAAEAV0@AEBV0@@Z
??4bCXMLParserNode@@QEAAAEAV0@AEBV0@@Z
??4bCZoneRaster@@QEAAAEAV0@AEBV0@@Z
??4bSThreadContext@bCThread@@QEAAAEAU01@$$QEAU01@@Z
??4bSThreadContext@bCThread@@QEAAAEAU01@AEBU01@@Z
??5@YAAEAVbCIStream@@AEAV0@AEAVbCAccessorPropertyObject@@@Z
??5@YAAEAVbCIStream@@AEAV0@AEAVbCObjectBase@@@Z
??5@YAAEAVbCIStream@@AEAV0@AEAVbCPropertyID@@@Z
??5@YAAEAVbCOStream@@AEBVbCDateTime@@AEAV0@@Z
??5@YAAEAVbCOStream@@AEBVbCGuid@@AEAV0@@Z
??5@YAAEAVbCOStream@@AEBVbCString@@AEAV0@@Z
??5@YAAEAVbCOStream@@AEBVbCUnicodeString@@AEAV0@@Z
??5@YAAEAVbCOStream@@AEBVbCVariant@@AEAV0@@Z
??5@YAAEAVbCOStream@@CAEAV0@@Z
??5@YAAEAVbCOStream@@DAEAV0@@Z
??5@YAAEAVbCOStream@@EAEAV0@@Z
??5@YAAEAVbCOStream@@FAEAV0@@Z
??5@YAAEAVbCOStream@@GAEAV0@@Z
??5@YAAEAVbCOStream@@HAEAV0@@Z
??5@YAAEAVbCOStream@@IAEAV0@@Z
??5@YAAEAVbCOStream@@JAEAV0@@Z
??5@YAAEAVbCOStream@@KAEAV0@@Z
??5@YAAEAVbCOStream@@MAEAV0@@Z
??5@YAAEAVbCOStream@@NAEAV0@@Z
??5@YAAEAVbCOStream@@_JAEAV0@@Z
??5@YAAEAVbCOStream@@_KAEAV0@@Z
??5@YAAEAVbCOStream@@_NAEAV0@@Z
??5bCAccessorPropertyObject@@QEAAAEAVbCOStream@@AEAV1@@Z
??5bCAxisAngle@@QEBAAEAVbCOStream@@AEAV1@@Z
??5bCBitField@@QEBAAEAVbCOStream@@AEAV1@@Z
??5bCBitField@@QEBAAEBV0@J@Z
??5bCBox@@QEBAAEAVbCOStream@@AEAV1@@Z
??5bCByteAlphaColor@@UEBAAEAVbCOStream@@AEAV1@@Z
??5bCByteColor@@UEBAAEAVbCOStream@@AEAV1@@Z
??5bCCapsule@@QEBAAEAVbCOStream@@AEAV1@@Z
??5bCCommandLine@@QEAAAEAVbCOStream@@AEAV1@@Z
??5bCEbertNoise@@IEBAAEAVbCOStream@@AEAV1@@Z
??5bCEulerAngles@@QEBAAEAVbCOStream@@AEAV1@@Z
??5bCFloatAlphaColor@@UEBAAEAVbCOStream@@AEAV1@@Z
??5bCFloatColor@@UEBAAEAVbCOStream@@AEAV1@@Z
??5bCFloatColorHSV@@UEBAAEAVbCOStream@@AEAV1@@Z
??5bCFrustum@@QEBAAEAVbCOStream@@AEAV1@@Z
??5bCIStream@@QEAAAEAV0@AEAC@Z
??5bCIStream@@QEAAAEAV0@AEAD@Z
??5bCIStream@@QEAAAEAV0@AEAE@Z
??5bCIStream@@QEAAAEAV0@AEAF@Z
??5bCIStream@@QEAAAEAV0@AEAG@Z
??5bCIStream@@QEAAAEAV0@AEAH@Z
??5bCIStream@@QEAAAEAV0@AEAI@Z
??5bCIStream@@QEAAAEAV0@AEAJ@Z
??5bCIStream@@QEAAAEAV0@AEAK@Z
??5bCIStream@@QEAAAEAV0@AEAM@Z
??5bCIStream@@QEAAAEAV0@AEAN@Z
??5bCIStream@@QEAAAEAV0@AEAVbCDateTime@@@Z
??5bCIStream@@QEAAAEAV0@AEAVbCGuid@@@Z
??5bCIStream@@QEAAAEAV0@AEAVbCString@@@Z
??5bCIStream@@QEAAAEAV0@AEAVbCUnicodeString@@@Z
??5bCIStream@@QEAAAEAV0@AEAVbCVariant@@@Z
??5bCIStream@@QEAAAEAV0@AEA_J@Z
??5bCIStream@@QEAAAEAV0@AEA_K@Z
??5bCIStream@@QEAAAEAV0@AEA_N@Z
??5bCInfCylinder@@QEBAAEAVbCOStream@@AEAV1@@Z
??5bCInfDoubleCylinder@@QEBAAEAVbCOStream@@AEAV1@@Z
??5bCLine@@QEBAAEAVbCOStream@@AEAV1@@Z
??5bCMatrix2@@QEBAAEAVbCOStream@@AEAV1@@Z
??5bCMatrix3@@QEBAAEAVbCOStream@@AEAV1@@Z
??5bCMatrix@@QEBAAEAVbCOStream@@AEAV1@@Z
??5bCObjectBase@@QEAAAEAVbCOStream@@AEAV1@@Z
??5bCOrientedBox@@QEBAAEAVbCOStream@@AEAV1@@Z
??5bCPeacheyNoise@@IEBAAEAVbCOStream@@AEAV1@@Z
??5bCPerlinNoise@@IEBAAEAVbCOStream@@AEAV1@@Z
??5bCPlane@@QEBAAEAVbCOStream@@AEAV1@@Z
??5bCPoint@@QEBAAEAVbCOStream@@AEAV1@@Z
??5bCPropertyID@@QEBAAEAVbCOStream@@AEAV1@@Z
??5bCPropertyTypeBase@@QEAAAEAVbCOStream@@AEAV1@@Z
??5bCQuaternion@@QEBAAEAVbCOStream@@AEAV1@@Z
??5bCRange1@@QEBAAEAVbCOStream@@AEAV1@@Z
??5bCRange2@@QEBAAEAVbCOStream@@AEAV1@@Z
??5bCRange3@@QEBAAEAVbCOStream@@AEAV1@@Z
??5bCRange4@@QEBAAEAVbCOStream@@AEAV1@@Z
??5bCRay@@QEBAAEAVbCOStream@@AEAV1@@Z
??5bCRect@@QEBAAEAVbCOStream@@AEAV1@@Z
??5bCSphere@@QEBAAEAVbCOStream@@AEAV1@@Z
??5bCSphericalRotation@@QEBAAEAVbCOStream@@AEAV1@@Z
??5bCStretch@@QEBAAEAVbCOStream@@AEAV1@@Z
??5bCTrackBitField@@QEBAAEAVbCOStream@@AEAV1@@Z
??5bCTrackBitField@@QEBAAEBV0@J@Z
??5bCTriangle@@QEBAAEAVbCOStream@@AEAV1@@Z
??5bCUnitedRay@@QEBAAEAVbCOStream@@AEAV1@@Z
??5bCVector2@@QEBAAEAVbCOStream@@AEAV1@@Z
??5bCVector4@@QEBAAEAVbCOStream@@AEAV1@@Z
??5bCVector@@QEBAAEAVbCOStream@@AEAV1@@Z
??6@YAAEAVbCIStream@@AEACAEAV0@@Z
??6@YAAEAVbCIStream@@AEADAEAV0@@Z
??6@YAAEAVbCIStream@@AEAEAEAV0@@Z
??6@YAAEAVbCIStream@@AEAFAEAV0@@Z
??6@YAAEAVbCIStream@@AEAGAEAV0@@Z
??6@YAAEAVbCIStream@@AEAHAEAV0@@Z
??6@YAAEAVbCIStream@@AEAIAEAV0@@Z
??6@YAAEAVbCIStream@@AEAJAEAV0@@Z
??6@YAAEAVbCIStream@@AEAKAEAV0@@Z
??6@YAAEAVbCIStream@@AEAMAEAV0@@Z
??6@YAAEAVbCIStream@@AEANAEAV0@@Z
??6@YAAEAVbCIStream@@AEAVbCDateTime@@AEAV0@@Z
??6@YAAEAVbCIStream@@AEAVbCGuid@@AEAV0@@Z
??6@YAAEAVbCIStream@@AEAVbCString@@AEAV0@@Z
??6@YAAEAVbCIStream@@AEAVbCUnicodeString@@AEAV0@@Z
??6@YAAEAVbCIStream@@AEAVbCVariant@@AEAV0@@Z
??6@YAAEAVbCIStream@@AEA_JAEAV0@@Z
??6@YAAEAVbCIStream@@AEA_KAEAV0@@Z
??6@YAAEAVbCIStream@@AEA_NAEAV0@@Z
??6@YAAEAVbCOStream@@AEAV0@AEAVbCAccessorPropertyObject@@@Z
??6@YAAEAVbCOStream@@AEAV0@AEAVbCObjectBase@@@Z
??6@YAAEAVbCOStream@@AEAV0@AEBVbCPropertyID@@@Z
??6bCAccessorPropertyObject@@QEAAAEAVbCIStream@@AEAV1@@Z
??6bCAxisAngle@@QEAAAEAVbCIStream@@AEAV1@@Z
??6bCBitField@@QEAAAEAVbCIStream@@AEAV1@@Z
??6bCBitField@@QEBAAEBV0@J@Z
??6bCBox@@QEAAAEAVbCIStream@@AEAV1@@Z
??6bCByteAlphaColor@@UEAAAEAVbCIStream@@AEAV1@@Z
??6bCByteColor@@UEAAAEAVbCIStream@@AEAV1@@Z
??6bCCapsule@@QEAAAEAVbCIStream@@AEAV1@@Z
??6bCCommandLine@@QEAAAEAVbCIStream@@AEAV1@@Z
??6bCEbertNoise@@IEAAAEAVbCIStream@@AEAV1@@Z
??6bCEulerAngles@@QEAAAEAVbCIStream@@AEAV1@@Z
??6bCFloatAlphaColor@@UEAAAEAVbCIStream@@AEAV1@@Z
??6bCFloatColor@@UEAAAEAVbCIStream@@AEAV1@@Z
??6bCFloatColorHSV@@UEAAAEAVbCIStream@@AEAV1@@Z
??6bCFrustum@@QEAAAEAVbCIStream@@AEAV1@@Z
??6bCInfCylinder@@QEAAAEAVbCIStream@@AEAV1@@Z
??6bCInfDoubleCylinder@@QEAAAEAVbCIStream@@AEAV1@@Z
??6bCLine@@QEAAAEAVbCIStream@@AEAV1@@Z
??6bCMatrix2@@QEAAAEAVbCIStream@@AEAV1@@Z
??6bCMatrix3@@QEAAAEAVbCIStream@@AEAV1@@Z
??6bCMatrix@@QEAAAEAVbCIStream@@AEAV1@@Z
??6bCOStream@@QEAAAEAV0@AEBVbCDateTime@@@Z
??6bCOStream@@QEAAAEAV0@AEBVbCGuid@@@Z
??6bCOStream@@QEAAAEAV0@AEBVbCString@@@Z
??6bCOStream@@QEAAAEAV0@AEBVbCUnicodeString@@@Z
??6bCOStream@@QEAAAEAV0@AEBVbCVariant@@@Z
??6bCOStream@@QEAAAEAV0@C@Z
??6bCOStream@@QEAAAEAV0@D@Z
??6bCOStream@@QEAAAEAV0@E@Z
??6bCOStream@@QEAAAEAV0@F@Z
??6bCOStream@@QEAAAEAV0@G@Z
??6bCOStream@@QEAAAEAV0@H@Z
??6bCOStream@@QEAAAEAV0@I@Z
??6bCOStream@@QEAAAEAV0@J@Z
??6bCOStream@@QEAAAEAV0@K@Z
??6bCOStream@@QEAAAEAV0@M@Z
??6bCOStream@@QEAAAEAV0@N@Z
??6bCOStream@@QEAAAEAV0@_J@Z
??6bCOStream@@QEAAAEAV0@_K@Z
??6bCOStream@@QEAAAEAV0@_N@Z
??6bCObjectBase@@QEAAAEAVbCIStream@@AEAV1@@Z
??6bCOrientedBox@@QEAAAEAVbCIStream@@AEAV1@@Z
??6bCPeacheyNoise@@IEAAAEAVbCIStream@@AEAV1@@Z
??6bCPerlinNoise@@IEAAAEAVbCIStream@@AEAV1@@Z
??6bCPlane@@QEAAAEAVbCIStream@@AEAV1@@Z
??6bCPoint@@QEAAAEAVbCIStream@@AEAV1@@Z
??6bCPropertyID@@QEAAAEAVbCIStream@@AEAV1@@Z
??6bCPropertyTypeBase@@QEAAAEAVbCIStream@@AEAV1@@Z
??6bCQuaternion@@QEAAAEAVbCIStream@@AEAV1@@Z
??6bCRange1@@QEAAAEAVbCIStream@@AEAV1@@Z
??6bCRange2@@QEAAAEAVbCIStream@@AEAV1@@Z
??6bCRange3@@QEAAAEAVbCIStream@@AEAV1@@Z
??6bCRange4@@QEAAAEAVbCIStream@@AEAV1@@Z
??6bCRay@@QEAAAEAVbCIStream@@AEAV1@@Z
??6bCRect@@QEAAAEAVbCIStream@@AEAV1@@Z
??6bCSphere@@QEAAAEAVbCIStream@@AEAV1@@Z
??6bCSphericalRotation@@QEAAAEAVbCIStream@@AEAV1@@Z
??6bCStretch@@QEAAAEAVbCIStream@@AEAV1@@Z
??6bCTrackBitField@@QEAAAEAVbCIStream@@AEAV1@@Z
??6bCTrackBitField@@QEBAAEBV0@J@Z
??6bCTriangle@@QEAAAEAVbCIStream@@AEAV1@@Z
??6bCUnitedRay@@QEAAAEAVbCIStream@@AEAV1@@Z
??6bCVector2@@QEAAAEAVbCIStream@@AEAV1@@Z
??6bCVector4@@QEAAAEAVbCIStream@@AEAV1@@Z
??6bCVector@@QEAAAEAVbCIStream@@AEAV1@@Z
??8@YA_NPEBDAEBVbCString@@@Z
??8@YA_NPEB_WAEBVbCUnicodeString@@@Z
??8bCAccessorProperty@@QEBA_NAEBV0@@Z
??8bCAccessorPropertyObject@@QEBA_NAEBV0@@Z
??8bCAxisAngle@@QEBA_NAEBV0@@Z
??8bCBitField@@QEBA_NAEBV0@@Z
??8bCBox@@QEBA_NAEBV0@@Z
??8bCByteAlphaColor@@QEBA_NAEBV0@@Z
??8bCByteColor@@QEBA_NAEBV0@@Z
??8bCCapsule@@QEBA_NAEBV0@@Z
??8bCDateTime@@QEBA_NAEBV0@@Z
??8bCEulerAngles@@QEBA_NAEBV0@@Z
??8bCFlexibleVertexFormat@@QEBA_NAEBV0@@Z
??8bCFlexibleVertexPtr@@QEBA_NAEBV0@@Z
??8bCFloatAlphaColor@@QEBA_NAEBV0@@Z
??8bCFloatColor@@QEBA_NAEBV0@@Z
??8bCFloatColorHSV@@QEBA_NAEBV0@@Z
??8bCGuid@@QEBA_NAEBV0@@Z
??8bCInfCylinder@@QEBA_NAEBV0@@Z
??8bCInfDoubleCylinder@@QEBA_NAEBV0@@Z
??8bCMatrix2@@QEBA_NAEBV0@@Z
??8bCMatrix3@@QEBA_NAEBV0@@Z
??8bCMatrix@@QEBA_NAEBV0@@Z
??8bCOrientedBox@@QEBA_NAEBV0@@Z
??8bCPoint@@QEBA_NAEBV0@@Z
??8bCPropertyID@@QEBA_NAEBV0@@Z
??8bCQuaternion@@QEBA_NAEBV0@@Z
??8bCRange1@@QEBA_NAEBV0@@Z
??8bCRange2@@QEBA_NAEBV0@@Z
??8bCRange3@@QEBA_NAEBV0@@Z
??8bCRect@@QEBA_NAEBV0@@Z
??8bCSphere@@QEBA_NAEBV0@@Z
??8bCString@@QEBA_NAEBV0@@Z
??8bCString@@QEBA_NPEBD@Z
??8bCTrackBitField@@QEBA_NAEBV0@@Z
??8bCUnicodeString@@QEBA_NAEBV0@@Z
??8bCUnicodeString@@QEBA_NPEB_W@Z
??8bCVector2@@QEBA_NAEBV0@@Z
??8bCVector4@@QEBA_NAEBV0@@Z
??8bCVector@@QEBA_NAEBV0@@Z
??9@YA_NPEBDAEBVbCString@@@Z
??9@YA_NPEB_WAEBVbCUnicodeString@@@Z
??9bCAccessorProperty@@QEBA_NAEBV0@@Z
??9bCAccessorPropertyObject@@QEBA_NAEBV0@@Z
??9bCAxisAngle@@QEBA_NAEBV0@@Z
??9bCBitField@@QEBA_NAEBV0@@Z
??9bCBox@@QEBA_NAEBV0@@Z
??9bCByteAlphaColor@@QEBA_NAEBV0@@Z
??9bCByteColor@@QEBA_NAEBV0@@Z
??9bCCapsule@@QEBA_NAEBV0@@Z
??9bCDateTime@@QEBA_NAEBV0@@Z
??9bCEulerAngles@@QEBA_NAEBV0@@Z
??9bCFlexibleVertexFormat@@QEBA_NAEBV0@@Z
??9bCFlexibleVertexPtr@@QEBA_NAEBV0@@Z
??9bCFloatAlphaColor@@QEBA_NAEBV0@@Z
??9bCFloatColor@@QEBA_NAEBV0@@Z
??9bCFloatColorHSV@@QEBA_NAEBV0@@Z
??9bCGuid@@QEBA_NAEBV0@@Z
??9bCInfCylinder@@QEBA_NAEBV0@@Z
??9bCInfDoubleCylinder@@QEBA_NAEBV0@@Z
??9bCMatrix2@@QEBA_NAEBV0@@Z
??9bCMatrix3@@QEBA_NAEBV0@@Z
??9bCMatrix@@QEBA_NAEBV0@@Z
??9bCOrientedBox@@QEBA_NAEBV0@@Z
??9bCPoint@@QEBA_NAEBV0@@Z
??9bCPropertyID@@QEBA_NAEBV0@@Z
??9bCQuaternion@@QEBA_NAEBV0@@Z
??9bCRange1@@QEBA_NAEBV0@@Z
??9bCRange2@@QEBA_NAEBV0@@Z
??9bCRange3@@QEBA_NAEBV0@@Z
??9bCRect@@QEBA_NAEBV0@@Z
??9bCSphere@@QEBA_NAEBV0@@Z
??9bCString@@QEBA_NAEBV0@@Z
??9bCString@@QEBA_NPEBD@Z
??9bCTrackBitField@@QEBA_NAEBV0@@Z
??9bCUnicodeString@@QEBA_NAEBV0@@Z
??9bCUnicodeString@@QEBA_NPEB_W@Z
??9bCVector2@@QEBA_NAEBV0@@Z
??9bCVector4@@QEBA_NAEBV0@@Z
??9bCVector@@QEBA_NAEBV0@@Z
??AbCAccessorProperty@@QEAA?AV0@AEBVbCString@@@Z
??AbCAccessorProperty@@QEBA?AV0@AEBVbCString@@@Z
??AbCBitField@@QEBA_NH@Z
??AbCEulerAngles@@QEAAAEAMH@Z
??AbCEulerAngles@@QEBAMH@Z
??AbCMatrix2@@QEAAAEAMH@Z
??AbCMatrix2@@QEBAMH@Z
??AbCMatrix3@@QEAAAEAMH@Z
??AbCMatrix3@@QEBAMH@Z
??AbCMatrix@@QEAAAEAMH@Z
??AbCMatrix@@QEBAMH@Z
??AbCPoint@@QEAAAEAJH@Z
??AbCPoint@@QEBAJH@Z
??AbCRect@@QEAAAEAVbCPoint@@H@Z
??AbCRect@@QEBAAEBVbCPoint@@H@Z
??AbCString@@QEAAAEADH@Z
??AbCString@@QEBADH@Z
??AbCTrackBitField@@QEBA_NH@Z
??AbCTriangle@@QEAAAEAVbCVector@@H@Z
??AbCTriangle@@QEBAAEBVbCVector@@H@Z
??AbCUnicodeString@@QEAAAEA_WH@Z
??AbCUnicodeString@@QEBA_WH@Z
??AbCVector2@@QEAAAEAMH@Z
??AbCVector2@@QEBAAEBMH@Z
??AbCVector4@@QEAAAEAMH@Z
??AbCVector4@@QEBAAEBMH@Z
??AbCVector@@QEAAAEAMH@Z
??AbCVector@@QEBAAEBMH@Z
??BbCAccessorCreator@@QEAAPEAVbCObjectBase@@XZ
??BbCAccessorCreator@@QEBAPEBVbCObjectBase@@XZ
??BbCDateTime@@QEAA?AUtagUI_FILETIME@@XZ
??BbCDateTime@@QEBA?BUtagUI_FILETIME@@XZ
??BbCFlexibleVertexFormat@@QEBAKXZ
??BbCGuid@@QEAAAEAU_GUID@@XZ
??BbCGuid@@QEAAPEAU_GUID@@XZ
??BbCGuid@@QEBAAEBU_GUID@@XZ
??BbCGuid@@QEBAPEBU_GUID@@XZ
??BbCPoint@@QEAAAEAUtagPOINT@@XZ
??BbCPoint@@QEAAPEAUtagPOINT@@XZ
??BbCPoint@@QEBAAEBUtagPOINT@@XZ
??BbCPoint@@QEBAPEBUtagPOINT@@XZ
??BbCPropertyConverterPtr@@QEAAPEAVbCPropertyConverter@@XZ
??BbCPropertyConverterPtr@@QEBAPEBVbCPropertyConverter@@XZ
??BbCRect@@QEAAAEAUtagRECT@@XZ
??BbCRect@@QEAAPEAUtagRECT@@XZ
??BbCRect@@QEBAAEBUtagRECT@@XZ
??BbCRect@@QEBAPEBUtagRECT@@XZ
??BbCString@@QEBAPEBDXZ
??BbCUnicodeString@@QEAAPEA_WXZ
??BbCUnicodeString@@QEBAPEB_WXZ
??BbCVector@@QEAAAEAVNxVec3@@XZ
??BbCVector@@QEBAAEBVNxVec3@@XZ
??CbCAccessorCreator@@QEAAPEAVbCObjectBase@@XZ
??CbCAccessorCreator@@QEBAPEBVbCObjectBase@@XZ
??CbCPropertyConverterPtr@@QEAAPEAVbCPropertyConverter@@XZ
??CbCPropertyConverterPtr@@QEBAPEBVbCPropertyConverter@@XZ
??DbCBox@@QEBA?AV0@AEBVbCMatrix3@@@Z
??DbCBox@@QEBA?AV0@AEBVbCMatrix@@@Z
??DbCBox@@QEBA?AV0@M@Z
??DbCByteAlphaColor@@QEBA?AV0@AEBV0@@Z
??DbCByteAlphaColor@@QEBA?AV0@E@Z
??DbCByteColor@@QEBA?AV0@AEBV0@@Z
??DbCByteColor@@QEBA?AV0@E@Z
??DbCEulerAngles@@QEBA?BV0@M@Z
??DbCFloatAlphaColor@@QEBA?AV0@AEBV0@@Z
??DbCFloatAlphaColor@@QEBA?AV0@M@Z
??DbCFloatColor@@QEBA?AV0@AEBV0@@Z
??DbCFloatColor@@QEBA?AV0@M@Z
??DbCFloatColorHSV@@QEBA?AV0@AEBV0@@Z
??DbCFloatColorHSV@@QEBA?AV0@M@Z
??DbCFrustum@@QEBA?AV0@AEBVbCMatrix3@@@Z
??DbCFrustum@@QEBA?AV0@AEBVbCMatrix@@@Z
??DbCFrustum@@QEBA?AV0@M@Z
??DbCInfCylinder@@QEBA?AV0@AEBVbCMatrix3@@@Z
??DbCInfCylinder@@QEBA?AV0@AEBVbCMatrix@@@Z
??DbCInfCylinder@@QEBA?AV0@M@Z
??DbCInfDoubleCylinder@@QEBA?AV0@AEBVbCMatrix3@@@Z
??DbCInfDoubleCylinder@@QEBA?AV0@AEBVbCMatrix@@@Z
??DbCInfDoubleCylinder@@QEBA?AV0@M@Z
??DbCLine@@QEBA?AV0@AEBVbCMatrix3@@@Z
??DbCLine@@QEBA?AV0@AEBVbCMatrix@@@Z
??DbCMatrix2@@QEBA?AV0@AEBV0@@Z
??DbCMatrix2@@QEBA?AV0@M@Z
??DbCMatrix2@@QEBA?AVbCVector2@@AEBV1@@Z
??DbCMatrix3@@QEBA?AV0@AEBV0@@Z
??DbCMatrix3@@QEBA?AV0@AEBVbCAxisAngle@@@Z
??DbCMatrix3@@QEBA?AV0@AEBVbCEulerAngles@@@Z
??DbCMatrix3@@QEBA?AV0@AEBVbCQuaternion@@@Z
??DbCMatrix3@@QEBA?AV0@M@Z
??DbCMatrix3@@QEBA?AVbCVector@@AEBV1@@Z
??DbCMatrix@@QEBA?AV0@AEBV0@@Z
??DbCMatrix@@QEBA?AV0@AEBVbCAxisAngle@@@Z
??DbCMatrix@@QEBA?AV0@AEBVbCEulerAngles@@@Z
??DbCMatrix@@QEBA?AV0@AEBVbCQuaternion@@@Z
??DbCMatrix@@QEBA?AV0@M@Z
??DbCMatrix@@QEBA?AVbCVector@@AEBV1@@Z
??DbCOrientedBox@@QEBA?AV0@AEBVbCMatrix3@@@Z
??DbCOrientedBox@@QEBA?AV0@AEBVbCMatrix@@@Z
??DbCOrientedBox@@QEBA?AV0@M@Z
??DbCPlane@@QEBA?BV0@AEBVbCMatrix3@@@Z
??DbCPlane@@QEBA?BV0@AEBVbCMatrix@@@Z
??DbCPlane@@QEBA?BV0@M@Z
??DbCPoint@@QEBA?AV0@M@Z
??DbCQuaternion@@QEBA?AV0@AEBV0@@Z
??DbCQuaternion@@QEBA?AV0@M@Z
??DbCRay@@QEBA?AV0@AEBVbCMatrix@@@Z
??DbCSphere@@QEBA?AV0@AEBVbCMatrix3@@@Z
??DbCSphere@@QEBA?AV0@AEBVbCMatrix@@@Z
??DbCSphere@@QEBA?AV0@M@Z
??DbCStretch@@QEBA?AV0@AEBVbCMatrix3@@@Z
??DbCStretch@@QEBA?AV0@AEBVbCMatrix@@@Z
??DbCStretch@@QEBA?AV0@M@Z
??DbCTriangle@@QEBA?AV0@AEBVbCMatrix3@@@Z
??DbCTriangle@@QEBA?AV0@AEBVbCMatrix@@@Z
??DbCUnitedRay@@QEBA?AV0@AEBVbCMatrix3@@@Z
??DbCUnitedRay@@QEBA?AV0@AEBVbCMatrix@@@Z
??DbCUnitedRay@@QEBA?AV0@M@Z
??DbCVector2@@QEBA?AV0@M@Z
??DbCVector4@@QEBA?AV0@AEBVbCMatrix@@@Z
??DbCVector4@@QEBA?AV0@M@Z
??DbCVector@@QEBA?AV0@AEBV0@@Z
??DbCVector@@QEBA?AV0@AEBVbCMatrix@@@Z
??DbCVector@@QEBA?AV0@M@Z
??EbCAccessorProperty@@QEAA?AV0@H@Z
??EbCAccessorProperty@@QEAAAEAV0@XZ
??EbCAccessorPropertyObject@@QEAA?AV0@H@Z
??EbCAccessorPropertyObject@@QEAAAEAV0@XZ
??EbCFlexibleVertexPtr@@QEAA?AV0@H@Z
??EbCFlexibleVertexPtr@@QEAAAEAV0@XZ
??FbCFlexibleVertexPtr@@QEAA?AV0@H@Z
??FbCFlexibleVertexPtr@@QEAAAEAV0@XZ
??GbCBox@@QEBA?AV0@AEBVbCVector@@@Z
??GbCByteAlphaColor@@QEBA?AV0@AEBV0@@Z
??GbCByteAlphaColor@@QEBA?AV0@XZ
??GbCByteColor@@QEBA?AV0@AEBV0@@Z
??GbCByteColor@@QEBA?AV0@XZ
??GbCDateTime@@QEBA?AV0@AEBV0@@Z
??GbCEulerAngles@@QEBA?BV0@AEBV0@@Z
??GbCEulerAngles@@QEBA?BV0@XZ
??GbCFlexibleVertexPtr@@QEAA?AV0@H@Z
??GbCFloatAlphaColor@@QEBA?AV0@AEBV0@@Z
??GbCFloatAlphaColor@@QEBA?AV0@XZ
??GbCFloatColor@@QEBA?AV0@AEBV0@@Z
??GbCFloatColor@@QEBA?AV0@XZ
??GbCFloatColorHSV@@QEBA?AV0@AEBV0@@Z
??GbCFloatColorHSV@@QEBA?AV0@XZ
??GbCFrustum@@QEBA?AV0@AEBVbCVector@@@Z
??GbCFrustum@@QEBA?AV0@XZ
??GbCInfCylinder@@QEBA?AV0@AEBVbCVector@@@Z
??GbCInfDoubleCylinder@@QEBA?AV0@AEBVbCVector@@@Z
??GbCLine@@QEBA?AV0@AEBVbCVector@@@Z
??GbCMatrix2@@QEBA?AV0@AEBV0@@Z
??GbCMatrix2@@QEBA?AV0@XZ
??GbCMatrix3@@QEBA?AV0@AEBV0@@Z
??GbCMatrix3@@QEBA?AV0@XZ
??GbCMatrix@@QEBA?AV0@AEBV0@@Z
??GbCMatrix@@QEBA?AV0@XZ
??GbCOrientedBox@@QEBA?AV0@AEBVbCVector@@@Z
??GbCPlane@@QEBA?BV0@AEBVbCVector@@@Z
??GbCPlane@@QEBA?BV0@XZ
??GbCPoint@@QEBA?AV0@AEBV0@@Z
??GbCPoint@@QEBA?AV0@XZ
??GbCQuaternion@@QEBA?AV0@AEBV0@@Z
??GbCQuaternion@@QEBA?AV0@XZ
??GbCRay@@QEBA?AV0@AEBVbCVector@@@Z
??GbCRect@@QEBA?AV0@AEBVbCPoint@@@Z
??GbCSphere@@QEBA?AV0@AEBVbCVector@@@Z
??GbCStretch@@QEBA?AV0@AEBV0@@Z
??GbCStretch@@QEBA?AV0@AEBVbCVector@@@Z
??GbCStretch@@QEBA?AV0@XZ
??GbCUnitedRay@@QEBA?AV0@AEBV0@@Z
??GbCUnitedRay@@QEBA?AV0@AEBVbCVector@@@Z
??GbCUnitedRay@@QEBA?AV0@XZ
??GbCVector2@@QEBA?AV0@AEBV0@@Z
??GbCVector2@@QEBA?AV0@XZ
??GbCVector4@@QEBA?AV0@AEBV0@@Z
??GbCVector4@@QEBA?AV0@XZ
??GbCVector@@QEBA?AV0@AEBV0@@Z
??GbCVector@@QEBA?AV0@XZ
??H@YA?AVbCString@@DAEBV0@@Z
??H@YA?AVbCString@@PEBDAEBV0@@Z
??H@YA?AVbCUnicodeString@@PEB_WAEBV0@@Z
??H@YA?AVbCUnicodeString@@_WAEBV0@@Z
??HbCBox@@QEBA?AV0@AEBVbCVector@@@Z
??HbCByteAlphaColor@@QEBA?AV0@AEBV0@@Z
??HbCByteColor@@QEBA?AV0@AEBV0@@Z
??HbCDateTime@@QEBA?AV0@AEBV0@@Z
??HbCEulerAngles@@QEBA?BV0@AEBV0@@Z
??HbCFlexibleVertexPtr@@QEAA?AV0@H@Z
??HbCFloatAlphaColor@@QEBA?AV0@AEBV0@@Z
??HbCFloatColor@@QEBA?AV0@AEBV0@@Z
??HbCFloatColorHSV@@QEBA?AV0@AEBV0@@Z
??HbCFrustum@@QEBA?AV0@AEBVbCVector@@@Z
??HbCInfCylinder@@QEBA?AV0@AEBVbCVector@@@Z
??HbCInfDoubleCylinder@@QEBA?AV0@AEBVbCVector@@@Z
??HbCLine@@QEBA?AV0@AEBVbCVector@@@Z
??HbCMatrix2@@QEBA?AV0@AEBV0@@Z
??HbCMatrix3@@QEBA?AV0@AEBV0@@Z
??HbCMatrix@@QEBA?AV0@AEBV0@@Z
??HbCOrientedBox@@QEBA?AV0@AEBVbCVector@@@Z
??HbCPlane@@QEBA?BV0@AEBVbCVector@@@Z
??HbCPoint@@QEBA?AV0@AEBV0@@Z
??HbCPoint@@QEBAAEBV0@XZ
??HbCQuaternion@@QEBA?AV0@AEBV0@@Z
??HbCRay@@QEBA?AV0@AEBVbCVector@@@Z
??HbCRect@@QEBA?AV0@AEBVbCPoint@@@Z
??HbCSphere@@QEBA?AV0@AEBVbCVector@@@Z
??HbCStretch@@QEBA?AV0@AEBV0@@Z
??HbCStretch@@QEBA?AV0@AEBVbCVector@@@Z
??HbCString@@QEBA?AV0@AEBV0@@Z
??HbCString@@QEBA?AV0@D@Z
??HbCString@@QEBA?AV0@PEBD@Z
??HbCUnicodeString@@QEBA?AV0@AEBV0@@Z
??HbCUnicodeString@@QEBA?AV0@PEB_W@Z
??HbCUnicodeString@@QEBA?AV0@_W@Z
??HbCUnitedRay@@QEBA?AV0@AEBV0@@Z
??HbCUnitedRay@@QEBA?AV0@AEBVbCVector@@@Z
??HbCVector2@@QEBA?AV0@AEBV0@@Z
??HbCVector4@@QEBA?AV0@AEBV0@@Z
??HbCVector@@QEBA?AV0@AEBV0@@Z
??IbCBitField@@QEBAAEBV0@AEBV0@@Z
??IbCRect@@QEBA?AV0@AEBV0@@Z
??IbCTrackBitField@@QEBAAEBV0@AEBV0@@Z
??KbCBox@@QEBA?AV0@M@Z
??KbCByteAlphaColor@@QEBA?AV0@E@Z
??KbCByteColor@@QEBA?AV0@E@Z
??KbCFloatAlphaColor@@QEBA?AV0@M@Z
??KbCFloatColor@@QEBA?AV0@M@Z
??KbCFloatColorHSV@@QEBA?AV0@M@Z
??KbCFrustum@@QEBA?AV0@AEBVbCMatrix3@@@Z
??KbCFrustum@@QEBA?AV0@AEBVbCMatrix@@@Z
??KbCFrustum@@QEBA?AV0@M@Z
??KbCInfCylinder@@QEBA?AV0@M@Z
??KbCInfDoubleCylinder@@QEBA?AV0@M@Z
??KbCLine@@QEBA?AV0@AEBVbCMatrix3@@@Z
??KbCLine@@QEBA?AV0@AEBVbCMatrix@@@Z
??KbCMatrix2@@QEBA?AV0@M@Z
??KbCMatrix3@@QEBA?AV0@M@Z
??KbCMatrix@@QEBA?AV0@M@Z
??KbCOrientedBox@@QEBA?AV0@M@Z
??KbCPlane@@QEBA?BV0@AEBVbCMatrix3@@@Z
??KbCPlane@@QEBA?BV0@AEBVbCMatrix@@@Z
??KbCPlane@@QEBA?BV0@M@Z
??KbCPoint@@QEBA?AV0@M@Z
??KbCQuaternion@@QEBA?AV0@M@Z
??KbCSphere@@QEBA?AV0@M@Z
??KbCStretch@@QEBA?AV0@AEBVbCMatrix3@@@Z
??KbCStretch@@QEBA?AV0@AEBVbCMatrix@@@Z
??KbCStretch@@QEBA?AV0@M@Z
??KbCTriangle@@QEBA?AV0@AEBVbCMatrix3@@@Z
??KbCTriangle@@QEBA?AV0@AEBVbCMatrix@@@Z
??KbCUnitedRay@@QEBA?AV0@AEBVbCMatrix3@@@Z
??KbCUnitedRay@@QEBA?AV0@AEBVbCMatrix@@@Z
??KbCUnitedRay@@QEBA?AV0@M@Z
??KbCVector2@@QEBA?AV0@M@Z
??KbCVector4@@QEBA?AV0@AEBVbCMatrix@@@Z
??KbCVector4@@QEBA?AV0@M@Z
??KbCVector@@QEBA?AV0@AEBVbCMatrix@@@Z
??KbCVector@@QEBA?AV0@M@Z
??M@YA_NPEBDAEBVbCString@@@Z
??M@YA_NPEB_WAEBVbCUnicodeString@@@Z
??MbCDateTime@@QEBA_NAEBV0@@Z
??MbCGuid@@QEBA_NAEBV0@@Z
??MbCString@@QEBA_NAEBV0@@Z
??MbCString@@QEBA_NPEBD@Z
??MbCUnicodeString@@QEBA_NAEBV0@@Z
??MbCUnicodeString@@QEBA_NPEB_W@Z
??N@YA_NPEBDAEBVbCString@@@Z
??N@YA_NPEB_WAEBVbCUnicodeString@@@Z
??NbCDateTime@@QEBA_NAEBV0@@Z
??NbCGuid@@QEBA_NAEBV0@@Z
??NbCString@@QEBA_NAEBV0@@Z
??NbCString@@QEBA_NPEBD@Z
??NbCUnicodeString@@QEBA_NAEBV0@@Z
??NbCUnicodeString@@QEBA_NPEB_W@Z
??O@YA_NPEBDAEBVbCString@@@Z
??O@YA_NPEB_WAEBVbCUnicodeString@@@Z
??ObCDateTime@@QEBA_NAEBV0@@Z
??ObCGuid@@QEBA_NAEBV0@@Z
??ObCString@@QEBA_NAEBV0@@Z
??ObCString@@QEBA_NPEBD@Z
??ObCUnicodeString@@QEBA_NAEBV0@@Z
??ObCUnicodeString@@QEBA_NPEB_W@Z
??P@YA_NPEBDAEBVbCString@@@Z
??P@YA_NPEB_WAEBVbCUnicodeString@@@Z
??PbCDateTime@@QEBA_NAEBV0@@Z
??PbCGuid@@QEBA_NAEBV0@@Z
??PbCString@@QEBA_NAEBV0@@Z
??PbCString@@QEBA_NPEBD@Z
??PbCUnicodeString@@QEBA_NAEBV0@@Z
??PbCUnicodeString@@QEBA_NPEB_W@Z
??RbCMatrix2@@QEAAAEAMHH@Z
??RbCMatrix2@@QEAAAEAVbCVector2@@H@Z
??RbCMatrix2@@QEBAAEBVbCVector2@@H@Z
??RbCMatrix2@@QEBAMHH@Z
??RbCMatrix3@@QEAAAEAMHH@Z
??RbCMatrix3@@QEAAAEAVbCVector@@H@Z
??RbCMatrix3@@QEBAAEBVbCVector@@H@Z
??RbCMatrix3@@QEBAMHH@Z
??RbCMatrix@@QEAAAEAMHH@Z
??RbCMatrix@@QEAAAEAVbCVector@@H@Z
??RbCMatrix@@QEBAAEBVbCVector@@H@Z
??RbCMatrix@@QEBAMHH@Z
??RbCRect@@QEAAAEAJH@Z
??RbCRect@@QEBAJH@Z
??SbCBitField@@QEBAAEBV0@XZ
??SbCByteAlphaColor@@QEBA?AV0@XZ
??SbCByteColor@@QEBA?AV0@XZ
??SbCFloatAlphaColor@@QEBA?AV0@XZ
??SbCFloatColor@@QEBA?AV0@XZ
??SbCFloatColorHSV@@QEBA?AV0@XZ
??SbCMatrix2@@QEBA?AV0@XZ
??SbCMatrix3@@QEBA?AV0@XZ
??SbCMatrix@@QEBA?AV0@XZ
??SbCQuaternion@@QEBA?AV0@XZ
??SbCTrackBitField@@QEBAAEBV0@XZ
??TbCBitField@@QEBAAEBV0@AEBV0@@Z
??TbCTrackBitField@@QEBAAEBV0@AEBV0@@Z
??UbCBitField@@QEBAAEBV0@AEBV0@@Z
??UbCRect@@QEBA?AV0@AEBV0@@Z
??UbCTrackBitField@@QEBAAEBV0@AEBV0@@Z
??XbCBox@@QEAAAEAV0@AEBVbCMatrix3@@@Z
??XbCBox@@QEAAAEAV0@AEBVbCMatrix@@@Z
??XbCBox@@QEAAAEAV0@M@Z
??XbCByteAlphaColor@@QEAAAEAV0@AEBV0@@Z
??XbCByteAlphaColor@@QEAAAEAV0@E@Z
??XbCByteColor@@QEAAAEAV0@AEBV0@@Z
??XbCByteColor@@QEAAAEAV0@E@Z
??XbCEulerAngles@@QEAAAEAV0@M@Z
??XbCFloatAlphaColor@@QEAAAEAV0@AEBV0@@Z
??XbCFloatAlphaColor@@QEAAAEAV0@M@Z
??XbCFloatColor@@QEAAAEAV0@AEBV0@@Z
??XbCFloatColor@@QEAAAEAV0@M@Z
??XbCFloatColorHSV@@QEAAAEAV0@AEBV0@@Z
??XbCFloatColorHSV@@QEAAAEAV0@M@Z
??XbCFrustum@@QEAAAEAV0@M@Z
??XbCInfCylinder@@QEAAAEAV0@AEBVbCMatrix3@@@Z
??XbCInfCylinder@@QEAAAEAV0@AEBVbCMatrix@@@Z
??XbCInfCylinder@@QEAAAEAV0@M@Z
??XbCInfDoubleCylinder@@QEAAAEAV0@AEBVbCMatrix3@@@Z
??XbCInfDoubleCylinder@@QEAAAEAV0@AEBVbCMatrix@@@Z
??XbCInfDoubleCylinder@@QEAAAEAV0@M@Z
??XbCMatrix2@@QEAAAEAV0@AEBV0@@Z
??XbCMatrix2@@QEAAAEAV0@M@Z
??XbCMatrix3@@QEAAAEAV0@AEBV0@@Z
??XbCMatrix3@@QEAAAEAV0@AEBVbCAxisAngle@@@Z
??XbCMatrix3@@QEAAAEAV0@AEBVbCEulerAngles@@@Z
??XbCMatrix3@@QEAAAEAV0@AEBVbCQuaternion@@@Z
??XbCMatrix3@@QEAAAEAV0@M@Z
??XbCMatrix@@QEAAAEAV0@AEBV0@@Z
??XbCMatrix@@QEAAAEAV0@AEBVbCAxisAngle@@@Z
??XbCMatrix@@QEAAAEAV0@AEBVbCEulerAngles@@@Z
??XbCMatrix@@QEAAAEAV0@AEBVbCQuaternion@@@Z
??XbCMatrix@@QEAAAEAV0@M@Z
??XbCOrientedBox@@QEAAAEAV0@AEBVbCMatrix3@@@Z
??XbCOrientedBox@@QEAAAEAV0@AEBVbCMatrix@@@Z
??XbCOrientedBox@@QEAAAEAV0@M@Z
??XbCPlane@@QEAAAEAV0@M@Z
??XbCPoint@@QEAAAEAV0@M@Z
??XbCQuaternion@@QEAAAEAV0@AEBV0@@Z
??XbCQuaternion@@QEAAAEAV0@M@Z
??XbCRay@@QEAAAEAV0@AEBVbCMatrix@@@Z
??XbCSphere@@QEAAAEAV0@AEBVbCMatrix3@@@Z
??XbCSphere@@QEAAAEAV0@AEBVbCMatrix@@@Z
??XbCSphere@@QEAAAEAV0@M@Z
??XbCStretch@@QEAAAEAV0@M@Z
??XbCUnitedRay@@QEAAAEAV0@M@Z
??XbCVector2@@QEAAAEAV0@AEBVbCMatrix2@@@Z
??XbCVector2@@QEAAAEAV0@M@Z
??XbCVector4@@QEAAAEAV0@AEBVbCMatrix@@@Z
??XbCVector4@@QEAAAEAV0@M@Z
??XbCVector@@QEAAAEAV0@AEBV0@@Z
??XbCVector@@QEAAAEAV0@AEBVbCMatrix3@@@Z
??XbCVector@@QEAAAEAV0@AEBVbCMatrix@@@Z
??XbCVector@@QEAAAEAV0@M@Z
??YbCBox@@QEAAAEAV0@AEBVbCVector@@@Z
??YbCByteAlphaColor@@QEAAAEAV0@AEBV0@@Z
??YbCByteColor@@QEAAAEAV0@AEBV0@@Z
??YbCDateTime@@QEAAAEBV0@AEBV0@@Z
??YbCEulerAngles@@QEAAAEAV0@AEBV0@@Z
??YbCFlexibleVertexPtr@@QEAAAEAV0@H@Z
??YbCFloatAlphaColor@@QEAAAEAV0@AEBV0@@Z
??YbCFloatColor@@QEAAAEAV0@AEBV0@@Z
??YbCFloatColorHSV@@QEAAAEAV0@AEBV0@@Z
??YbCFrustum@@QEAAAEAV0@AEBVbCVector@@@Z
??YbCInfCylinder@@QEAAAEAV0@AEBVbCVector@@@Z
??YbCInfDoubleCylinder@@QEAAAEAV0@AEBVbCVector@@@Z
??YbCLine@@QEAAAEAV0@AEBVbCVector@@@Z
??YbCMatrix2@@QEAAAEAV0@AEBV0@@Z
??YbCMatrix3@@QEAAAEAV0@AEBV0@@Z
??YbCMatrix@@QEAAAEAV0@AEBV0@@Z
??YbCOrientedBox@@QEAAAEAV0@AEBVbCVector@@@Z
??YbCPlane@@QEAAAEAV0@AEBVbCVector@@@Z
??YbCPoint@@QEAAAEBV0@AEBV0@@Z
??YbCQuaternion@@QEAAAEAV0@AEBV0@@Z
??YbCRay@@QEAAAEAV0@AEBVbCVector@@@Z
??YbCRect@@QEAAAEAV0@AEBVbCPoint@@@Z
??YbCSphere@@QEAAAEAV0@AEBVbCVector@@@Z
??YbCStretch@@QEAAAEAV0@AEBV0@@Z
??YbCStretch@@QEAAAEAV0@AEBVbCVector@@@Z
??YbCString@@QEAAAEAV0@AEBV0@@Z
??YbCString@@QEAAAEAV0@D@Z
??YbCString@@QEAAAEAV0@PEBD@Z
??YbCUnicodeString@@QEAAAEAV0@AEBV0@@Z
??YbCUnicodeString@@QEAAAEAV0@PEB_W@Z
??YbCUnicodeString@@QEAAAEAV0@_W@Z
??YbCUnitedRay@@QEAAAEAV0@AEBV0@@Z
??YbCUnitedRay@@QEAAAEAV0@AEBVbCVector@@@Z
??YbCVector2@@QEAAAEAV0@AEBV0@@Z
??YbCVector4@@QEAAAEAV0@AEBV0@@Z
??YbCVector@@QEAAAEAV0@AEBV0@@Z
??ZbCBox@@QEAAAEAV0@AEBVbCVector@@@Z
??ZbCByteAlphaColor@@QEAAAEAV0@AEBV0@@Z
??ZbCByteColor@@QEAAAEAV0@AEBV0@@Z
??ZbCDateTime@@QEAAAEBV0@AEBV0@@Z
??ZbCEulerAngles@@QEAAAEAV0@AEBV0@@Z
??ZbCFlexibleVertexPtr@@QEAAAEAV0@H@Z
??ZbCFloatAlphaColor@@QEAAAEAV0@AEBV0@@Z
??ZbCFloatColor@@QEAAAEAV0@AEBV0@@Z
??ZbCFloatColorHSV@@QEAAAEAV0@AEBV0@@Z
??ZbCFrustum@@QEAAAEAV0@AEBVbCVector@@@Z
??ZbCInfCylinder@@QEAAAEAV0@AEBVbCVector@@@Z
??ZbCInfDoubleCylinder@@QEAAAEAV0@AEBVbCVector@@@Z
??ZbCLine@@QEAAAEAV0@AEBVbCVector@@@Z
??ZbCMatrix2@@QEAAAEAV0@AEBV0@@Z
??ZbCMatrix3@@QEAAAEAV0@AEBV0@@Z
??ZbCMatrix@@QEAAAEAV0@AEBV0@@Z
??ZbCOrientedBox@@QEAAAEAV0@AEBVbCVector@@@Z
??ZbCPlane@@QEAAAEAV0@AEBVbCVector@@@Z
??ZbCPoint@@QEAAAEBV0@AEBV0@@Z
??ZbCQuaternion@@QEAAAEAV0@AEBV0@@Z
??ZbCRay@@QEAAAEAV0@AEBVbCVector@@@Z
??ZbCRect@@QEAAAEAV0@AEBVbCPoint@@@Z
??ZbCSphere@@QEAAAEAV0@AEBVbCVector@@@Z
??ZbCStretch@@QEAAAEAV0@AEBV0@@Z
??ZbCStretch@@QEAAAEAV0@AEBVbCVector@@@Z
??ZbCUnitedRay@@QEAAAEAV0@AEBV0@@Z
??ZbCUnitedRay@@QEAAAEAV0@AEBVbCVector@@@Z
??ZbCVector2@@QEAAAEAV0@AEBV0@@Z
??ZbCVector4@@QEAAAEAV0@AEBV0@@Z
??ZbCVector@@QEAAAEAV0@AEBV0@@Z
??_0bCBox@@QEAAAEAV0@M@Z
??_0bCByteAlphaColor@@QEAAAEAV0@E@Z
??_0bCByteColor@@QEAAAEAV0@E@Z
??_0bCFloatAlphaColor@@QEAAAEAV0@M@Z
??_0bCFloatColor@@QEAAAEAV0@M@Z
??_0bCFloatColorHSV@@QEAAAEAV0@M@Z
??_0bCFrustum@@QEAAAEAV0@M@Z
??_0bCInfCylinder@@QEAAAEAV0@M@Z
??_0bCInfDoubleCylinder@@QEAAAEAV0@M@Z
??_0bCMatrix2@@QEAAAEAV0@M@Z
??_0bCMatrix3@@QEAAAEAV0@M@Z
??_0bCMatrix@@QEAAAEAV0@M@Z
??_0bCOrientedBox@@QEAAAEAV0@M@Z
??_0bCPlane@@QEAAAEAV0@M@Z
??_0bCPoint@@QEAAAEAV0@M@Z
??_0bCQuaternion@@QEAAAEAV0@M@Z
??_0bCSphere@@QEAAAEAV0@M@Z
??_0bCStretch@@QEAAAEAV0@M@Z
??_0bCUnitedRay@@QEAAAEAV0@M@Z
??_0bCVector2@@QEAAAEAV0@AEBVbCMatrix2@@@Z
??_0bCVector2@@QEAAAEAV0@M@Z
??_0bCVector4@@QEAAAEAV0@AEBVbCMatrix@@@Z
??_0bCVector4@@QEAAAEAV0@M@Z
??_0bCVector@@QEAAAEAV0@AEBVbCMatrix3@@@Z
??_0bCVector@@QEAAAEAV0@AEBVbCMatrix@@@Z
??_0bCVector@@QEAAAEAV0@M@Z
??_2bCBitField@@QEAAAEAV0@J@Z
??_2bCTrackBitField@@QEAAAEAV0@J@Z
??_3bCBitField@@QEAAAEAV0@J@Z
??_3bCTrackBitField@@QEAAAEAV0@J@Z
??_4bCBitField@@QEAAAEAV0@AEBV0@@Z
??_4bCBox@@QEAAAEAV0@AEBV0@@Z
??_4bCInfCylinder@@QEAAAEAV0@AEBV0@@Z
??_4bCInfDoubleCylinder@@QEAAAEAV0@AEBV0@@Z
??_4bCRect@@QEAAAEAV0@AEBV0@@Z
??_4bCSphere@@QEAAAEAV0@AEBV0@@Z
??_4bCTrackBitField@@QEAAAEAV0@AEBV0@@Z
??_5bCBitField@@QEAAAEAV0@AEBV0@@Z
??_5bCBox@@QEAAAEAV0@AEBV0@@Z
??_5bCBox@@QEAAAEAV0@AEBVbCVector@@@Z
??_5bCInfCylinder@@QEAAAEAV0@AEBV0@@Z
??_5bCInfCylinder@@QEAAAEAV0@AEBVbCVector@@@Z
??_5bCInfDoubleCylinder@@QEAAAEAV0@AEBV0@@Z
??_5bCInfDoubleCylinder@@QEAAAEAV0@AEBVbCVector@@@Z
??_5bCOrientedBox@@QEAAAEAV0@AEBV0@@Z
??_5bCRect@@QEAAAEAV0@AEBV0@@Z
??_5bCSphere@@QEAAAEAV0@AEBV0@@Z
??_5bCSphere@@QEAAAEAV0@AEBVbCVector@@@Z
??_5bCTrackBitField@@QEAAAEAV0@AEBV0@@Z
??_6bCBitField@@QEAAAEAV0@AEBV0@@Z
??_6bCTrackBitField@@QEAAAEAV0@AEBV0@@Z
??_7bCByteAlphaColor@@6B@
??_7bCByteColor@@6B@
??_7bCColorBase@@6B@
??_7bCEbertNoise@@6B@
??_7bCEvent@@6B@
??_7bCFile@@6BbCIStream@@@
??_7bCFile@@6BbCOStream@@@
??_7bCFileSystem@@6B@
??_7bCFloatAlphaColor@@6B@
??_7bCFloatColor@@6B@
??_7bCFloatColorHSV@@6B@
??_7bCIOStream@@6BbCIStream@@@
??_7bCIOStream@@6BbCOStream@@@
??_7bCIStream@@6B@
??_7bCMemoryStream@@6BbCIStream@@@
??_7bCMemoryStream@@6BbCOStream@@@
??_7bCNoise@@6B@
??_7bCNullStream@@6BbCIStream@@@
??_7bCNullStream@@6BbCOStream@@@
??_7bCOStream@@6B@
??_7bCObjectBase@@6B@
??_7bCObjectRefBase@@6B@
??_7bCPOStream@@6BbCIStream@@@
??_7bCPOStream@@6BbCOStream@@@
??_7bCPeacheyNoise@@6B@
??_7bCPerlinNoise@@6B@
??_7bCPropertyConverter@@6B@
??_7bCPropertyTypeBase@@6B@
??_7bCThread@@6B@
??_7bCThreadEx@@6B@
??_7bCThreadObjectRefBase@@6BbCObjectRefBase@@@
??_7bCThreadObjectRefBase@@6BbCThreadEx@@@
??_7bCVolume@@6B@
??_7bCXMLParserNode@@6B@
??_B?1???5bCBitField@@QEBAAEBV0@J@Z@51
??_B?1???5bCTrackBitField@@QEBAAEBV0@J@Z@51
??_B?1???6bCBitField@@QEBAAEBV0@J@Z@51
??_B?1???6bCTrackBitField@@QEBAAEBV0@J@Z@51
??_B?1???IbCBitField@@QEBAAEBV0@AEBV0@@Z@51
??_B?1???IbCTrackBitField@@QEBAAEBV0@AEBV0@@Z@51
??_B?1???SbCBitField@@QEBAAEBV0@XZ@51
??_B?1???SbCTrackBitField@@QEBAAEBV0@XZ@51
??_B?1???TbCBitField@@QEBAAEBV0@AEBV0@@Z@51
??_B?1???TbCTrackBitField@@QEBAAEBV0@AEBV0@@Z@51
??_B?1???UbCBitField@@QEBAAEBV0@AEBV0@@Z@51
??_B?1???UbCTrackBitField@@QEBAAEBV0@AEBV0@@Z@51
??_B?5??SetToInverse@bCMatrix2@@QEAAXAEBV1@@Z@55
??_B?5??SetToInverse@bCMatrix3@@QEAAXAEBV1@@Z@55
??_B?5??SetToProduct@bCMatrix2@@QEAAXAEBV1@0@Z@55
??_B?5??SetToProduct@bCMatrix3@@QEAAXAEBV1@0@Z@55
??_B?5??SetToProduct@bCMatrix@@QEAAXAEBV1@0@Z@55
??_FbCBitField@@QEAAXXZ
??_FbCFlexibleVertexFormat@@QEAAXXZ
??_FbCGCMemGeneration@@QEAAXXZ
??_FbCTrackBitField@@QEAAXXZ
?AccessA@bCTriangle@@QEAAAEAVbCVector@@XZ
?AccessAlpha@bCByteAlphaColor@@QEAAAEAEXZ
?AccessAlpha@bCFloatAlphaColor@@QEAAAEAMXZ
?AccessAngle@bCAxisAngle@@QEAAAEAMXZ
?AccessArguments@bCCommandLine@@IEAAAEAV?$bTObjArray@VbCString@@@@XZ
?AccessAxis@bCAxisAngle@@QEAAAEAVbCVector@@XZ
?AccessAxis@bCOrientedBox@@QEAAAEAVbCVector@@H@Z
?AccessAzimuth@bCSphericalRotation@@QEAAAEAMXZ
?AccessB@bCTriangle@@QEAAAEAVbCVector@@XZ
?AccessBitField@bCBitField@@QEAAPEAKXZ
?AccessBitField@bCTrackBitField@@QEAAPEAKXZ
?AccessBlue@bCByteColor@@QEAAAEAEXZ
?AccessBlue@bCFloatColor@@QEAAAEAMXZ
?AccessBottom@bCRect@@QEAAAEAJXZ
?AccessBottomRight@bCRect@@QEAAAEAVbCPoint@@XZ
?AccessBuffer@bCFlexibleVertexPtr@@QEAAAEAPEAEXZ
?AccessBuffer@bCMemoryStream@@QEAAPEAEK@Z
?AccessC@bCTriangle@@QEAAAEAVbCVector@@XZ
?AccessCenter@bCOrientedBox@@QEAAAEAVbCVector@@XZ
?AccessClippingPlane@bCFrustum@@QEAAAEAVbCPlane@@H@Z
?AccessCoordinate@bCBox@@QEAAAEAMH@Z
?AccessCoordinate@bCRect@@QEAAAEAJH@Z
?AccessCoordinate@bCVector2@@QEAAAEAMH@Z
?AccessCoordinate@bCVector4@@QEAAAEAMH@Z
?AccessCoordinate@bCVector@@QEAAAEAMH@Z
?AccessCoordinates@bCVector2@@QEAAAEAY01MXZ
?AccessCoordinates@bCVector4@@QEAAAEAY03MXZ
?AccessCoordinates@bCVector@@QEAAAEAY02MXZ
?AccessCore@bCPropertyID@@AEAAAEAUbSCore@1@XZ
?AccessCount@bCPropertyID@@AEAAAEAKXZ
?AccessData@bCVariant@@IEAAAEATbUType@1@XZ
?AccessDateTime@bCDateTime@@QEAAAEA_KXZ
?AccessDiffuse@bCFlexibleVertexPtr@@QEAAAEAKXZ
?AccessDirection@bCLine@@QEAAAEAVbCVector@@XZ
?AccessDirection@bCRay@@IEAAAEAVbCVector@@XZ
?AccessDirection@bCUnitedRay@@QEAAAEAVbCVector@@XZ
?AccessDistance@bCPlane@@QEAAAEAMXZ
?AccessElement@bCMatrix2@@QEAAAEAMH@Z
?AccessElement@bCMatrix2@@QEAAAEAMHH@Z
?AccessElement@bCMatrix3@@QEAAAEAMH@Z
?AccessElement@bCMatrix3@@QEAAAEAMHH@Z
?AccessElement@bCMatrix@@QEAAAEAMH@Z
?AccessElement@bCMatrix@@QEAAAEAMHH@Z
?AccessEnd@bCStretch@@QEAAAEAVbCVector@@XZ
?AccessExtensionFlags@bCUnitedRay@@QEAAAEAW4bERayExtension@1@XZ
?AccessExtent@bCOrientedBox@@QEAAAEAVbCVector@@XZ
?AccessFormat@bCFlexibleVertexFormat@@QEAAAEAKXZ
?AccessFormat@bCFlexibleVertexPtr@@QEAAAEAVbCFlexibleVertexFormat@@XZ
?AccessGreen@bCByteColor@@QEAAAEAEXZ
?AccessGreen@bCFloatColor@@QEAAAEAMXZ
?AccessHue@bCFloatColorHSV@@QEAAAEAMXZ
?AccessLatitude@bCSphericalRotation@@QEAAAEAMXZ
?AccessLeft@bCRect@@QEAAAEAJXZ
?AccessLongitude@bCSphericalRotation@@QEAAAEAMXZ
?AccessMax@bCBox@@QEAAAEAVbCVector@@XZ
?AccessMin@bCBox@@QEAAAEAVbCVector@@XZ
?AccessNormal@bCFlexibleVertexPtr@@QEAAAEAVbCVector@@XZ
?AccessNormal@bCPlane@@QEAAAEAVbCVector@@XZ
?AccessOptions@bCCommandLine@@IEAAAEAV?$bTStringObjMap@VbCString@@@@XZ
?AccessOrientation@bCOrientedBox@@QEAAAEAVbCMatrix3@@XZ
?AccessOrigin@bCLine@@QEAAAEAVbCVector@@XZ
?AccessOrigin@bCRay@@QEAAAEAVbCVector@@XZ
?AccessOrigin@bCUnitedRay@@QEAAAEAVbCVector@@XZ
?AccessPitch@bCEulerAngles@@QEAAAEAMXZ
?AccessPoint@bCRect@@QEAAAEAVbCPoint@@H@Z
?AccessPointSize@bCFlexibleVertexPtr@@QEAAAEAMXZ
?AccessPosition@bCFlexibleVertexPtr@@QEAAAEAVbCVector@@XZ
?AccessPosition@bCInfCylinder@@QEAAAEAVbCVector@@XZ
?AccessPosition@bCSphere@@QEAAAEAVbCVector@@XZ
?AccessPositionA@bCInfDoubleCylinder@@QEAAAEAVbCVector@@XZ
?AccessPositionB@bCInfDoubleCylinder@@QEAAAEAVbCVector@@XZ
?AccessRHW@bCFlexibleVertexPtr@@QEAAAEAMXZ
?AccessRadius@bCInfCylinder@@QEAAAEAMXZ
?AccessRadius@bCSphere@@QEAAAEAMXZ
?AccessRadiusA@bCInfDoubleCylinder@@QEAAAEAMXZ
?AccessRadiusB@bCInfDoubleCylinder@@QEAAAEAMXZ
?AccessRed@bCByteColor@@QEAAAEAEXZ
?AccessRed@bCFloatColor@@QEAAAEAMXZ
?AccessRight@bCRect@@QEAAAEAJXZ
?AccessRoll@bCEulerAngles@@QEAAAEAMXZ
?AccessRow4@bCMatrix@@IEAAAEAVbCVector4@@H@Z
?AccessRow@bCMatrix2@@QEAAAEAVbCVector2@@H@Z
?AccessRow@bCMatrix3@@QEAAAEAVbCVector@@H@Z
?AccessRow@bCMatrix@@IEAAAEAVbCVector@@H@Z
?AccessSaturation@bCFloatColorHSV@@QEAAAEAMXZ
?AccessSpecular@bCFlexibleVertexPtr@@QEAAAEAKXZ
?AccessStart@bCStretch@@QEAAAEAVbCVector@@XZ
?AccessTextureCoords2@bCFlexibleVertexPtr@@QEAAAEAVbCVector2@@H@Z
?AccessTextureCoords3@bCFlexibleVertexPtr@@QEAAAEAVbCVector@@H@Z
?AccessTextureCoords4@bCFlexibleVertexPtr@@QEAAAEAVbCVector4@@H@Z
?AccessTop@bCRect@@QEAAAEAJXZ
?AccessTopLeft@bCRect@@QEAAAEAVbCPoint@@XZ
?AccessTranslation4@bCMatrix@@QEAAAEAVbCVector4@@XZ
?AccessTranslation@bCMatrix@@QEAAAEAVbCVector@@XZ
?AccessType@bCVariant@@IEAAAEAW4bEType@1@XZ
?AccessVector@bCTriangle@@QEAAAEAVbCVector@@H@Z
?AccessVectors@bCTriangle@@QEAAAEAY02VbCVector@@XZ
?AccessW@bCQuaternion@@QEAAAEAMXZ
?AccessW@bCVector4@@QEAAAEAMXZ
?AccessWeight@bCFlexibleVertexPtr@@QEAAAEAMH@Z
?AccessX@bCFlexibleVertexPtr@@QEAAAEAMXZ
?AccessX@bCPoint@@QEAAAEAJXZ
?AccessX@bCQuaternion@@QEAAAEAMXZ
?AccessX@bCVector2@@QEAAAEAMXZ
?AccessX@bCVector4@@QEAAAEAMXZ
?AccessX@bCVector@@QEAAAEAMXZ
?AccessXAxis4@bCMatrix@@QEAAAEAVbCVector4@@XZ
?AccessXAxis@bCMatrix2@@QEAAAEAVbCVector2@@XZ
?AccessXAxis@bCMatrix3@@QEAAAEAVbCVector@@XZ
?AccessXAxis@bCMatrix@@QEAAAEAVbCVector@@XZ
?AccessY@bCFlexibleVertexPtr@@QEAAAEAMXZ
?AccessY@bCPoint@@QEAAAEAJXZ
?AccessY@bCQuaternion@@QEAAAEAMXZ
?AccessY@bCVector2@@QEAAAEAMXZ
?AccessY@bCVector4@@QEAAAEAMXZ
?AccessY@bCVector@@QEAAAEAMXZ
?AccessYAxis4@bCMatrix@@QEAAAEAVbCVector4@@XZ
?AccessYAxis@bCMatrix2@@QEAAAEAVbCVector2@@XZ
?AccessYAxis@bCMatrix3@@QEAAAEAVbCVector@@XZ
?AccessYAxis@bCMatrix@@QEAAAEAVbCVector@@XZ
?AccessYaw@bCEulerAngles@@QEAAAEAMXZ
?AccessZ@bCFlexibleVertexPtr@@QEAAAEAMXZ
?AccessZ@bCQuaternion@@QEAAAEAMXZ
?AccessZ@bCVector4@@QEAAAEAMXZ
?AccessZ@bCVector@@QEAAAEAMXZ
?AccessZAxis4@bCMatrix@@QEAAAEAVbCVector4@@XZ
?AccessZAxis@bCMatrix3@@QEAAAEAVbCVector@@XZ
?AccessZAxis@bCMatrix@@QEAAAEAVbCVector@@XZ
?Acquire@bCCriticalSection@@QEAAXXZ
?Add@bCByteAlphaColor@@QEAAXAEBV1@@Z
?Add@bCByteColor@@QEAAXAEBV1@@Z
?Add@bCDateTime@@QEAAXAEBV1@@Z
?Add@bCFloatAlphaColor@@QEAAXAEBV1@@Z
?Add@bCFloatColor@@QEAAXAEBV1@@Z
?Add@bCFloatColorHSV@@QEAAXAEBV1@@Z
?Add@bCMatrix2@@QEAAXAEBV1@@Z
?Add@bCMatrix3@@QEAAXAEBV1@@Z
?Add@bCMatrix@@QEAAXAEBV1@@Z
?Add@bCQuaternion@@QEAAXAEBV1@@Z
?Add@bCStretch@@QEAAXAEBV1@@Z
?Add@bCUnitedRay@@QEAAXAEBV1@@Z
?AddClamped@bCByteAlphaColor@@QEAAXAEBV1@@Z
?AddClamped@bCByteColor@@QEAAXAEBV1@@Z
?AddClamped@bCFloatAlphaColor@@QEAAXAEBV1@@Z
?AddClamped@bCFloatColor@@QEAAXAEBV1@@Z
?AddClamped@bCFloatColorHSV@@QEAAXAEBV1@@Z
?AddEntry@bCOctTree@@QEAAXPEAVbCOctTreeEntryBase@@@Z
?AddHistoryEntry@bCErrorAdmin@@QEAAXPEBD@Z
?AddItemToMemoryOverview@bCDialogHandle@bCEngineDialogs@@QEAAXPEBUbSAllocationItem@@_N@Z
?AddReference@bCDialogHandle@bCEngineDialogs@@QEAAGXZ
?AddReference@bCObjectBase@@UEAAKXZ
?AddReference@bCObjectRefBase@@UEAAKXZ
?AddReference@bCPropertyConverter@@UEAAKXZ
?AddText@bCDialogHandle@bCEngineDialogs@@QEAA_NW4bEGE3DialogsLogMessageType@2@PEBD@Z
?Adjust@bCClock@@QEAAXAEBUbSClockAdjustment@@@Z
?Adjust@bCTimer@@QEAAXM@Z
?Advance@bCFlexibleVertexPtr@@QEAAXH@Z
?Alloc@bCString@@IEAAXH@Z
?Alloc@bCUnicodeString@@IEAAXH@Z
?Allocate@bCGCMemGeneration@@QEAAPEAUbSGCRootDesc@1@G@Z
?Allocate@bCMemPool@@QEAAPEAXK@Z
?AllocatePure@bCMemoryAdmin@@IEAAPEAXQEBDH0PEBDW4bEMemoryAllocationType@@_K@Z
?And@bCBitField@@QEAAXAEBV1@@Z
?And@bCTrackBitField@@QEAAXAEBV1@@Z
?Append@bCMd5@@QEAAXPEBXK@Z
?AttachTo@bCFlexibleVertexPtr@@QEAAXAEBVbCFlexibleVertexFormat@@PEAE@Z
?BeginIterator@bCPropertyObjectTypeBase@@QEBA?AVbCConstIterator@?$bTArrayBase@PEAVbCPropertyTypeBase@@@@XZ
?BindPOType@bCObjectBase@@UEAA?AW4bEResult@@XZ
?CalcNormal@bCTriangle@@QEBA?AVbCVector@@XZ
?CalcNormal@bCTriangle@@QEBAXAEAVbCVector@@@Z
?CalculateHeapSize@bCMemoryAdmin@@IEBAKK@Z
?CalculatePtrAddress@bCMemoryAdmin@@IEBAPEAXPEBX@Z
?CalculatePtrSize@bCMemoryAdmin@@IEBAKK@Z
?Call@bCProfileNode@@QEAAXXZ
?CallError@bCErrorAdmin@@QEAAX_NPEBD11H@Z
?CallFatalError@bCErrorAdmin@@QEAAXPEBD00H@Z
?CallFatalError@bCErrorAdmin@@QEAAXPEBD0H@Z
?CallFaultError@bCErrorAdmin@@QEAAXPEBD00H@Z
?CallFaultError@bCErrorAdmin@@QEAAXPEBD0H@Z
?CatRom2@bCPeacheyNoise@@IEBAMM@Z
?ChangeDir@bCFileSystem@@UEAA_NAEBVbCString@@@Z
?Check@bCOctTree@@QEAAXXZ
?CheckMemoryBlock@bCMemoryAdmin@@QEBA?AW4bECheckPtr@@PEAX@Z
?Clamp@bCByteAlphaColor@@QEAAXXZ
?Clamp@bCByteColor@@QEAAXXZ
?Clamp@bCFloatAlphaColor@@QEAAXXZ
?Clamp@bCFloatColor@@QEAAXXZ
?Clamp@bCFloatColorHSV@@QEAAXXZ
?ClassifyPoint@bCPlane@@QEBAMAEBVbCVector@@@Z
?ClassifyVector@bCPlane@@QEBAMAEBVbCVector@@@Z
?CleanUp@bCOctTree@@QEAAXXZ
?Clear@bCAxisAngle@@QEAAXXZ
?Clear@bCBox@@QEAAXXZ
?Clear@bCByteAlphaColor@@UEAAXXZ
?Clear@bCByteColor@@UEAAXXZ
?Clear@bCDateTime@@IEAAXXZ
?Clear@bCEulerAngles@@QEAAXXZ
?Clear@bCFloatAlphaColor@@UEAAXXZ
?Clear@bCFloatColor@@UEAAXXZ
?Clear@bCFloatColorHSV@@UEAAXXZ
?Clear@bCFrustum@@QEAAXXZ
?Clear@bCGuid@@IEAAXXZ
?Clear@bCLine@@QEAAXXZ
?Clear@bCMatrix2@@QEAAXXZ
?Clear@bCMatrix3@@QEAAXXZ
?Clear@bCMatrix@@QEAAXXZ
?Clear@bCMemoryStream@@QEAAXXZ
?Clear@bCNullStream@@QEAAXXZ
?Clear@bCPlane@@QEAAXXZ
?Clear@bCPoint@@QEAAXXZ
?Clear@bCQuaternion@@QEAAXXZ
?Clear@bCSphere@@QEAAXXZ
?Clear@bCStretch@@QEAAXXZ
?Clear@bCString@@QEAAXXZ
?Clear@bCTriangle@@QEAAXXZ
?Clear@bCUnicodeString@@QEAAXXZ
?Clear@bCUnitedRay@@QEAAXXZ
?Clear@bCVariant@@QEAAXXZ
?Clear@bCVector2@@QEAAXXZ
?Clear@bCVector4@@QEAAXXZ
?Clear@bCVector@@QEAAXXZ
?ClearRotation@bCMatrix@@QEAAXXZ
?ClearStringHeaderMap@bCPOStream@@QEAAXXZ
?Clone@bCAccessorCreator@@QEBA?AV1@XZ
?Clone@bCAccessorPropertyObject@@QEBA?AV1@XZ
?Clone@bCObjectBase@@QEAAPEAV1@XZ
?Clone@bCPropertyTypeBase@@IEBAPEAV1@XZ
?Close@bCFile@@UEAA_NXZ
?Collect@bCGCMem@@IEAAXAEAV?$bTPtrArray@PEAVbCGCMemGeneration@@@@@Z
?Collect@bCGCMem@@QEAAXXZ
?CollectItemSummary@bCMemoryAdmin@@QEBA_NP6A_NPEBDPEBUbSAllocationItem@@@Z@Z
?CollectItemSummaryDiff@bCMemoryAdmin@@QEBA_NP6A_NPEBDPEBUbSAllocationItem@@@Z@Z
?Compare@bCAccessorProperty@@QEBA_NAEBV1@@Z
?Compare@bCAccessorPropertyObject@@QEBA_NAEBV1@@Z
?Compare@bCGuid@@IEBAHAEBV1@@Z
?Compare@bCString@@QEBAHAEBV1@@Z
?Compare@bCString@@QEBAHPEBD@Z
?Compare@bCUnicodeString@@QEBAHAEBV1@@Z
?Compare@bCUnicodeString@@QEBAHPEB_W@Z
?CompareFast@bCString@@QEBA_NAEBV1@@Z
?CompareNoCase@bCString@@QEBAHAEBV1@@Z
?CompareNoCase@bCString@@QEBAHPEBD@Z
?CompareNoCase@bCUnicodeString@@QEBAHAEBV1@@Z
?CompareNoCase@bCUnicodeString@@QEBAHPEB_W@Z
?CompareNoCaseFast@bCString@@QEBA_NAEBV1@@Z
?ComputeDefaultControlWord@bCFPUAdmin@@AEAAXXZ
?ConcatCopy@bCString@@IEAAXPEBDH0H@Z
?ConcatCopy@bCUnicodeString@@IEAAXPEB_WH0H@Z
?ConcatInPlace@bCString@@IEAAXPEBDH@Z
?ConcatInPlace@bCUnicodeString@@IEAAXPEB_WH@Z
?Contains@bCBox@@QEBA_NAEBV1@@Z
?Contains@bCBox@@QEBA_NAEBVbCFrustum@@@Z
?Contains@bCBox@@QEBA_NAEBVbCSphere@@@Z
?Contains@bCBox@@QEBA_NAEBVbCStretch@@@Z
?Contains@bCBox@@QEBA_NAEBVbCTriangle@@@Z
?Contains@bCBox@@QEBA_NAEBVbCUnitedRay@@@Z
?Contains@bCBox@@QEBA_NAEBVbCVector@@@Z
?Contains@bCBox@@QEBA_NQEBVbCVector@@@Z
?Contains@bCFrustum@@QEBA_NAEBV1@@Z
?Contains@bCFrustum@@QEBA_NAEBVbCBox@@@Z
?Contains@bCFrustum@@QEBA_NAEBVbCSphere@@@Z
?Contains@bCFrustum@@QEBA_NAEBVbCStretch@@@Z
?Contains@bCFrustum@@QEBA_NAEBVbCTriangle@@@Z
?Contains@bCFrustum@@QEBA_NAEBVbCUnitedRay@@@Z
?Contains@bCFrustum@@QEBA_NAEBVbCVector@@@Z
?Contains@bCFrustum@@QEBA_NQEBVbCVector@@@Z
?Contains@bCInfCylinder@@QEBA_NAEBV1@@Z
?Contains@bCInfCylinder@@QEBA_NAEBVbCBox@@@Z
?Contains@bCInfCylinder@@QEBA_NAEBVbCFrustum@@@Z
?Contains@bCInfCylinder@@QEBA_NAEBVbCInfDoubleCylinder@@@Z
?Contains@bCInfCylinder@@QEBA_NAEBVbCStretch@@@Z
?Contains@bCInfCylinder@@QEBA_NAEBVbCTriangle@@@Z
?Contains@bCInfCylinder@@QEBA_NAEBVbCUnitedRay@@@Z
?Contains@bCInfCylinder@@QEBA_NAEBVbCVector@@@Z
?Contains@bCInfCylinder@@QEBA_NQEBVbCVector@@@Z
?Contains@bCInfDoubleCylinder@@QEBA_NAEBV1@@Z
?Contains@bCInfDoubleCylinder@@QEBA_NAEBVbCBox@@@Z
?Contains@bCInfDoubleCylinder@@QEBA_NAEBVbCFrustum@@@Z
?Contains@bCInfDoubleCylinder@@QEBA_NAEBVbCInfCylinder@@@Z
?Contains@bCInfDoubleCylinder@@QEBA_NAEBVbCStretch@@@Z
?Contains@bCInfDoubleCylinder@@QEBA_NAEBVbCTriangle@@@Z
?Contains@bCInfDoubleCylinder@@QEBA_NAEBVbCUnitedRay@@@Z
?Contains@bCInfDoubleCylinder@@QEBA_NAEBVbCVector@@@Z
?Contains@bCInfDoubleCylinder@@QEBA_NQEBVbCVector@@@Z
?Contains@bCOrientedBox@@QEBA_NAEBV1@@Z
?Contains@bCOrientedBox@@QEBA_NAEBVbCBox@@@Z
?Contains@bCOrientedBox@@QEBA_NAEBVbCFrustum@@@Z
?Contains@bCOrientedBox@@QEBA_NAEBVbCSphere@@@Z
?Contains@bCOrientedBox@@QEBA_NAEBVbCStretch@@@Z
?Contains@bCOrientedBox@@QEBA_NAEBVbCTriangle@@@Z
?Contains@bCOrientedBox@@QEBA_NAEBVbCUnitedRay@@@Z
?Contains@bCOrientedBox@@QEBA_NAEBVbCVector@@@Z
?Contains@bCRect@@QEBA_NAEBV1@@Z
?Contains@bCRect@@QEBA_NAEBVbCPoint@@@Z
?Contains@bCSphere@@QEBA_NAEBV1@@Z
?Contains@bCSphere@@QEBA_NAEBVbCBox@@@Z
?Contains@bCSphere@@QEBA_NAEBVbCFrustum@@@Z
?Contains@bCSphere@@QEBA_NAEBVbCStretch@@@Z
?Contains@bCSphere@@QEBA_NAEBVbCTriangle@@@Z
?Contains@bCSphere@@QEBA_NAEBVbCUnitedRay@@@Z
?Contains@bCSphere@@QEBA_NAEBVbCVector@@@Z
?Contains@bCSphere@@QEBA_NQEBVbCVector@@@Z
?Contains@bCString@@QEBA_NDH@Z
?Contains@bCString@@QEBA_NPEBDH@Z
?Contains@bCUnicodeString@@QEBA_NPEB_WH@Z
?Contains@bCUnicodeString@@QEBA_N_WH@Z
?ContainsExclusive@bCRect@@QEBA_NAEBVbCPoint@@@Z
?ContainsInclusive@bCRect@@QEBA_NAEBVbCPoint@@@Z
?ContainsOneOf@bCString@@QEBA_NPEBDH@Z
?ContainsOneOf@bCUnicodeString@@QEBA_NPEB_WH@Z
?ConvertStringToValue@bCAccessorProperty@@QEAAXAEBVbCString@@@Z
?ConvertValueToString@bCAccessorProperty@@QEAA?AVbCString@@XZ
?CopyAnsi@bCUnicodeString@@IEAAXPEBDH@Z
?CopyBeforeWrite@bCString@@IEAAXXZ
?CopyBeforeWrite@bCUnicodeString@@IEAAXXZ
?CopyBuffer@bCGCMemGeneration@@QEAAXAEAPEAUbSGCRootDesc@1@@Z
?CopyFileA@bCFileSystem@@UEAA_NAEBVbCString@@0@Z
?CopyFrom@bCAccessorCreator@@QEAAXAEBV1@@Z
?CopyFrom@bCAccessorProperty@@QEAAXAEBV1@@Z
?CopyFrom@bCAccessorPropertyObject@@QEAAXAEBV1@@Z
?CopyFrom@bCBitField@@QEAAXAEBV1@@Z
?CopyFrom@bCCommandLine@@QEAAXAEBV1@@Z
?CopyFrom@bCDateTime@@QEAAXAEBV1@@Z
?CopyFrom@bCEbertNoise@@IEAAXAEBV1@@Z
?CopyFrom@bCFlexibleVertexFormat@@QEAAXAEBV1@@Z
?CopyFrom@bCFlexibleVertexPtr@@QEAAXAEBV1@@Z
?CopyFrom@bCFrustum@@QEAAXAEBV1@@Z
?CopyFrom@bCGuid@@QEAAXAEBV1@@Z
?CopyFrom@bCLine@@QEAAXAEBV1@@Z
?CopyFrom@bCNoise@@IEAAXAEBV1@@Z
?CopyFrom@bCObjectBase@@UEAA?AW4bEDoNotOverwriteMethod@@AEBV1@_N@Z
?CopyFrom@bCPeacheyNoise@@IEAAXAEBV1@@Z
?CopyFrom@bCPerlinNoise@@IEAAXAEBV1@@Z
?CopyFrom@bCPropertyConverterPtr@@IEAAXAEBV1@@Z
?CopyFrom@bCPropertyID@@QEAAXAEBV1@@Z
?CopyFrom@bCPropertyTypeBase@@MEAAXAEBV1@@Z
?CopyFrom@bCStretch@@QEAAXAEBV1@@Z
?CopyFrom@bCTrackBitField@@QEAAXAEBV1@@Z
?CopyFrom@bCTriangle@@QEAAXAEBV1@@Z
?CopyFrom@bCUnitedRay@@QEAAXAEBV1@@Z
?CopyFrom@bCVariant@@QEAAXAEBV1@@Z
?CopyTo@bCAccessorCreator@@QEBAXAEAV1@@Z
?CopyTo@bCAccessorProperty@@QEBAXAEAV1@@Z
?CopyTo@bCAccessorPropertyObject@@QEBAXAEAV1@@Z
?CopyTo@bCBitField@@QEBAXAEAV1@@Z
?CopyTo@bCCommandLine@@QEBAXAEAV1@@Z
?CopyTo@bCDateTime@@QEBAXAEAV1@@Z
?CopyTo@bCEbertNoise@@IEBAXAEAV1@@Z
?CopyTo@bCFlexibleVertexFormat@@QEBAXAEAV1@@Z
?CopyTo@bCFlexibleVertexPtr@@QEBAXAEAV1@@Z
?CopyTo@bCFrustum@@QEBAXAEAV1@@Z
?CopyTo@bCGuid@@QEBAXAEAV1@@Z
?CopyTo@bCLine@@QEBAXAEAV1@@Z
?CopyTo@bCNoise@@IEBAXAEAV1@@Z
?CopyTo@bCObjectBase@@QEBA?AW4bEDoNotOverwriteMethod@@AEAV1@@Z
?CopyTo@bCPeacheyNoise@@IEBAXAEAV1@@Z
?CopyTo@bCPerlinNoise@@IEBAXAEAV1@@Z
?CopyTo@bCPropertyID@@QEBAXAEAV1@@Z
?CopyTo@bCPropertyTypeBase@@IEBAXAEAV1@@Z
?CopyTo@bCStretch@@QEBAXAEAV1@@Z
?CopyTo@bCTrackBitField@@QEBAXAEAV1@@Z
?CopyTo@bCTriangle@@QEBAXAEAV1@@Z
?CopyTo@bCUnitedRay@@QEBAXAEAV1@@Z
?CopyTo@bCVariant@@QEBAXAEAV1@@Z
?CopyUnicode@bCString@@IEAAXPEB_WH@Z
?CountWords@bCString@@QEBAHAEBV1@@Z
?CountWords@bCUnicodeString@@QEBAHAEBV1@@Z
?Create@bCCapsule@@QEAA?AW4bEResult@@XZ
?Create@bCCommandLine@@QEAA_NAEBVbCString@@@Z
?Create@bCErrorAdmin@@QEAAXXZ
?Create@bCEvent@@UEAA?AW4bEResult@@XZ
?Create@bCFPUAdmin@@QEAAXXZ
?Create@bCMd5@@QEAA_NXZ
?Create@bCMemoryAdmin@@IEAAXXZ
?Create@bCMessageAdmin@@AEAAXXZ
?Create@bCObjectBase@@UEAA?AW4bEResult@@XZ
?Create@bCObjectRefBase@@UEAA?AW4bEResult@@XZ
?Create@bCOrientedBox@@QEAAXAEBV1@@Z
?Create@bCOrientedBox@@QEAAXAEBVbCBox@@AEBVbCMatrix3@@@Z
?Create@bCPOStream@@QEAAXXZ
?Create@bCPropertyConverterPtr@@IEAAXXZ
?Create@bCPropertyID@@AEAA_NXZ
?Create@bCPropertyTypeBase@@MEAAXXZ
?Create@bCThread@@QEAA_NAEBUbSThreadContext@1@P6AKPEAX@Z@Z
?Create@bCXMLParser@@QEAA_NW4EEncoding@1@@Z
?CreateErrorDialog@bCDialogHandle@bCEngineDialogs@@QEAA_N_N@Z
?CreateFileNotUniqueDialog@bCDialogHandle@bCEngineDialogs@@QEAA_NXZ
?CreateFromMd5@bCPropertyID@@QEAA_NAEBVbCMd5@@@Z
?CreateFromString@bCPropertyID@@QEAAXAEBVbCString@@@Z
?CreateMemoryDialog@bCDialogHandle@bCEngineDialogs@@QEAA_NXZ
?CreateNewMemoryPoolDescriptor@bCMemoryAdmin@@IEAA_NXZ
?CreateNewObject@bCPropertyObjectTypeBase@@QEAAPEAVbCObjectBase@@XZ
?CreateObject@bCObjectBase@@SAPEAV1@XZ
?CreateObject@bCObjectRefBase@@SAPEAVbCObjectBase@@XZ
?CreateRandom@bCPropertyID@@QEAA_NXZ
?CrossProduct@bCVector2@@QEAAXAEBV1@@Z
?CrossProduct@bCVector2@@SA?AV1@AEBV1@0@Z
?CrossProduct@bCVector@@QEAAXAEBV1@@Z
?CrossProduct@bCVector@@SA?AV1@AEBV1@0@Z
?Cull@bCBox@@QEBA_NAEBV1@@Z
?Cull@bCBox@@QEBA_NAEBVbCFrustum@@@Z
?Cull@bCBox@@QEBA_NAEBVbCLine@@@Z
?Cull@bCBox@@QEBA_NAEBVbCPlane@@@Z
?Cull@bCBox@@QEBA_NAEBVbCRay@@@Z
?Cull@bCBox@@QEBA_NAEBVbCSphere@@@Z
?Cull@bCBox@@QEBA_NAEBVbCStretch@@@Z
?Cull@bCBox@@QEBA_NAEBVbCTriangle@@@Z
?Cull@bCBox@@QEBA_NAEBVbCUnitedRay@@@Z
?Cull@bCBox@@QEBA_NAEBVbCVector@@@Z
?Cull@bCBox@@QEBA_NQEBVbCVector@@@Z
?Cull@bCFrustum@@QEBA_NAEBV1@@Z
?Cull@bCFrustum@@QEBA_NAEBVbCBox@@@Z
?Cull@bCFrustum@@QEBA_NAEBVbCLine@@@Z
?Cull@bCFrustum@@QEBA_NAEBVbCPlane@@@Z
?Cull@bCFrustum@@QEBA_NAEBVbCRay@@@Z
?Cull@bCFrustum@@QEBA_NAEBVbCSphere@@@Z
?Cull@bCFrustum@@QEBA_NAEBVbCStretch@@@Z
?Cull@bCFrustum@@QEBA_NAEBVbCTriangle@@@Z
?Cull@bCFrustum@@QEBA_NAEBVbCUnitedRay@@@Z
?Cull@bCFrustum@@QEBA_NAEBVbCVector@@@Z
?Cull@bCFrustum@@QEBA_NQEBVbCVector@@@Z
?Cull@bCInfCylinder@@QEBA_NAEBV1@@Z
?Cull@bCInfCylinder@@QEBA_NAEBVbCBox@@@Z
?Cull@bCInfCylinder@@QEBA_NAEBVbCFrustum@@@Z
?Cull@bCInfCylinder@@QEBA_NAEBVbCInfDoubleCylinder@@@Z
?Cull@bCInfCylinder@@QEBA_NAEBVbCLine@@@Z
?Cull@bCInfCylinder@@QEBA_NAEBVbCPlane@@@Z
?Cull@bCInfCylinder@@QEBA_NAEBVbCRay@@@Z
?Cull@bCInfCylinder@@QEBA_NAEBVbCSphere@@@Z
?Cull@bCInfCylinder@@QEBA_NAEBVbCStretch@@@Z
?Cull@bCInfCylinder@@QEBA_NAEBVbCTriangle@@@Z
?Cull@bCInfCylinder@@QEBA_NAEBVbCUnitedRay@@@Z
?Cull@bCInfCylinder@@QEBA_NAEBVbCVector@@_N@Z
?Cull@bCInfCylinder@@QEBA_NQEBVbCVector@@@Z
?Cull@bCInfDoubleCylinder@@QEBA_NAEBV1@@Z
?Cull@bCInfDoubleCylinder@@QEBA_NAEBVbCBox@@@Z
?Cull@bCInfDoubleCylinder@@QEBA_NAEBVbCFrustum@@@Z
?Cull@bCInfDoubleCylinder@@QEBA_NAEBVbCInfCylinder@@@Z
?Cull@bCInfDoubleCylinder@@QEBA_NAEBVbCLine@@@Z
?Cull@bCInfDoubleCylinder@@QEBA_NAEBVbCPlane@@@Z
?Cull@bCInfDoubleCylinder@@QEBA_NAEBVbCRay@@@Z
?Cull@bCInfDoubleCylinder@@QEBA_NAEBVbCSphere@@@Z
?Cull@bCInfDoubleCylinder@@QEBA_NAEBVbCStretch@@@Z
?Cull@bCInfDoubleCylinder@@QEBA_NAEBVbCTriangle@@@Z
?Cull@bCInfDoubleCylinder@@QEBA_NAEBVbCUnitedRay@@@Z
?Cull@bCInfDoubleCylinder@@QEBA_NAEBVbCVector@@_NPEAM@Z
?Cull@bCInfDoubleCylinder@@QEBA_NQEBVbCVector@@@Z
?Cull@bCSphere@@QEBA_NAEBV1@@Z
?Cull@bCSphere@@QEBA_NAEBVbCBox@@@Z
?Cull@bCSphere@@QEBA_NAEBVbCFrustum@@@Z
?Cull@bCSphere@@QEBA_NAEBVbCLine@@@Z
?Cull@bCSphere@@QEBA_NAEBVbCPlane@@@Z
?Cull@bCSphere@@QEBA_NAEBVbCRay@@@Z
?Cull@bCSphere@@QEBA_NAEBVbCStretch@@@Z
?Cull@bCSphere@@QEBA_NAEBVbCTriangle@@@Z
?Cull@bCSphere@@QEBA_NAEBVbCUnitedRay@@@Z
?Cull@bCSphere@@QEBA_NAEBVbCVector@@00@Z
?Cull@bCSphere@@QEBA_NAEBVbCVector@@@Z
?Cull@bCSphere@@QEBA_NQEBVbCVector@@@Z
?Cull@bCTriangle@@QEBA_NAEBV1@@Z
?Cull@bCTriangle@@QEBA_NAEBVbCBox@@@Z
?Cull@bCTriangle@@QEBA_NAEBVbCFrustum@@@Z
?Cull@bCTriangle@@QEBA_NAEBVbCLine@@@Z
?Cull@bCTriangle@@QEBA_NAEBVbCPlane@@@Z
?Cull@bCTriangle@@QEBA_NAEBVbCRay@@@Z
?Cull@bCTriangle@@QEBA_NAEBVbCSphere@@@Z
?Cull@bCTriangle@@QEBA_NAEBVbCStretch@@@Z
?Cull@bCTriangle@@QEBA_NAEBVbCUnitedRay@@@Z
?Cull@bCTriangle@@QEBA_NQEBVbCVector@@@Z
?DRand48@bCRandom@@QEBANNN@Z
?DRand48@bCRandom@@QEBANXZ
?DebugBreak@bCErrorAdmin@@QEAAXXZ
?Decompose@bCVector@@QEBAXAEBV1@AEAV1@1@Z
?DecrSortEigenStuff2@bCEigenVector@@QEAAXXZ
?DecrSortEigenStuff3@bCEigenVector@@QEAAXXZ
?DecrSortEigenStuff4@bCEigenVector@@QEAAXXZ
?DecrSortEigenStuff@bCEigenVector@@QEAAXXZ
?DecrSortEigenStuffN@bCEigenVector@@QEAAXXZ
?DecreasingSort@bCEigenVector@@AEAAXJPEANPEAPEAN@Z
?Decrement@bCString@@KAHPEAUbSStringData@1@@Z
?Decrement@bCUnicodeString@@KAHPEAUbSUnicodeStringData@1@@Z
?Decrypt@bCMemoryStream@@KA_NPEAXK@Z
?Decrypt@bCMemoryStream@@QEAA_NXZ
?Delete@bCString@@QEAAHHH@Z
?Delete@bCUnicodeString@@QEAAHHH@Z
?DeleteDir@bCFileSystem@@UEAA_NAEBVbCString@@@Z
?DeleteFileA@bCFileSystem@@UEAA_NAEBVbCString@@@Z
?DeleteObject@bCMemoryAdmin@@QEAAXPEAX@Z
?DeleteObjectArray@bCMemoryAdmin@@QEAAXPEAX@Z
?Deserialize@bCAccessorPropertyObject@@QEAA_NPEAVbCXMLParserNode@@@Z
?Deserialize@bCObjectBase@@UEAA_NPEAVbCXMLParserNode@@@Z
?Destroy@bCCapsule@@QEAAXXZ
?Destroy@bCCommandLine@@QEAAXXZ
?Destroy@bCErrorAdmin@@IEAAXXZ
?Destroy@bCEvent@@UEAAXXZ
?Destroy@bCFPUAdmin@@IEAAXXZ
?Destroy@bCMd5@@QEAAXXZ
?Destroy@bCMemoryAdmin@@QEAAXXZ
?Destroy@bCMemoryStream@@QEAAXXZ
?Destroy@bCMessageAdmin@@AEAAXXZ
?Destroy@bCObjectBase@@MEAAXXZ
?Destroy@bCObjectRefBase@@UEAAXXZ
?Destroy@bCPOStream@@QEAAXXZ
?Destroy@bCPropertyConverterPtr@@IEAAXXZ
?Destroy@bCPropertyID@@QEAAXXZ
?Destroy@bCPropertyTypeBase@@MEAAXXZ
?Destroy@bCThread@@QEAAXXZ
?Destroy@bCXMLParser@@QEAAXXZ
?DestroyErrorDialog@bCDialogHandle@bCEngineDialogs@@QEAA_NXZ
?DestroyFileNotUniqueDialog@bCDialogHandle@bCEngineDialogs@@QEAA_NXZ
?DestroyHashList@bCPropertyID@@KAXXZ
?DestroyMemoryDialog@bCDialogHandle@bCEngineDialogs@@QEAA_NXZ
?Disable@bCBitField@@QEAAXH@Z
?Disable@bCTrackBitField@@QEAAXH@Z
?DisableAll@bCBitField@@QEAAXXZ
?DisableAll@bCTrackBitField@@QEAAXXZ
?DisableLegacyMode@bCPOStream@@SAXXZ
?DisableSilentLogMode@bCMessageAdmin@@QEAAXXZ
?Divide@bCMatrix2@@QEAAXM@Z
?Divide@bCMatrix3@@QEAAXM@Z
?Divide@bCMatrix@@QEAAXM@Z
?DoClone@bCPropertyTypeBase@@MEBAPEAV1@XZ
?DotProduct@bCVector2@@SAMAEBV1@0@Z
?DotProduct@bCVector4@@SAMAEBV1@0@Z
?DotProduct@bCVector@@SAMAEBV1@0@Z
?Dump@bCXMLParserNode@@QEBAXH@Z
?DumpAllocationItem@bCMemoryAdmin@@QEBAXP6A_NPEBDPEBUbSAllocationItem@@@ZAEBU2@@Z
?DumpGrowSize@bCMemoryAdmin@@QEAAXXZ
?DumpHeapStatistics@bCMemoryAdmin@@QEBAXP6A_NPEBDPEBUbSAllocationItem@@@Z@Z
?DumpLeakReport@bCMemoryAdmin@@QEAAXP6A_NPEBDPEBUbSAllocationItem@@@Z@Z
?DumpNode@bCXMLParserNode@@QEBAXH_N@Z
?DumpOutputDebugString@bCAccessorProperty@@QEAAXXZ
?DumpOutputDebugString@bCAccessorPropertyObject@@QEAAX_N@Z
?DumpStatisticsByItem@bCMemoryAdmin@@QEBAXP6A_NPEBDPEBUbSAllocationItem@@@Z@Z
?DumpStatisticsBySubSystem@bCMemoryAdmin@@QEBAXP6A_NPEBDPEBUbSAllocationItem@@@Z@Z
?EL_GetLocalTime@@YAXPEAU_SYSTEMTIME@@@Z
?EL_PathAddBackslash@@YAPEADPEAD@Z
?EL_PathCanonicalize@@YAHPEADPEBD@Z
?EL_PathMatchSpec@@YAHPEBD0@Z
?EL_Rand_ui32@@YAIII@Z
?EL_timeGetTime@@YAIXZ
?EigenStuff2@bCEigenVector@@QEAAXXZ
?EigenStuff3@bCEigenVector@@QEAAXXZ
?EigenStuff4@bCEigenVector@@QEAAXXZ
?EigenStuff@bCEigenVector@@QEAAXXZ
?EigenStuffN@bCEigenVector@@QEAAXXZ
?Eigenvalue@bCEigenVector@@QEAANJ@Z
?Eigenvalue@bCEigenVector@@QEAAPEBNXZ
?Eigenvector@bCEigenVector@@QEAANJJ@Z
?Eigenvector@bCEigenVector@@QEAAPEAPEBNXZ
?Eigenvector@bCEigenVector@@QEBAXJAEAVbCVector@@@Z
?Enable@bCBitField@@QEAAXH@Z
?Enable@bCTrackBitField@@QEAAXH@Z
?EnableAll@bCBitField@@QEAAXXZ
?EnableAll@bCTrackBitField@@QEAAXXZ
?EnableAllocationReport@bCMemoryAdmin@@QEAAX_N@Z
?EnableDenormalFloatExceptions@bCFPUAdmin@@QEAAX_N@Z
?EnableDiffuse@bCFlexibleVertexFormat@@QEAAX_N@Z
?EnableInvalidFloatExceptions@bCFPUAdmin@@QEAAX_N@Z
?EnableMemoryLeakReport@bCMemoryAdmin@@QEAAX_N@Z
?EnableNormal@bCFlexibleVertexFormat@@QEAAX_N@Z
?EnableOverflowExceptions@bCFPUAdmin@@QEAAX_N@Z
?EnablePointSize@bCFlexibleVertexFormat@@QEAAX_N@Z
?EnableProfiling@bCProfileManager@@SAX_N@Z
?EnableRHW@bCFlexibleVertexFormat@@QEAAX_N@Z
?EnableSilentLogMode@bCMessageAdmin@@QEAAXXZ
?EnableSpecular@bCFlexibleVertexFormat@@QEAAX_N@Z
?EnableThreads@bCThreadEx@@SAX_N@Z
?EnableUnderflowExceptions@bCFPUAdmin@@QEAAX_N@Z
?EnableZeroDevideExceptions@bCFPUAdmin@@QEAAX_N@Z
?Encrypt@bCMemoryStream@@KA_NPEAXK@Z
?Encrypt@bCMemoryStream@@QEAA_NXZ
?EndIterator@bCPropertyObjectTypeBase@@QEBA?AVbCConstIterator@?$bTArrayBase@PEAVbCPropertyTypeBase@@@@XZ
?EndThread@bCThreadEx@@QEAA_NXZ
?Eof@bCFile@@QEBA_NXZ
?ExecuteCallbackType@bCMessageAdmin@@IEAA_NW4bEMessageCallbackPriority@@W4bEMessageTypes@@PEBD22HH@Z
?ExecuteErrorCallbacks@bCErrorAdmin@@IEAAXW4bEErrorPositionHandling@@W4bEErrorType@@@Z
?ExistsFile@bCFileSystem@@UEBA_NAEBVbCString@@@Z
?Exp@bCQuaternion@@QEAAXXZ
?ExpandAnd@bCBitField@@QEAAXAEBV1@@Z
?ExpandAnd@bCTrackBitField@@QEAAXAEBV1@@Z
?ExpandBox@bCOctTree@@AEAAXHHH@Z
?ExpandOr@bCBitField@@QEAAXAEBV1@@Z
?ExpandOr@bCTrackBitField@@QEAAXAEBV1@@Z
?ExpandXor@bCBitField@@QEAAXAEBV1@@Z
?ExpandXor@bCTrackBitField@@QEAAXAEBV1@@Z
?ExtractGuid@bCPropertyID@@QEAAXAEAVbCGuid@@@Z
?FRand48@bCRandom@@QEBAMMM@Z
?FRand48@bCRandom@@QEBAMXZ
?FakeMainPOStream@bCPOStream@@QEAAX_N@Z
?Find@bCString@@QEBAHDH_N@Z
?Find@bCString@@QEBAHPEBDH_N@Z
?Find@bCUnicodeString@@QEBAHPEB_WH@Z
?Find@bCUnicodeString@@QEBAH_WH@Z
?FindAllocationItem@bCMemoryAdmin@@QEBAPEAUbSAllocationItem@@PEBX@Z
?FindDirectories@bCFileSystem@@UEAA_NVbCString@@AEAV?$bTObjArray@VbCString@@@@@Z
?FindFiles@bCFileSystem@@UEAA_NVbCString@@AEAV?$bTObjArray@VbCString@@@@@Z
?FindNoCase@bCString@@QEBAHPEBDH@Z
?FindNoiseChar@bCString@@QEBAHH_N@Z
?FindNumericalChar@bCString@@QEBAHH_N@Z
?FindOneOf@bCString@@QEBAHPEBDH@Z
?FindOneOf@bCUnicodeString@@QEBAHPEB_WH@Z
?FindPropertyTemplate@bCPropertyObjectTypeBase@@QEBAPEBVbCPropertyTypeBase@@AEBVbCString@@@Z
?Finish@bCMd5@@QEAAXAEAUbSCore@bCPropertyID@@@Z
?Finish@bCMd5@@QEAAXXZ
?ForceLegacyMode@bCPOStream@@QEAAXXZ
?ForcePanicState@bCErrorAdmin@@QEAAXXZ
?Format@bCString@@QEAA_NPEBDZZ
?Format@bCUnicodeString@@QEAAXPEB_WZZ
?Free@bCMemPool@@QEAAXPEAX@Z
?Free@bCMemoryAdmin@@QEAAXPEAX@Z
?FreeData@bCString@@KAXPEAUbSStringData@1@@Z
?FreeData@bCUnicodeString@@KAXPEAUbSUnicodeStringData@1@@Z
?FreeExtra@bCString@@QEAAXXZ
?FreeExtra@bCUnicodeString@@QEAAXXZ
?FreePure@bCMemoryAdmin@@IEAAXPEAX@Z
?FromName@bCPropertyObjectTypeBase@@SAPEAV1@PEBD@Z
?GCNew@bCGCMem@@QEAAPEAUbSGCRootDesc@bCGCMemGeneration@@K@Z
?GLattice@bCPeacheyNoise@@IEBAMHHHMMM@Z
?GNoise@bCPeacheyNoise@@QEBAMMMM@Z
?GVNoise@bCPeacheyNoise@@QEBAMMMMM@Z
?Generate@bCGuid@@QEAAXXZ
?GetA@bCTriangle@@QEBAAEBVbCVector@@XZ
?GetA@bCTriangle@@QEBAXAEAVbCVector@@@Z
?GetAbsoluteNode@bCProfileManager@@KAPEAVbCProfileNode@@PEBD@Z
?GetAccessorPropertyObject@bCAccessorProperty@@QEAAAEAVbCAccessorPropertyObject@@XZ
?GetAccessorPropertyObject@bCAccessorProperty@@QEBAAEBVbCAccessorPropertyObject@@XZ
?GetActualMemorySubSystem@bCMemorySubSystemStack@@QEAA?AW4bEMemorySubSystem@@XZ
?GetAlgorithm@bCPeacheyNoise@@QEBA?AW4bEAlgorithm@1@XZ
?GetAlgorithm@bCPerlinNoise@@QEBA?AW4bEAlgorithm@1@XZ
?GetAllocLength@bCString@@QEBAHXZ
?GetAllocLength@bCUnicodeString@@QEBAHXZ
?GetAllocationSummery@bCMemoryAdmin@@QEBAPEAUbSAllocationSummery@@K@Z
?GetAllocationSummeryHashSize@bCMemoryAdmin@@QEBAKXZ
?GetAlpha@bCByteAlphaColor@@QEBAEXZ
?GetAlpha@bCByteAlphaColor@@QEBAXAEAE@Z
?GetAlpha@bCFloatAlphaColor@@QEBAMXZ
?GetAlpha@bCFloatAlphaColor@@QEBAXAEAM@Z
?GetAngle@bCAxisAngle@@QEBAMXZ
?GetAngle@bCAxisAngle@@QEBAXAEAM@Z
?GetAngleDeg@bCVector@@QEBAMAEBV1@@Z
?GetAngleRad@bCVector@@QEBAMAEBV1@@Z
?GetAngleUnitDeg@bCVector@@QEBAMAEBV1@@Z
?GetAngleUnitRad@bCVector@@QEBAMAEBV1@@Z
?GetAnsiText@bCUnicodeString@@QEBA?AVbCString@@XZ
?GetArguments@bCCommandLine@@QEBAAEBV?$bTObjArray@VbCString@@@@XZ
?GetArguments@bCCommandLine@@QEBAXAEAV?$bTObjArray@VbCString@@@@@Z
?GetArrayBlockCount@bCMemoryAdmin@@QEBAHPEAX@Z
?GetAsHexCodedString@bCUnicodeString@@QEBA?AVbCString@@XZ
?GetAt@bCBitField@@QEBA_NH@Z
?GetAt@bCString@@QEBADH_N@Z
?GetAt@bCTrackBitField@@QEBA_NH@Z
?GetAt@bCUnicodeString@@QEBA_WH@Z
?GetAttribute@bCXMLParserNode@@QEBA_NAEBVbCString@@AEAC@Z
?GetAttribute@bCXMLParserNode@@QEBA_NAEBVbCString@@AEAD@Z
?GetAttribute@bCXMLParserNode@@QEBA_NAEBVbCString@@AEAE@Z
?GetAttribute@bCXMLParserNode@@QEBA_NAEBVbCString@@AEAF@Z
?GetAttribute@bCXMLParserNode@@QEBA_NAEBVbCString@@AEAG@Z
?GetAttribute@bCXMLParserNode@@QEBA_NAEBVbCString@@AEAH@Z
?GetAttribute@bCXMLParserNode@@QEBA_NAEBVbCString@@AEAI@Z
?GetAttribute@bCXMLParserNode@@QEBA_NAEBVbCString@@AEAJ@Z
?GetAttribute@bCXMLParserNode@@QEBA_NAEBVbCString@@AEAK@Z
?GetAttribute@bCXMLParserNode@@QEBA_NAEBVbCString@@AEAM@Z
?GetAttribute@bCXMLParserNode@@QEBA_NAEBVbCString@@AEAN@Z
?GetAttribute@bCXMLParserNode@@QEBA_NAEBVbCString@@AEAV2@@Z
?GetAttribute@bCXMLParserNode@@QEBA_NAEBVbCString@@AEAVbCGuid@@@Z
?GetAttribute@bCXMLParserNode@@QEBA_NAEBVbCString@@AEAVbCUnicodeString@@@Z
?GetAttribute@bCXMLParserNode@@QEBA_NAEBVbCString@@AEA_J@Z
?GetAttribute@bCXMLParserNode@@QEBA_NAEBVbCString@@AEA_K@Z
?GetAttribute@bCXMLParserNode@@QEBA_NAEBVbCString@@AEA_N@Z
?GetAttributes@bCPropertyTypeBase@@QEBAEXZ
?GetAttributes@bCXMLParserNode@@QEAAAEAV?$bTArrayMap@VbCString@@V1@@@XZ
?GetAttributes@bCXMLParserNode@@QEBAAEBV?$bTArrayMap@VbCString@@V1@@@XZ
?GetAxis@bCAxisAngle@@QEBAAEBVbCVector@@XZ
?GetAxis@bCAxisAngle@@QEBAXAEAVbCVector@@@Z
?GetAxis@bCOrientedBox@@QEBAAEBVbCVector@@H@Z
?GetAxisAngle@bCEulerAngles@@QEBA?AVbCAxisAngle@@XZ
?GetAxisAngle@bCQuaternion@@QEBA?AVbCAxisAngle@@XZ
?GetAxisAngle@bCQuaternion@@QEBAXAEAVbCAxisAngle@@@Z
?GetAziElev@bCVector@@QEBAXAEAM0@Z
?GetAziElevApprox@bCVector@@QEBAXAEAM0@Z
?GetAziElevUnit@bCVector@@QEBAXAEAM0@Z
?GetAzimuth@bCSphericalRotation@@QEBAMXZ
?GetAzimuth@bCSphericalRotation@@QEBAXAEAM@Z
?GetB@bCTriangle@@QEBAAEBVbCVector@@XZ
?GetB@bCTriangle@@QEBAXAEAVbCVector@@@Z
?GetBase@bCPropertyObjectTypeBase@@QEBAPEAV1@XZ
?GetBaseClass@bCAccessorPropertyObject@@QEBA?AV1@XZ
?GetBaseClassName@bCObjectBase@@QEBAAEBVbCString@@XZ
?GetBaseClassName@bCPropertyObjectTypeBase@@QEBAAEBVbCString@@XZ
?GetBlue@bCByteColor@@QEBAEXZ
?GetBlue@bCByteColor@@QEBAXAEAE@Z
?GetBlue@bCFloatColor@@QEBAMXZ
?GetBlue@bCFloatColor@@QEBAXAEAM@Z
?GetBool@bCString@@QEBA_NXZ
?GetBool@bCUnicodeString@@QEBA_NXZ
?GetBool@bCVariant@@QEBAAEB_NXZ
?GetBottom@bCRect@@QEBAJXZ
?GetBottom@bCRect@@QEBAXAEAJ@Z
?GetBottomRight@bCRect@@QEBAAEBVbCPoint@@XZ
?GetBottomRight@bCRect@@QEBAXAEAVbCPoint@@@Z
?GetBreakOnError@bCValidateMemory@@QEBA_NXZ
?GetBuffer@bCFlexibleVertexPtr@@QEAAPEAEXZ
?GetBuffer@bCFlexibleVertexPtr@@QEBAPEBEXZ
?GetBuffer@bCFlexibleVertexPtr@@QEBAXAEAPEAE@Z
?GetBuffer@bCMemoryStream@@QEBAPEBEK@Z
?GetBuffer@bCString@@QEAAPEADH@Z
?GetBuffer@bCUnicodeString@@QEAAPEA_WH@Z
?GetBufferSetLength@bCString@@QEAAPEADH@Z
?GetBufferSetLength@bCUnicodeString@@QEAAPEA_WH@Z
?GetBytesWritten@bCNullStream@@QEAAKXZ
?GetC@bCTriangle@@QEBAAEBVbCVector@@XZ
?GetC@bCTriangle@@QEBAXAEAVbCVector@@@Z
?GetCalls@bCProfileNode@@QEBAHXZ
?GetCapacity@bCBitField@@QEBAHXZ
?GetCapacity@bCTrackBitField@@QEBAHXZ
?GetCenter@?$bTVolume@VbCBox@@@@UEBAXAEAVbCVector@@@Z
?GetCenter@?$bTVolume@VbCFrustum@@@@UEBAXAEAVbCVector@@@Z
?GetCenter@?$bTVolume@VbCSphere@@@@UEBAXAEAVbCVector@@@Z
?GetCenter@bCBox@@QEBA?AVbCVector@@XZ
?GetCenter@bCBox@@QEBAXAEAVbCVector@@@Z
?GetCenter@bCCapsule@@QEAAAEAVbCVector@@XZ
?GetCenter@bCCapsule@@QEBAAEBVbCVector@@XZ
?GetCenter@bCOrientedBox@@QEBAAEBVbCVector@@XZ
?GetCenter@bCRange1@@QEBAMXZ
?GetCenter@bCRange1@@QEBAXAEAM@Z
?GetCenter@bCRange2@@QEBA?AVbCVector2@@XZ
?GetCenter@bCRange2@@QEBAXAEAVbCVector2@@@Z
?GetCenter@bCRange3@@QEBA?AVbCVector@@XZ
?GetCenter@bCRange3@@QEBAXAEAVbCVector@@@Z
?GetCenter@bCRange4@@QEBA?AVbCVector4@@XZ
?GetCenter@bCRange4@@QEBAXAEAVbCVector4@@@Z
?GetCenter@bCTriangle@@QEAAXAEAVbCVector@@@Z
?GetCenterGround@bCBox@@QEBA?AVbCVector@@XZ
?GetCenterGround@bCBox@@QEBAXAEAVbCVector@@@Z
?GetCenterPoint@bCRect@@QEBA?AVbCPoint@@XZ
?GetChild@bCProfileNode@@QEBAPEAV1@XZ
?GetChild@bCXMLParserNode@@QEBAPEAV1@AEBVbCString@@@Z
?GetChildCount@bCXMLParserNode@@QEBAHXZ
?GetCircumAxisBox@bCOrientedBox@@QEBA?AVbCBox@@XZ
?GetCircumAxisBox@bCOrientedBox@@QEBAXAEAVbCBox@@@Z
?GetCircumSphere@bCOrientedBox@@QEBA?AVbCSphere@@XZ
?GetCircumSphere@bCOrientedBox@@QEBAXAEAVbCSphere@@@Z
?GetClamped@bCByteAlphaColor@@QEBA?AV1@XZ
?GetClamped@bCByteAlphaColor@@QEBAXAEAV1@@Z
?GetClamped@bCByteColor@@QEBA?AV1@XZ
?GetClamped@bCByteColor@@QEBAXAEAV1@@Z
?GetClamped@bCFloatAlphaColor@@QEBA?AV1@XZ
?GetClamped@bCFloatAlphaColor@@QEBAXAEAV1@@Z
?GetClamped@bCFloatColor@@QEBA?AV1@XZ
?GetClamped@bCFloatColor@@QEBAXAEAV1@@Z
?GetClamped@bCFloatColorHSV@@QEBA?AV1@XZ
?GetClamped@bCFloatColorHSV@@QEBAXAEAV1@@Z
?GetClamped@bCRange1@@QEBAMM@Z
?GetClassDescription@bCObjectBase@@QEBA?AVbCString@@XZ
?GetClassName@bCAccessorProperty@@QEBAAEBVbCString@@XZ
?GetClassName@bCAccessorPropertyObject@@QEBAAEBVbCString@@XZ
?GetClassName@bCObjectBase@@QEBAAEBVbCString@@XZ
?GetClassName@bCPropertyObjectTypeBase@@QEBAAEBVbCString@@XZ
?GetClippingPlane@bCFrustum@@QEBAAEBVbCPlane@@H@Z
?GetClippingPlane@bCFrustum@@QEBAXHAEAVbCPlane@@@Z
?GetColor_ARGB_1555@bCByteAlphaColor@@QEBAGXZ
?GetColor_ARGB_1555@bCByteAlphaColor@@QEBAXAEAG@Z
?GetColor_ARGB_8888@bCByteAlphaColor@@QEBAKXZ
?GetColor_ARGB_8888@bCByteAlphaColor@@QEBAXAEAK@Z
?GetColor_RGBA_4444@bCByteAlphaColor@@QEBAGXZ
?GetColor_RGBA_4444@bCByteAlphaColor@@QEBAXAEAG@Z
?GetColor_RGBA_8888@bCByteAlphaColor@@QEBAKXZ
?GetColor_RGBA_8888@bCByteAlphaColor@@QEBAXAEAK@Z
?GetColor_RGB_555@bCByteColor@@QEBAGXZ
?GetColor_RGB_555@bCByteColor@@QEBAXAEAG@Z
?GetColor_RGB_565@bCByteColor@@QEBAGXZ
?GetColor_RGB_565@bCByteColor@@QEBAXAEAG@Z
?GetColor_RGB_888@bCByteAlphaColor@@QEBA?AVbCByteColor@@XZ
?GetColor_RGB_888@bCByteAlphaColor@@QEBAXAEAVbCByteColor@@@Z
?GetColumn4@bCMatrix@@QEBA?AVbCVector4@@H@Z
?GetColumn@bCMatrix2@@QEBA?AVbCVector2@@H@Z
?GetColumn@bCMatrix2@@QEBAXHAEAVbCVector2@@@Z
?GetColumn@bCMatrix2@@QEBAXHQEAM@Z
?GetColumn@bCMatrix3@@QEBA?AVbCVector@@H@Z
?GetColumn@bCMatrix3@@QEBAXHAEAVbCVector@@@Z
?GetColumn@bCMatrix3@@QEBAXHQEAM@Z
?GetColumn@bCMatrix@@QEBA?AVbCVector@@H@Z
?GetColumn@bCMatrix@@QEBAXHAEAVbCVector4@@@Z
?GetColumn@bCMatrix@@QEBAXHAEAVbCVector@@@Z
?GetColumn@bCMatrix@@QEBAXHQEAM@Z
?GetCoordinate@bCBox@@QEBAMH@Z
?GetCoordinate@bCBox@@QEBAXHAEAM@Z
?GetCoordinate@bCRect@@QEBAJH@Z
?GetCoordinate@bCRect@@QEBAXAEAJH@Z
?GetCoordinate@bCVector2@@QEBAAEBMH@Z
?GetCoordinate@bCVector2@@QEBAXHAEAM@Z
?GetCoordinate@bCVector4@@QEBAAEBMH@Z
?GetCoordinate@bCVector4@@QEBAXHAEAM@Z
?GetCoordinate@bCVector@@QEBAAEBMH@Z
?GetCoordinate@bCVector@@QEBAXHAEAM@Z
?GetCoordinates@bCVector2@@QEBAAEAY01$$CBMXZ
?GetCoordinates@bCVector2@@QEBAXAEAM0@Z
?GetCoordinates@bCVector2@@QEBAXQEAM@Z
?GetCoordinates@bCVector4@@QEBAAEAY03$$CBMXZ
?GetCoordinates@bCVector4@@QEBAXAEAM000@Z
?GetCoordinates@bCVector4@@QEBAXQEAM@Z
?GetCoordinates@bCVector@@QEBAAEAY02$$CBMXZ
?GetCoordinates@bCVector@@QEBAXAEAM00@Z
?GetCoordinates@bCVector@@QEBAXQEAM@Z
?GetCore@bCPropertyID@@QEBAAEBUbSCore@1@XZ
?GetCount@bCBitField@@QEBAHXZ
?GetCount@bCPropertyID@@QEBAAEBKXZ
?GetCount@bCTrackBitField@@QEBAHXZ
?GetCountDisabled@bCBitField@@QEBAHXZ
?GetCountDisabled@bCTrackBitField@@QEBAHXZ
?GetCountEnabled@bCBitField@@QEBAHXZ
?GetCountEnabled@bCTrackBitField@@QEBAHXZ
?GetCriticalSection@bCThreadObjectRefBase@@QEAAAEAVbCCriticalSection@@XZ
?GetCrossProduct@bCVector2@@QEBA?AV1@AEBV1@@Z
?GetCrossProduct@bCVector@@QEBA?AV1@AEBV1@@Z
?GetCurrentControlWord@bCFPUAdmin@@QEAAKXZ
?GetCurrentDirPath@bCFileSystem@@UEBA?AVbCString@@XZ
?GetData@bCString@@IEBAPEAUbSStringData@1@XZ
?GetData@bCUnicodeString@@IEBAPEAUbSUnicodeStringData@1@XZ
?GetData@bCVariant@@QEBAAEBTbUType@1@XZ
?GetData@bCVariant@@QEBAXAEAC@Z
?GetData@bCVariant@@QEBAXAEAE@Z
?GetData@bCVariant@@QEBAXAEAF@Z
?GetData@bCVariant@@QEBAXAEAG@Z
?GetData@bCVariant@@QEBAXAEAH@Z
?GetData@bCVariant@@QEBAXAEAJ@Z
?GetData@bCVariant@@QEBAXAEAK@Z
?GetData@bCVariant@@QEBAXAEAM@Z
?GetData@bCVariant@@QEBAXAEAN@Z
?GetData@bCVariant@@QEBAXAEAPEAD@Z
?GetData@bCVariant@@QEBAXAEAPEAX@Z
?GetData@bCVariant@@QEBAXAEATbUType@1@@Z
?GetData@bCVariant@@QEBAXAEA_J@Z
?GetData@bCVariant@@QEBAXAEA_K@Z
?GetData@bCVariant@@QEBAXAEA_N@Z
?GetDateString@bCDateTime@@QEBAXAEAVbCString@@@Z
?GetDateStringW@bCDateTime@@QEBAXAEAVbCUnicodeString@@@Z
?GetDateTime@bCDateTime@@QEBAXAEA_K@Z
?GetDateTime@bCDateTime@@QEBA_KXZ
?GetDepth@bCBox@@QEBAMXZ
?GetDepth@bCOrientedBox@@QEBAMXZ
?GetDerived@bCPropertyObjectTypeBase@@QEBAPEAV1@XZ
?GetDescription@bCPropertyObjectTypeBase@@QEBAPEBDXZ
?GetDeterminant@bCMatrix2@@QEBAMXZ
?GetDeterminant@bCMatrix3@@QEBAMXZ
?GetDeterminant@bCMatrix@@QEBAMXZ
?GetDeterminantAdjoint@bCMatrix3@@QEBAMHH@Z
?GetDeterminantAdjoint@bCMatrix@@QEBAMHH@Z
?GetDeterminantRotation@bCMatrix@@QEBAMXZ
?GetDialogHandle@bCEngineDialogs@@QEBAAEAVbCDialogHandle@1@XZ
?GetDifference@bCByteAlphaColor@@QEBA?AV1@AEBV1@@Z
?GetDifference@bCByteAlphaColor@@QEBAXAEAV1@AEBV1@@Z
?GetDifference@bCByteColor@@QEBA?AV1@AEBV1@@Z
?GetDifference@bCByteColor@@QEBAXAEAV1@AEBV1@@Z
?GetDifference@bCFloatAlphaColor@@QEBA?AV1@AEBV1@@Z
?GetDifference@bCFloatAlphaColor@@QEBAXAEAV1@AEBV1@@Z
?GetDifference@bCFloatColor@@QEBA?AV1@AEBV1@@Z
?GetDifference@bCFloatColor@@QEBAXAEAV1@AEBV1@@Z
?GetDifference@bCFloatColorHSV@@QEBA?AV1@AEBV1@@Z
?GetDifference@bCFloatColorHSV@@QEBAXAEAV1@AEBV1@@Z
?GetDifference@bCMatrix2@@QEBA?AV1@AEBV1@@Z
?GetDifference@bCMatrix2@@QEBAXAEAV1@AEBV1@@Z
?GetDifference@bCMatrix3@@QEBA?AV1@AEBV1@@Z
?GetDifference@bCMatrix3@@QEBAXAEAV1@AEBV1@@Z
?GetDifference@bCMatrix@@QEBA?AV1@AEBV1@@Z
?GetDifference@bCMatrix@@QEBAXAEAV1@AEBV1@@Z
?GetDifference@bCQuaternion@@QEBA?AV1@AEBV1@@Z
?GetDifference@bCQuaternion@@QEBAXAEAV1@AEBV1@@Z
?GetDifference@bCStretch@@QEBA?AV1@AEBV1@@Z
?GetDifference@bCStretch@@QEBAXAEAV1@AEBV1@@Z
?GetDifference@bCUnitedRay@@QEBA?AV1@AEBV1@@Z
?GetDifference@bCUnitedRay@@QEBAXAEAV1@AEBV1@@Z
?GetDiffuse@bCFlexibleVertexPtr@@QEBAKXZ
?GetDigest16@bCMd5@@QEBAXAEAUbSCore@bCPropertyID@@@Z
?GetDigest32@bCMd5@@QEBAXAEAUbSCore@bCPropertyID@@@Z
?GetDigest8@bCMd5@@QEBAXAEAUbSCore@bCPropertyID@@@Z
?GetDirection@bCLine@@QEBAAEBVbCVector@@XZ
?GetDirection@bCLine@@QEBAXAEAVbCVector@@@Z
?GetDirection@bCRay@@QEBAAEBVbCVector@@XZ
?GetDirection@bCRay@@QEBAXAEAVbCVector@@@Z
?GetDirection@bCStretch@@QEBA?AVbCVector@@XZ
?GetDirection@bCStretch@@QEBAXAEAVbCVector@@@Z
?GetDirection@bCUnitedRay@@QEBAAEBVbCVector@@XZ
?GetDirection@bCUnitedRay@@QEBAXAEAVbCVector@@@Z
?GetDistance@bCFrustum@@QEBAMAEBVbCVector@@@Z
?GetDistance@bCPlane@@QEBAMXZ
?GetDistance@bCPlane@@QEBAXAEAM@Z
?GetDotProduct@bCQuaternion@@QEBAMAEBV1@@Z
?GetDotProduct@bCVector2@@QEBAMAEBV1@@Z
?GetDotProduct@bCVector4@@QEBAMAEBV1@@Z
?GetDotProduct@bCVector@@QEBAMAEBV1@@Z
?GetDouble@bCString@@QEBANH@Z
?GetDouble@bCUnicodeString@@QEBANXZ
?GetDouble@bCVariant@@QEBAAEBNXZ
?GetEbertNoise@bCEbertNoise@@SAAEAV1@XZ
?GetEdge@bCOrientedBox@@QEBA?AVbCStretch@@H@Z
?GetEdge@bCOrientedBox@@QEBAXHAEAVbCStretch@@@Z
?GetEdges@bCOrientedBox@@QEBAXQEAVbCStretch@@@Z
?GetElement@bCMatrix2@@QEBAMH@Z
?GetElement@bCMatrix2@@QEBAMHH@Z
?GetElement@bCMatrix2@@QEBAXHAEAM@Z
?GetElement@bCMatrix2@@QEBAXHHAEAM@Z
?GetElement@bCMatrix3@@QEBAMH@Z
?GetElement@bCMatrix3@@QEBAMHH@Z
?GetElement@bCMatrix3@@QEBAXHAEAM@Z
?GetElement@bCMatrix3@@QEBAXHHAEAM@Z
?GetElement@bCMatrix@@QEBAMH@Z
?GetElement@bCMatrix@@QEBAMHH@Z
?GetElement@bCMatrix@@QEBAXHAEAM@Z
?GetElement@bCMatrix@@QEBAXHHAEAM@Z
?GetEnd@bCStretch@@QEBAAEBVbCVector@@XZ
?GetEnd@bCStretch@@QEBAXAEAVbCVector@@@Z
?GetErrorDialogState@bCDialogHandle@bCEngineDialogs@@QEAAXAEA_N0@Z
?GetEulerAngles@bCAxisAngle@@QEBA?AVbCEulerAngles@@XZ
?GetEulerAngles@bCQuaternion@@QEBA?AVbCEulerAngles@@XZ
?GetEulerAngles@bCQuaternion@@QEBAXAEAVbCEulerAngles@@@Z
?GetExp@bCQuaternion@@QEBA?AV1@XZ
?GetExtensionFlags@bCUnitedRay@@QEBAAEBW4bERayExtension@1@XZ
?GetExtensionFlags@bCUnitedRay@@QEBAXAEAW4bERayExtension@1@@Z
?GetExtent@bCOrientedBox@@QEBAAEBVbCVector@@XZ
?GetFatalErrorOnError@bCValidateMemory@@QEBA_NXZ
?GetFileSize@bCFileSystem@@UEBA_JAEBVbCString@@@Z
?GetFileTime@bCFileSystem@@UEBA?AVbCDateTime@@AEBVbCString@@@Z
?GetFilterType@bCMessageAdmin@@QEBA?AW4bEMessageFilterTypes@@XZ
?GetFirstChild@bCXMLParserNode@@QEBAPEAV1@XZ
?GetFirstDisabled@bCBitField@@QEBAHXZ
?GetFirstDisabled@bCTrackBitField@@QEBAHXZ
?GetFirstEnabled@bCBitField@@QEBAHXZ
?GetFirstEnabled@bCTrackBitField@@QEBAHXZ
?GetFirstSibling@bCXMLParserNode@@QEBAPEAV1@XZ
?GetFlags@bCPropertyObjectTypeBase@@QEBAKXZ
?GetFloat@bCString@@QEBAMH@Z
?GetFloat@bCUnicodeString@@QEBAMXZ
?GetFloat@bCVariant@@QEBAAEBMXZ
?GetFormat@bCFlexibleVertexFormat@@QEBAKXZ
?GetFormat@bCFlexibleVertexFormat@@QEBAXAEAK@Z
?GetFormat@bCFlexibleVertexPtr@@QEBAAEBVbCFlexibleVertexFormat@@XZ
?GetFormat@bCFlexibleVertexPtr@@QEBAXAEAVbCFlexibleVertexFormat@@@Z
?GetFormattedString@bCString@@SA?AV1@PEBDZZ
?GetFormattedString@bCUnicodeString@@SA?AV1@PEB_WZZ
?GetForward@bCVector@@SAAEBV1@XZ
?GetFrameCount@bCProfileManager@@SAHXZ
?GetGenerationCount@bCGCMem@@QEBAHXZ
?GetGenerationNumber@bCGCMemGeneration@@QEBAGXZ
?GetGreen@bCByteColor@@QEBAEXZ
?GetGreen@bCByteColor@@QEBAXAEAE@Z
?GetGreen@bCFloatColor@@QEBAMXZ
?GetGreen@bCFloatColor@@QEBAXAEAM@Z
?GetGuid@bCGuid@@QEAAPEAU_GUID@@XZ
?GetGuid@bCGuid@@QEBAPEBU_GUID@@XZ
?GetHandle@bCThread@@QEBAPEAXXZ
?GetHeight@bCBox@@QEBAMXZ
?GetHeight@bCCapsule@@QEAAMXZ
?GetHeight@bCCapsule@@QEBA?BMXZ
?GetHeight@bCOrientedBox@@QEBAMXZ
?GetHeight@bCRect@@QEBAJXZ
?GetHue@bCFloatColorHSV@@QEBAMXZ
?GetHue@bCFloatColorHSV@@QEBAXAEAM@Z
?GetI16@bCVariant@@QEBAAEBFXZ
?GetI32@bCVariant@@QEBAAEBJXZ
?GetI64@bCString@@QEBA_JH@Z
?GetI64@bCVariant@@QEBAAEB_JXZ
?GetI8@bCVariant@@QEBAAEBCXZ
?GetID@bCPropertyTypeBase@@QEBAAEBVbCPropertyID@@XZ
?GetIdentity@bCMatrix2@@SA?AV1@XZ
?GetIdentity@bCMatrix2@@SAXAEAV1@@Z
?GetIdentity@bCMatrix3@@SA?AV1@XZ
?GetIdentity@bCMatrix3@@SAXAEAV1@@Z
?GetIdentity@bCMatrix@@SAAEBV1@XZ
?GetIdentity@bCMatrix@@SAXAEAV1@@Z
?GetInSphere@bCOrientedBox@@QEBA?AVbCSphere@@XZ
?GetInSphere@bCOrientedBox@@QEBAXAEAVbCSphere@@@Z
?GetInstance@bCErrorAdmin@@SAAEAV1@XZ
?GetInstance@bCFPUAdmin@@SAAEAV1@XZ
?GetInstance@bCGCMem@@SAAEAV1@XZ
?GetInstance@bCMemoryAdmin@@SAAEAV1@XZ
?GetInstance@bCMersenneTwister@@SAAEAV1@XZ
?GetInstance@bCMessageAdmin@@SAAEAV1@XZ
?GetInstance@bCPropertyConverterPtr@@QEBAPEAVbCPropertyConverter@@XZ
?GetInstance@bCValidateMemory@@SAAEAV1@XZ
?GetInt@bCVariant@@QEBAAEBHXZ
?GetInteger@bCString@@QEBAHH_N@Z
?GetInteger@bCUnicodeString@@QEBAHXZ
?GetIntersected@bCBox@@QEBA?AV1@AEBV1@@Z
?GetIntersected@bCInfCylinder@@QEBA?AV1@AEBV1@@Z
?GetIntersected@bCInfDoubleCylinder@@QEBA?AV1@AEBV1@@Z
?GetIntersected@bCRect@@QEBA?AV1@AEBV1@@Z
?GetIntersected@bCSphere@@QEBA?AV1@AEBV1@@Z
?GetIntersection@bCBox@@QEBA?AW4bEIntersection@1@AEBV1@@Z
?GetIntersectionDistance@bCBox@@QEBAMAEBVbCLine@@@Z
?GetIntersectionDistance@bCBox@@QEBAMAEBVbCRay@@@Z
?GetIntersectionDistance@bCBox@@QEBAMAEBVbCStretch@@@Z
?GetIntersectionDistance@bCInfCylinder@@QEBAMAEBVbCRay@@@Z
?GetIntersectionDistance@bCInfDoubleCylinder@@QEBAMAEBVbCRay@@@Z
?GetIntersectionDistance@bCLine@@QEBAMAEBVbCBox@@@Z
?GetIntersectionDistance@bCLine@@QEBAMAEBVbCPlane@@@Z
?GetIntersectionDistance@bCLine@@QEBAMAEBVbCSphere@@@Z
?GetIntersectionDistance@bCLine@@QEBAMAEBVbCTriangle@@@Z
?GetIntersectionDistance@bCPlane@@QEBAMAEBVbCRay@@@Z
?GetIntersectionDistance@bCRay@@QEBAMAEBVbCBox@@@Z
?GetIntersectionDistance@bCRay@@QEBAMAEBVbCPlane@@@Z
?GetIntersectionDistance@bCRay@@QEBAMAEBVbCTriangle@@@Z
?GetIntersectionDistance@bCRay@@QEBAMQEBVbCVector@@@Z
?GetIntersectionDistance@bCSphere@@QEBAMAEBVbCRay@@@Z
?GetIntersectionDistance@bCStretch@@QEBAMAEBVbCBox@@@Z
?GetIntersectionDistance@bCStretch@@QEBAMAEBVbCPlane@@@Z
?GetIntersectionDistance@bCStretch@@QEBAMAEBVbCSphere@@@Z
?GetIntersectionDistance@bCStretch@@QEBAMAEBVbCTriangle@@@Z
?GetIntersectionDistance@bCStretch@@QEBAMQEAVbCVector@@@Z
?GetIntersectionDistance@bCTriangle@@QEBAMAEBVbCLine@@@Z
?GetIntersectionDistance@bCTriangle@@QEBAMAEBVbCRay@@@Z
?GetIntersectionDistance@bCTriangle@@QEBAMAEBVbCStretch@@@Z
?GetInvRotated@bCFrustum@@QEBA?AV1@AEBVbCQuaternion@@@Z
?GetInvRotated@bCFrustum@@QEBAXAEAV1@AEBVbCQuaternion@@@Z
?GetInvRotated@bCPlane@@QEBA?AV1@AEBVbCQuaternion@@@Z
?GetInvRotated@bCPlane@@QEBAXAEAV1@AEBVbCQuaternion@@@Z
?GetInvRotated@bCUnitedRay@@QEBA?AV1@AEBVbCQuaternion@@@Z
?GetInvRotated@bCUnitedRay@@QEBAXAEAV1@AEBVbCQuaternion@@@Z
?GetInvScaled@bCBox@@QEBA?AV1@AEBVbCVector@@@Z
?GetInvScaled@bCBox@@QEBA?AV1@M@Z
?GetInvScaled@bCFrustum@@QEBA?AV1@M@Z
?GetInvScaled@bCFrustum@@QEBAXAEAV1@M@Z
?GetInvScaled@bCInfCylinder@@QEBA?AV1@M@Z
?GetInvScaled@bCInfDoubleCylinder@@QEBA?AV1@M@Z
?GetInvScaled@bCOrientedBox@@QEBA?AV1@AEBVbCVector@@@Z
?GetInvScaled@bCOrientedBox@@QEBA?AV1@M@Z
?GetInvScaled@bCOrientedBox@@QEBAXAEAV1@AEBVbCVector@@@Z
?GetInvScaled@bCOrientedBox@@QEBAXAEAV1@M@Z
?GetInvScaled@bCPlane@@QEBA?AV1@M@Z
?GetInvScaled@bCPlane@@QEBAXAEAV1@M@Z
?GetInvScaled@bCPoint@@QEBA?AV1@M@Z
?GetInvScaled@bCSphere@@QEBA?AV1@M@Z
?GetInvScaled@bCStretch@@QEBA?AV1@M@Z
?GetInvScaled@bCStretch@@QEBAXAEAV1@M@Z
?GetInvScaled@bCUnitedRay@@QEBA?AV1@M@Z
?GetInvScaled@bCUnitedRay@@QEBAXAEAV1@M@Z
?GetInvScaled@bCVector2@@QEBA?AV1@AEBV1@@Z
?GetInvScaled@bCVector2@@QEBA?AV1@M@Z
?GetInvScaled@bCVector4@@QEBA?AV1@AEBV1@@Z
?GetInvScaled@bCVector4@@QEBA?AV1@M@Z
?GetInvScaled@bCVector@@QEBA?AV1@AEBV1@@Z
?GetInvScaled@bCVector@@QEBA?AV1@M@Z
?GetInvTransformed@bCFrustum@@QEBA?AV1@AEBVbCMatrix3@@@Z
?GetInvTransformed@bCFrustum@@QEBA?AV1@AEBVbCMatrix@@@Z
?GetInvTransformed@bCFrustum@@QEBAXAEAV1@AEBVbCMatrix3@@@Z
?GetInvTransformed@bCFrustum@@QEBAXAEAV1@AEBVbCMatrix@@@Z
?GetInvTransformed@bCLine@@QEBA?AV1@AEBVbCMatrix3@@@Z
?GetInvTransformed@bCLine@@QEBA?AV1@AEBVbCMatrix@@@Z
?GetInvTransformed@bCLine@@QEBAXAEAV1@AEBVbCMatrix3@@@Z
?GetInvTransformed@bCLine@@QEBAXAEAV1@VbCMatrix3@@@Z
?GetInvTransformed@bCOrientedBox@@QEBA?AV1@AEBVbCMatrix3@@@Z
?GetInvTransformed@bCOrientedBox@@QEBA?AV1@AEBVbCMatrix@@@Z
?GetInvTransformed@bCOrientedBox@@QEBAXAEAV1@AEBVbCMatrix3@@@Z
?GetInvTransformed@bCOrientedBox@@QEBAXAEAV1@AEBVbCMatrix@@@Z
?GetInvTransformed@bCPlane@@QEBA?AV1@AEBVbCMatrix3@@@Z
?GetInvTransformed@bCPlane@@QEBA?AV1@AEBVbCMatrix@@@Z
?GetInvTransformed@bCPlane@@QEBAXAEAV1@AEBVbCMatrix3@@@Z
?GetInvTransformed@bCPlane@@QEBAXAEAV1@AEBVbCMatrix@@@Z
?GetInvTransformed@bCStretch@@QEBA?AV1@AEBVbCMatrix3@@@Z
?GetInvTransformed@bCStretch@@QEBA?AV1@AEBVbCMatrix@@@Z
?GetInvTransformed@bCStretch@@QEBAXAEAV1@AEBVbCMatrix3@@@Z
?GetInvTransformed@bCStretch@@QEBAXAEAV1@VbCMatrix3@@@Z
?GetInvTransformed@bCTriangle@@QEBA?AV1@AEBVbCMatrix3@@@Z
?GetInvTransformed@bCTriangle@@QEBA?AV1@AEBVbCMatrix@@@Z
?GetInvTransformed@bCTriangle@@QEBAXAEAV1@AEBVbCMatrix3@@@Z
?GetInvTransformed@bCTriangle@@QEBAXAEAV1@VbCMatrix3@@@Z
?GetInvTransformed@bCUnitedRay@@QEBA?AV1@AEBVbCMatrix3@@@Z
?GetInvTransformed@bCUnitedRay@@QEBA?AV1@AEBVbCMatrix@@@Z
?GetInvTransformed@bCUnitedRay@@QEBAXAEAV1@AEBVbCMatrix3@@@Z
?GetInvTransformed@bCUnitedRay@@QEBAXAEAV1@AEBVbCMatrix@@@Z
?GetInvTransformed@bCVector2@@QEBA?AV1@AEBVbCMatrix2@@@Z
?GetInvTransformed@bCVector4@@QEBA?AV1@AEBVbCMatrix@@@Z
?GetInvTransformed@bCVector@@QEBA?AV1@AEBVbCMatrix3@@@Z
?GetInvTransformed@bCVector@@QEBA?AV1@AEBVbCMatrix@@@Z
?GetInvTransformedDirection@bCVector@@QEBA?AV1@AEBVbCMatrix@@@Z
?GetInvTranslated@bCBox@@QEBA?AV1@AEBVbCVector@@@Z
?GetInvTranslated@bCBox@@QEBA?AV1@M@Z
?GetInvTranslated@bCFrustum@@QEBA?AV1@AEBVbCVector@@@Z
?GetInvTranslated@bCFrustum@@QEBAXAEAV1@AEBVbCVector@@@Z
?GetInvTranslated@bCInfCylinder@@QEBA?AV1@AEBVbCVector@@@Z
?GetInvTranslated@bCInfCylinder@@QEBA?AV1@M@Z
?GetInvTranslated@bCInfDoubleCylinder@@QEBA?AV1@AEBVbCVector@@@Z
?GetInvTranslated@bCInfDoubleCylinder@@QEBA?AV1@M@Z
?GetInvTranslated@bCLine@@QEBA?AV1@AEBVbCVector@@@Z
?GetInvTranslated@bCLine@@QEBAXAEAV1@AEBVbCVector@@@Z
?GetInvTranslated@bCOrientedBox@@QEBA?AV1@AEBVbCVector@@@Z
?GetInvTranslated@bCOrientedBox@@QEBA?AV1@M@Z
?GetInvTranslated@bCOrientedBox@@QEBAXAEAV1@AEBVbCVector@@@Z
?GetInvTranslated@bCOrientedBox@@QEBAXAEAV1@M@Z
?GetInvTranslated@bCPlane@@QEBA?AV1@AEBVbCVector@@@Z
?GetInvTranslated@bCPlane@@QEBAXAEAV1@AEBVbCVector@@@Z
?GetInvTranslated@bCSphere@@QEBA?AV1@AEBVbCVector@@@Z
?GetInvTranslated@bCSphere@@QEBA?AV1@M@Z
?GetInvTranslated@bCStretch@@QEBA?AV1@AEBVbCVector@@@Z
?GetInvTranslated@bCStretch@@QEBAXAEAV1@AEBVbCVector@@@Z
?GetInvTranslated@bCTriangle@@QEBA?AV1@AEBVbCVector@@@Z
?GetInvTranslated@bCTriangle@@QEBAXAEAV1@AEBVbCVector@@@Z
?GetInvTranslated@bCUnitedRay@@QEBA?AV1@AEBVbCVector@@@Z
?GetInvTranslated@bCUnitedRay@@QEBAXAEAV1@AEBVbCVector@@@Z
?GetInvTranslated@bCVector2@@QEBA?AV1@AEBV1@@Z
?GetInvTranslated@bCVector2@@QEBA?AV1@M@Z
?GetInvTranslated@bCVector4@@QEBA?AV1@AEBV1@@Z
?GetInvTranslated@bCVector4@@QEBA?AV1@M@Z
?GetInvTranslated@bCVector@@QEBA?AV1@AEBV1@@Z
?GetInvTranslated@bCVector@@QEBA?AV1@M@Z
?GetInvalidGuid@bCGuid@@SAAEBV1@XZ
?GetInverted@bCByteAlphaColor@@QEBA?AV1@XZ
?GetInverted@bCByteAlphaColor@@QEBAXAEAV1@@Z
?GetInverted@bCByteColor@@QEBA?AV1@XZ
?GetInverted@bCByteColor@@QEBAXAEAV1@@Z
?GetInverted@bCFloatAlphaColor@@QEBA?AV1@XZ
?GetInverted@bCFloatAlphaColor@@QEBAXAEAV1@@Z
?GetInverted@bCFloatColor@@QEBA?AV1@XZ
?GetInverted@bCFloatColor@@QEBAXAEAV1@@Z
?GetInverted@bCFloatColorHSV@@QEBA?AV1@XZ
?GetInverted@bCFloatColorHSV@@QEBAXAEAV1@@Z
?GetInverted@bCFrustum@@QEBA?AV1@XZ
?GetInverted@bCFrustum@@QEBAXAEAV1@@Z
?GetInverted@bCMatrix2@@QEBA?AV1@XZ
?GetInverted@bCMatrix2@@QEBAXAEAV1@@Z
?GetInverted@bCMatrix3@@QEBA?AV1@XZ
?GetInverted@bCMatrix3@@QEBAXAEAV1@@Z
?GetInverted@bCMatrix@@QEBA?AV1@XZ
?GetInverted@bCMatrix@@QEBAXAEAV1@@Z
?GetInverted@bCPlane@@QEBA?AV1@XZ
?GetInverted@bCPlane@@QEBAXAEAV1@@Z
?GetInverted@bCQuaternion@@QEBA?AV1@XZ
?GetInverted@bCQuaternion@@QEBAXAEAV1@@Z
?GetInverted@bCStretch@@QEBA?AV1@XZ
?GetInverted@bCStretch@@QEBAXAEAV1@@Z
?GetInverted@bCUnitedRay@@QEBA?AV1@XZ
?GetInverted@bCUnitedRay@@QEBAXAEAV1@@Z
?GetInverted@bCVector2@@QEBA?AV1@XZ
?GetInverted@bCVector4@@QEBA?AV1@XZ
?GetInverted@bCVector@@QEBA?AV1@XZ
?GetInvertedExcentric@bCMatrix@@IEBA?AV1@XZ
?GetInvertedExcentric@bCMatrix@@IEBAXAEAV1@@Z
?GetLabel@bCPropertyObjectTypeBase@@QEBAPEBDXZ
?GetLastChild@bCXMLParserNode@@QEBAPEAV1@XZ
?GetLastSibling@bCXMLParserNode@@QEBAPEAV1@XZ
?GetLastTime@bCTimer@@QEBAXAEAM@Z
?GetLastTiming@bCProfileManager@@SA_JXZ
?GetLatitude@bCSphericalRotation@@QEBAMXZ
?GetLatitude@bCSphericalRotation@@QEBAXAEAM@Z
?GetLeft@bCRect@@QEBAJXZ
?GetLeft@bCRect@@QEBAXAEAJ@Z
?GetLength@bCFile@@UEBA_JXZ
?GetLength@bCString@@QEBAHXZ
?GetLength@bCUnicodeString@@QEBAHXZ
?GetLerp@bCQuaternion@@QEBA?AV1@AEBV1@M@Z
?GetLerp@bCRange1@@QEBAMM@Z
?GetLerp@bCVector@@QEBA?AV1@AEBV1@M@Z
?GetLevel@bCXMLParserNode@@QEBAHXZ
?GetListHead@bCPropertyObjectTypeBase@@SAPEAV1@XZ
?GetListNext@bCPropertyObjectTypeBase@@QEBAPEAV1@XZ
?GetLockCount@bCCriticalSection@@QEBAKXZ
?GetLockCount@bCLockSystem@@QEBAKXZ
?GetLog@bCQuaternion@@QEBA?AV1@XZ
?GetLongitude@bCSphericalRotation@@QEBAMXZ
?GetLongitude@bCSphericalRotation@@QEBAXAEAM@Z
?GetMagnitude2D@bCVector@@QEBAMW4bECoordinate@1@@Z
?GetMagnitude@bCBox@@QEBA?AVbCVector@@XZ
?GetMagnitude@bCBox@@QEBAXAEAVbCVector@@@Z
?GetMagnitude@bCOrientedBox@@QEBA?AVbCVector@@XZ
?GetMagnitude@bCOrientedBox@@QEBAXAEAVbCVector@@@Z
?GetMagnitude@bCQuaternion@@QEBAMXZ
?GetMagnitude@bCRange1@@QEBAMXZ
?GetMagnitude@bCRange1@@QEBAXAEAM@Z
?GetMagnitude@bCRange2@@QEBA?AVbCVector2@@XZ
?GetMagnitude@bCRange2@@QEBAXAEAVbCVector2@@@Z
?GetMagnitude@bCRange3@@QEBA?AVbCVector@@XZ
?GetMagnitude@bCRange3@@QEBAXAEAVbCVector@@@Z
?GetMagnitude@bCRange4@@QEBA?AVbCVector4@@XZ
?GetMagnitude@bCRange4@@QEBAXAEAVbCVector4@@@Z
?GetMagnitude@bCRect@@QEBA?AVbCPoint@@XZ
?GetMagnitude@bCVector2@@QEBAMXZ
?GetMagnitude@bCVector4@@QEBAMXZ
?GetMagnitude@bCVector@@QEBAMXZ
?GetMagnitudeApprox@bCVector2@@QEBAMXZ
?GetMagnitudeApprox@bCVector4@@QEBAMXZ
?GetMagnitudeApprox@bCVector@@QEBAMXZ
?GetMagnitudeNormalize@bCVector2@@QEAAMXZ
?GetMagnitudeNormalize@bCVector4@@QEAAMXZ
?GetMagnitudeNormalize@bCVector@@QEAAMXZ
?GetMask@bCBitField@@IEBAKH@Z
?GetMask@bCTrackBitField@@IEBAKH@Z
?GetMatrix3@bCQuaternion@@QEBA?AVbCMatrix3@@XZ
?GetMatrix3@bCQuaternion@@QEBAXAEAVbCMatrix3@@@Z
?GetMatrix@bCQuaternion@@QEBA?AVbCMatrix@@XZ
?GetMatrix@bCQuaternion@@QEBAXAEAVbCMatrix@@@Z
?GetMax@bCBox@@QEBAAEBVbCVector@@XZ
?GetMax@bCBox@@QEBAXAEAVbCVector@@@Z
?GetMaxExtend@bCBox@@QEBAMXZ
?GetMaxGeneration@bCGCMem@@QEBAHXZ
?GetMaxTextureStages@bCFlexibleVertexFormat@@SAHXZ
?GetMemoryStatistics@bCMemoryAdmin@@QEBA?AUbSMemoryStatistics@@W4bEMemorySubSystem@@@Z
?GetMemorySubSystem@bCMemoryGuard@@QEBA?AW4bEMemorySubSystem@@XZ
?GetMemorySubSystemName@bCMemorySubSystemStack@@SAPEADW4bEMemorySubSystem@@@Z
?GetMemorySubSystemStack@bCMemoryAdmin@@QEAAAEAVbCMemorySubSystemStack@@XZ
?GetMerged@bCBox@@QEBA?AV1@AEBV1@@Z
?GetMerged@bCBox@@QEBA?AV1@AEBVbCVector@@@Z
?GetMerged@bCInfCylinder@@QEBA?AV1@AEBV1@@Z
?GetMerged@bCInfCylinder@@QEBA?AV1@AEBVbCVector@@@Z
?GetMerged@bCInfDoubleCylinder@@QEBA?AV1@AEBV1@@Z
?GetMerged@bCInfDoubleCylinder@@QEBA?AV1@AEBVbCVector@@@Z
?GetMerged@bCOrientedBox@@QEBA?AV1@AEBV1@@Z
?GetMerged@bCOrientedBox@@QEBAXAEAV1@AEBV1@@Z
?GetMerged@bCRect@@QEBA?AV1@AEBV1@@Z
?GetMerged@bCSphere@@QEBA?AV1@AEBV1@@Z
?GetMerged@bCSphere@@QEBA?AV1@AEBVbCVector@@@Z
?GetMin@bCBox@@QEBAAEBVbCVector@@XZ
?GetMin@bCBox@@QEBAXAEAVbCVector@@@Z
?GetMinExtend@bCBox@@QEBAMXZ
?GetName@bCProfileNode@@QEBAPEBDXZ
?GetName@bCPropertyObjectTypeBase@@QEBAPEBDXZ
?GetNativeObject@bCAccessorPropertyObject@@QEAAPEAVbCObjectBase@@XZ
?GetNativeObject@bCAccessorPropertyObject@@QEBAPEBVbCObjectBase@@XZ
?GetNativePropertyAt@bCObjectBase@@UEBA?AVbCPropertyConverterPtr@@H@Z
?GetNativePropertyCount@bCObjectBase@@UEBAHXZ
?GetNegated@bCFrustum@@QEBA?AV1@XZ
?GetNegated@bCFrustum@@QEBAXAEAV1@@Z
?GetNegated@bCMatrix2@@QEBA?AV1@XZ
?GetNegated@bCMatrix2@@QEBAXAEAV1@@Z
?GetNegated@bCMatrix3@@QEBA?AV1@XZ
?GetNegated@bCMatrix3@@QEBAXAEAV1@@Z
?GetNegated@bCMatrix@@QEBA?AV1@XZ
?GetNegated@bCMatrix@@QEBAXAEAV1@@Z
?GetNegated@bCPlane@@QEBA?AV1@XZ
?GetNegated@bCPlane@@QEBAXAEAV1@@Z
?GetNegated@bCQuaternion@@QEBA?AV1@XZ
?GetNegated@bCQuaternion@@QEBAXAEAV1@@Z
?GetNegated@bCUnitedRay@@QEBA?AV1@XZ
?GetNegated@bCUnitedRay@@QEBAXAEAV1@@Z
?GetNext@bCPropertyObjectTypeBase@@QEBAPEAV1@XZ
?GetNextDisabled@bCBitField@@QEBAHXZ
?GetNextDisabled@bCTrackBitField@@QEBAHXZ
?GetNextEnabled@bCBitField@@QEBAHXZ
?GetNextEnabled@bCTrackBitField@@QEBAHXZ
?GetNextSibling@bCXMLParserNode@@QEBAPEAV1@XZ
?GetNoise@bCEbertNoise@@UEBAMM@Z
?GetNoise@bCEbertNoise@@UEBAMMM@Z
?GetNoise@bCEbertNoise@@UEBAMMMM@Z
?GetNoise@bCNoise@@QEBAMAEBVbCVector2@@@Z
?GetNoise@bCNoise@@QEBAMAEBVbCVector@@@Z
?GetNoise@bCNoise@@UEBAMM@Z
?GetNoise@bCNoise@@UEBAMMM@Z
?GetNoise@bCNoise@@UEBAMMMM@Z
?GetNoise@bCPeacheyNoise@@UEBAMM@Z
?GetNoise@bCPeacheyNoise@@UEBAMMM@Z
?GetNoise@bCPeacheyNoise@@UEBAMMMM@Z
?GetNoise@bCPerlinNoise@@UEBAMM@Z
?GetNoise@bCPerlinNoise@@UEBAMMM@Z
?GetNoise@bCPerlinNoise@@UEBAMMMM@Z
?GetNormal@bCFlexibleVertexPtr@@QEBA?AVbCVector@@XZ
?GetNormal@bCFlexibleVertexPtr@@QEBAXAEAVbCVector@@@Z
?GetNormal@bCPlane@@QEBAAEBVbCVector@@XZ
?GetNormal@bCPlane@@QEBAXAEAVbCVector@@@Z
?GetNormalized@bCBox@@QEBA?AV1@XZ
?GetNormalized@bCFloatAlphaColor@@QEBA?AV1@XZ
?GetNormalized@bCFloatAlphaColor@@QEBAXAEAV1@@Z
?GetNormalized@bCFloatColor@@QEBA?AV1@XZ
?GetNormalized@bCFloatColor@@QEBAXAEAV1@@Z
?GetNormalized@bCFrustum@@QEBA?AV1@XZ
?GetNormalized@bCPlane@@QEBA?AV1@XZ
?GetNormalized@bCQuaternion@@QEBA?AV1@XZ
?GetNormalized@bCQuaternion@@QEBAXAEAV1@@Z
?GetNormalized@bCUnitedRay@@QEBA?AV1@XZ
?GetNormalized@bCUnitedRay@@QEBAXAEAV1@@Z
?GetNormalized@bCVector2@@QEBA?AV1@XZ
?GetNormalized@bCVector4@@QEBA?AV1@XZ
?GetNormalized@bCVector@@QEBA?AV1@XZ
?GetNormalizedSafe@bCVector@@QEBA?AV1@XZ
?GetNullGuid@bCGuid@@SAAEBV1@XZ
?GetObjectType@bCObjectBase@@UEBAPEAVbCPropertyObjectTypeBase@@XZ
?GetObjectType@bCObjectRefBase@@UEBAPEAVbCPropertyObjectTypeBase@@XZ
?GetOffset@bCBitField@@IEBAHH@Z
?GetOffset@bCTrackBitField@@IEBAHH@Z
?GetOffsetDiffuse@bCFlexibleVertexFormat@@QEBAHXZ
?GetOffsetNormal@bCFlexibleVertexFormat@@QEBAHXZ
?GetOffsetPointSize@bCFlexibleVertexFormat@@QEBAHXZ
?GetOffsetRHW@bCFlexibleVertexFormat@@QEBAHXZ
?GetOffsetSpecular@bCFlexibleVertexFormat@@QEBAHXZ
?GetOffsetTextureCoord@bCFlexibleVertexFormat@@QEBAHHH@Z
?GetOffsetTextureCoords@bCFlexibleVertexFormat@@QEBAHH@Z
?GetOffsetTextureCoords@bCFlexibleVertexFormat@@QEBAHXZ
?GetOffsetWeight@bCFlexibleVertexFormat@@QEBAHH@Z
?GetOffsetWeights@bCFlexibleVertexFormat@@QEBAHXZ
?GetOffsetX@bCFlexibleVertexFormat@@QEBAHXZ
?GetOffsetXYZ@bCFlexibleVertexFormat@@QEBAHXZ
?GetOffsetY@bCFlexibleVertexFormat@@QEBAHXZ
?GetOffsetZ@bCFlexibleVertexFormat@@QEBAHXZ
?GetOptions@bCCommandLine@@QEBAAEBV?$bTStringObjMap@VbCString@@@@XZ
?GetOptions@bCCommandLine@@QEBAXAEAV?$bTStringObjMap@VbCString@@@@@Z
?GetOrientation@bCCapsule@@QEAAAEAVbCMatrix3@@XZ
?GetOrientation@bCCapsule@@QEBAAEBVbCMatrix3@@XZ
?GetOrientation@bCOrientedBox@@QEBAAEBVbCMatrix3@@XZ
?GetOrigin@bCLine@@QEBAAEBVbCVector@@XZ
?GetOrigin@bCLine@@QEBAXAEAVbCVector@@@Z
?GetOrigin@bCRay@@QEBAAEBVbCVector@@XZ
?GetOrigin@bCRay@@QEBAXAEAVbCVector@@@Z
?GetOrigin@bCUnitedRay@@QEBAAEBVbCVector@@XZ
?GetOrigin@bCUnitedRay@@QEBAXAEAVbCVector@@@Z
?GetOrthogonalized@bCMatrix3@@QEBA?AV1@XZ
?GetOrthogonalized@bCMatrix3@@QEBAXAEAV1@@Z
?GetOrthogonalized@bCMatrix@@QEBA?AV1@XZ
?GetOrthogonalized@bCMatrix@@QEBAXAEAV1@@Z
?GetOrthonormalized@bCMatrix3@@QEBA?AV1@XZ
?GetOrthonormalized@bCMatrix3@@QEBAXAEAV1@@Z
?GetOrthonormalized@bCMatrix@@QEBA?AV1@XZ
?GetOrthonormalized@bCMatrix@@QEBAXAEAV1@@Z
?GetParent@bCProfileNode@@QEBAPEAV1@XZ
?GetParent@bCXMLParserNode@@QEBAPEAV1@XZ
?GetPeacheyNoise@bCPeacheyNoise@@SAAEAV1@XZ
?GetPerlinNoise@bCPerlinNoise@@SAAEAV1@XZ
?GetPitch@bCEulerAngles@@QEBAMXZ
?GetPitch@bCEulerAngles@@QEBAXAEAM@Z
?GetPlane@bCOrientedBox@@QEBA?AVbCPlane@@H@Z
?GetPlane@bCOrientedBox@@QEBAXHAEAVbCPlane@@@Z
?GetPlanes@bCOrientedBox@@QEBAXQEAVbCPlane@@@Z
?GetPoint@bCRay@@QEBA?AVbCVector@@M@Z
?GetPoint@bCRay@@QEBAXAEAVbCVector@@M@Z
?GetPoint@bCRect@@QEBAAEBVbCPoint@@H@Z
?GetPoint@bCRect@@QEBAXAEAVbCPoint@@H@Z
?GetPoint@bCUnitedRay@@QEBA?AVbCVector@@M@Z
?GetPoint@bCUnitedRay@@QEBAXAEAVbCVector@@M@Z
?GetPointSize@bCFlexibleVertexPtr@@QEBAMXZ
?GetPosition@bCFile@@UEBA_JXZ
?GetPosition@bCFlexibleVertexPtr@@QEBA?AVbCVector@@XZ
?GetPosition@bCFlexibleVertexPtr@@QEBAXAEAVbCVector2@@@Z
?GetPosition@bCFlexibleVertexPtr@@QEBAXAEAVbCVector@@@Z
?GetPosition@bCInfCylinder@@QEBAAEBVbCVector@@XZ
?GetPosition@bCInfCylinder@@QEBAXAEAVbCVector@@@Z
?GetPosition@bCMemoryStream@@UEBA_JXZ
?GetPosition@bCMemoryStream@@UEBA_NAEA_J@Z
?GetPosition@bCNullStream@@UEBA_JXZ
?GetPosition@bCSphere@@QEBAAEBVbCVector@@XZ
?GetPosition@bCSphere@@QEBAXAEAVbCVector@@@Z
?GetPositionA@bCInfDoubleCylinder@@QEBAAEBVbCVector@@XZ
?GetPositionA@bCInfDoubleCylinder@@QEBAXAEAVbCVector@@@Z
?GetPositionB@bCInfDoubleCylinder@@QEBAAEBVbCVector@@XZ
?GetPositionB@bCInfDoubleCylinder@@QEBAXAEAVbCVector@@@Z
?GetPrevSibling@bCXMLParserNode@@QEBAPEAV1@XZ
?GetProduct@bCByteAlphaColor@@QEBA?AV1@AEBV1@@Z
?GetProduct@bCByteAlphaColor@@QEBA?AV1@E@Z
?GetProduct@bCByteAlphaColor@@QEBAXAEAV1@AEBV1@@Z
?GetProduct@bCByteAlphaColor@@QEBAXAEAV1@E@Z
?GetProduct@bCByteColor@@QEBA?AV1@AEBV1@@Z
?GetProduct@bCByteColor@@QEBA?AV1@E@Z
?GetProduct@bCByteColor@@QEBAXAEAV1@AEBV1@@Z
?GetProduct@bCByteColor@@QEBAXAEAV1@E@Z
?GetProduct@bCFloatAlphaColor@@QEBA?AV1@AEBV1@@Z
?GetProduct@bCFloatAlphaColor@@QEBA?AV1@M@Z
?GetProduct@bCFloatAlphaColor@@QEBAXAEAV1@AEBV1@@Z
?GetProduct@bCFloatAlphaColor@@QEBAXAEAV1@M@Z
?GetProduct@bCFloatColor@@QEBA?AV1@AEBV1@@Z
?GetProduct@bCFloatColor@@QEBA?AV1@M@Z
?GetProduct@bCFloatColor@@QEBAXAEAV1@AEBV1@@Z
?GetProduct@bCFloatColor@@QEBAXAEAV1@M@Z
?GetProduct@bCFloatColorHSV@@QEBA?AV1@AEBV1@@Z
?GetProduct@bCFloatColorHSV@@QEBA?AV1@M@Z
?GetProduct@bCFloatColorHSV@@QEBAXAEAV1@AEBV1@@Z
?GetProduct@bCFloatColorHSV@@QEBAXAEAV1@M@Z
?GetProduct@bCMatrix2@@QEBA?AV1@AEBV1@@Z
?GetProduct@bCMatrix2@@QEBA?AV1@M@Z
?GetProduct@bCMatrix2@@QEBAXAEAV1@AEBV1@@Z
?GetProduct@bCMatrix2@@QEBAXAEAV1@M@Z
?GetProduct@bCMatrix3@@QEBA?AV1@AEBV1@@Z
?GetProduct@bCMatrix3@@QEBA?AV1@M@Z
?GetProduct@bCMatrix3@@QEBAXAEAV1@AEBV1@@Z
?GetProduct@bCMatrix3@@QEBAXAEAV1@M@Z
?GetProduct@bCMatrix@@QEBA?AV1@AEBV1@@Z
?GetProduct@bCMatrix@@QEBA?AV1@M@Z
?GetProduct@bCMatrix@@QEBAXAEAV1@AEBV1@@Z
?GetProduct@bCMatrix@@QEBAXAEAV1@M@Z
?GetProduct@bCQuaternion@@QEBA?AV1@AEBV1@@Z
?GetProduct@bCQuaternion@@QEBA?AV1@M@Z
?GetProduct@bCQuaternion@@QEBAXAEAV1@AEBV1@@Z
?GetProduct@bCQuaternion@@QEBAXAEAV1@M@Z
?GetProductPrefix@bCMatrix2@@QEBA?AV1@AEBV1@@Z
?GetProductPrefix@bCMatrix2@@QEBAXAEAV1@AEBV1@@Z
?GetProductPrefix@bCMatrix3@@QEBA?AV1@AEBV1@@Z
?GetProductPrefix@bCMatrix3@@QEBAXAEAV1@AEBV1@@Z
?GetProductPrefix@bCMatrix@@QEBA?AV1@AEBV1@@Z
?GetProductPrefix@bCMatrix@@QEBAXAEAV1@AEBV1@@Z
?GetProjectedExtent@bCOrientedBox@@QEBAXAEBVbCVector@@AEAM1@Z
?GetPropertyCategory@bCAccessorProperty@@QEBAAEBVbCString@@XZ
?GetPropertyCategory@bCPropertyTypeBase@@QEBAAEBVbCString@@XZ
?GetPropertyDescription@bCAccessorProperty@@QEBAAEBVbCString@@XZ
?GetPropertyDescription@bCPropertyTypeBase@@QEBAAEBVbCString@@XZ
?GetPropertyHeader@bCAccessorProperty@@QEBA?AVbCString@@XZ
?GetPropertyID@bCAccessorProperty@@QEBAAEBVbCPropertyID@@XZ
?GetPropertyName@bCAccessorProperty@@QEBAAEBVbCString@@XZ
?GetPropertyName@bCPropertyTypeBase@@QEBAAEBVbCString@@XZ
?GetPropertyObject@bCAccessorCreator@@QEAAPEAVbCObjectBase@@XZ
?GetPropertyObject@bCAccessorCreator@@QEBAPEBVbCObjectBase@@XZ
?GetPropertyObject@bCAccessorProperty@@QEAAPEAVbCObjectBase@@XZ
?GetPropertyObject@bCAccessorProperty@@QEBAPEBVbCObjectBase@@XZ
?GetPropertyObject@bCAccessorPropertyObject@@QEAAPEAVbCObjectBase@@XZ
?GetPropertyObject@bCAccessorPropertyObject@@QEBAPEBVbCObjectBase@@XZ
?GetPropertyObject@bCObjectBase@@QEAAPEAV1@XZ
?GetPropertyObject@bCObjectBase@@QEBAPEBV1@XZ
?GetPropertyObjectHeader@bCAccessorPropertyObject@@QEBA?AVbCString@@XZ
?GetPropertyObjectType@bCAccessorPropertyObject@@QEBAPEBVbCPropertyObjectTypeBase@@XZ
?GetPropertyTemplateIndex@bCPropertyObjectTypeBase@@AEBAHAEBVbCPropertyTypeBase@@@Z
?GetPropertyType@bCAccessorProperty@@QEBAAEBVbCString@@XZ
?GetPropertyType@bCPropertyObjectTypeBase@@QEBAAEBVbCPropertyTypeBase@@H@Z
?GetPropertyType@bCPropertyTypeBase@@QEBA?AW4bEPropertyType@@XZ
?GetPropertyTypeCount@bCPropertyObjectTypeBase@@QEBAHXZ
?GetPropertyTypeObject@bCAccessorProperty@@QEAAPEAVbCPropertyTypeBase@@XZ
?GetPropertyTypeObject@bCAccessorProperty@@QEBAPEBVbCPropertyTypeBase@@XZ
?GetPropertyValueDetailType@bCAccessorProperty@@QEBA?AW4bEPropertyTypeDetail@@XZ
?GetPureRotation@bCMatrix@@QEBA?AV1@XZ
?GetPureScaling@bCMatrix@@QEBA?AVbCVector@@XZ
?GetQuaternion@bCAxisAngle@@QEBA?AVbCQuaternion@@XZ
?GetQuaternion@bCEulerAngles@@QEBA?AVbCQuaternion@@XZ
?GetQueueLength@bCProfileManager@@SAHXZ
?GetQuotient@bCMatrix2@@QEBA?AV1@M@Z
?GetQuotient@bCMatrix2@@QEBAXAEAV1@M@Z
?GetQuotient@bCMatrix3@@QEBA?AV1@M@Z
?GetQuotient@bCMatrix3@@QEBAXAEAV1@M@Z
?GetQuotient@bCMatrix@@QEBA?AV1@M@Z
?GetQuotient@bCMatrix@@QEBAXAEAV1@M@Z
?GetRHW@bCFlexibleVertexPtr@@QEBAMXZ
?GetRadius@bCCapsule@@QEAAMXZ
?GetRadius@bCCapsule@@QEBA?BMXZ
?GetRadius@bCInfCylinder@@QEBAMXZ
?GetRadius@bCInfCylinder@@QEBAXAEAM@Z
?GetRadius@bCSphere@@QEBAMXZ
?GetRadius@bCSphere@@QEBAXAEAM@Z
?GetRadiusA@bCInfDoubleCylinder@@QEBAMXZ
?GetRadiusA@bCInfDoubleCylinder@@QEBAXAEAM@Z
?GetRadiusB@bCInfDoubleCylinder@@QEBAMXZ
?GetRadiusB@bCInfDoubleCylinder@@QEBAXAEAM@Z
?GetRandom@bCRandom@@SAAEBV1@XZ
?GetRandom@bCRange1@@QEBAMXZ
?GetRandom@bCRange1@@QEBAXAEAM@Z
?GetRandom@bCRange2@@QEBA?AVbCVector2@@XZ
?GetRandom@bCRange2@@QEBAXAEAVbCVector2@@@Z
?GetRandom@bCRange3@@QEBA?AVbCVector@@XZ
?GetRandom@bCRange3@@QEBAXAEAVbCVector@@@Z
?GetRandom@bCRange4@@QEBA?AVbCVector4@@XZ
?GetRandom@bCRange4@@QEBAXAEAVbCVector4@@@Z
?GetRandomInt@bCRange1@@QEBAHXZ
?GetRandomInt@bCRange1@@QEBAXAEAH@Z
?GetRed@bCByteColor@@QEBAEXZ
?GetRed@bCByteColor@@QEBAXAEAE@Z
?GetRed@bCFloatColor@@QEBAMXZ
?GetRed@bCFloatColor@@QEBAXAEAM@Z
?GetRefCount@bCString@@IEBAHXZ
?GetRefCount@bCUnicodeString@@IEBAHXZ
?GetReferenceCount@bCDialogHandle@bCEngineDialogs@@QEBAGXZ
?GetReferenceCount@bCObjectBase@@UEAAKXZ
?GetReferenceCount@bCObjectRefBase@@QEBAKXZ
?GetRelativePos@bCRange1@@QEBAMM@Z
?GetRemainingMemory@bCGCMemGeneration@@QEBAKXZ
?GetRemovedByDimension@bCVector@@QEBA?AV1@W4bECoordinate@1@@Z
?GetRemovedByDimensionKeepMagnitude@bCVector@@QEBA?AV1@W4bECoordinate@1@@Z
?GetRemovedByDimensionNormalize@bCVector@@QEBA?AV1@W4bECoordinate@1@@Z
?GetResult@bCFileSystem@@UEBAHXZ
?GetReverseProduct@bCQuaternion@@QEBA?AV1@AEBV1@@Z
?GetReverseProduct@bCQuaternion@@QEBAXAEAV1@AEBV1@@Z
?GetRight@bCRect@@QEBAJXZ
?GetRight@bCRect@@QEBAXAEAJ@Z
?GetRight@bCVector@@SAAEBV1@XZ
?GetRoll@bCEulerAngles@@QEBAMXZ
?GetRoll@bCEulerAngles@@QEBAXAEAM@Z
?GetRoot@bCXMLParserNode@@QEBAPEAV1@XZ
?GetRootNode@bCProfileManager@@SAPEAVbCProfileNode@@XZ
?GetRotated@bCFrustum@@QEBA?AV1@AEBVbCQuaternion@@@Z
?GetRotated@bCFrustum@@QEBAXAEAV1@AEBVbCQuaternion@@@Z
?GetRotated@bCMatrix2@@QEBA?AV1@M@Z
?GetRotated@bCMatrix2@@QEBAXAEAV1@M@Z
?GetRotated@bCMatrix3@@QEBA?AV1@AEBVbCAxisAngle@@@Z
?GetRotated@bCMatrix3@@QEBA?AV1@AEBVbCEulerAngles@@@Z
?GetRotated@bCMatrix3@@QEBA?AV1@AEBVbCQuaternion@@@Z
?GetRotated@bCMatrix3@@QEBAXAEAV1@AEBVbCAxisAngle@@@Z
?GetRotated@bCMatrix3@@QEBAXAEAV1@AEBVbCEulerAngles@@@Z
?GetRotated@bCMatrix3@@QEBAXAEAV1@AEBVbCQuaternion@@@Z
?GetRotated@bCMatrix@@QEBA?AV1@AEBVbCAxisAngle@@@Z
?GetRotated@bCMatrix@@QEBA?AV1@AEBVbCEulerAngles@@@Z
?GetRotated@bCMatrix@@QEBA?AV1@AEBVbCQuaternion@@@Z
?GetRotated@bCMatrix@@QEBAXAEAV1@AEBVbCAxisAngle@@@Z
?GetRotated@bCMatrix@@QEBAXAEAV1@AEBVbCEulerAngles@@@Z
?GetRotated@bCMatrix@@QEBAXAEAV1@AEBVbCQuaternion@@@Z
?GetRotated@bCPlane@@QEBA?AV1@AEBVbCQuaternion@@@Z
?GetRotated@bCPlane@@QEBAXAEAV1@AEBVbCQuaternion@@@Z
?GetRotated@bCUnitedRay@@QEBA?AV1@AEBVbCQuaternion@@@Z
?GetRotated@bCUnitedRay@@QEBAXAEAV1@AEBVbCQuaternion@@@Z
?GetRotatedAxisX@bCMatrix3@@QEBA?AV1@M@Z
?GetRotatedAxisX@bCMatrix3@@QEBAXAEAV1@M@Z
?GetRotatedAxisX@bCQuaternion@@QEBA?AV1@M@Z
?GetRotatedAxisX@bCQuaternion@@QEBAXAEAV1@M@Z
?GetRotatedAxisY@bCMatrix3@@QEBA?AV1@M@Z
?GetRotatedAxisY@bCMatrix3@@QEBAXAEAV1@M@Z
?GetRotatedAxisY@bCQuaternion@@QEBA?AV1@M@Z
?GetRotatedAxisY@bCQuaternion@@QEBAXAEAV1@M@Z
?GetRotatedAxisZ@bCMatrix3@@QEBA?AV1@M@Z
?GetRotatedAxisZ@bCMatrix3@@QEBAXAEAV1@M@Z
?GetRotatedAxisZ@bCQuaternion@@QEBA?AV1@M@Z
?GetRotatedAxisZ@bCQuaternion@@QEBAXAEAV1@M@Z
?GetRotatedByAxisX@bCMatrix@@QEBA?AV1@M@Z
?GetRotatedByAxisX@bCMatrix@@QEBAXAEAV1@M@Z
?GetRotatedByAxisY@bCMatrix@@QEBA?AV1@M@Z
?GetRotatedByAxisY@bCMatrix@@QEBAXAEAV1@M@Z
?GetRotatedByAxisZ@bCMatrix@@QEBA?AV1@M@Z
?GetRotatedByAxisZ@bCMatrix@@QEBAXAEAV1@M@Z
?GetRotatedByLocalAxisX@bCMatrix@@QEBA?AV1@M@Z
?GetRotatedByLocalAxisX@bCMatrix@@QEBAXAEAV1@M@Z
?GetRotatedByLocalAxisY@bCMatrix@@QEBA?AV1@M@Z
?GetRotatedByLocalAxisY@bCMatrix@@QEBAXAEAV1@M@Z
?GetRotatedByLocalAxisZ@bCMatrix@@QEBA?AV1@M@Z
?GetRotatedByLocalAxisZ@bCMatrix@@QEBAXAEAV1@M@Z
?GetRotatedLocal@bCMatrix2@@QEBA?AV1@M@Z
?GetRotatedLocal@bCMatrix2@@QEBAXAEAV1@M@Z
?GetRotatedLocal@bCMatrix3@@QEBA?AV1@AEBVbCAxisAngle@@@Z
?GetRotatedLocal@bCMatrix3@@QEBA?AV1@AEBVbCEulerAngles@@@Z
?GetRotatedLocal@bCMatrix3@@QEBA?AV1@AEBVbCQuaternion@@@Z
?GetRotatedLocal@bCMatrix3@@QEBAXAEAV1@AEBVbCAxisAngle@@@Z
?GetRotatedLocal@bCMatrix3@@QEBAXAEAV1@AEBVbCEulerAngles@@@Z
?GetRotatedLocal@bCMatrix3@@QEBAXAEAV1@AEBVbCQuaternion@@@Z
?GetRotatedLocal@bCMatrix@@QEBA?AV1@AEBVbCAxisAngle@@@Z
?GetRotatedLocal@bCMatrix@@QEBA?AV1@AEBVbCEulerAngles@@@Z
?GetRotatedLocal@bCMatrix@@QEBA?AV1@AEBVbCQuaternion@@@Z
?GetRotatedLocal@bCMatrix@@QEBAXAEAV1@AEBVbCAxisAngle@@@Z
?GetRotatedLocal@bCMatrix@@QEBAXAEAV1@AEBVbCEulerAngles@@@Z
?GetRotatedLocal@bCMatrix@@QEBAXAEAV1@AEBVbCQuaternion@@@Z
?GetRotatedLocalAxisX@bCMatrix3@@QEBA?AV1@M@Z
?GetRotatedLocalAxisX@bCMatrix3@@QEBAXAEAV1@M@Z
?GetRotatedLocalAxisX@bCQuaternion@@QEBA?AV1@M@Z
?GetRotatedLocalAxisX@bCQuaternion@@QEBAXAEAV1@M@Z
?GetRotatedLocalAxisY@bCMatrix3@@QEBA?AV1@M@Z
?GetRotatedLocalAxisY@bCMatrix3@@QEBAXAEAV1@M@Z
?GetRotatedLocalAxisY@bCQuaternion@@QEBA?AV1@M@Z
?GetRotatedLocalAxisY@bCQuaternion@@QEBAXAEAV1@M@Z
?GetRotatedLocalAxisZ@bCMatrix3@@QEBA?AV1@M@Z
?GetRotatedLocalAxisZ@bCMatrix3@@QEBAXAEAV1@M@Z
?GetRotatedLocalAxisZ@bCQuaternion@@QEBA?AV1@M@Z
?GetRotatedLocalAxisZ@bCQuaternion@@QEBAXAEAV1@M@Z
?GetRotation3@bCMatrix@@QEBA?AVbCMatrix3@@XZ
?GetRotation@bCMatrix@@QEBA?AV1@XZ
?GetRotation@bCMatrix@@QEBAXAEAV1@@Z
?GetRotation@bCMatrix@@QEBAXAEAVbCMatrix3@@@Z
?GetRow4@bCMatrix@@IEBAAEBVbCVector4@@H@Z
?GetRow@bCMatrix2@@QEBAAEBVbCVector2@@H@Z
?GetRow@bCMatrix2@@QEBAXHAEAVbCVector2@@@Z
?GetRow@bCMatrix2@@QEBAXHQEAM@Z
?GetRow@bCMatrix3@@QEBAAEBVbCVector@@H@Z
?GetRow@bCMatrix3@@QEBAXHAEAVbCVector@@@Z
?GetRow@bCMatrix3@@QEBAXHQEAM@Z
?GetRow@bCMatrix@@IEBAAEBVbCVector@@H@Z
?GetRow@bCMatrix@@IEBAXHAEAVbCVector4@@@Z
?GetRow@bCMatrix@@IEBAXHAEAVbCVector@@@Z
?GetRow@bCMatrix@@QEBAXHQEAM@Z
?GetSaturation@bCFloatColorHSV@@QEBAMXZ
?GetSaturation@bCFloatColorHSV@@QEBAXAEAM@Z
?GetScaled@bCBox@@QEBA?AV1@AEBVbCVector@@@Z
?GetScaled@bCBox@@QEBA?AV1@M@Z
?GetScaled@bCFrustum@@QEBA?AV1@M@Z
?GetScaled@bCFrustum@@QEBAXAEAV1@M@Z
?GetScaled@bCInfCylinder@@QEBA?AV1@M@Z
?GetScaled@bCInfDoubleCylinder@@QEBA?AV1@M@Z
?GetScaled@bCOrientedBox@@QEBA?AV1@AEBVbCVector@@@Z
?GetScaled@bCOrientedBox@@QEBA?AV1@M@Z
?GetScaled@bCOrientedBox@@QEBAXAEAV1@AEBVbCVector@@@Z
?GetScaled@bCOrientedBox@@QEBAXAEAV1@M@Z
?GetScaled@bCPlane@@QEBA?AV1@M@Z
?GetScaled@bCPlane@@QEBAXAEAV1@M@Z
?GetScaled@bCPoint@@QEBA?AV1@M@Z
?GetScaled@bCSphere@@QEBA?AV1@M@Z
?GetScaled@bCStretch@@QEBA?AV1@M@Z
?GetScaled@bCStretch@@QEBAXAEAV1@M@Z
?GetScaled@bCUnitedRay@@QEBA?AV1@M@Z
?GetScaled@bCUnitedRay@@QEBAXAEAV1@M@Z
?GetScaled@bCVector2@@QEBA?AV1@AEBV1@@Z
?GetScaled@bCVector2@@QEBA?AV1@M@Z
?GetScaled@bCVector4@@QEBA?AV1@AEBV1@@Z
?GetScaled@bCVector4@@QEBA?AV1@M@Z
?GetScaled@bCVector@@QEBA?AV1@AEBV1@@Z
?GetScaled@bCVector@@QEBA?AV1@M@Z
?GetShortDateString@bCDateTime@@QEBAXAEAVbCString@@@Z
?GetShortText@bCPropertyID@@QEBA?AVbCString@@XZ
?GetShrunk@bCBox@@QEBA?AV1@AEBVbCVector@@@Z
?GetShrunk@bCBox@@QEBA?AV1@M@Z
?GetShrunk@bCInfCylinder@@QEBA?AV1@M@Z
?GetShrunk@bCInfDoubleCylinder@@QEBA?AV1@M@Z
?GetShrunk@bCSphere@@QEBA?AV1@M@Z
?GetSibling@bCProfileNode@@QEBAPEAV1@XZ
?GetSize@bCMemoryStream@@UEBA_JXZ
?GetSlerp@bCQuaternion@@QEBA?AV1@AEBV1@M@Z
?GetSlerp@bCVector@@QEBA?AV1@AEBV1@M@Z
?GetSlotIndex@bCBitField@@IEBAHH@Z
?GetSlotIndex@bCTrackBitField@@IEBAHH@Z
?GetSpecular@bCFlexibleVertexPtr@@QEBAKXZ
?GetSphericalRotation@bCQuaternion@@QEBA?AVbCSphericalRotation@@XZ
?GetSphericalRotation@bCQuaternion@@QEBAXAEAVbCSphericalRotation@@@Z
?GetSquareDistance@bCStretch@@QEBAMAEBV1@@Z
?GetSquareDistance@bCStretch@@QEBAMAEBV1@AEAM1@Z
?GetSquareDistance@bCStretch@@QEBAMAEBVbCRay@@@Z
?GetSquareDistance@bCStretch@@QEBAMAEBVbCRay@@AEAM1@Z
?GetSquareMagnitude2D@bCVector@@QEBAMW4bECoordinate@1@@Z
?GetSquareMagnitude@bCQuaternion@@QEBAMXZ
?GetSquareMagnitude@bCVector2@@QEBAMXZ
?GetSquareMagnitude@bCVector4@@QEBAMXZ
?GetSquareMagnitude@bCVector@@QEBAMXZ
?GetStart@bCStretch@@QEBAAEBVbCVector@@XZ
?GetStart@bCStretch@@QEBAXAEAVbCVector@@@Z
?GetStats@bCProfileNode@@QEBAAEBUbSProfileStats@@XZ
?GetStreamVersion@bCIStream@@QEBAGXZ
?GetString@bCVariant@@QEBAAEBQEADXZ
?GetStringList@bCPOStream@@SAXAEAPEAV?$bTObjArray@VbCString@@@@AEAPEAV?$bTStringValMap@J@@@Z
?GetSubNode@bCProfileNode@@QEAAPEAV1@PEBD_N@Z
?GetSum@bCByteAlphaColor@@QEBA?AV1@AEBV1@@Z
?GetSum@bCByteAlphaColor@@QEBAXAEAV1@AEBV1@@Z
?GetSum@bCByteColor@@QEBA?AV1@AEBV1@@Z
?GetSum@bCByteColor@@QEBAXAEAV1@AEBV1@@Z
?GetSum@bCFloatAlphaColor@@QEBA?AV1@AEBV1@@Z
?GetSum@bCFloatAlphaColor@@QEBAXAEAV1@AEBV1@@Z
?GetSum@bCFloatColor@@QEBA?AV1@AEBV1@@Z
?GetSum@bCFloatColor@@QEBAXAEAV1@AEBV1@@Z
?GetSum@bCFloatColorHSV@@QEBA?AV1@AEBV1@@Z
?GetSum@bCFloatColorHSV@@QEBAXAEAV1@AEBV1@@Z
?GetSum@bCMatrix2@@QEBA?AV1@AEBV1@@Z
?GetSum@bCMatrix2@@QEBAXAEAV1@AEBV1@@Z
?GetSum@bCMatrix3@@QEBA?AV1@AEBV1@@Z
?GetSum@bCMatrix3@@QEBAXAEAV1@AEBV1@@Z
?GetSum@bCMatrix@@QEBA?AV1@AEBV1@@Z
?GetSum@bCMatrix@@QEBAXAEAV1@AEBV1@@Z
?GetSum@bCQuaternion@@QEBA?AV1@AEBV1@@Z
?GetSum@bCQuaternion@@QEBAXAEAV1@AEBV1@@Z
?GetSum@bCStretch@@QEBA?AV1@AEBV1@@Z
?GetSum@bCStretch@@QEBAXAEAV1@AEBV1@@Z
?GetSum@bCUnitedRay@@QEBA?AV1@AEBV1@@Z
?GetSum@bCUnitedRay@@QEBAXAEAV1@AEBV1@@Z
?GetSummeryFootprintGrowTopTen@bCMemoryAdmin@@QEAAHPEAUbSAllocationSummery@@H@Z
?GetSummeryFootprintTopTen@bCMemoryAdmin@@QEAAHPEAUbSAllocationSummery@@H@Z
?GetSummeryFreeListAllocTopTen@bCMemoryAdmin@@QEAAHPEAUbSAllocationSummery@@HAEAH@Z
?GetSummeryHeapAllocTopTen@bCMemoryAdmin@@QEAAHPEAUbSAllocationSummery@@HAEAH@Z
?GetSummeryItemCountGrowTopTen@bCMemoryAdmin@@QEAAHPEAUbSAllocationSummery@@H@Z
?GetSummeryItemCountTopTen@bCMemoryAdmin@@QEAAHPEAUbSAllocationSummery@@H@Z
?GetSummeryMaxFootprintTopTen@bCMemoryAdmin@@QEAAHPEAUbSAllocationSummery@@H@Z
?GetSummeryObservedTopTen@bCMemoryAdmin@@QEAAHPEAUbSAllocationSummery@@HPEBD@Z
?GetSummerySmallAllocTopTen@bCMemoryAdmin@@QEAAHPEAUbSAllocationSummery@@HAEAH@Z
?GetTag@bCXMLParserNode@@QEBA?AVbCString@@XZ
?GetText@bCGuid@@QEBA?AVbCString@@XZ
?GetText@bCPropertyID@@QEBA?AVbCString@@XZ
?GetText@bCString@@QEBAPEBDXZ
?GetText@bCUnicodeString@@QEAAPEA_WXZ
?GetText@bCUnicodeString@@QEBAPEB_WXZ
?GetText@bCXMLParserNode@@QEBA?AVbCString@@XZ
?GetTextEx@bCPropertyID@@QEBA?AVbCString@@XZ
?GetTextureCoordCount@bCFlexibleVertexFormat@@QEBAHH@Z
?GetTextureCoords@bCFlexibleVertexPtr@@QEBAXHAEAVbCVector2@@@Z
?GetTextureCoords@bCFlexibleVertexPtr@@QEBAXHAEAVbCVector4@@@Z
?GetTextureCoords@bCFlexibleVertexPtr@@QEBAXHAEAVbCVector@@@Z
?GetTextureStageCount@bCFlexibleVertexFormat@@QEBAHXZ
?GetThisType@bCObjectBase@@SAAEAVbCPropertyObjectTypeBase@@XZ
?GetThisType@bCObjectRefBase@@SAAEAVbCPropertyObjectTypeBase@@XZ
?GetTime@bCTimer@@QEAAXAEAM@Z
?GetTimeAndDate@bCClock@@QEAAXAEAUbSTimeAndDate@@@Z
?GetTimeDifference@bCTimer@@QEBAXAEAM@Z
?GetTimeStamp@bCProfileManager@@SAMXZ
?GetTimeStamp@bCTimer@@SAKXZ
?GetTimeString@bCDateTime@@QEBAXAEAVbCString@@@Z
?GetTop@bCRect@@QEBAJXZ
?GetTop@bCRect@@QEBAXAEAJ@Z
?GetTopLeft@bCRect@@QEBAAEBVbCPoint@@XZ
?GetTopLeft@bCRect@@QEBAXAEAVbCPoint@@@Z
?GetTotalBytesAllocated@bCGCMem@@QEBAKXZ
?GetTotalMemory@bCGCMemGeneration@@QEBAKXZ
?GetTotalNumAllocatedBytes@bCMemoryAdmin@@QEAA_KXZ
?GetTraceOnError@bCValidateMemory@@QEBA_NXZ
?GetTransformed@bCBox@@QEBA?AV1@AEBVbCMatrix3@@@Z
?GetTransformed@bCBox@@QEBA?AV1@AEBVbCMatrix@@@Z
?GetTransformed@bCFrustum@@QEBA?AV1@AEBVbCMatrix3@@@Z
?GetTransformed@bCFrustum@@QEBA?AV1@AEBVbCMatrix@@@Z
?GetTransformed@bCFrustum@@QEBAXAEAV1@AEBVbCMatrix3@@@Z
?GetTransformed@bCFrustum@@QEBAXAEAV1@AEBVbCMatrix@@@Z
?GetTransformed@bCInfCylinder@@QEBA?AV1@AEBVbCMatrix3@@@Z
?GetTransformed@bCInfCylinder@@QEBA?AV1@AEBVbCMatrix@@@Z
?GetTransformed@bCInfDoubleCylinder@@QEBA?AV1@AEBVbCMatrix3@@@Z
?GetTransformed@bCInfDoubleCylinder@@QEBA?AV1@AEBVbCMatrix@@@Z
?GetTransformed@bCLine@@QEBA?AV1@AEBVbCMatrix3@@@Z
?GetTransformed@bCLine@@QEBA?AV1@AEBVbCMatrix@@@Z
?GetTransformed@bCLine@@QEBAXAEAV1@AEBVbCMatrix3@@@Z
?GetTransformed@bCLine@@QEBAXAEAV1@VbCMatrix3@@@Z
?GetTransformed@bCOrientedBox@@QEBA?AV1@AEBVbCMatrix3@@@Z
?GetTransformed@bCOrientedBox@@QEBA?AV1@AEBVbCMatrix@@@Z
?GetTransformed@bCOrientedBox@@QEBAXAEAV1@AEBVbCMatrix3@@@Z
?GetTransformed@bCOrientedBox@@QEBAXAEAV1@AEBVbCMatrix@@@Z
?GetTransformed@bCPlane@@QEBA?AV1@AEBVbCMatrix3@@@Z
?GetTransformed@bCPlane@@QEBA?AV1@AEBVbCMatrix@@@Z
?GetTransformed@bCPlane@@QEBAXAEAV1@AEBVbCMatrix3@@@Z
?GetTransformed@bCPlane@@QEBAXAEAV1@AEBVbCMatrix@@@Z
?GetTransformed@bCSphere@@QEBA?AV1@AEBVbCMatrix3@@@Z
?GetTransformed@bCSphere@@QEBA?AV1@AEBVbCMatrix@@@Z
?GetTransformed@bCStretch@@QEBA?AV1@AEBVbCMatrix3@@@Z
?GetTransformed@bCStretch@@QEBA?AV1@AEBVbCMatrix@@@Z
?GetTransformed@bCStretch@@QEBAXAEAV1@AEBVbCMatrix3@@@Z
?GetTransformed@bCStretch@@QEBAXAEAV1@VbCMatrix3@@@Z
?GetTransformed@bCTriangle@@QEBA?AV1@AEBVbCMatrix3@@@Z
?GetTransformed@bCTriangle@@QEBA?AV1@AEBVbCMatrix@@@Z
?GetTransformed@bCTriangle@@QEBAXAEAV1@AEBVbCMatrix3@@@Z
?GetTransformed@bCTriangle@@QEBAXAEAV1@VbCMatrix3@@@Z
?GetTransformed@bCUnitedRay@@QEBA?AV1@AEBVbCMatrix3@@@Z
?GetTransformed@bCUnitedRay@@QEBA?AV1@AEBVbCMatrix@@@Z
?GetTransformed@bCUnitedRay@@QEBAXAEAV1@AEBVbCMatrix3@@@Z
?GetTransformed@bCUnitedRay@@QEBAXAEAV1@AEBVbCMatrix@@@Z
?GetTransformed@bCVector2@@QEBA?AV1@AEBVbCMatrix2@@@Z
?GetTransformed@bCVector4@@QEBA?AV1@AEBVbCMatrix@@@Z
?GetTransformed@bCVector@@QEBA?AV1@AEBVbCMatrix3@@@Z
?GetTransformed@bCVector@@QEBA?AV1@AEBVbCMatrix@@@Z
?GetTransformedDirection@bCVector@@QEBA?AV1@AEBVbCMatrix@@@Z
?GetTransformedVector@bCQuaternion@@QEBA?AVbCVector@@AEBV2@@Z
?GetTranslated@bCBox@@QEBA?AV1@AEBVbCVector@@@Z
?GetTranslated@bCBox@@QEBA?AV1@M@Z
?GetTranslated@bCFrustum@@QEBA?AV1@AEBVbCVector@@@Z
?GetTranslated@bCFrustum@@QEBAXAEAV1@AEBVbCVector@@@Z
?GetTranslated@bCInfCylinder@@QEBA?AV1@AEBVbCVector@@@Z
?GetTranslated@bCInfCylinder@@QEBA?AV1@M@Z
?GetTranslated@bCInfDoubleCylinder@@QEBA?AV1@AEBVbCVector@@@Z
?GetTranslated@bCInfDoubleCylinder@@QEBA?AV1@M@Z
?GetTranslated@bCLine@@QEBA?AV1@AEBVbCVector@@@Z
?GetTranslated@bCLine@@QEBAXAEAV1@AEBVbCVector@@@Z
?GetTranslated@bCOrientedBox@@QEBA?AV1@AEBVbCVector@@@Z
?GetTranslated@bCOrientedBox@@QEBA?AV1@M@Z
?GetTranslated@bCOrientedBox@@QEBAXAEAV1@AEBVbCVector@@@Z
?GetTranslated@bCOrientedBox@@QEBAXAEAV1@M@Z
?GetTranslated@bCPlane@@QEBA?AV1@AEBVbCVector@@@Z
?GetTranslated@bCPlane@@QEBAXAEAV1@AEBVbCVector@@@Z
?GetTranslated@bCSphere@@QEBA?AV1@AEBVbCVector@@@Z
?GetTranslated@bCSphere@@QEBA?AV1@M@Z
?GetTranslated@bCStretch@@QEBA?AV1@AEBVbCVector@@@Z
?GetTranslated@bCStretch@@QEBAXAEAV1@AEBVbCVector@@@Z
?GetTranslated@bCTriangle@@QEBA?AV1@AEBVbCVector@@@Z
?GetTranslated@bCTriangle@@QEBAXAEAV1@AEBVbCVector@@@Z
?GetTranslated@bCUnitedRay@@QEBA?AV1@AEBVbCVector@@@Z
?GetTranslated@bCUnitedRay@@QEBAXAEAV1@AEBVbCVector@@@Z
?GetTranslated@bCVector2@@QEBA?AV1@AEBV1@@Z
?GetTranslated@bCVector2@@QEBA?AV1@M@Z
?GetTranslated@bCVector4@@QEBA?AV1@AEBV1@@Z
?GetTranslated@bCVector4@@QEBA?AV1@M@Z
?GetTranslated@bCVector@@QEBA?AV1@AEBV1@@Z
?GetTranslated@bCVector@@QEBA?AV1@M@Z
?GetTranslation4@bCMatrix@@QEBAAEBVbCVector4@@XZ
?GetTranslation@bCMatrix@@QEBAAEBVbCVector@@XZ
?GetTranslation@bCMatrix@@QEBAXAEAVbCVector4@@@Z
?GetTranslation@bCMatrix@@QEBAXAEAVbCVector@@@Z
?GetTransposed@bCMatrix2@@QEBA?AV1@XZ
?GetTransposed@bCMatrix2@@QEBAXAEAV1@@Z
?GetTransposed@bCMatrix3@@QEBA?AV1@XZ
?GetTransposed@bCMatrix3@@QEBAXAEAV1@@Z
?GetTurbulence@bCNoise@@QEBAMAEBVbCVector2@@HHW4bENoiseTurbulence@@W4bENoiseAmplitude@@M@Z
?GetTurbulence@bCNoise@@QEBAMAEBVbCVector@@HHW4bENoiseTurbulence@@W4bENoiseAmplitude@@M@Z
?GetTurbulence@bCNoise@@QEBAMMHHW4bENoiseTurbulence@@W4bENoiseAmplitude@@M@Z
?GetTurbulence@bCNoise@@QEBAMMMHHW4bENoiseTurbulence@@W4bENoiseAmplitude@@M@Z
?GetTurbulence@bCNoise@@QEBAMMMMHHW4bENoiseTurbulence@@W4bENoiseAmplitude@@M@Z
?GetType@bCVariant@@QEBAAEBW4bEType@1@XZ
?GetType@bCVariant@@QEBAXAEAW4bEType@1@@Z
?GetTypeHash@bCPropertyObjectTypeBase@@QEBAIXZ
?GetTypeHash@bCPropertyObjectTypeBase@@SAIPEBD@Z
?GetU16@bCVariant@@QEBAAEBGXZ
?GetU32@bCVariant@@QEBAAEBKXZ
?GetU64@bCVariant@@QEBAAEB_KXZ
?GetU8@bCVariant@@QEBAAEBEXZ
?GetUnicodeText@bCString@@QEBA?AVbCUnicodeString@@XZ
?GetUnit@bCVector@@SAAEBV1@XZ
?GetUp@bCVector@@SAAEBV1@XZ
?GetUpperBound@bCBitField@@QEBAHXZ
?GetUpperBound@bCTrackBitField@@QEBAHXZ
?GetUserData@bCIStream@@QEBAKXZ
?GetValue@bCFloatColorHSV@@QEAAAEAMXZ
?GetValue@bCFloatColorHSV@@QEBAMXZ
?GetValue@bCFloatColorHSV@@QEBAXAEAM@Z
?GetValue@bCRandom@@QEBAHHH@Z
?GetValue@bCRandom@@QEBAHXZ
?GetValue@bCRandom@@QEBAMMM@Z
?GetVector@bCTriangle@@QEBAAEBVbCVector@@H@Z
?GetVectors@bCTriangle@@QEBAAEAY02$$CBVbCVector@@XZ
?GetVersion@bCObjectBase@@UEBAGXZ
?GetVersion@bCObjectRefBase@@UEBAGXZ
?GetVertex@bCBox@@QEBA?AVbCVector@@H@Z
?GetVertex@bCBox@@QEBAXHAEAVbCVector@@@Z
?GetVertex@bCFrustum@@QEBA?AVbCVector@@H@Z
?GetVertex@bCFrustum@@QEBAXHAEAVbCVector@@@Z
?GetVertex@bCOrientedBox@@QEBA?AVbCVector@@H@Z
?GetVertex@bCOrientedBox@@QEBAXHAEAVbCVector@@@Z
?GetVertexByteCount@bCFlexibleVertexFormat@@QEBAHXZ
?GetVertices@bCOrientedBox@@QEBAXQEAVbCVector@@@Z
?GetVoidPointer@bCVariant@@QEBAAEBQEAXXZ
?GetVolume@bCBox@@QEBAMXZ
?GetVolume@bCInfCylinder@@QEBAMXZ
?GetVolume@bCInfDoubleCylinder@@QEBAMXZ
?GetVolume@bCOrientedBox@@QEBAMXZ
?GetVolume@bCSphere@@QEBAMXZ
?GetW@bCQuaternion@@QEBAMXZ
?GetW@bCQuaternion@@QEBAXAEAM@Z
?GetW@bCVector4@@QEBAMXZ
?GetW@bCVector4@@QEBAXAEAM@Z
?GetWarningMessageOnError@bCValidateMemory@@QEBA_NXZ
?GetWeight@bCFlexibleVertexPtr@@QEBAMH@Z
?GetWeightCount@bCFlexibleVertexFormat@@QEBAHXZ
?GetWidened@bCBox@@QEBA?AV1@AEBVbCVector@@@Z
?GetWidened@bCBox@@QEBA?AV1@M@Z
?GetWidened@bCInfCylinder@@QEBA?AV1@M@Z
?GetWidened@bCInfDoubleCylinder@@QEBA?AV1@M@Z
?GetWidened@bCSphere@@QEBA?AV1@M@Z
?GetWidth@bCBox@@QEBAMXZ
?GetWidth@bCOrientedBox@@QEBAMXZ
?GetWidth@bCRect@@QEBAJXZ
?GetWord@bCString@@QEBAHHAEBV1@AEAV1@_N2@Z
?GetWord@bCUnicodeString@@QEBAHHAEBV1@AEAV1@_N2@Z
?GetX@bCFlexibleVertexPtr@@QEBAMXZ
?GetX@bCPoint@@QEBAJXZ
?GetX@bCPoint@@QEBAXAEAJ@Z
?GetX@bCQuaternion@@QEBAMXZ
?GetX@bCQuaternion@@QEBAXAEAM@Z
?GetX@bCVector2@@QEBAMXZ
?GetX@bCVector2@@QEBAXAEAM@Z
?GetX@bCVector4@@QEBAMXZ
?GetX@bCVector4@@QEBAXAEAM@Z
?GetX@bCVector@@QEBAMXZ
?GetX@bCVector@@QEBAXAEAM@Z
?GetXAxis4@bCMatrix@@QEBAAEBVbCVector4@@XZ
?GetXAxis@bCMatrix2@@QEBAAEBVbCVector2@@XZ
?GetXAxis@bCMatrix2@@QEBAXAEAVbCVector2@@@Z
?GetXAxis@bCMatrix3@@QEBAAEBVbCVector@@XZ
?GetXAxis@bCMatrix3@@QEBAXAEAVbCVector@@@Z
?GetXAxis@bCMatrix@@QEBAAEBVbCVector@@XZ
?GetXAxis@bCMatrix@@QEBAXAEAVbCVector4@@@Z
?GetXAxis@bCMatrix@@QEBAXAEAVbCVector@@@Z
?GetXML@bCXMLParserNode@@QEBA?AVbCString@@H_N@Z
?GetXML@bCXMLParserNode@@QEBA_NAEAVbCString@@H_N@Z
?GetY@bCFlexibleVertexPtr@@QEBAMXZ
?GetY@bCPoint@@QEBAJXZ
?GetY@bCPoint@@QEBAXAEAJ@Z
?GetY@bCQuaternion@@QEBAMXZ
?GetY@bCQuaternion@@QEBAXAEAM@Z
?GetY@bCVector2@@QEBAMXZ
?GetY@bCVector2@@QEBAXAEAM@Z
?GetY@bCVector4@@QEBAMXZ
?GetY@bCVector4@@QEBAXAEAM@Z
?GetY@bCVector@@QEBAMXZ
?GetY@bCVector@@QEBAXAEAM@Z
?GetYAxis4@bCMatrix@@QEBAAEBVbCVector4@@XZ
?GetYAxis@bCMatrix2@@QEBAAEBVbCVector2@@XZ
?GetYAxis@bCMatrix2@@QEBAXAEAVbCVector2@@@Z
?GetYAxis@bCMatrix3@@QEBAAEBVbCVector@@XZ
?GetYAxis@bCMatrix3@@QEBAXAEAVbCVector@@@Z
?GetYAxis@bCMatrix@@QEBAAEBVbCVector@@XZ
?GetYAxis@bCMatrix@@QEBAXAEAVbCVector4@@@Z
?GetYAxis@bCMatrix@@QEBAXAEAVbCVector@@@Z
?GetYaw@bCEulerAngles@@QEBAMXZ
?GetYaw@bCEulerAngles@@QEBAXAEAM@Z
?GetZ@bCFlexibleVertexPtr@@QEBAMXZ
?GetZ@bCQuaternion@@QEBAMXZ
?GetZ@bCQuaternion@@QEBAXAEAM@Z
?GetZ@bCVector4@@QEBAMXZ
?GetZ@bCVector4@@QEBAXAEAM@Z
?GetZ@bCVector@@QEBAMXZ
?GetZ@bCVector@@QEBAXAEAM@Z
?GetZAxis4@bCMatrix@@QEBAAEBVbCVector4@@XZ
?GetZAxis@bCMatrix3@@QEBAAEBVbCVector@@XZ
?GetZAxis@bCMatrix3@@QEBAXAEAVbCVector@@@Z
?GetZAxis@bCMatrix@@QEBAAEBVbCVector@@XZ
?GetZAxis@bCMatrix@@QEBAXAEAVbCVector4@@@Z
?GetZAxis@bCMatrix@@QEBAXAEAVbCVector@@@Z
?GetZero@bCMatrix@@SAAEBV1@XZ
?GetZero@bCVector@@SAAEBV1@XZ
?HandleCrash@bCErrorAdmin@@QEAAHKPEAU_EXCEPTION_POINTERS@@@Z
?HandleDeprecatedProperty@bCObjectBase@@UEAA_NAEBVbCString@@0AEAVbCIStream@@@Z
?HasBaseClass@bCAccessorCreator@@QEBA_NXZ
?HasBaseClass@bCAccessorPropertyObject@@QEBA_NXZ
?HasDiffuse@bCFlexibleVertexFormat@@QEBA_NXZ
?HasFlag@bCPropertyObjectTypeBase@@QEBA_NK@Z
?HasNormal@bCFlexibleVertexFormat@@QEBA_NXZ
?HasPointSize@bCFlexibleVertexFormat@@QEBA_NXZ
?HasPropertyObject@bCAccessorPropertyObject@@QEBA_NXZ
?HasRHW@bCFlexibleVertexFormat@@QEBA_NXZ
?HasSpecular@bCFlexibleVertexFormat@@QEBA_NXZ
?HasWeight@bCFlexibleVertexFormat@@QEBA_NH@Z
?HasXYZ@bCFlexibleVertexFormat@@QEBA_NXZ
?HasZeroMagnitude2D@bCVector@@QEBA_NW4bECoordinate@1@@Z
?HasZeroMagnitude2DApprox@bCVector@@QEBA_NW4bECoordinate@1@@Z
?HasZeroMagnitude@bCVector@@QEBA_NXZ
?HasZeroMagnitudeApprox@bCVector@@QEBA_NXZ
?ImprovedNoise@bCPerlinNoise@@QEBAMM@Z
?ImprovedNoise@bCPerlinNoise@@QEBAMMM@Z
?ImprovedNoise@bCPerlinNoise@@QEBAMMMM@Z
?IncludeBox@bCOctTree@@QEAAXAEBVbCBox@@@Z
?IncrSortEigenStuff2@bCEigenVector@@QEAAXXZ
?IncrSortEigenStuff3@bCEigenVector@@QEAAXXZ
?IncrSortEigenStuff4@bCEigenVector@@QEAAXXZ
?IncrSortEigenStuff@bCEigenVector@@QEAAXXZ
?IncrSortEigenStuffN@bCEigenVector@@QEAAXXZ
?IncreasingSort@bCEigenVector@@AEAAXJPEANPEAPEAN@Z
?Increment@bCString@@KAXPEAUbSStringData@1@@Z
?Increment@bCUnicodeString@@KAXPEAUbSUnicodeStringData@1@@Z
?Inflate@bCRect@@QEAAXAEBJ@Z
?Init@bCDateTime@@IEAAXXZ
?Init@bCGuid@@IEAAXXZ
?Init@bCVariant@@IEAAXXZ
?InitSeed@bCMersenneTwister@@AEAAXXZ
?InitTypeMap@bCPropertyObjectTypeBase@@AEAAXXZ
?Initialize@bCEbertNoise@@IEAAXH@Z
?Initialize@bCPeacheyNoise@@IEAAXH@Z
?Initialize@bCPerlinNoise@@IEAAXH@Z
?Insert@bCString@@QEAAHHAEBV1@@Z
?Insert@bCString@@QEAAHHD@Z
?Insert@bCString@@QEAAHHPEBD@Z
?Insert@bCUnicodeString@@QEAAHHAEBV1@@Z
?Insert@bCUnicodeString@@QEAAHHPEB_W@Z
?Insert@bCUnicodeString@@QEAAHH_W@Z
?InsertArgument@bCCommandLine@@IEAAHAEBVbCString@@@Z
?InsertChild@bCXMLParserNode@@QEAAPEAV1@XZ
?InsertChild@bCXMLParserNode@@QEAA_NPEAV1@@Z
?InsertOption@bCCommandLine@@IEAA_NAEBVbCString@@0@Z
?InsertOption@bCCommandLine@@IEAA_NAEBVbCString@@@Z
?Intersect@bCBox@@QEAAXAEBV1@@Z
?Intersect@bCInfCylinder@@QEAAXAEBV1@@Z
?Intersect@bCInfDoubleCylinder@@QEAAXAEBV1@@Z
?Intersect@bCRect@@QEAAXAEBV1@@Z
?Intersect@bCSphere@@QEAAXAEBV1@@Z
?Intersects@bCBox@@QEBA_NAEBV1@@Z
?Intersects@bCBox@@QEBA_NAEBVbCFrustum@@@Z
?Intersects@bCBox@@QEBA_NAEBVbCLine@@AEAM@Z
?Intersects@bCBox@@QEBA_NAEBVbCPlane@@@Z
?Intersects@bCBox@@QEBA_NAEBVbCRay@@AEAM@Z
?Intersects@bCBox@@QEBA_NAEBVbCSphere@@@Z
?Intersects@bCBox@@QEBA_NAEBVbCStretch@@AEAM@Z
?Intersects@bCBox@@QEBA_NAEBVbCTriangle@@@Z
?Intersects@bCBox@@QEBA_NAEBVbCUnitedRay@@AEAM@Z
?Intersects@bCBox@@QEBA_NAEBVbCVector@@@Z
?Intersects@bCBox@@QEBA_NQEBVbCVector@@@Z
?Intersects@bCFrustum@@QEBA_NAEBV1@@Z
?Intersects@bCFrustum@@QEBA_NAEBVbCBox@@@Z
?Intersects@bCFrustum@@QEBA_NAEBVbCLine@@AEAM@Z
?Intersects@bCFrustum@@QEBA_NAEBVbCPlane@@@Z
?Intersects@bCFrustum@@QEBA_NAEBVbCRay@@AEAM@Z
?Intersects@bCFrustum@@QEBA_NAEBVbCSphere@@@Z
?Intersects@bCFrustum@@QEBA_NAEBVbCStretch@@AEAM@Z
?Intersects@bCFrustum@@QEBA_NAEBVbCTriangle@@@Z
?Intersects@bCFrustum@@QEBA_NAEBVbCUnitedRay@@AEAM@Z
?Intersects@bCFrustum@@QEBA_NAEBVbCVector@@@Z
?Intersects@bCFrustum@@QEBA_NQEBVbCVector@@@Z
?Intersects@bCInfCylinder@@QEBA_NAEBV1@@Z
?Intersects@bCInfCylinder@@QEBA_NAEBVbCBox@@@Z
?Intersects@bCInfCylinder@@QEBA_NAEBVbCFrustum@@@Z
?Intersects@bCInfCylinder@@QEBA_NAEBVbCInfDoubleCylinder@@@Z
?Intersects@bCInfCylinder@@QEBA_NAEBVbCLine@@AEAM@Z
?Intersects@bCInfCylinder@@QEBA_NAEBVbCPlane@@@Z
?Intersects@bCInfCylinder@@QEBA_NAEBVbCRay@@AEAM@Z
?Intersects@bCInfCylinder@@QEBA_NAEBVbCStretch@@AEAMAEAVbCVector2@@_N3@Z
?Intersects@bCInfCylinder@@QEBA_NAEBVbCTriangle@@@Z
?Intersects@bCInfCylinder@@QEBA_NAEBVbCUnitedRay@@AEAM@Z
?Intersects@bCInfCylinder@@QEBA_NAEBVbCVector@@@Z
?Intersects@bCInfCylinder@@QEBA_NQEBVbCVector@@@Z
?Intersects@bCInfDoubleCylinder@@QEBA_NAEBV1@@Z
?Intersects@bCInfDoubleCylinder@@QEBA_NAEBVbCBox@@@Z
?Intersects@bCInfDoubleCylinder@@QEBA_NAEBVbCFrustum@@@Z
?Intersects@bCInfDoubleCylinder@@QEBA_NAEBVbCInfCylinder@@@Z
?Intersects@bCInfDoubleCylinder@@QEBA_NAEBVbCLine@@AEAM@Z
?Intersects@bCInfDoubleCylinder@@QEBA_NAEBVbCPlane@@@Z
?Intersects@bCInfDoubleCylinder@@QEBA_NAEBVbCRay@@AEAM@Z
?Intersects@bCInfDoubleCylinder@@QEBA_NAEBVbCStretch@@AEAMAEAVbCVector2@@_N3@Z
?Intersects@bCInfDoubleCylinder@@QEBA_NAEBVbCTriangle@@@Z
?Intersects@bCInfDoubleCylinder@@QEBA_NAEBVbCUnitedRay@@AEAM@Z
?Intersects@bCInfDoubleCylinder@@QEBA_NAEBVbCVector@@@Z
?Intersects@bCInfDoubleCylinder@@QEBA_NQEBVbCVector@@@Z
?Intersects@bCLine@@QEBA_NAEBVbCBox@@AEAM@Z
?Intersects@bCLine@@QEBA_NAEBVbCFrustum@@AEAM@Z
?Intersects@bCLine@@QEBA_NAEBVbCPlane@@AEAM@Z
?Intersects@bCLine@@QEBA_NAEBVbCSphere@@AEAM@Z
?Intersects@bCLine@@QEBA_NAEBVbCTriangle@@AEAM@Z
?Intersects@bCLine@@QEBA_NAEBVbCTriangle@@W4bESides@2@AEAM@Z
?Intersects@bCLine@@QEBA_NQEBVbCVector@@AEAM@Z
?Intersects@bCLine@@QEBA_NQEBVbCVector@@W4bESides@bCTriangle@@AEAM@Z
?Intersects@bCOrientedBox@@QEBA_NAEBV1@@Z
?Intersects@bCOrientedBox@@QEBA_NAEBVbCBox@@@Z
?Intersects@bCOrientedBox@@QEBA_NAEBVbCPlane@@@Z
?Intersects@bCOrientedBox@@QEBA_NAEBVbCSphere@@@Z
?Intersects@bCPlane@@QEBA_NAEBVbCBox@@@Z
?Intersects@bCRay@@QEBA_NAEBVbCBox@@AEAM@Z
?Intersects@bCRay@@QEBA_NAEBVbCFrustum@@AEAM@Z
?Intersects@bCRay@@QEBA_NAEBVbCPlane@@AEAM@Z
?Intersects@bCRay@@QEBA_NAEBVbCSphere@@AEAM@Z
?Intersects@bCRay@@QEBA_NAEBVbCTriangle@@AEAM@Z
?Intersects@bCRay@@QEBA_NAEBVbCTriangle@@W4bESides@2@AEAM@Z
?Intersects@bCRay@@QEBA_NQEBVbCVector@@AEAM@Z
?Intersects@bCRay@@QEBA_NQEBVbCVector@@W4bESides@bCTriangle@@AEAM@Z
?Intersects@bCRect@@QEBA_NAEBV1@@Z
?Intersects@bCSphere@@QEBA_NAEBV1@@Z
?Intersects@bCSphere@@QEBA_NAEBVbCBox@@@Z
?Intersects@bCSphere@@QEBA_NAEBVbCFrustum@@@Z
?Intersects@bCSphere@@QEBA_NAEBVbCLine@@AEAM@Z
?Intersects@bCSphere@@QEBA_NAEBVbCPlane@@@Z
?Intersects@bCSphere@@QEBA_NAEBVbCRay@@AEAM@Z
?Intersects@bCSphere@@QEBA_NAEBVbCStretch@@AEAM@Z
?Intersects@bCSphere@@QEBA_NAEBVbCTriangle@@@Z
?Intersects@bCSphere@@QEBA_NAEBVbCUnitedRay@@AEAM@Z
?Intersects@bCSphere@@QEBA_NAEBVbCVector@@00@Z
?Intersects@bCSphere@@QEBA_NAEBVbCVector@@@Z
?Intersects@bCSphere@@QEBA_NQEBVbCVector@@@Z
?Intersects@bCStretch@@QEBA_NAEBVbCBox@@AEAM@Z
?Intersects@bCStretch@@QEBA_NAEBVbCFrustum@@AEAM@Z
?Intersects@bCStretch@@QEBA_NAEBVbCPlane@@AEAM@Z
?Intersects@bCStretch@@QEBA_NAEBVbCSphere@@AEAM@Z
?Intersects@bCStretch@@QEBA_NAEBVbCTriangle@@AEAM@Z
?Intersects@bCStretch@@QEBA_NAEBVbCTriangle@@W4bESides@2@AEAM@Z
?Intersects@bCStretch@@QEBA_NQEBVbCVector@@AEAM@Z
?Intersects@bCStretch@@QEBA_NQEBVbCVector@@W4bESides@bCTriangle@@AEAM@Z
?Intersects@bCTriangle@@QEBA_NAEBV1@@Z
?Intersects@bCTriangle@@QEBA_NAEBVbCBox@@@Z
?Intersects@bCTriangle@@QEBA_NAEBVbCFrustum@@@Z
?Intersects@bCTriangle@@QEBA_NAEBVbCLine@@AEAM@Z
?Intersects@bCTriangle@@QEBA_NAEBVbCLine@@W4bESides@1@AEAM@Z
?Intersects@bCTriangle@@QEBA_NAEBVbCPlane@@@Z
?Intersects@bCTriangle@@QEBA_NAEBVbCRay@@AEAM@Z
?Intersects@bCTriangle@@QEBA_NAEBVbCRay@@W4bESides@1@AEAM@Z
?Intersects@bCTriangle@@QEBA_NAEBVbCSphere@@@Z
?Intersects@bCTriangle@@QEBA_NAEBVbCStretch@@AEAM@Z
?Intersects@bCTriangle@@QEBA_NAEBVbCStretch@@W4bESides@1@AEAM@Z
?Intersects@bCTriangle@@QEBA_NAEBVbCUnitedRay@@AEAM@Z
?Intersects@bCTriangle@@QEBA_NAEBVbCUnitedRay@@W4bESides@1@AEAM@Z
?Intersects@bCTriangle@@QEBA_NQEBVbCVector@@@Z
?Intersects@bCUnitedRay@@QEBA_NAEBVbCBox@@AEAM@Z
?Intersects@bCUnitedRay@@QEBA_NAEBVbCFrustum@@AEAM@Z
?Intersects@bCUnitedRay@@QEBA_NAEBVbCPlane@@AEAM@Z
?Intersects@bCUnitedRay@@QEBA_NAEBVbCSphere@@AEAM@Z
?Intersects@bCUnitedRay@@QEBA_NAEBVbCTriangle@@AEAM@Z
?Intersects@bCUnitedRay@@QEBA_NAEBVbCTriangle@@W4bESides@2@AEAM@Z
?Intersects@bCUnitedRay@@QEBA_NAEBVbCVector@@00AEAM@Z
?Intersects@bCUnitedRay@@QEBA_NAEBVbCVector@@00W4bESides@bCTriangle@@AEAM@Z
?Intersects@bCUnitedRay@@QEBA_NQEBVbCVector@@AEAM@Z
?Intersects@bCUnitedRay@@QEBA_NQEBVbCVector@@W4bESides@bCTriangle@@AEAM@Z
?IntersectsExclusive@bCBox@@QEBA_NAEBV1@@Z
?IntersectsSweep@bCBox@@QEBA_NAEBV1@00AEAM@Z
?IntersectsSweep@bCBox@@QEBA_NAEBV1@0AEAM@Z
?IntersectsSweep@bCBox@@QEBA_NAEBVbCVector@@AEBV1@0AEAM@Z
?IntersectsSweep@bCBox@@QEBA_NAEBVbCVector@@AEBV1@AEAM@Z
?InvRotate@bCFrustum@@QEAAXAEBVbCQuaternion@@@Z
?InvRotate@bCPlane@@QEAAXAEBVbCQuaternion@@@Z
?InvRotate@bCUnitedRay@@QEAAXAEBVbCQuaternion@@@Z
?InvScale@bCBox@@QEAAXAEBVbCVector@@@Z
?InvScale@bCBox@@QEAAXM@Z
?InvScale@bCFrustum@@QEAAXM@Z
?InvScale@bCInfCylinder@@QEAAXM@Z
?InvScale@bCInfDoubleCylinder@@QEAAXM@Z
?InvScale@bCOrientedBox@@QEAAXAEBVbCVector@@@Z
?InvScale@bCOrientedBox@@QEAAXM@Z
?InvScale@bCPlane@@QEAAXM@Z
?InvScale@bCPoint@@QEAAXM@Z
?InvScale@bCSphere@@QEAAXM@Z
?InvScale@bCStretch@@QEAAXM@Z
?InvScale@bCUnitedRay@@QEAAXM@Z
?InvScale@bCVector2@@QEAAXAEBV1@@Z
?InvScale@bCVector2@@QEAAXM@Z
?InvScale@bCVector4@@QEAAXAEBV1@@Z
?InvScale@bCVector4@@QEAAXM@Z
?InvScale@bCVector@@QEAAXAEBV1@@Z
?InvScale@bCVector@@QEAAXM@Z
?InvTransform@bCFrustum@@QEAAXAEBVbCMatrix3@@@Z
?InvTransform@bCFrustum@@QEAAXAEBVbCMatrix@@@Z
?InvTransform@bCLine@@QEAAXAEBVbCMatrix3@@@Z
?InvTransform@bCLine@@QEAAXAEBVbCMatrix@@@Z
?InvTransform@bCOrientedBox@@QEAAXAEBVbCMatrix3@@@Z
?InvTransform@bCOrientedBox@@QEAAXAEBVbCMatrix@@@Z
?InvTransform@bCPlane@@QEAAXAEBVbCMatrix3@@@Z
?InvTransform@bCPlane@@QEAAXAEBVbCMatrix@@@Z
?InvTransform@bCRay@@QEAAXAEBVbCMatrix@@@Z
?InvTransform@bCStretch@@QEAAXAEBVbCMatrix3@@@Z
?InvTransform@bCStretch@@QEAAXAEBVbCMatrix@@@Z
?InvTransform@bCTriangle@@QEAAXAEBVbCMatrix3@@@Z
?InvTransform@bCTriangle@@QEAAXAEBVbCMatrix@@@Z
?InvTransform@bCUnitedRay@@QEAAXAEBVbCMatrix3@@@Z
?InvTransform@bCUnitedRay@@QEAAXAEBVbCMatrix@@@Z
?InvTransform@bCVector2@@QEAAXAEBVbCMatrix2@@@Z
?InvTransform@bCVector4@@QEAAXAEBVbCMatrix@@@Z
?InvTransform@bCVector@@QEAAXAEBVbCMatrix3@@@Z
?InvTransform@bCVector@@QEAAXAEBVbCMatrix@@@Z
?InvTransformDirection@bCVector@@QEAAXAEBVbCMatrix@@@Z
?InvTranslate@bCBox@@QEAAXAEBVbCVector@@@Z
?InvTranslate@bCBox@@QEAAXM@Z
?InvTranslate@bCFrustum@@QEAAXAEBVbCVector@@@Z
?InvTranslate@bCInfCylinder@@QEAAXAEBVbCVector@@@Z
?InvTranslate@bCInfCylinder@@QEAAXM@Z
?InvTranslate@bCInfDoubleCylinder@@QEAAXAEBVbCVector@@@Z
?InvTranslate@bCInfDoubleCylinder@@QEAAXM@Z
?InvTranslate@bCLine@@QEAAXAEBVbCVector@@@Z
?InvTranslate@bCOrientedBox@@QEAAXAEBVbCVector@@@Z
?InvTranslate@bCOrientedBox@@QEAAXM@Z
?InvTranslate@bCPlane@@QEAAXAEBVbCVector@@@Z
?InvTranslate@bCPoint@@QEAAXAEBV1@@Z
?InvTranslate@bCPoint@@QEAAXJJ@Z
?InvTranslate@bCRay@@QEAAXAEBVbCVector@@@Z
?InvTranslate@bCRect@@QEAAXAEBVbCPoint@@@Z
?InvTranslate@bCRect@@QEAAXJJ@Z
?InvTranslate@bCSphere@@QEAAXAEBVbCVector@@@Z
?InvTranslate@bCSphere@@QEAAXM@Z
?InvTranslate@bCStretch@@QEAAXAEBVbCVector@@@Z
?InvTranslate@bCTriangle@@QEAAXAEBVbCVector@@@Z
?InvTranslate@bCUnitedRay@@QEAAXAEBVbCVector@@@Z
?InvTranslate@bCVector2@@QEAAXAEBV1@@Z
?InvTranslate@bCVector2@@QEAAXM@Z
?InvTranslate@bCVector4@@QEAAXAEBV1@@Z
?InvTranslate@bCVector4@@QEAAXM@Z
?InvTranslate@bCVector@@QEAAXAEBV1@@Z
?InvTranslate@bCVector@@QEAAXM@Z
?Invalidate@bCAccessorCreator@@QEAAXXZ
?Invalidate@bCAccessorProperty@@QEAAXXZ
?Invalidate@bCAccessorPropertyObject@@IEAAXXZ
?Invalidate@bCBox@@QEAAXXZ
?Invalidate@bCCapsule@@IEAAXXZ
?Invalidate@bCCommandLine@@IEAAXXZ
?Invalidate@bCDialogHandle@bCEngineDialogs@@IEAAXXZ
?Invalidate@bCEbertNoise@@IEAAXXZ
?Invalidate@bCErrorAdmin@@IEAAXXZ
?Invalidate@bCEvent@@IEAAXXZ
?Invalidate@bCFPUAdmin@@IEAAXXZ
?Invalidate@bCFlexibleVertexPtr@@QEAAXXZ
?Invalidate@bCInfCylinder@@QEAAXXZ
?Invalidate@bCInfDoubleCylinder@@QEAAXXZ
?Invalidate@bCMd5@@IEAAXXZ
?Invalidate@bCMemoryAdmin@@IEAAXXZ
?Invalidate@bCMemoryStream@@IEAAXXZ
?Invalidate@bCMessageAdmin@@AEAAXXZ
?Invalidate@bCObjectBase@@IEAAXXZ
?Invalidate@bCObjectRefBase@@IEAAXXZ
?Invalidate@bCOrientedBox@@QEAAXXZ
?Invalidate@bCPOStream@@IEAAXXZ
?Invalidate@bCPeacheyNoise@@IEAAXXZ
?Invalidate@bCPerlinNoise@@IEAAXXZ
?Invalidate@bCPropertyConverterPtr@@IEAAXXZ
?Invalidate@bCPropertyID@@AEAAXXZ
?Invalidate@bCPropertyTypeBase@@IEAAXXZ
?Invalidate@bCRandom@@IEAAXXZ
?Invalidate@bCRect@@QEAAXXZ
?Invalidate@bCSphere@@QEAAXXZ
?Invalidate@bCValidateMemory@@IEAAXXZ
?Invert@bCBitField@@QEAAXXZ
?Invert@bCByteAlphaColor@@QEAAXXZ
?Invert@bCByteColor@@QEAAXXZ
?Invert@bCFloatAlphaColor@@QEAAXXZ
?Invert@bCFloatColor@@QEAAXXZ
?Invert@bCFloatColorHSV@@QEAAXXZ
?Invert@bCFrustum@@QEAAXXZ
?Invert@bCMatrix2@@QEAAXXZ
?Invert@bCMatrix3@@QEAAXXZ
?Invert@bCMatrix@@QEAAXXZ
?Invert@bCPlane@@QEAAXXZ
?Invert@bCQuaternion@@QEAAXXZ
?Invert@bCStretch@@QEAAXXZ
?Invert@bCTrackBitField@@QEAAXXZ
?Invert@bCUnitedRay@@QEAAXXZ
?Invert@bCVector2@@QEAAXXZ
?Invert@bCVector4@@QEAAXXZ
?Invert@bCVector@@QEAAXXZ
?InvertExcentric@bCMatrix@@IEAAXXZ
?IsAbsolute@bCProfileNode@@QEBA_NXZ
?IsAncestor@bCXMLParserNode@@QEBA_NPEBV1@@Z
?IsAnsiText@bCUnicodeString@@QEBA_NXZ
?IsAnyDisabled@bCBitField@@QEBA_NXZ
?IsAnyDisabled@bCTrackBitField@@QEBA_NXZ
?IsAnyEnabled@bCBitField@@QEBA_NXZ
?IsAnyEnabled@bCTrackBitField@@QEBA_NXZ
?IsBufferValid@bCFlexibleVertexPtr@@QEBA_NXZ
?IsChild@bCXMLParserNode@@QEBA_NPEBV1@@Z
?IsChildOf@bCProfileNode@@QEBA_NPEBV1@@Z
?IsDebuggerPresent@bCErrorAdmin@@QEBA_NXZ
?IsDegenerated@bCTriangle@@QEBA_NXZ
?IsDeleteable@bCEvent@@UEAA_NXZ
?IsDerivedFrom@bCAccessorPropertyObject@@QEBA_NAEBV1@@Z
?IsDerivedFrom@bCAccessorPropertyObject@@QEBA_NPEBVbCPropertyObjectTypeBase@@@Z
?IsDerivedFrom@bCObjectBase@@QEBA_NPEBVbCPropertyObjectTypeBase@@@Z
?IsDerivedFrom@bCPropertyObjectTypeBase@@QEBA_NPEBV1@@Z
?IsDescendant@bCXMLParserNode@@QEBA_NPEBV1@@Z
?IsDisabled@bCBitField@@QEBA_NH@Z
?IsDisabled@bCTrackBitField@@QEBA_NH@Z
?IsEmpty@bCBitField@@QEBA_NXZ
?IsEmpty@bCRect@@QEBA_NXZ
?IsEmpty@bCString@@QEBA_NXZ
?IsEmpty@bCTrackBitField@@QEBA_NXZ
?IsEmpty@bCUnicodeString@@QEBA_NXZ
?IsEnabled@bCBitField@@QEBA_NH@Z
?IsEnabled@bCTrackBitField@@QEBA_NH@Z
?IsEnum@bCAccessorProperty@@QEBA_NXZ
?IsEqual@bCAxisAngle@@QEBA_NAEBV1@@Z
?IsEqual@bCBox@@QEBA_NAEBV1@@Z
?IsEqual@bCByteAlphaColor@@QEBA_NAEBV1@@Z
?IsEqual@bCByteColor@@QEBA_NAEBV1@@Z
?IsEqual@bCCapsule@@QEBA_NAEBV1@@Z
?IsEqual@bCFloatAlphaColor@@QEBA_NAEBV1@@Z
?IsEqual@bCFloatColor@@QEBA_NAEBV1@@Z
?IsEqual@bCFloatColorHSV@@QEBA_NAEBV1@@Z
?IsEqual@bCInfCylinder@@QEBA_NAEBV1@@Z
?IsEqual@bCInfDoubleCylinder@@QEBA_NAEBV1@@Z
?IsEqual@bCMatrix2@@QEBA_NAEBV1@@Z
?IsEqual@bCMatrix3@@QEBA_NAEBV1@@Z
?IsEqual@bCMatrix@@QEBA_NAEBV1@@Z
?IsEqual@bCOrientedBox@@QEBA_NAEBV1@@Z
?IsEqual@bCQuaternion@@QEBA_NAEBV1@@Z
?IsEqual@bCSphere@@QEBA_NAEBV1@@Z
?IsEqual@bCVector2@@QEBA_NAEBV1@@Z
?IsEqual@bCVector4@@QEBA_NAEBV1@@Z
?IsEqual@bCVector@@QEBA_NAEBV1@@Z
?IsEqualTo@bCGuid@@IEBA_NAEBV1@@Z
?IsExcentric@bCMatrix@@QEBA_NXZ
?IsForcedLegacyMode@bCPOStream@@QEBA_NXZ
?IsFormatValid@bCFlexibleVertexPtr@@QEBA_NXZ
?IsGreaterThan@bCGuid@@IEBA_NAEBV1@@Z
?IsIdentity@bCMatrix2@@QEBA_NXZ
?IsIdentity@bCMatrix3@@QEBA_NXZ
?IsIdentity@bCMatrix@@QEBA_NXZ
?IsInLegacyMode@bCPOStream@@SA_NXZ
?IsInPanicState@bCErrorAdmin@@QEBA_NXZ
?IsInSilentLogMode@bCMessageAdmin@@SA_NXZ
?IsInSilentMode@bCErrorAdmin@@QEBA_NXZ
?IsKindOf@bCAccessorPropertyObject@@QEBA_NAEBV1@@Z
?IsKindOf@bCObjectBase@@QEBA_NPEBVbCPropertyObjectTypeBase@@@Z
?IsKindOf@bCPropertyObjectTypeBase@@QEBA_NPEBV1@@Z
?IsLessThan@bCGuid@@IEBA_NAEBV1@@Z
?IsLoaded@bCEngineDialogs@@QEBA_NXZ
?IsLocked@bCErrorAdmin@@QEBA_NXZ
?IsMain@bCPOStream@@QEBA_NXZ
?IsMemoryAdminInitialized@bCMemoryAdmin@@SA_NXZ
?IsNonPatchable@bCPropertyTypeBase@@QEBA_NXZ
?IsNormalized@bCBox@@QEBA_NXZ
?IsNormalized@bCQuaternion@@QEBA_NXZ
?IsNormalized@bCRect@@QEBA_NXZ
?IsNull@bCGuid@@QEBA_NXZ
?IsObjectTypeValid@bCObjectBase@@QEBA_NXZ
?IsOpen@bCFile@@UEBA_NXZ
?IsOrthogonal@bCMatrix@@QEBA?B_NXZ
?IsOrthonormal@bCMatrix@@QEBA?B_NXZ
?IsParent@bCXMLParserNode@@QEBA_NPEBV1@@Z
?IsPatchable@bCPropertyTypeBase@@QEBA_NXZ
?IsPaused@bCClock@@QEBA_NXZ
?IsPoolValid@bCMemoryAdmin@@QEBA_NXZ
?IsPredecessor@bCXMLParserNode@@QEBA_NPEBV1@@Z
?IsProfilingEnabled@bCProfileManager@@SA_NXZ
?IsPropertyReadOnly@bCAccessorProperty@@QEBA_NXZ
?IsPropertyTypeValid@bCPropertyObjectTypeBase@@QEBA_NH@Z
?IsReadOnly@bCPropertyTypeBase@@QEBA_NXZ
?IsSibling@bCXMLParserNode@@QEBA_NPEBV1@@Z
?IsSubSystemActual@bCMemorySubSystemStack@@QEAA_NW4bEMemorySubSystem@@@Z
?IsSuccessor@bCXMLParserNode@@QEBA_NPEBV1@@Z
?IsTransformedAndLit@bCFlexibleVertexFormat@@QEBA_NXZ
?IsValid@bCAccessorCreator@@QEBA_NXZ
?IsValid@bCAccessorProperty@@QEBA_NXZ
?IsValid@bCAccessorPropertyObject@@QEBA_NXZ
?IsValid@bCBox@@QEBA_NXZ
?IsValid@bCFile@@UEBA_NXZ
?IsValid@bCFlexibleVertexFormat@@QEBA_NXZ
?IsValid@bCFlexibleVertexPtr@@QEBA_NXZ
?IsValid@bCGuid@@QEBA_NXZ
?IsValid@bCInfCylinder@@QEBA_NXZ
?IsValid@bCInfDoubleCylinder@@QEBA_NXZ
?IsValid@bCMatrix@@QEBA?B_NXZ
?IsValid@bCObjectBase@@UEBA_NXZ
?IsValid@bCObjectRefBase@@UEBA_NXZ
?IsValid@bCOrientedBox@@QEBA_NXZ
?IsValid@bCPropertyConverterPtr@@QEBA_NXZ
?IsValid@bCPropertyID@@QEBA_NXZ
?IsValid@bCRect@@QEBA_NXZ
?IsValid@bCSphere@@QEBA_NXZ
?IsValid@bCThread@@QEBA_NXZ
?IsValid@bCVector@@QEBA_NAEBVbCString@@@Z
?IsValidIndex@bCBitField@@QEBA_NH@Z
?IsValidIndex@bCTrackBitField@@QEBA_NH@Z
?Iterate@bCAccessorProperty@@IEAA_NXZ
?Left@bCString@@QEBA?AV1@H@Z
?Left@bCUnicodeString@@QEBA?AV1@H@Z
?LoadGE3DialogLib@bCEngineDialogs@@QEAA_N_N@Z
?LockBuffer@bCString@@QEAAPEADXZ
?LockBuffer@bCUnicodeString@@QEAAPEA_WXZ
?LockSystem@bCErrorAdmin@@QEAAXXZ
?Log@bCQuaternion@@QEAAXXZ
?LookAt@bCMatrix3@@QEAAXAEBVbCVector@@0@Z
?LookAt@bCMatrix3@@QEAAXAEBVbCVector@@@Z
?LookAt@bCMatrix@@QEAAXAEBVbCVector@@0@Z
?LookAt@bCMatrix@@QEAAXAEBVbCVector@@@Z
?LookupCallback@bCErrorAdmin@@IEBAHW4bEErrorPositionHandling@@P6A_NW4bEErrorType@@K@Z@Z
?LookupCallback@bCMessageAdmin@@IEBAHP6A_NW4bEMessageTypes@@PEBD1K1HH@Z@Z
?MakeAbsolutePath@bCFileSystem@@UEAA_NAEAVbCString@@AEBV2@@Z
?MakeCommonFilename@bCFileSystem@@QEAAXAEAVbCString@@@Z
?MakeDir@bCFileSystem@@UEAA_NAEBVbCString@@@Z
?MakeInvalidGuid@bCGuid@@QEAAXXZ
?MakeLower@bCString@@QEAAAEAV1@XZ
?MakeLower@bCUnicodeString@@QEAAXXZ
?MakeNullGuid@bCGuid@@QEAAXXZ
?MakePath@bCFileSystem@@UEAA_NAEAVbCString@@AEBV2@111@Z
?MakePathDir@bCFileSystem@@UEAA_NAEAVbCString@@@Z
?MakeReverse@bCString@@QEAAXXZ
?MakeReverse@bCUnicodeString@@QEAAXXZ
?MakeSummeryItemGrowSnapshot@bCMemoryAdmin@@QEAAXXZ
?MakeUpper@bCString@@QEAAAEAV1@XZ
?MakeUpper@bCUnicodeString@@QEAAXXZ
?Malloc@bCMemoryAdmin@@QEAAPEAXKPEBD00H@Z
?MatchesMask@bCFlexibleVertexFormat@@QEBA_NK@Z
?Matrix@bCEigenVector@@QEAAAEANJJ@Z
?Matrix@bCEigenVector@@QEAAAEAV1@PEAPEAN@Z
?Merge@bCBox@@QEAAXAEBV1@@Z
?Merge@bCBox@@QEAAXAEBVbCVector@@@Z
?Merge@bCInfCylinder@@QEAAXAEBV1@@Z
?Merge@bCInfCylinder@@QEAAXAEBVbCVector@@@Z
?Merge@bCInfDoubleCylinder@@QEAAXAEBV1@@Z
?Merge@bCInfDoubleCylinder@@QEAAXAEBVbCVector@@@Z
?Merge@bCOrientedBox@@QEAAXAEBV1@@Z
?Merge@bCRect@@QEAAXAEBV1@@Z
?Merge@bCRect@@QEAAXAEBVbCPoint@@@Z
?Merge@bCSphere@@QEAAXAEBV1@@Z
?Merge@bCSphere@@QEAAXAEBVbCVector@@@Z
?Mid@bCString@@QEBA?AV1@H@Z
?Mid@bCString@@QEBA?AV1@HH@Z
?Mid@bCUnicodeString@@QEBA?AV1@H@Z
?Mid@bCUnicodeString@@QEBA?AV1@HH@Z
?ModifyRotation@bCMatrix@@QEAAXAEBVbCAxisAngle@@@Z
?ModifyRotation@bCMatrix@@QEAAXAEBVbCEulerAngles@@@Z
?ModifyRotation@bCMatrix@@QEAAXAEBVbCMatrix3@@@Z
?ModifyRotation@bCMatrix@@QEAAXAEBVbCQuaternion@@@Z
?ModifyRotationAxisX@bCMatrix@@QEAAXM@Z
?ModifyRotationAxisY@bCMatrix@@QEAAXM@Z
?ModifyRotationAxisZ@bCMatrix@@QEAAXM@Z
?ModifyScaling@bCMatrix@@QEAAXAEBVbCVector@@@Z
?ModifyScaling@bCMatrix@@QEAAXM@Z
?ModifyStyle@bCFlexibleVertexFormat@@QEAAXKK@Z
?ModifyTranslation@bCMatrix@@QEAAXAEBVbCVector@@@Z
?ModifyXAxis@bCMatrix2@@QEAAXAEBVbCVector2@@@Z
?ModifyXAxis@bCMatrix3@@QEAAXAEBVbCVector@@@Z
?ModifyXAxis@bCMatrix@@QEAAXAEBVbCVector4@@@Z
?ModifyXAxis@bCMatrix@@QEAAXAEBVbCVector@@@Z
?ModifyYAxis@bCMatrix2@@QEAAXAEBVbCVector2@@@Z
?ModifyYAxis@bCMatrix3@@QEAAXAEBVbCVector@@@Z
?ModifyYAxis@bCMatrix@@QEAAXAEBVbCVector4@@@Z
?ModifyYAxis@bCMatrix@@QEAAXAEBVbCVector@@@Z
?ModifyZAxis@bCMatrix3@@QEAAXAEBVbCVector@@@Z
?ModifyZAxis@bCMatrix@@QEAAXAEBVbCVector4@@@Z
?ModifyZAxis@bCMatrix@@QEAAXAEBVbCVector@@@Z
?MoveEntry@bCOctTree@@QEAAXPEAVbCOctTreeEntryBase@@AEBVbCBox@@@Z
?Multiply@bCByteAlphaColor@@QEAAXAEBV1@@Z
?Multiply@bCByteAlphaColor@@QEAAXE@Z
?Multiply@bCByteColor@@QEAAXAEBV1@@Z
?Multiply@bCByteColor@@QEAAXE@Z
?Multiply@bCFloatAlphaColor@@QEAAXAEBV1@@Z
?Multiply@bCFloatAlphaColor@@QEAAXM@Z
?Multiply@bCFloatColor@@QEAAXAEBV1@@Z
?Multiply@bCFloatColor@@QEAAXM@Z
?Multiply@bCFloatColorHSV@@QEAAXAEBV1@@Z
?Multiply@bCFloatColorHSV@@QEAAXM@Z
?Multiply@bCMatrix2@@QEAAXAEBV1@@Z
?Multiply@bCMatrix2@@QEAAXM@Z
?Multiply@bCMatrix3@@QEAAXAEBV1@@Z
?Multiply@bCMatrix3@@QEAAXM@Z
?Multiply@bCMatrix@@QEAAXAEBV1@@Z
?Multiply@bCMatrix@@QEAAXM@Z
?Multiply@bCQuaternion@@QEAAXAEBV1@@Z
?Multiply@bCQuaternion@@QEAAXM@Z
?Negate@bCFrustum@@QEAAXXZ
?Negate@bCMatrix2@@QEAAXXZ
?Negate@bCMatrix3@@QEAAXXZ
?Negate@bCMatrix@@QEAAXXZ
?Negate@bCPlane@@QEAAXXZ
?Negate@bCQuaternion@@QEAAXXZ
?Negate@bCUnitedRay@@QEAAXXZ
?NewObject@bCMemoryAdmin@@QEAAPEAX_KPEBD11H@Z
?NewObjectArray@bCMemoryAdmin@@QEAAPEAX_KHPEBD11H@Z
?NextFrame@bCProfileManager@@SAXXZ
?NextFrame@bCProfileNode@@QEAAX_N@Z
?Noise@bCPerlinNoise@@QEBAMM@Z
?Noise@bCPerlinNoise@@QEBAMMM@Z
?Noise@bCPerlinNoise@@QEBAMMMM@Z
?Normalize@bCBox@@QEAAXXZ
?Normalize@bCFloatAlphaColor@@QEAAXXZ
?Normalize@bCFloatColor@@QEAAXXZ
?Normalize@bCFrustum@@QEAAXXZ
?Normalize@bCPlane@@QEAAXXZ
?Normalize@bCQuaternion@@QEAAXXZ
?Normalize@bCRange1@@QEAAXXZ
?Normalize@bCRect@@QEAAXXZ
?Normalize@bCUnitedRay@@QEAAXXZ
?Normalize@bCVector2@@QEAAAEBV1@XZ
?Normalize@bCVector4@@QEAAAEBV1@XZ
?Normalize@bCVector@@QEAAAEBV1@XZ
?NormalizeApprox@bCVector2@@QEAAAEBV1@XZ
?NormalizeApprox@bCVector4@@QEAAAEBV1@XZ
?NormalizeApprox@bCVector@@QEAAAEBV1@XZ
?NormalizeSafe@bCVector2@@QEAAAEBV1@XZ
?NormalizeSafe@bCVector4@@QEAAAEBV1@XZ
?NormalizeSafe@bCVector@@QEAAAEBV1@XZ
?NotifyPropertyValueChangedEnterEx@bCObjectBase@@UEAA_NPEBD_N@Z
?NotifyPropertyValueChangedExitEx@bCObjectBase@@UEAA_NPEBD_N@Z
?Number@bCEigenVector@@CAJI@Z
?OnCopyFrom@bCObjectBase@@MEAA_NAEBV1@@Z
?OnCopyPatchableOnly@bCObjectBase@@MEAA_NAEBV1@@Z
?OnDeserialize@bCObjectBase@@MEAA_NPEAVbCXMLParserNode@@@Z
?OnMessage@bCMessageAdmin@@QEAA_NW4bEMessageTypes@@PEBD11HH@Z
?OnNotifyPropertyValueChangedEnterEx@bCObjectBase@@MEAA_NPEBD_N@Z
?OnNotifyPropertyValueChangedExitEx@bCObjectBase@@MEAA_NPEBD_N@Z
?OnRead@bCEvent@@UEAA_NAEAVbCIStream@@@Z
?OnRead@bCObjectBase@@MEAA_NAEAVbCIStream@@@Z
?OnRead@bCObjectRefBase@@UEAA_NAEAVbCIStream@@@Z
?OnSerialize@bCObjectBase@@MEAA_NPEAVbCXMLParserNode@@@Z
?OnWrite@bCEvent@@UEAA_NAEAVbCOStream@@@Z
?OnWrite@bCObjectBase@@MEAA_NAEAVbCOStream@@@Z
?OnWrite@bCObjectRefBase@@UEAA_NAEAVbCOStream@@@Z
?Open@bCFile@@UEAA_NAEBVbCString@@W4bEFileCreationMode@@@Z
?Or@bCBitField@@QEAAXAEBV1@@Z
?Or@bCTrackBitField@@QEAAXAEBV1@@Z
?Orthogonalize@bCMatrix3@@QEAAXXZ
?Orthogonalize@bCMatrix@@QEAAXXZ
?Orthonormalize@bCMatrix3@@QEAAXXZ
?Orthonormalize@bCMatrix@@QEAAXXZ
?Parse@bCXMLParser@@QEAAPEAVbCXMLParserNode@@AEBVbCString@@@Z
?ParseArgument@bCCommandLine@@IEAA_NAEAVbCString@@@Z
?ParseOption@bCCommandLine@@IEAA_NAEAVbCString@@@Z
?Pause@bCTimer@@QEAAXXZ
?PopMemorySubSystem@bCMemorySubSystemStack@@QEAAXXZ
?PostInitializeProperties@bCObjectBase@@UEAA?AW4bEResult@@XZ
?PrepareStats@bCProfileManager@@SAXXZ
?PrepareStats@bCProfileNode@@QEAAXH@Z
?PrintDebug@bCMatrix@@QEAAXAEAVbCString@@@Z
?PrintDebug@bCVector@@QEBAXAEBVbCString@@@Z
?PrintHistoryEntries@bCErrorAdmin@@IEAAXXZ
?PrintMemoryDumpStats@bCErrorAdmin@@IEAAXXZ
?PrintMessage@bCErrorAdmin@@IEAAXW4bEGE3DialogsLogMessageType@bCEngineDialogs@@PEBD_N@Z
?PrintStatus@bCFPUAdmin@@QEAAXXZ
?Process@bCMd5@@AEAAXQEBE@Z
?PropertyReadSkip@bCPropertyTypeBase@@SAXAEAVbCIStream@@PEAVbCObjectBase@@AEBVbCString@@2@Z
?PushMemorySubSystem@bCMemorySubSystemStack@@QEAAXW4bEMemorySubSystem@@@Z
?QLAlgorithm@bCEigenVector@@AEAAXJPEAN0PEAPEAN@Z
?QueryBaseClass@bCAccessorCreator@@QEAA?AV1@XZ
?QueryNewObject@bCPropertyObjectTypeBase@@SAPEAVbCObjectBase@@PEBD@Z
?QueryPerformanceCounter@bCTimer@@SA_KXZ
?QueryPerformanceFrequency@bCTimer@@SA_KXZ
?Rand@bCMersenneTwister@@QEAAHH@Z
?Rand@bCMersenneTwister@@QEAAHHH@Z
?Rand@bCMersenneTwister@@QEAAKK@Z
?Rand@bCMersenneTwister@@QEAAKKK@Z
?Rand@bCMersenneTwister@@QEAAMM@Z
?Rand@bCMersenneTwister@@QEAAMMM@Z
?RandCount@bCMersenneTwister@@QEAAHH@Z
?RandCount@bCMersenneTwister@@QEAAHHH@Z
?RandCount@bCMersenneTwister@@QEAAKK@Z
?RandCount@bCMersenneTwister@@QEAAKKK@Z
?RandCount@bCMersenneTwister@@QEAAMM@Z
?RandCount@bCMersenneTwister@@QEAAMMM@Z
?RandF2@bCMersenneTwister@@QEAAMXZ
?RandF3@bCMersenneTwister@@QEAAMXZ
?RandF@bCMersenneTwister@@QEAAMXZ
?RandU31@bCMersenneTwister@@QEAAKXZ
?RandU32@bCMersenneTwister@@QEAAKXZ
?Read@bCAccessorPropertyObject@@QEAAGAEAVbCIStream@@@Z
?Read@bCCommandLine@@QEAA_NAEAVbCIStream@@@Z
?Read@bCEbertNoise@@IEAA_NAEAVbCIStream@@@Z
?Read@bCIStream@@QEAAKAEAC@Z
?Read@bCIStream@@QEAAKAEAD@Z
?Read@bCIStream@@QEAAKAEAE@Z
?Read@bCIStream@@QEAAKAEAF@Z
?Read@bCIStream@@QEAAKAEAG@Z
?Read@bCIStream@@QEAAKAEAH@Z
?Read@bCIStream@@QEAAKAEAI@Z
?Read@bCIStream@@QEAAKAEAJ@Z
?Read@bCIStream@@QEAAKAEAK@Z
?Read@bCIStream@@QEAAKAEAM@Z
?Read@bCIStream@@QEAAKAEAN@Z
?Read@bCIStream@@QEAAKAEAVbCDateTime@@@Z
?Read@bCIStream@@QEAAKAEAVbCGuid@@@Z
?Read@bCIStream@@QEAAKAEAVbCUnicodeString@@@Z
?Read@bCIStream@@QEAAKAEAVbCVariant@@@Z
?Read@bCIStream@@QEAAKAEA_J@Z
?Read@bCIStream@@QEAAKAEA_K@Z
?Read@bCIStream@@QEAAKAEA_N@Z
?Read@bCIStream@@UEAAKAEAVbCString@@@Z
?Read@bCIStream@@UEAAKPEAXK@Z
?Read@bCMemoryStream@@UEAAKPEAXK@Z
?Read@bCNullStream@@MEAAKPEAXK@Z
?Read@bCObjectBase@@UEAA?AW4bEDoNotOverwriteMethod@@AEAVbCIStream@@@Z
?Read@bCPOStream@@UEAAKAEAVbCString@@@Z
?Read@bCPOStream@@UEAAKPEAXK@Z
?Read@bCPeacheyNoise@@IEAA_NAEAVbCIStream@@@Z
?Read@bCPerlinNoise@@IEAA_NAEAVbCIStream@@@Z
?Read@bCPropertyID@@QEAA_NAEAVbCIStream@@@Z
?Read@bCPropertyTypeBase@@UEAAGAEAVbCIStream@@@Z
?ReadData@bCObjectBase@@AEAAGAEAVbCIStream@@@Z
?ReadFile@bCPOStream@@QEAA_NAEAVbCIStream@@@Z
?ReadLine@bCIStream@@QEAAKAEAVbCString@@@Z
?ReadLine@bCIStream@@QEAAKAEAVbCUnicodeString@@@Z
?ReadNewObject@bCPropertyObjectTypeBase@@QEAAPEAVbCObjectBase@@AEAVbCIStream@@@Z
?ReadObject@bCPropertyObjectTypeBase@@SAPEAVbCObjectBase@@AEAVbCIStream@@@Z
?ReadObject@bCPropertyObjectTypeBase@@SA_NAEAVbCIStream@@AEAVbCObjectBase@@@Z
?ReadPixel@bCByteAlphaColor@@QEAAXW4bEPixelFormat@@PEBX@Z
?ReadSkip@bCPropertyObjectTypeBase@@SAGAEAVbCIStream@@@Z
?ReadSkipObject@bCPropertyObjectTypeBase@@SAGAEAVbCIStream@@@Z
?Realloc@bCMemoryAdmin@@QEAAPEAXPEAXKPEBD11H@Z
?Realloc@bCString@@IEAAXH@Z
?Realloc@bCUnicodeString@@IEAAXH@Z
?ReallocBuffer@bCNullStream@@IEAAXK@Z
?ReallocPure@bCMemoryAdmin@@IEAAPEAXPEBDH00W4bEMemoryAllocationType@@_KPEAX@Z
?Reallocate@bCMemPool@@QEAAPEAXPEAXK@Z
?Reduce@bCEigenVector@@QEAAXXZ
?Reflect@bCVector@@QEBA?AV1@AEBV1@@Z
?RegisterCallback@bCErrorAdmin@@QEAA_NP6A_NW4bEErrorType@@K@ZW4bEErrorPositionHandling@@K@Z
?RegisterCallback@bCMessageAdmin@@QEAA_NP6A_NW4bEMessageTypes@@PEBD1K1HH@ZW4bEMessageCallbackPriority@@K@Z
?RegisterPropertyTemplate@bCPropertyObjectTypeBase@@QEAA_NPEBVbCPropertyTypeBase@@@Z
?RegisterType@bCPropertyObjectTypeBase@@AEAAXXZ
?Release@bCCriticalSection@@QEAAXXZ
?Release@bCString@@IEAAXXZ
?Release@bCString@@KAXPEAUbSStringData@1@@Z
?Release@bCUnicodeString@@IEAAXXZ
?Release@bCUnicodeString@@KAXPEAUbSUnicodeStringData@1@@Z
?ReleaseBuffer@bCString@@QEAAXH@Z
?ReleaseBuffer@bCUnicodeString@@QEAAXH@Z
?ReleaseOwnership@bCThreadObjectRefBase@@QEAAXXZ
?ReleaseReference@bCDialogHandle@bCEngineDialogs@@QEAAGXZ
?ReleaseReference@bCObjectBase@@UEAAKXZ
?ReleaseReference@bCObjectRefBase@@UEAAKXZ
?ReleaseReference@bCPropertyConverter@@UEAAKXZ
?Remove@bCString@@QEAAHAEBV1@@Z
?Remove@bCString@@QEAAHD@Z
?Remove@bCString@@QEAAHPEBD@Z
?Remove@bCUnicodeString@@QEAAHPEB_W@Z
?Remove@bCUnicodeString@@QEAAH_W@Z
?RemoveAllChildren@bCXMLParserNode@@QEAAXXZ
?RemoveChild@bCXMLParserNode@@QEAA_NPEAV1@@Z
?RemoveDimension@bCVector@@QEAAXW4bECoordinate@1@@Z
?RemoveDimensionKeepMagnitude@bCVector@@QEAA_NW4bECoordinate@1@@Z
?RemoveDimensionNormalize@bCVector@@QEAAXW4bECoordinate@1@@Z
?RemoveEntry@bCOctTree@@QEAAXPEAVbCOctTreeEntryBase@@@Z
?RenameFile@bCFileSystem@@UEAA_NAEBVbCString@@0@Z
?Replace@bCString@@QEAAHDD@Z
?Replace@bCString@@QEAAHPEBD0@Z
?Replace@bCUnicodeString@@QEAAHPEB_W0@Z
?Replace@bCUnicodeString@@QEAAH_W0@Z
?Report@bCEigenVector@@CAXI@Z
?Reset@bCTimer@@QEAAXXZ
?ResetGrowSizeAndCount@bCMemoryAdmin@@QEAAXW4bEMemorySubSystem@@@Z
?ResetOnNextFrame@bCProfileManager@@SAXXZ
?ResolveProperty@bCAccessorProperty@@IEAA_NAEBVbCPropertyID@@@Z
?ResolveProperty@bCAccessorProperty@@IEAA_NAEBVbCString@@@Z
?RestoreDefaultControlWord@bCFPUAdmin@@QEAAXXZ
?RestoreSavedControlWord@bCFPUAdmin@@QEAAXXZ
?Resume@bCTimer@@QEAAXXZ
?Return@bCProfileNode@@QEAA_NM@Z
?Return@bCProfileNode@@QEAA_NXZ
?ReverseFind@bCString@@QEBAHD@Z
?ReverseFind@bCString@@QEBAHDH@Z
?ReverseFind@bCString@@QEBAHPEBD@Z
?ReverseFind@bCString@@QEBAHPEBDH@Z
?ReverseFind@bCUnicodeString@@QEBAHPEB_W@Z
?ReverseFind@bCUnicodeString@@QEBAHPEB_WH@Z
?ReverseFind@bCUnicodeString@@QEBAH_W@Z
?ReverseFind@bCUnicodeString@@QEBAH_WH@Z
?ReverseFindOneOf@bCString@@QEBAHPEBD@Z
?ReverseFindOneOf@bCString@@QEBAHPEBDH@Z
?ReverseFindOneOf@bCUnicodeString@@QEBAHPEB_W@Z
?ReverseFindOneOf@bCUnicodeString@@QEBAHPEB_WH@Z
?ReverseMultiply@bCMatrix2@@QEAAXAEBV1@@Z
?ReverseMultiply@bCMatrix3@@QEAAXAEBV1@@Z
?ReverseMultiply@bCMatrix@@QEAAXAEBV1@@Z
?ReverseMultiply@bCQuaternion@@QEAAXAEBV1@@Z
?Rewind@bCFlexibleVertexPtr@@QEAAXH@Z
?Right@bCString@@QEBA?AV1@H@Z
?Right@bCUnicodeString@@QEBA?AV1@H@Z
?Rotate@bCFrustum@@QEAAXAEBVbCQuaternion@@@Z
?Rotate@bCMatrix2@@QEAAXM@Z
?Rotate@bCMatrix3@@QEAAXAEBVbCAxisAngle@@@Z
?Rotate@bCMatrix3@@QEAAXAEBVbCEulerAngles@@@Z
?Rotate@bCMatrix3@@QEAAXAEBVbCQuaternion@@@Z
?Rotate@bCMatrix@@QEAAXAEBVbCAxisAngle@@@Z
?Rotate@bCMatrix@@QEAAXAEBVbCEulerAngles@@@Z
?Rotate@bCMatrix@@QEAAXAEBVbCQuaternion@@@Z
?Rotate@bCPlane@@QEAAXAEBVbCQuaternion@@@Z
?Rotate@bCUnitedRay@@QEAAXAEBVbCQuaternion@@@Z
?RotateAxis@bCQuaternion@@QEAAXAEBVbCVector@@M@Z
?RotateAxisX@bCMatrix3@@QEAAXM@Z
?RotateAxisX@bCMatrix@@QEAAXM@Z
?RotateAxisX@bCQuaternion@@QEAAXM@Z
?RotateAxisY@bCMatrix3@@QEAAXM@Z
?RotateAxisY@bCMatrix@@QEAAXM@Z
?RotateAxisY@bCQuaternion@@QEAAXM@Z
?RotateAxisZ@bCMatrix3@@QEAAXM@Z
?RotateAxisZ@bCMatrix@@QEAAXM@Z
?RotateAxisZ@bCQuaternion@@QEAAXM@Z
?RotateLocal@bCMatrix2@@QEAAXM@Z
?RotateLocal@bCMatrix3@@QEAAXAEBVbCAxisAngle@@@Z
?RotateLocal@bCMatrix3@@QEAAXAEBVbCEulerAngles@@@Z
?RotateLocal@bCMatrix3@@QEAAXAEBVbCQuaternion@@@Z
?RotateLocal@bCMatrix@@QEAAXAEBVbCAxisAngle@@@Z
?RotateLocal@bCMatrix@@QEAAXAEBVbCEulerAngles@@@Z
?RotateLocal@bCMatrix@@QEAAXAEBVbCQuaternion@@@Z
?RotateLocalAxisX@bCMatrix3@@QEAAXM@Z
?RotateLocalAxisX@bCMatrix@@QEAAXM@Z
?RotateLocalAxisX@bCQuaternion@@QEAAXM@Z
?RotateLocalAxisY@bCMatrix3@@QEAAXM@Z
?RotateLocalAxisY@bCMatrix@@QEAAXM@Z
?RotateLocalAxisY@bCQuaternion@@QEAAXM@Z
?RotateLocalAxisZ@bCMatrix3@@QEAAXM@Z
?RotateLocalAxisZ@bCMatrix@@QEAAXM@Z
?RotateLocalAxisZ@bCQuaternion@@QEAAXM@Z
?SCNoise@bCPeacheyNoise@@QEBAMMMM@Z
?SaveCurrentControlWord@bCFPUAdmin@@QEAAXXZ
?Scale@bCBox@@QEAAXAEBVbCVector@@@Z
?Scale@bCBox@@QEAAXM@Z
?Scale@bCFrustum@@QEAAXM@Z
?Scale@bCInfCylinder@@QEAAXM@Z
?Scale@bCInfDoubleCylinder@@QEAAXM@Z
?Scale@bCMatrix2@@QEAAXAEBVbCVector2@@@Z
?Scale@bCMatrix2@@QEAAXM@Z
?Scale@bCMatrix3@@QEAAXAEBVbCVector@@@Z
?Scale@bCMatrix3@@QEAAXM@Z
?Scale@bCMatrix@@QEAAXAEBVbCVector@@@Z
?Scale@bCMatrix@@QEAAXM@Z
?Scale@bCOrientedBox@@QEAAXAEBVbCVector@@@Z
?Scale@bCOrientedBox@@QEAAXM@Z
?Scale@bCPlane@@QEAAXM@Z
?Scale@bCPoint@@QEAAXM@Z
?Scale@bCSphere@@QEAAXM@Z
?Scale@bCStretch@@QEAAXM@Z
?Scale@bCUnitedRay@@QEAAXM@Z
?Scale@bCVector2@@QEAAXAEBV1@@Z
?Scale@bCVector2@@QEAAXM@Z
?Scale@bCVector4@@QEAAXAEBV1@@Z
?Scale@bCVector4@@QEAAXM@Z
?Scale@bCVector@@QEAAXAEBV1@@Z
?Scale@bCVector@@QEAAXM@Z
?Scan@bCString@@QEBAHPEBDZZ
?Seek@bCFile@@UEBA_N_JW4bEStreamSeekMode@@@Z
?Seek@bCMemoryStream@@UEAA_N_JW4bEStreamSeekMode@@@Z
?Seek@bCNullStream@@UEAA_N_JW4bEStreamSeekMode@@@Z
?SeekToBegin@bCFile@@QEBA_NXZ
?SeekToEnd@bCFile@@QEBA_NXZ
?Separates@bCBox@@QEBA_NPEBVbCVector@@HAEBV2@@Z
?Separates@bCInfCylinder@@QEBA_NAEBVbCBox@@AEBVbCVector@@@Z
?Separates@bCInfCylinder@@QEBA_NPEBVbCVector@@HAEBV2@@Z
?Separates@bCInfDoubleCylinder@@QEBA_NAEBVbCBox@@AEBVbCVector@@@Z
?Separates@bCInfDoubleCylinder@@QEBA_NPEBVbCVector@@HAEBV2@@Z
?Separates@bCSphere@@QEBA_NAEBVbCBox@@AEBVbCVector@@@Z
?Separates@bCSphere@@QEBA_NPEBVbCVector@@HAEBV2@@Z
?Separates@bCTriangle@@QEBA_NPEBVbCVector@@HAEBV2@@Z
?Serialize@bCAccessorPropertyObject@@QEAA_NPEAVbCXMLParserNode@@@Z
?Serialize@bCObjectBase@@UEAA_NPEAVbCXMLParserNode@@@Z
?Set@bCClock@@QEAAXAEBUbSTimeAndDate@@@Z
?Set@bCTimer@@QEAAXM@Z
?SetA@bCTriangle@@QEAAXAEBVbCVector@@@Z
?SetAlgorithm@bCPeacheyNoise@@QEAAXW4bEAlgorithm@1@@Z
?SetAlgorithm@bCPerlinNoise@@QEAAXW4bEAlgorithm@1@@Z
?SetAllTextureCoords@bCFlexibleVertexPtr@@QEAAXAEBVbCVector2@@@Z
?SetAllTextureCoords@bCFlexibleVertexPtr@@QEAAXAEBVbCVector4@@@Z
?SetAllTextureCoords@bCFlexibleVertexPtr@@QEAAXAEBVbCVector@@@Z
?SetAllWeights@bCFlexibleVertexPtr@@QEAAXM@Z
?SetAlpha@bCByteAlphaColor@@QEAAXE@Z
?SetAlpha@bCFloatAlphaColor@@QEAAXM@Z
?SetAngle@bCAxisAngle@@QEAAXM@Z
?SetAnsiText@bCUnicodeString@@QEAAXAEBVbCString@@@Z
?SetAnsiText@bCUnicodeString@@QEAAXAEBVbCString@@H@Z
?SetAnsiText@bCUnicodeString@@QEAAXPEBD@Z
?SetAnsiText@bCUnicodeString@@QEAAXPEBDH@Z
?SetArguments@bCCommandLine@@IEAAXAEBV?$bTObjArray@VbCString@@@@@Z
?SetAt@bCBitField@@QEAAXH_N@Z
?SetAt@bCString@@QEAAXHD@Z
?SetAt@bCTrackBitField@@QEAAXH_N@Z
?SetAt@bCUnicodeString@@QEAAXH_W@Z
?SetAttribute@bCXMLParserNode@@QEAAXAEBVbCString@@0@Z
?SetAttribute@bCXMLParserNode@@QEAAXAEBVbCString@@AEBVbCGuid@@@Z
?SetAttribute@bCXMLParserNode@@QEAAXAEBVbCString@@AEBVbCUnicodeString@@@Z
?SetAttribute@bCXMLParserNode@@QEAAXAEBVbCString@@C@Z
?SetAttribute@bCXMLParserNode@@QEAAXAEBVbCString@@D@Z
?SetAttribute@bCXMLParserNode@@QEAAXAEBVbCString@@E@Z
?SetAttribute@bCXMLParserNode@@QEAAXAEBVbCString@@F@Z
?SetAttribute@bCXMLParserNode@@QEAAXAEBVbCString@@G@Z
?SetAttribute@bCXMLParserNode@@QEAAXAEBVbCString@@H@Z
?SetAttribute@bCXMLParserNode@@QEAAXAEBVbCString@@I@Z
?SetAttribute@bCXMLParserNode@@QEAAXAEBVbCString@@J@Z
?SetAttribute@bCXMLParserNode@@QEAAXAEBVbCString@@K@Z
?SetAttribute@bCXMLParserNode@@QEAAXAEBVbCString@@M@Z
?SetAttribute@bCXMLParserNode@@QEAAXAEBVbCString@@N@Z
?SetAttribute@bCXMLParserNode@@QEAAXAEBVbCString@@PEAD@Z
?SetAttribute@bCXMLParserNode@@QEAAXAEBVbCString@@_J@Z
?SetAttribute@bCXMLParserNode@@QEAAXAEBVbCString@@_K@Z
?SetAttribute@bCXMLParserNode@@QEAAXAEBVbCString@@_N@Z
?SetAttributes@bCXMLParserNode@@QEAAXPEAPEBD@Z
?SetAverageAndVariance@bCRange1@@QEAAXMM@Z
?SetAverageAndVariance@bCRange2@@QEAAXAEBVbCVector2@@0@Z
?SetAverageAndVariance@bCRange3@@QEAAXAEBVbCVector@@0@Z
?SetAverageAndVariance@bCRange4@@QEAAXAEBVbCVector4@@0@Z
?SetAxis@bCAxisAngle@@QEAAXAEBVbCVector@@@Z
?SetAxis@bCOrientedBox@@QEAAXHAEBVbCVector@@@Z
?SetAxisAngle@bCAxisAngle@@QEAAXAEBV1@@Z
?SetAxisAngle@bCAxisAngle@@QEAAXAEBVbCEulerAngles@@@Z
?SetAxisAngle@bCAxisAngle@@QEAAXAEBVbCQuaternion@@@Z
?SetAxisAngle@bCAxisAngle@@QEAAXAEBVbCVector@@M@Z
?SetAzimuth@bCSphericalRotation@@QEAAXM@Z
?SetB@bCTriangle@@QEAAXAEBVbCVector@@@Z
?SetBlend@bCByteColor@@QEAAXAEBV1@0HH@Z
?SetBlue@bCByteColor@@QEAAXE@Z
?SetBlue@bCFloatColor@@QEAAXM@Z
?SetBottom@bCRect@@QEAAXJ@Z
?SetBottomRight@bCRect@@QEAAXAEBVbCPoint@@@Z
?SetBox@bCBox@@QEAAXAEBV1@@Z
?SetBox@bCBox@@QEAAXAEBVbCVector@@0@Z
?SetBox@bCBox@@QEAAXAEBVbCVector@@M@Z
?SetBreakOnError@bCValidateMemory@@QEAAX_N@Z
?SetBuffer@bCFlexibleVertexPtr@@QEAAXPEAE@Z
?SetC@bCTriangle@@QEAAXAEBVbCVector@@@Z
?SetCapsule@bCCapsule@@QEAAXAEBV1@@Z
?SetCapsule@bCCapsule@@QEAAXMMAEAVbCVector@@AEAVbCMatrix3@@@Z
?SetCenter@bCBox@@QEAAXAEBVbCVector@@@Z
?SetCenter@bCCapsule@@QEAAXAEBVbCVector@@@Z
?SetCenter@bCOrientedBox@@QEAAXAEBVbCVector@@@Z
?SetClippingPlane@bCFrustum@@QEAAXHAEBVbCPlane@@@Z
?SetColor@bCByteAlphaColor@@QEAAXAEBV1@@Z
?SetColor@bCByteAlphaColor@@QEAAXAEBVbCByteColor@@E@Z
?SetColor@bCByteAlphaColor@@QEAAXAEBVbCFloatAlphaColor@@@Z
?SetColor@bCByteAlphaColor@@QEAAXAEBVbCFloatColor@@E@Z
?SetColor@bCByteAlphaColor@@QEAAXAEBVbCFloatColorHSV@@E@Z
?SetColor@bCByteAlphaColor@@QEAAXEEEE@Z
?SetColor@bCByteColor@@QEAAXAEBV1@@Z
?SetColor@bCByteColor@@QEAAXAEBVbCByteAlphaColor@@@Z
?SetColor@bCByteColor@@QEAAXAEBVbCFloatAlphaColor@@@Z
?SetColor@bCByteColor@@QEAAXAEBVbCFloatColor@@@Z
?SetColor@bCByteColor@@QEAAXAEBVbCFloatColorHSV@@@Z
?SetColor@bCByteColor@@QEAAXEEE@Z
?SetColor@bCFloatAlphaColor@@QEAAXAEBV1@@Z
?SetColor@bCFloatAlphaColor@@QEAAXAEBVbCByteAlphaColor@@@Z
?SetColor@bCFloatAlphaColor@@QEAAXAEBVbCByteColor@@M@Z
?SetColor@bCFloatAlphaColor@@QEAAXAEBVbCFloatColor@@M@Z
?SetColor@bCFloatAlphaColor@@QEAAXAEBVbCFloatColorHSV@@M@Z
?SetColor@bCFloatAlphaColor@@QEAAXAEBVbCVector4@@@Z
?SetColor@bCFloatAlphaColor@@QEAAXMMMM@Z
?SetColor@bCFloatColor@@QEAAXAEBV1@@Z
?SetColor@bCFloatColor@@QEAAXAEBVbCByteAlphaColor@@@Z
?SetColor@bCFloatColor@@QEAAXAEBVbCByteColor@@@Z
?SetColor@bCFloatColor@@QEAAXAEBVbCFloatAlphaColor@@@Z
?SetColor@bCFloatColor@@QEAAXAEBVbCFloatColorHSV@@@Z
?SetColor@bCFloatColor@@QEAAXMMM@Z
?SetColor@bCFloatColorHSV@@QEAAXAEBV1@@Z
?SetColor@bCFloatColorHSV@@QEAAXAEBVbCByteAlphaColor@@@Z
?SetColor@bCFloatColorHSV@@QEAAXAEBVbCByteColor@@@Z
?SetColor@bCFloatColorHSV@@QEAAXAEBVbCFloatAlphaColor@@@Z
?SetColor@bCFloatColorHSV@@QEAAXAEBVbCFloatColor@@@Z
?SetColor@bCFloatColorHSV@@QEAAXMMM@Z
?SetColor_ARGB_1555@bCByteAlphaColor@@QEAAXG@Z
?SetColor_ARGB_8888@bCByteAlphaColor@@QEAAXK@Z
?SetColor_RGBA_4444@bCByteAlphaColor@@QEAAXG@Z
?SetColor_RGBA_8888@bCByteAlphaColor@@QEAAXK@Z
?SetColor_RGB_555@bCByteAlphaColor@@QEAAXG@Z
?SetColor_RGB_555@bCByteColor@@QEAAXG@Z
?SetColor_RGB_565@bCByteAlphaColor@@QEAAXG@Z
?SetColor_RGB_565@bCByteColor@@QEAAXG@Z
?SetColor_RGB_888@bCByteAlphaColor@@QEAAXAEBVbCByteColor@@@Z
?SetControlWord@bCFPUAdmin@@QEAAXK@Z
?SetCoordinate@bCBox@@QEAAXHM@Z
?SetCoordinate@bCRect@@QEAAXJH@Z
?SetCoordinate@bCVector2@@QEAAXHM@Z
?SetCoordinate@bCVector4@@QEAAXHM@Z
?SetCoordinate@bCVector@@QEAAXHM@Z
?SetCoordinates@bCVector2@@QEAAXMM@Z
?SetCoordinates@bCVector2@@QEAAXQEBM@Z
?SetCoordinates@bCVector4@@QEAAXMMMM@Z
?SetCoordinates@bCVector4@@QEAAXQEBM@Z
?SetCoordinates@bCVector@@QEAAXMMM@Z
?SetCoordinates@bCVector@@QEAAXQEBM@Z
?SetCore@bCPropertyID@@AEAAXAEBUbSCore@1@@Z
?SetCount@bCBitField@@QEAAXH@Z
?SetCount@bCMemoryStream@@QEAAXK@Z
?SetCount@bCPropertyID@@AEAAXAEBK@Z
?SetCount@bCTrackBitField@@QEAAXH@Z
?SetCrossProduct@bCVector2@@QEAAXAEBV1@0@Z
?SetCrossProduct@bCVector@@QEAAXAEBV1@0@Z
?SetCullingCallback@bCOctTree@@QEAAP6A?AW4bEOctTreeCull@1@AEBVbCBox@@@ZP6A?AW421@0@Z@Z
?SetData@bCVariant@@IEAAXAEBTbUType@1@@Z
?SetData@bCVariant@@QEAAXC@Z
?SetData@bCVariant@@QEAAXE@Z
?SetData@bCVariant@@QEAAXF@Z
?SetData@bCVariant@@QEAAXG@Z
?SetData@bCVariant@@QEAAXH@Z
?SetData@bCVariant@@QEAAXJ@Z
?SetData@bCVariant@@QEAAXK@Z
?SetData@bCVariant@@QEAAXM@Z
?SetData@bCVariant@@QEAAXN@Z
?SetData@bCVariant@@QEAAXPEBD@Z
?SetData@bCVariant@@QEAAXPEBX@Z
?SetData@bCVariant@@QEAAX_J@Z
?SetData@bCVariant@@QEAAX_K@Z
?SetData@bCVariant@@QEAAX_N@Z
?SetDateTime@bCDateTime@@QEAAXAEBUtagUI_FILETIME@@@Z
?SetDateTime@bCDateTime@@QEAAX_K@Z
?SetDiffuse@bCFlexibleVertexPtr@@QEAAXK@Z
?SetDirection@bCLine@@QEAAXAEBVbCVector@@@Z
?SetDirection@bCRay@@QEAAXAEBVbCVector@@@Z
?SetDirection@bCUnitedRay@@QEAAXAEBVbCVector@@@Z
?SetDistance@bCPlane@@QEAAXM@Z
?SetElement@bCMatrix2@@QEAAXHHM@Z
?SetElement@bCMatrix2@@QEAAXHM@Z
?SetElement@bCMatrix3@@QEAAXHHM@Z
?SetElement@bCMatrix3@@QEAAXHM@Z
?SetElement@bCMatrix@@QEAAXHHM@Z
?SetElement@bCMatrix@@QEAAXHM@Z
?SetEnd@bCStretch@@QEAAXAEBVbCVector@@@Z
?SetEulerAngles@bCEulerAngles@@QEAAXAEBV1@@Z
?SetEulerAngles@bCEulerAngles@@QEAAXAEBVbCAxisAngle@@@Z
?SetEulerAngles@bCEulerAngles@@QEAAXAEBVbCMatrix@@@Z
?SetEulerAngles@bCEulerAngles@@QEAAXAEBVbCQuaternion@@@Z
?SetEulerAngles@bCEulerAngles@@QEAAXMMM@Z
?SetExtensionFlags@bCUnitedRay@@QEAAXAEBW4bERayExtension@1@@Z
?SetExtent@bCOrientedBox@@QEAAXAEBVbCVector@@@Z
?SetFatalErrorOnError@bCValidateMemory@@QEAAX_N@Z
?SetFilterType@bCMessageAdmin@@QEAAXW4bEMessageFilterTypes@@@Z
?SetFormat@bCFlexibleVertexFormat@@QEAAXK@Z
?SetFormat@bCFlexibleVertexPtr@@QEAAXAEBVbCFlexibleVertexFormat@@@Z
?SetFormat@bCFlexibleVertexPtr@@QEAAXK@Z
?SetFromHexCodedString@bCUnicodeString@@QEAA_NAEBVbCString@@@Z
?SetFrustum@bCFrustum@@QEAAXAEBV1@@Z
?SetFrustum@bCFrustum@@QEAAXAEBVbCBox@@@Z
?SetFrustum@bCFrustum@@QEAAXAEBVbCMatrix@@@Z
?SetGreen@bCByteColor@@QEAAXE@Z
?SetGreen@bCFloatColor@@QEAAXM@Z
?SetGuid@bCGuid@@QEAAXAEBU_GUID@@@Z
?SetGuid@bCGuid@@QEAAXAEBVbCString@@@Z
?SetGuid@bCGuid@@QEAAXPEBU_GUID@@@Z
?SetGuid@bCPropertyID@@QEAA_NAEBVbCGuid@@@Z
?SetHeight@bCCapsule@@QEAAXM@Z
?SetHighPrecision@bCFPUAdmin@@QEAAXXZ
?SetHue@bCFloatColorHSV@@QEAAXM@Z
?SetIdentity@bCMatrix2@@QEAAXXZ
?SetIdentity@bCMatrix3@@QEAAXXZ
?SetIdentity@bCMatrix@@QEAAXXZ
?SetIdentityRotation@bCMatrix@@QEAAXXZ
?SetInfCylinder@bCInfCylinder@@QEAAXAEBV1@@Z
?SetInfCylinder@bCInfCylinder@@QEAAXAEBVbCVector@@M@Z
?SetInfDoubleCylinder@bCInfDoubleCylinder@@QEAAXAEBV1@@Z
?SetInfDoubleCylinder@bCInfDoubleCylinder@@QEAAXAEBVbCVector@@M0M@Z
?SetInnerBoxFromPoints@bCOrientedBox@@QEAAXPEBVbCVector@@H@Z
?SetInstance@bCAccessorCreator@@QEAAXPEAVbCObjectBase@@@Z
?SetInstance@bCAccessorPropertyObject@@IEAAXPEAVbCObjectBase@@@Z
?SetInstance@bCAccessorPropertyObject@@IEAAXPEAVbCObjectRefBase@@@Z
?SetInstance@bCPropertyConverterPtr@@QEAAXPEAVbCPropertyConverter@@@Z
?SetLastTiming@bCProfileManager@@SAX_J@Z
?SetLatitude@bCSphericalRotation@@QEAAXM@Z
?SetLeft@bCRect@@QEAAXJ@Z
?SetLerp@bCQuaternion@@QEAAXV1@AEBV1@M@Z
?SetLerp@bCVector@@QEAAXAEBV1@0M@Z
?SetLine@bCLine@@QEAAXAEBV1@@Z
?SetLine@bCLine@@QEAAXAEBVbCVector@@0@Z
?SetLongitude@bCSphericalRotation@@QEAAXM@Z
?SetLowPrecision@bCFPUAdmin@@QEAAXXZ
?SetMatrix@bCMatrix2@@QEAAXAEBV1@@Z
?SetMatrix@bCMatrix2@@QEAAXM@Z
?SetMatrix@bCMatrix2@@QEAAXQEAY01$$CBM@Z
?SetMatrix@bCMatrix2@@QEAAXQEBM@Z
?SetMatrix@bCMatrix2@@QEAAXQEBVbCVector2@@@Z
?SetMatrix@bCMatrix3@@QEAAXAEBV1@@Z
?SetMatrix@bCMatrix3@@QEAAXAEBVbCMatrix@@@Z
?SetMatrix@bCMatrix3@@QEAAXM@Z
?SetMatrix@bCMatrix3@@QEAAXQEAY02$$CBM@Z
?SetMatrix@bCMatrix3@@QEAAXQEBM@Z
?SetMatrix@bCMatrix3@@QEAAXQEBVbCVector@@@Z
?SetMatrix@bCMatrix@@QEAAXAEBV1@@Z
?SetMatrix@bCMatrix@@QEAAXAEBVbCAxisAngle@@AEBVbCVector@@@Z
?SetMatrix@bCMatrix@@QEAAXAEBVbCEulerAngles@@AEBVbCVector@@@Z
?SetMatrix@bCMatrix@@QEAAXAEBVbCMotion@@@Z
?SetMatrix@bCMatrix@@QEAAXAEBVbCQuaternion@@AEBVbCVector@@@Z
?SetMatrix@bCMatrix@@QEAAXAEBVbCVector@@AEBVbCEulerAngles@@0@Z
?SetMatrix@bCMatrix@@QEAAXAEBVbCVector@@AEBVbCQuaternion@@0@Z
?SetMatrix@bCMatrix@@QEAAXM@Z
?SetMatrix@bCMatrix@@QEAAXQEAY03$$CBM@Z
?SetMatrix@bCMatrix@@QEAAXQEBM@Z
?SetMatrix@bCMatrix@@QEAAXQEBVbCVector4@@@Z
?SetMatrix@bCMatrix@@QEAAXQEBVbCVector@@@Z
?SetMax@bCBox@@QEAAXAEBVbCVector@@@Z
?SetMidPrecision@bCFPUAdmin@@QEAAXXZ
?SetMin@bCBox@@QEAAXAEBVbCVector@@@Z
?SetMinMax@bCRange1@@QEAAXMM@Z
?SetMinMax@bCRange2@@QEAAXAEBVbCVector2@@0@Z
?SetMinMax@bCRange3@@QEAAXAEBVbCVector@@0@Z
?SetMinMax@bCRange4@@QEAAXAEBVbCVector4@@0@Z
?SetNormal@bCFlexibleVertexPtr@@QEAAXAEBVbCVector@@@Z
?SetNormal@bCPlane@@QEAAXAEBVbCVector@@@Z
?SetOptions@bCCommandLine@@IEAAXAEBV?$bTStringObjMap@VbCString@@@@@Z
?SetOrientation@bCCapsule@@QEAAXAEBVbCMatrix3@@@Z
?SetOrientation@bCOrientedBox@@QEAAXAEBVbCMatrix3@@@Z
?SetOrigin@bCLine@@QEAAXAEBVbCVector@@@Z
?SetOrigin@bCRay@@QEAAXAEBVbCVector@@@Z
?SetOrigin@bCUnitedRay@@QEAAXAEBVbCVector@@@Z
?SetOuterBoxFromPoints@bCOrientedBox@@QEAAXPEBVbCVector@@H@Z
?SetPause@bCClock@@QEAAX_N@Z
?SetPitch@bCEulerAngles@@QEAAXM@Z
?SetPlane@bCPlane@@QEAAXAEBV1@@Z
?SetPoint@bCPoint@@QEAAXAEBUtagPOINT@@@Z
?SetPoint@bCPoint@@QEAAXAEBV1@@Z
?SetPoint@bCPoint@@QEAAXJJ@Z
?SetPoint@bCRect@@QEAAXAEBVbCPoint@@H@Z
?SetPointSize@bCFlexibleVertexPtr@@QEAAXM@Z
?SetPosX@bCRect@@QEAAXJ@Z
?SetPosY@bCRect@@QEAAXJ@Z
?SetPosition@bCFlexibleVertexPtr@@QEAAXAEBVbCVector@@@Z
?SetPosition@bCInfCylinder@@QEAAXAEBVbCVector@@@Z
?SetPosition@bCMemoryStream@@UEAA_N_JW4bEStreamSeekMode@@@Z
?SetPosition@bCSphere@@QEAAXAEBVbCVector@@@Z
?SetPositionA@bCInfDoubleCylinder@@QEAAXAEBVbCVector@@@Z
?SetPositionB@bCInfDoubleCylinder@@QEAAXAEBVbCVector@@@Z
?SetPriority@bCThread@@QEAAXW4bEThreadPriority@1@@Z
?SetQuaternion@bCQuaternion@@QEAAXAEBV1@@Z
?SetQuaternion@bCQuaternion@@QEAAXAEBVbCAxisAngle@@@Z
?SetQuaternion@bCQuaternion@@QEAAXAEBVbCEulerAngles@@@Z
?SetQuaternion@bCQuaternion@@QEAAXAEBVbCMatrix3@@@Z
?SetQuaternion@bCQuaternion@@QEAAXAEBVbCMatrix@@@Z
?SetQuaternion@bCQuaternion@@QEAAXAEBVbCSphericalRotation@@@Z
?SetQuaternion@bCQuaternion@@QEAAXAEBVbCVector@@0@Z
?SetQuaternion@bCQuaternion@@QEAAXMMMM@Z
?SetQueueLength@bCProfileManager@@SAXH@Z
?SetQueueLength@bCProfileNode@@QEAAXH@Z
?SetRHW@bCFlexibleVertexPtr@@QEAAXM@Z
?SetRadius@bCCapsule@@QEAAXM@Z
?SetRadius@bCInfCylinder@@QEAAXM@Z
?SetRadius@bCSphere@@QEAAXM@Z
?SetRadiusA@bCInfDoubleCylinder@@QEAAXM@Z
?SetRadiusB@bCInfDoubleCylinder@@QEAAXM@Z
?SetRay@bCRay@@QEAAXAEBV1@@Z
?SetRay@bCRay@@QEAAXAEBVbCVector@@0@Z
?SetRay@bCRay@@QEAAXPEBV1@@Z
?SetRect@bCRect@@QEAAXAEBUtagRECT@@@Z
?SetRect@bCRect@@QEAAXAEBV1@@Z
?SetRect@bCRect@@QEAAXAEBVbCPoint@@0@Z
?SetRect@bCRect@@QEAAXJJJJ@Z
?SetRect@bCRect@@QEAAXXZ
?SetRed@bCByteColor@@QEAAXE@Z
?SetRed@bCFloatColor@@QEAAXM@Z
?SetRight@bCRect@@QEAAXJ@Z
?SetRoll@bCEulerAngles@@QEAAXM@Z
?SetRow@bCMatrix2@@QEAAXHAEBVbCVector2@@@Z
?SetRow@bCMatrix2@@QEAAXHQEBM@Z
?SetRow@bCMatrix3@@QEAAXHAEBVbCVector@@@Z
?SetRow@bCMatrix3@@QEAAXHQEBM@Z
?SetRow@bCMatrix@@QEAAXHAEBVbCVector4@@@Z
?SetRow@bCMatrix@@QEAAXHAEBVbCVector@@@Z
?SetRow@bCMatrix@@QEAAXHQEBM@Z
?SetSaturation@bCFloatColorHSV@@QEAAXM@Z
?SetSeed@bCEbertNoise@@UEAAXH@Z
?SetSeed@bCNoise@@UEAAXH@Z
?SetSeed@bCPeacheyNoise@@UEAAXH@Z
?SetSeed@bCPerlinNoise@@UEAAXH@Z
?SetSeed@bCRandom@@QEBAXH@Z
?SetSilentMode@bCErrorAdmin@@QEAAX_N@Z
?SetSizeX@bCRect@@QEAAXJ@Z
?SetSizeY@bCRect@@QEAAXJ@Z
?SetSlerp@bCQuaternion@@QEAAXV1@0M@Z
?SetSlerp@bCVector@@QEAAXV1@0M@Z
?SetSpecular@bCFlexibleVertexPtr@@QEAAXK@Z
?SetSphere@bCSphere@@QEAAXAEBV1@@Z
?SetSphere@bCSphere@@QEAAXAEBVbCVector@@M@Z
?SetSpinCount@bCCriticalSection@@QEAAXK@Z
?SetStart@bCStretch@@QEAAXAEBVbCVector@@@Z
?SetStreamVersion@bCIStream@@IEAAXG@Z
?SetStretch@bCStretch@@QEAAXAEBV1@@Z
?SetStretch@bCStretch@@QEAAXAEBVbCVector@@0@Z
?SetStringList@bCPOStream@@SAXPEAV?$bTObjArray@VbCString@@@@PEAV?$bTStringValMap@J@@@Z
?SetTag@bCXMLParserNode@@QEAAXAEBVbCString@@@Z
?SetText@bCGuid@@QEAA_NAEBVbCString@@@Z
?SetText@bCPropertyID@@QEAA_NAEBVbCString@@@Z
?SetText@bCString@@QEAAXAEBV1@@Z
?SetText@bCString@@QEAAXAEBV1@H@Z
?SetText@bCString@@QEAAXDH@Z
?SetText@bCString@@QEAAXPEBD@Z
?SetText@bCString@@QEAAXPEBDH@Z
?SetText@bCUnicodeString@@QEAAXAEBV1@@Z
?SetText@bCUnicodeString@@QEAAXAEBV1@H@Z
?SetText@bCUnicodeString@@QEAAXPEB_W@Z
?SetText@bCUnicodeString@@QEAAXPEB_WH@Z
?SetText@bCUnicodeString@@QEAAX_WH@Z
?SetText@bCXMLParserNode@@QEAAXAEBVbCString@@@Z
?SetTextEx@bCPropertyID@@QEAA_NAEBVbCString@@@Z
?SetTextureCoordCount@bCFlexibleVertexFormat@@QEAAXHH@Z
?SetTextureCoords@bCFlexibleVertexPtr@@QEAAXHAEBVbCVector2@@@Z
?SetTextureCoords@bCFlexibleVertexPtr@@QEAAXHAEBVbCVector4@@@Z
?SetTextureCoords@bCFlexibleVertexPtr@@QEAAXHAEBVbCVector@@@Z
?SetTextureStageCount@bCFlexibleVertexFormat@@QEAAXH@Z
?SetTimedSeed@bCNoise@@QEAAXXZ
?SetTimedSeed@bCRandom@@QEBAXXZ
?SetToCrossProduct@bCMatrix3@@QEAAXAEBVbCVector@@@Z
?SetToCrossProduct@bCMatrix@@QEAAXAEBVbCVector@@@Z
?SetToInverse@bCMatrix2@@QEAAXAEBV1@@Z
?SetToInverse@bCMatrix3@@QEAAXAEBV1@@Z
?SetToProduct@bCMatrix2@@QEAAXAEBV1@0@Z
?SetToProduct@bCMatrix3@@QEAAXAEBV1@0@Z
?SetToProduct@bCMatrix@@QEAAXAEBV1@0@Z
?SetToProduct@bCQuaternion@@QEAAXAEBV1@0@Z
?SetToRotation@bCMatrix2@@QEAAXM@Z
?SetToRotation@bCMatrix3@@QEAAXAEBVbCAxisAngle@@@Z
?SetToRotation@bCMatrix3@@QEAAXAEBVbCEulerAngles@@@Z
?SetToRotation@bCMatrix3@@QEAAXAEBVbCQuaternion@@@Z
?SetToRotation@bCMatrix@@QEAAXAEBVbCAxisAngle@@@Z
?SetToRotation@bCMatrix@@QEAAXAEBVbCEulerAngles@@@Z
?SetToRotation@bCMatrix@@QEAAXAEBVbCQuaternion@@@Z
?SetToRotationAxisX@bCMatrix3@@QEAAXM@Z
?SetToRotationAxisX@bCMatrix@@QEAAXM@Z
?SetToRotationAxisY@bCMatrix3@@QEAAXM@Z
?SetToRotationAxisY@bCMatrix@@QEAAXM@Z
?SetToRotationAxisZ@bCMatrix3@@QEAAXM@Z
?SetToRotationAxisZ@bCMatrix@@QEAAXM@Z
?SetToScaling@bCMatrix2@@QEAAXAEBVbCVector2@@@Z
?SetToScaling@bCMatrix2@@QEAAXM@Z
?SetToScaling@bCMatrix3@@QEAAXAEBVbCVector@@@Z
?SetToScaling@bCMatrix3@@QEAAXM@Z
?SetToScaling@bCMatrix@@QEAAXAEBVbCVector@@@Z
?SetToScaling@bCMatrix@@QEAAXM@Z
?SetToTranslation@bCMatrix@@QEAAXAEBVbCVector@@@Z
?SetTop@bCRect@@QEAAXJ@Z
?SetTopLeft@bCRect@@QEAAXAEBVbCPoint@@@Z
?SetTotalBytesAllocated@bCGCMem@@IEAAXK@Z
?SetTouchCallback@bCOctTree@@QEAAP6AXPEAVbCOctTreeEntryBase@@0_N@ZP6AX001@Z@Z
?SetTraceOnError@bCValidateMemory@@QEAAX_N@Z
?SetTransformed@bCVector2@@QEAAXAEBV1@AEBVbCMatrix2@@@Z
?SetTransformed@bCVector4@@QEAAXAEBV1@AEBVbCMatrix@@@Z
?SetTransformed@bCVector@@QEAAXAEBV1@AEBVbCMatrix3@@@Z
?SetTransformed@bCVector@@QEAAXAEBV1@AEBVbCMatrix@@@Z
?SetTransformedDirection@bCVector@@QEAAXAEBV1@AEBVbCMatrix@@@Z
?SetTransposedTransformed@bCVector2@@QEAAXAEBV1@AEBVbCMatrix2@@@Z
?SetTransposedTransformed@bCVector@@QEAAXAEBV1@AEBVbCMatrix3@@@Z
?SetTransposedTransformedDirection@bCVector@@QEAAXAEBV1@AEBVbCMatrix@@@Z
?SetTriangle@bCTriangle@@QEAAXAEBV1@@Z
?SetTriangle@bCTriangle@@QEAAXAEBVbCVector@@00@Z
?SetTriangle@bCTriangle@@QEAAXQEAVbCVector@@@Z
?SetType@bCVariant@@IEAAXAEBW4bEType@1@@Z
?SetUnicodeText@bCString@@QEAAXAEBVbCUnicodeString@@@Z
?SetUnicodeText@bCString@@QEAAXAEBVbCUnicodeString@@H@Z
?SetUnicodeText@bCString@@QEAAXPEB_W@Z
?SetUnicodeText@bCString@@QEAAXPEB_WH@Z
?SetUnitedRay@bCUnitedRay@@QEAAXAEBV1@@Z
?SetUserData@bCIStream@@QEAAXK@Z
?SetValue@bCFloatColorHSV@@QEAAXM@Z
?SetVector@bCVector2@@QEAAXAEBV1@@Z
?SetVector@bCVector2@@QEAAXM@Z
?SetVector@bCVector2@@QEAAXMM@Z
?SetVector@bCVector4@@QEAAXAEBV1@@Z
?SetVector@bCVector4@@QEAAXM@Z
?SetVector@bCVector4@@QEAAXMMMM@Z
?SetVector@bCVector@@QEAAXAEBV1@@Z
?SetVector@bCVector@@QEAAXAEBVNxVec3@@@Z
?SetVector@bCVector@@QEAAXM@Z
?SetVector@bCVector@@QEAAXMMM@Z
?SetW@bCQuaternion@@QEAAXM@Z
?SetW@bCVector4@@QEAAXAEBM@Z
?SetWarningMessageOnError@bCValidateMemory@@QEAAX_N@Z
?SetWeight@bCFlexibleVertexPtr@@QEAAXHM@Z
?SetWeightCount@bCFlexibleVertexFormat@@QEAAXH@Z
?SetX@bCFlexibleVertexPtr@@QEAAXM@Z
?SetX@bCPoint@@QEAAXJ@Z
?SetX@bCQuaternion@@QEAAXM@Z
?SetX@bCVector2@@QEAAXAEBM@Z
?SetX@bCVector4@@QEAAXAEBM@Z
?SetX@bCVector@@QEAAXAEBM@Z
?SetXAxis@bCMatrix@@QEAAXAEBVbCVector4@@@Z
?SetXAxis@bCMatrix@@QEAAXAEBVbCVector@@@Z
?SetY@bCFlexibleVertexPtr@@QEAAXM@Z
?SetY@bCPoint@@QEAAXJ@Z
?SetY@bCQuaternion@@QEAAXM@Z
?SetY@bCVector2@@QEAAXAEBM@Z
?SetY@bCVector4@@QEAAXAEBM@Z
?SetY@bCVector@@QEAAXAEBM@Z
?SetYAxis@bCMatrix@@QEAAXAEBVbCVector4@@@Z
?SetYAxis@bCMatrix@@QEAAXAEBVbCVector@@@Z
?SetYaw@bCEulerAngles@@QEAAXM@Z
?SetZ@bCFlexibleVertexPtr@@QEAAXM@Z
?SetZ@bCQuaternion@@QEAAXM@Z
?SetZ@bCVector4@@QEAAXAEBM@Z
?SetZ@bCVector@@QEAAXAEBM@Z
?SetZAxis@bCMatrix@@QEAAXAEBVbCVector4@@@Z
?SetZAxis@bCMatrix@@QEAAXAEBVbCVector@@@Z
?ShiftLeft@bCBitField@@QEAAXJ@Z
?ShiftLeft@bCTrackBitField@@QEAAXJ@Z
?ShiftRight@bCBitField@@QEAAXJ@Z
?ShiftRight@bCTrackBitField@@QEAAXJ@Z
?ShowModalErrorDialog@bCDialogHandle@bCEngineDialogs@@QEAA_NXZ
?ShowModalFileNotUniqueDialog@bCDialogHandle@bCEngineDialogs@@QEAA_NXZ
?ShowModalMemoryDialog@bCDialogHandle@bCEngineDialogs@@QEAA_NXZ
?Shrink@bCBox@@QEAAXAEBVbCVector@@@Z
?Shrink@bCBox@@QEAAXM@Z
?Shrink@bCInfCylinder@@QEAAXM@Z
?Shrink@bCInfDoubleCylinder@@QEAAXM@Z
?Shrink@bCRect@@QEAAXAEBV1@@Z
?Shrink@bCRect@@QEAAXAEBVbCPoint@@@Z
?Shrink@bCSphere@@QEAAXM@Z
?SkipOption@bCCommandLine@@KA_NAEAVbCString@@00@Z
?SkipOptionDelimiter@bCCommandLine@@KA_NAEAVbCString@@@Z
?SkipValue@bCCommandLine@@KA_NAEAVbCString@@0@Z
?SkipValue@bCCommandLine@@KA_NAEAVbCString@@0PEBD@Z
?SkipValueDelimiter@bCCommandLine@@KA_NAEAVbCString@@@Z
?SkipWordDelimiters@bCCommandLine@@KAHAEAVbCString@@@Z
?SleepThread@bCThreadEx@@QEAAXK@Z
?SpanExcluding@bCString@@QEBA?AV1@PEBD@Z
?SpanExcluding@bCUnicodeString@@QEBA?AV1@PEB_W@Z
?SpanIncluding@bCString@@QEBA?AV1@PEBD@Z
?SpanIncluding@bCUnicodeString@@QEBA?AV1@PEB_W@Z
?Spline@bCPeacheyNoise@@IEBAMMHPEBM@Z
?Split@bCUnicodeString@@QEAAKAEAV1@PEAV?$bTObjArray@VbCUnicodeString@@@@@Z
?SplitPath@bCFileSystem@@UEAA_NAEBVbCString@@AEAV2@111@Z
?StartProfile@bCProfileManager@@SAXPEBD@Z
?StartProfileAbsolute@bCProfileManager@@SAXPEBD@Z
?StartThread@bCThreadEx@@QEAA_NXZ
?StaticConstructor@bCObjectRefBase@@SAXAEAVbCPropertyObjectTypeBase@@@Z
?StopProfile@bCProfileManager@@SAXM@Z
?StopProfile@bCProfileManager@@SAXXZ
?StopProfileAbsolute@bCProfileManager@@SAXPEBD@Z
?StripFilename@bCMessageAdmin@@QEAAPEBDPEBD@Z
?Sub@bCByteAlphaColor@@QEAAXAEBV1@@Z
?Sub@bCByteColor@@QEAAXAEBV1@@Z
?Sub@bCDateTime@@QEAAXAEBV1@@Z
?Sub@bCFloatAlphaColor@@QEAAXAEBV1@@Z
?Sub@bCFloatColor@@QEAAXAEBV1@@Z
?Sub@bCFloatColorHSV@@QEAAXAEBV1@@Z
?Sub@bCMatrix2@@QEAAXAEBV1@@Z
?Sub@bCMatrix3@@QEAAXAEBV1@@Z
?Sub@bCMatrix@@QEAAXAEBV1@@Z
?Sub@bCQuaternion@@QEAAXAEBV1@@Z
?Sub@bCStretch@@QEAAXAEBV1@@Z
?Sub@bCUnitedRay@@QEAAXAEBV1@@Z
?SubClamped@bCByteAlphaColor@@QEAAXAEBV1@@Z
?SubClamped@bCByteColor@@QEAAXAEBV1@@Z
?SubClamped@bCFloatAlphaColor@@QEAAXAEBV1@@Z
?SubClamped@bCFloatColor@@QEAAXAEBV1@@Z
?SubClamped@bCFloatColorHSV@@QEAAXAEBV1@@Z
?Tdiag@bCEigenVector@@QEAAAEANJ@Z
?ThreadFunc@bCThreadEx@@KAKPEAX@Z
?ToLower@bCString@@QEAAXXZ
?ToLower@bCUnicodeString@@QEAAXXZ
?ToString@bCVector@@QEBA?AVbCString@@H@Z
?ToUpper@bCString@@QEAAXXZ
?ToUpper@bCUnicodeString@@QEAAXXZ
?Toggle@bCBitField@@QEAAXH@Z
?Toggle@bCTrackBitField@@QEAAXH@Z
?TraceF@bCErrorAdmin@@QEAAXPEADZZ
?Transform@bCBox@@QEAAXAEBVbCMatrix3@@@Z
?Transform@bCBox@@QEAAXAEBVbCMatrix@@@Z
?Transform@bCFrustum@@QEAAXAEBVbCMatrix3@@@Z
?Transform@bCFrustum@@QEAAXAEBVbCMatrix@@@Z
?Transform@bCInfCylinder@@QEAAXAEBVbCMatrix3@@@Z
?Transform@bCInfCylinder@@QEAAXAEBVbCMatrix@@@Z
?Transform@bCInfDoubleCylinder@@QEAAXAEBVbCMatrix3@@@Z
?Transform@bCInfDoubleCylinder@@QEAAXAEBVbCMatrix@@@Z
?Transform@bCLine@@QEAAXAEBVbCMatrix3@@@Z
?Transform@bCLine@@QEAAXAEBVbCMatrix@@@Z
?Transform@bCOrientedBox@@QEAAXAEBVbCMatrix3@@@Z
?Transform@bCOrientedBox@@QEAAXAEBVbCMatrix@@@Z
?Transform@bCPlane@@QEAAXAEBVbCMatrix3@@@Z
?Transform@bCPlane@@QEAAXAEBVbCMatrix@@@Z
?Transform@bCRay@@QEAAXAEBVbCMatrix@@@Z
?Transform@bCSphere@@QEAAXAEBVbCMatrix3@@@Z
?Transform@bCSphere@@QEAAXAEBVbCMatrix@@@Z
?Transform@bCStretch@@QEAAXAEBVbCMatrix3@@@Z
?Transform@bCStretch@@QEAAXAEBVbCMatrix@@@Z
?Transform@bCTriangle@@QEAAXAEBVbCMatrix3@@@Z
?Transform@bCTriangle@@QEAAXAEBVbCMatrix@@@Z
?Transform@bCUnitedRay@@QEAAXAEBVbCMatrix3@@@Z
?Transform@bCUnitedRay@@QEAAXAEBVbCMatrix@@@Z
?Transform@bCVector2@@QEAAXAEBVbCMatrix2@@@Z
?Transform@bCVector4@@QEAAXAEBVbCMatrix@@@Z
?Transform@bCVector@@QEAAXAEBVbCMatrix3@@@Z
?Transform@bCVector@@QEAAXAEBVbCMatrix@@@Z
?TransformDirection@bCVector@@QEAAXAEBVbCMatrix@@@Z
?Translate@bCBox@@QEAAXAEBVbCVector@@@Z
?Translate@bCBox@@QEAAXM@Z
?Translate@bCFrustum@@QEAAXAEBVbCVector@@@Z
?Translate@bCInfCylinder@@QEAAXAEBVbCVector@@@Z
?Translate@bCInfCylinder@@QEAAXM@Z
?Translate@bCInfDoubleCylinder@@QEAAXAEBVbCVector@@@Z
?Translate@bCInfDoubleCylinder@@QEAAXM@Z
?Translate@bCLine@@QEAAXAEBVbCVector@@@Z
?Translate@bCOrientedBox@@QEAAXAEBVbCVector@@@Z
?Translate@bCOrientedBox@@QEAAXM@Z
?Translate@bCPlane@@QEAAXAEBVbCVector@@@Z
?Translate@bCPoint@@QEAAXAEBV1@@Z
?Translate@bCPoint@@QEAAXJJ@Z
?Translate@bCRay@@QEAAXAEBVbCVector@@@Z
?Translate@bCRect@@QEAAXAEBVbCPoint@@@Z
?Translate@bCRect@@QEAAXJJ@Z
?Translate@bCSphere@@QEAAXAEBVbCVector@@@Z
?Translate@bCSphere@@QEAAXM@Z
?Translate@bCStretch@@QEAAXAEBVbCVector@@@Z
?Translate@bCTriangle@@QEAAXAEBVbCVector@@@Z
?Translate@bCUnitedRay@@QEAAXAEBVbCVector@@@Z
?Translate@bCVector2@@QEAAXAEBV1@@Z
?Translate@bCVector2@@QEAAXM@Z
?Translate@bCVector4@@QEAAXAEBV1@@Z
?Translate@bCVector4@@QEAAXM@Z
?Translate@bCVector@@QEAAXAEBV1@@Z
?Translate@bCVector@@QEAAXM@Z
?Transpose@bCMatrix2@@QEAAXXZ
?Transpose@bCMatrix3@@QEAAXXZ
?Transpose@bCMatrix@@QEAAXXZ
?TransposeRotation@bCMatrix@@QEAAXXZ
?TransposedTransform@bCVector2@@QEAAXAEBVbCMatrix2@@@Z
?TransposedTransform@bCVector@@QEAAXAEBVbCMatrix3@@@Z
?TransposedTransformDirection@bCVector@@QEAAXAEBVbCMatrix@@@Z
?Traverse@bCOctTree@@QEAAXP6AXPEAVbCOctTreeEntryBase@@@ZAEBVbCBox@@@Z
?Traverse@bCOctTree@@QEAAXP6AXPEAVbCOctTreeEntryBase@@@ZAEBVbCVector@@@Z
?Traverse@bCOctTree@@QEAAXP6AXPEAVbCOctTreeEntryBase@@@ZPEBVbCPlane@@H@Z
?Traverse@bCOctTree@@QEAAXP6AXPEAVbCOctTreeEntryBase@@@ZPEBVbCPlane@@HAEBV3@@Z
?Tridiagonal2@bCEigenVector@@AEAAXPEAPEANPEAN1@Z
?Tridiagonal3@bCEigenVector@@AEAAXPEAPEANPEAN1@Z
?Tridiagonal4@bCEigenVector@@AEAAXPEAPEANPEAN1@Z
?TridiagonalN@bCEigenVector@@AEAAXJPEAPEANPEAN1@Z
?Trim@bCString@@QEAAXD@Z
?Trim@bCString@@QEAAXPEBD@Z
?Trim@bCString@@QEAAXXZ
?Trim@bCString@@QEAAX_N0@Z
?Trim@bCUnicodeString@@QEAAXPEB_W@Z
?Trim@bCUnicodeString@@QEAAXXZ
?Trim@bCUnicodeString@@QEAAX_N0@Z
?Trim@bCUnicodeString@@QEAAX_W@Z
?TrimLeft@bCString@@QEAAXD@Z
?TrimLeft@bCString@@QEAAXPEBD@Z
?TrimLeft@bCString@@QEAAXXZ
?TrimLeft@bCUnicodeString@@QEAAXPEB_W@Z
?TrimLeft@bCUnicodeString@@QEAAXXZ
?TrimLeft@bCUnicodeString@@QEAAX_W@Z
?TrimRight@bCString@@QEAAXD@Z
?TrimRight@bCString@@QEAAXPEBD@Z
?TrimRight@bCString@@QEAAXXZ
?TrimRight@bCUnicodeString@@QEAAXPEB_W@Z
?TrimRight@bCUnicodeString@@QEAAXXZ
?TrimRight@bCUnicodeString@@QEAAX_W@Z
?TryAcquire@bCCriticalSection@@QEAA_NXZ
?TryToGetOwnership@bCThreadObjectRefBase@@QEAA_NXZ
?Tsubdiag@bCEigenVector@@QEAAAEANJ@Z
?UnMangle@bCClassNameBase@@SA?AVbCString@@PEBD@Z
?UnloadGE3DialogLib@bCEngineDialogs@@QEAAXXZ
?UnlockBuffer@bCString@@QEAAXXZ
?UnlockBuffer@bCUnicodeString@@QEAAXXZ
?UnlockSystem@bCErrorAdmin@@QEAAXXZ
?UnregisterCallback@bCErrorAdmin@@QEAA_NP6A_NW4bEErrorType@@K@Z@Z
?UnregisterCallback@bCMessageAdmin@@QEAA_NP6A_NW4bEMessageTypes@@PEBD1K1HH@Z@Z
?UnregisterPropertyTemplate@bCPropertyObjectTypeBase@@QEAA_NPEBVbCPropertyTypeBase@@@Z
?Update@bCDateTime@@QEAAXXZ
?VCNoise@bCPeacheyNoise@@QEBAMMMM@Z
?VLattice@bCPeacheyNoise@@IEBAMHHH@Z
?VNoise@bCPeacheyNoise@@QEBAMMMM@Z
?Validate@bCValidateMemory@@QEAAXXZ
?ValidateAllAllocationItems@bCMemoryAdmin@@QEBA_NP6A_NPEBDPEBUbSAllocationItem@@@Z@Z
?ValidateAllocationItem@bCMemoryAdmin@@QEBA_NP6A_NPEBDPEBUbSAllocationItem@@@ZAEBU2@@Z
?ValidateReserved@bCMatrix@@IEAAXXZ
?WaitIfThreadFinished@bCThreadEx@@QEAAXXZ
?Widen@bCBox@@QEAAXAEBVbCVector@@@Z
?Widen@bCBox@@QEAAXM@Z
?Widen@bCInfCylinder@@QEAAXM@Z
?Widen@bCInfDoubleCylinder@@QEAAXM@Z
?Widen@bCRect@@QEAAXAEBV1@@Z
?Widen@bCRect@@QEAAXAEBVbCPoint@@@Z
?Widen@bCSphere@@QEAAXM@Z
?WipeWithPattern@bCMemoryAdmin@@IEAAXAEBUbSAllocationItem@@KK@Z
?Write@bCAccessorPropertyObject@@QEAAXAEAVbCOStream@@@Z
?Write@bCCommandLine@@QEAAXAEAVbCOStream@@@Z
?Write@bCEbertNoise@@IEBAXAEAVbCOStream@@@Z
?Write@bCMemoryStream@@UEAAKPEBXK@Z
?Write@bCNullStream@@MEAAKPEBXK@Z
?Write@bCOStream@@QEAAKAEBVbCDateTime@@@Z
?Write@bCOStream@@QEAAKAEBVbCGuid@@@Z
?Write@bCOStream@@QEAAKAEBVbCUnicodeString@@@Z
?Write@bCOStream@@QEAAKAEBVbCVariant@@@Z
?Write@bCOStream@@QEAAKC@Z
?Write@bCOStream@@QEAAKD@Z
?Write@bCOStream@@QEAAKE@Z
?Write@bCOStream@@QEAAKF@Z
?Write@bCOStream@@QEAAKG@Z
?Write@bCOStream@@QEAAKH@Z
?Write@bCOStream@@QEAAKI@Z
?Write@bCOStream@@QEAAKJ@Z
?Write@bCOStream@@QEAAKK@Z
?Write@bCOStream@@QEAAKM@Z
?Write@bCOStream@@QEAAKN@Z
?Write@bCOStream@@QEAAK_J@Z
?Write@bCOStream@@QEAAK_K@Z
?Write@bCOStream@@QEAAK_N@Z
?Write@bCOStream@@UEAAKAEBVbCString@@@Z
?Write@bCOStream@@UEAAKPEBXK@Z
?Write@bCObjectBase@@UEAA?AW4bEDoNotOverwriteMethod@@AEAVbCOStream@@@Z
?Write@bCPOStream@@UEAAKAEBVbCString@@@Z
?Write@bCPOStream@@UEAAKPEBXK@Z
?Write@bCPeacheyNoise@@IEBAXAEAVbCOStream@@@Z
?Write@bCPerlinNoise@@IEBAXAEAVbCOStream@@@Z
?Write@bCPropertyID@@QEBAXAEAVbCOStream@@@Z
?Write@bCPropertyTypeBase@@UEAAXAEAVbCOStream@@@Z
?WriteData@bCObjectBase@@AEAAXAEAVbCOStream@@@Z
?WriteFile@bCPOStream@@QEAA_NAEAVbCOStream@@@Z
?WriteLine@bCOStream@@QEAAKAEBVbCString@@@Z
?WriteObject@bCPropertyObjectTypeBase@@SAXAEAVbCOStream@@PEAVbCObjectBase@@@Z
?WritePixel@bCByteAlphaColor@@QEAAXW4bEPixelFormat@@PEAX@Z
?Xor@bCBitField@@QEAAXAEBV1@@Z
?Xor@bCTrackBitField@@QEAAXAEBV1@@Z
?_ReadObject@bCPropertyObjectTypeBase@@CA_NAEAVbCIStream@@AEAVbCObjectBase@@@Z
?allocation_failed@bCEigenVector@@0IB
?arrResult@?1???5bCBitField@@QEBAAEBV1@J@Z@4V1@A
?arrResult@?1???5bCTrackBitField@@QEBAAEBV1@J@Z@4V1@A
?arrResult@?1???6bCBitField@@QEBAAEBV1@J@Z@4V1@A
?arrResult@?1???6bCTrackBitField@@QEBAAEBV1@J@Z@4V1@A
?arrResult@?1???IbCBitField@@QEBAAEBV1@AEBV1@@Z@4V1@A
?arrResult@?1???IbCTrackBitField@@QEBAAEBV1@AEBV1@@Z@4V1@A
?arrResult@?1???SbCBitField@@QEBAAEBV1@XZ@4V1@A
?arrResult@?1???SbCTrackBitField@@QEBAAEBV1@XZ@4V1@A
?arrResult@?1???TbCBitField@@QEBAAEBV1@AEBV1@@Z@4V1@A
?arrResult@?1???TbCTrackBitField@@QEBAAEBV1@AEBV1@@Z@4V1@A
?arrResult@?1???UbCBitField@@QEBAAEBV1@AEBV1@@Z@4V1@A
?arrResult@?1???UbCTrackBitField@@QEBAAEBV1@AEBV1@@Z@4V1@A
?bEBits_All@bCBitField@@1KB
?bEBits_All@bCTrackBitField@@1KB
?error@bCEigenVector@@2IA
?g_ArrayInsertionSort@@YAXPEAXIIP6AHPEBX1@Z_N@Z
?g_ArraySortDefaultCompare@@YAHPEBX0@Z
?invalid_size@bCEigenVector@@0IB
?m_bDummy@bCInfCylinder@@1_NA
?m_bDummy@bCInfDoubleCylinder@@1_NA
?m_fDummy@bCBox@@1MA
?m_fDummy@bCFrustum@@1MA
?m_fDummy@bCInfCylinder@@1MA
?m_fDummy@bCInfDoubleCylinder@@1MA
?m_fDummy@bCLine@@1MA
?m_fDummy@bCPlane@@1MA
?m_fDummy@bCRay@@1MA
?m_fDummy@bCSphere@@1MA
?m_fDummy@bCStretch@@1MA
?m_fDummy@bCTriangle@@1MA
?m_fDummy@bCUnitedRay@@1MA
?m_vecDummy@bCInfCylinder@@1VbCVector2@@A
?m_vecDummy@bCInfDoubleCylinder@@1VbCVector2@@A
?matInverted@?5??SetToInverse@bCMatrix2@@QEAAXAEBV2@@Z@4V2@A
?matInverted@?5??SetToInverse@bCMatrix3@@QEAAXAEBV2@@Z@4V2@A
?matProduct@?5??SetToProduct@bCMatrix2@@QEAAXAEBV2@0@Z@4V2@A
?matProduct@?5??SetToProduct@bCMatrix3@@QEAAXAEBV2@0@Z@4V2@A
?matProduct@?5??SetToProduct@bCMatrix@@QEAAXAEBV2@0@Z@4V2@A
?message@bCEigenVector@@0PAPEBDA
?ms_Root@bCProfileManager@@0VbCProfileNode@@A
?ms_bEnableProfilingNextFrame@bCProfileManager@@0_NA
?ms_bEnableThreads@bCThreadEx@@1_NA
?ms_bInitialized@bCMemoryAdmin@@0_NA
?ms_bIsInSilentLogMode@bCMessageAdmin@@0_NA
?ms_bLegacyMode@bCPOStream@@1_NA
?ms_bProfilingEnabled@bCProfileManager@@0_NA
?ms_bResetOnNextFrame@bCProfileManager@@0_NA
?ms_i64LastFrameTimeStamp@bCProfileManager@@0_JA
?ms_i64LastTiming@bCProfileManager@@0_JA
?ms_iFrameCounter@bCProfileManager@@0HA
?ms_iQueueLength@bCProfileManager@@0HA
?ms_pCurrentNode@bCProfileManager@@0PEAVbCProfileNode@@EA
?ms_pList@bCPropertyObjectTypeBase@@0PEAV1@EA
?ms_pMainPOStream@bCPOStream@@1PEAV1@EA
?ms_pMap@bCPropertyObjectTypeBase@@0PAPEAV1@A
?ms_pRoot@bCPropertyObjectTypeBase@@0PEAV1@EA
?ms_parrStringList@bCPOStream@@1PEAV?$bTObjArray@VbCString@@@@EA
?ms_piPermutations@bCPerlinNoise@@1PAHA
?ms_pmapStringSaveHashmap@bCPOStream@@1PEAV?$bTStringValMap@J@@EA
?ms_pu8Permutations@bCPeacheyNoise@@1PAEA
?ms_strEmptyName@bCAccessorProperty@@1VbCString@@A
?ql_exceeded@bCEigenVector@@0IB
?thisType@bCObjectBase@@0VbCPropertyObjectTypeBase@@A
?thisType@bCObjectRefBase@@0VbCPropertyObjectTypeBase@@A
CheckFileVersion
GE_SILENTLOG_ERR
GE_SILENTLOG_OUT
GetDLLVersion
GetVersionInt
ParseVersionString
g_CloseMutex
g_CoCreateGuid
g_CopyGUID
g_CreateMutex
g_DateToChar
g_DateToCharW
g_DebugBreak
g_GetCurrentProcessId
g_GetCurrentThread
g_GetFileDate
g_GetModuleFileName
g_GetProcAddress
g_GetShortDateChar
g_GetSystemTime
g_GetThreadPriority
g_IIDFromString
g_IsEqualGUID
g_LoadModule
g_MemCmp
g_MemCpy
g_MemSet
g_MessageBox
g_MultiByteToWideChar
g_OutputDebugString
g_SetThreadPriority
g_StringFromGUID2
g_TimeToChar
g_UnloadModule
g_WideCharToMultiByte
g_ZeroMemory
g_acosf
g_asinf
g_atan2f
g_carrMsgBuffer
g_cosf
g_f2PI
g_fDegToRad
g_fEpsilon
g_fFOV
g_fHuge
g_fInvEpsilon
g_fInvPI
g_fNegInfinity
g_fPI
g_fPIDiv2
g_fPIDiv4
g_fPosInfinity
g_fRadToDeg
g_fSqrt2
g_fZFar
g_fZNear
g_fabsf
g_fcopysign
g_floorf
g_iDefaultMessagePriority
g_idInvalid
g_iswalnum
g_iswalpha
g_iswascii
g_iswdigit
g_iswlower
g_iswspace
g_iswupper
g_pow
g_sinf
g_sqrtf
g_strDefault
g_strObsoletClassName
g_towlower
g_towupper
g_vsscanf
g_wcschr
g_wcscmp
g_wcscspn
g_wcsicmp
g_wcslen
g_wcsncmp
g_wcspbrk
g_wcsrchr
g_wcsspn
g_wcsstr
g_wcstod
g_wcstol
new
