EXPORTS
??0?$eCAOPerTriangleMeshBase@G@eCAmbientOcclusionPreprocessor@@QEAA@AEBV01@@Z
??0?$eCAOPerTriangleMeshBase@G@eCAmbientOcclusionPreprocessor@@QEAA@XZ
??0?$eCAOPerTriangleMeshBase@K@eCAmbientOcclusionPreprocessor@@QEAA@AEBV01@@Z
??0?$eCAOPerTriangleMeshBase@K@eCAmbientOcclusionPreprocessor@@QEAA@XZ
??0?$eTShaderEllementProxy@VeCColorSrcBase@@@@QEAA@AEBV0@@Z
??0?$eTShaderEllementProxy@VeCColorSrcBase@@@@QEAA@PEAVeCColorSrcBase@@@Z
??0?$eTShaderEllementProxy@VeCColorSrcBase@@@@QEAA@XZ
??0?$eTShaderEllementProxy@VeCTexCoordSrcBase@@@@QEAA@AEBV0@@Z
??0?$eTShaderEllementProxy@VeCTexCoordSrcBase@@@@QEAA@PEAVeCTexCoordSrcBase@@@Z
??0?$eTShaderEllementProxy@VeCTexCoordSrcBase@@@@QEAA@XZ
??0SItem@eCVectorScale@@QEAA@$$QEAU01@@Z
??0SItem@eCVectorScale@@QEAA@AEBU01@@Z
??0SItem@eCVectorScale@@QEAA@XZ
??0SPlay3D@eCSoundResource2@@QEAA@$$QEAU01@@Z
??0SPlay3D@eCSoundResource2@@QEAA@AEBU01@@Z
??0SPlay3D@eCSoundResource2@@QEAA@XZ
??0eCAOCustomMesh@eCAmbientOcclusionPreprocessor@@QEAA@AEBV01@@Z
??0eCAOCustomMesh@eCAmbientOcclusionPreprocessor@@QEAA@XZ
??0eCAOMeshBase@eCAmbientOcclusionPreprocessor@@QEAA@AEBV01@@Z
??0eCAOMeshBase@eCAmbientOcclusionPreprocessor@@QEAA@XZ
??0eCAOMeshEmitterInstance@eCAmbientOcclusionPreprocessor@@QEAA@AEBV01@@Z
??0eCAOMeshEmitterInstance@eCAmbientOcclusionPreprocessor@@QEAA@AEBVbCMatrix@@PEAVeCAOMeshBase@1@@Z
??0eCAOMeshGroup@eCAmbientOcclusionPreprocessor@@QEAA@AEBV01@@Z
??0eCAOMeshGroup@eCAmbientOcclusionPreprocessor@@QEAA@_N@Z
??0eCAOMeshInstance@eCAmbientOcclusionPreprocessor@@QEAA@AEBV01@@Z
??0eCAOMeshInstance@eCAmbientOcclusionPreprocessor@@QEAA@AEBVbCMatrix@@PEAVeCAOMeshReciverBase@1@@Z
??0eCAOMeshLoD@eCAmbientOcclusionPreprocessor@@QEAA@AEBV01@@Z
??0eCAOMeshLoD@eCAmbientOcclusionPreprocessor@@QEAA@_N@Z
??0eCAOMeshReciverBase@eCAmbientOcclusionPreprocessor@@QEAA@AEBV01@@Z
??0eCAOMeshReciverBase@eCAmbientOcclusionPreprocessor@@QEAA@XZ
??0eCAOPerTriangleMesh16@eCAmbientOcclusionPreprocessor@@QEAA@AEBV01@@Z
??0eCAOPerTriangleMesh16@eCAmbientOcclusionPreprocessor@@QEAA@XZ
??0eCAOPerTriangleMesh@eCAmbientOcclusionPreprocessor@@QEAA@AEBV01@@Z
??0eCAOPerTriangleMesh@eCAmbientOcclusionPreprocessor@@QEAA@XZ
??0eCAOPerVertexMesh@eCAmbientOcclusionPreprocessor@@QEAA@AEBV01@@Z
??0eCAOPerVertexMesh@eCAmbientOcclusionPreprocessor@@QEAA@XZ
??0eCAOTreeNode@eCAmbientOcclusionPreprocessor@@QEAA@AEBV01@@Z
??0eCAOTreeNode@eCAmbientOcclusionPreprocessor@@QEAA@XZ
??0eCAPICubeMap@@IEAA@XZ
??0eCAPICubeMap@@QEAA@AEBV0@@Z
??0eCAPIDevice@@IEAA@XZ
??0eCAPIDevice@@QEAA@AEBV0@@Z
??0eCAPIEffect@@IEAA@XZ
??0eCAPIEffect@@QEAA@AEBV0@@Z
??0eCAPIFont@@IEAA@XZ
??0eCAPIFont@@QEAA@AEBV0@@Z
??0eCAPIHLSLShader@@IEAA@XZ
??0eCAPIHLSLShader@@QEAA@AEBV0@@Z
??0eCAPIIndexData@@IEAA@XZ
??0eCAPIIndexData@@QEAA@AEBV0@@Z
??0eCAPIInstance@@IEAA@XZ
??0eCAPIInstance@@QEAA@AEBV0@@Z
??0eCAPIPrimitive@@IEAA@XZ
??0eCAPIPrimitive@@QEAA@AEBV0@@Z
??0eCAPISprite@@IEAA@XZ
??0eCAPISprite@@QEAA@AEBV0@@Z
??0eCAPITexture@@IEAA@XZ
??0eCAPITexture@@QEAA@AEBV0@@Z
??0eCAPIVertexData@@IEAA@XZ
??0eCAPIVertexData@@QEAA@AEBV0@@Z
??0eCAPIVolume@@IEAA@XZ
??0eCAPIVolume@@QEAA@AEBV0@@Z
??0eCActorAttachment@@QEAA@AEBV0@@Z
??0eCActorAttachment@@QEAA@XZ
??0eCAmbientOcclusionPreprocessor@@QEAA@AEBV0@@Z
??0eCAmbientOcclusionPreprocessor@@QEAA@XZ
??0eCAnimation2Admin@@QEAA@AEBV0@@Z
??0eCAnimation2Admin@@QEAA@XZ
??0eCAnimationCollisionDesc@@QEAA@AEBV0@@Z
??0eCAnimationCollisionDesc@@QEAA@XZ
??0eCAnimation_HardRenderActor2@@QEAA@AEBV0@@Z
??0eCAnimation_HardRenderActor2@@QEAA@XZ
??0eCAnimation_PS@@QEAA@AEBV0@@Z
??0eCAnimation_PS@@QEAA@XZ
??0eCApplication@@QEAA@AEBV0@@Z
??0eCApplication@@QEAA@XZ
??0eCArchiveFile@@QEAA@AEBV0@@Z
??0eCArchiveFile@@QEAA@XZ
??0eCArchiveManager@@IEAA@XZ
??0eCAreaAdmin@@QEAA@AEBV0@@Z
??0eCAreaAdmin@@QEAA@XZ
??0eCArea_StringProperty_PS@@QEAA@AEBV0@@Z
??0eCArea_StringProperty_PS@@QEAA@XZ
??0eCAudioChannel@@QEAA@AEBV0@@Z
??0eCAudioChannel@@QEAA@XZ
??0eCAudioChannelGroup@@QEAA@AEBV0@@Z
??0eCAudioChannelGroup@@QEAA@XZ
??0eCAudioCodec@@QEAA@AEBV0@@Z
??0eCAudioCodec@@QEAA@XZ
??0eCAudioEmitter_PS@@QEAA@AEBV0@@Z
??0eCAudioEmitter_PS@@QEAA@XZ
??0eCAudioModule@@QEAA@AEBV0@@Z
??0eCAudioModule@@QEAA@XZ
??0eCAudioReverb@@QEAA@AEBV0@@Z
??0eCAudioReverb@@QEAA@XZ
??0eCAudioReverbPreset@@QEAA@AEBV0@@Z
??0eCAudioReverbPreset@@QEAA@XZ
??0eCAudioRollOffPreset@@QEAA@AEBV0@@Z
??0eCAudioRollOffPreset@@QEAA@XZ
??0eCAudioSound@@QEAA@AEBV0@@Z
??0eCAudioSound@@QEAA@XZ
??0eCAudioSystem@@QEAA@AEBV0@@Z
??0eCAudioSystem@@QEAA@XZ
??0eCBeamTree@@QEAA@AEBV0@@Z
??0eCBeamTree@@QEAA@XZ
??0eCBenchmark@@QEAA@AEBV0@@Z
??0eCBenchmark@@QEAA@XZ
??0eCBillboard@@QEAA@AEBV0@@Z
??0eCBillboard@@QEAA@AEBVbCString@@AEBVbCVector@@AEBVbCVector2@@M@Z
??0eCBillboard@@QEAA@XZ
??0eCBillboardAdmin@@QEAA@AEBV0@@Z
??0eCBillboardAdmin@@QEAA@XZ
??0eCBillboard_PS@@QEAA@AEBV0@@Z
??0eCBillboard_PS@@QEAA@XZ
??0eCBodyPart_PS@@QEAA@AEBV0@@Z
??0eCBodyPart_PS@@QEAA@XZ
??0eCButtonEventArgs@@IEAA@PEAVeCScriptRadioButton@@PEAX@Z
??0eCButtonEventArgs@@QEAA@AEBV0@@Z
??0eCCameraBase@@QEAA@AEBV0@@Z
??0eCCameraBase@@QEAA@XZ
??0eCCascadeShadowMap@@QEAA@AEBV0@@Z
??0eCCascadeShadowMap@@QEAA@XZ
??0eCCollisionDesc@@QEAA@AEBV0@@Z
??0eCCollisionDesc@@QEAA@XZ
??0eCCollisionDescMesh@@QEAA@AEBV0@@Z
??0eCCollisionDescMesh@@QEAA@XZ
??0eCCollisionMeshResource2@@QEAA@XZ
??0eCCollisionShape@@QEAA@AEBV0@@Z
??0eCCollisionShape@@QEAA@XZ
??0eCCollisionShapeBase_PS@@QEAA@AEBV0@@Z
??0eCCollisionShapeBase_PS@@QEAA@XZ
??0eCCollisionShape_PS@@QEAA@AEBV0@@Z
??0eCCollisionShape_PS@@QEAA@XZ
??0eCColorScale@@QEAA@AEBV0@@Z
??0eCColorScale@@QEAA@XZ
??0eCColorSrcBase@@QEAA@AEBV0@@Z
??0eCColorSrcBase@@QEAA@XZ
??0eCColorSrcBlend@@QEAA@AEBV0@@Z
??0eCColorSrcBlend@@QEAA@XZ
??0eCColorSrcCamDistance@@QEAA@AEBV0@@Z
??0eCColorSrcCamDistance@@QEAA@XZ
??0eCColorSrcCamObstacle@@QEAA@AEBV0@@Z
??0eCColorSrcCamObstacle@@QEAA@XZ
??0eCColorSrcCombiner@@QEAA@AEBV0@@Z
??0eCColorSrcCombiner@@QEAA@XZ
??0eCColorSrcConstant@@QEAA@AEBV0@@Z
??0eCColorSrcConstant@@QEAA@XZ
??0eCColorSrcConstantAnimation@@QEAA@AEBV0@@Z
??0eCColorSrcConstantAnimation@@QEAA@XZ
??0eCColorSrcConstantSwitch@@QEAA@AEBV0@@Z
??0eCColorSrcConstantSwitch@@QEAA@XZ
??0eCColorSrcCubeSampler@@QEAA@AEBV0@@Z
??0eCColorSrcCubeSampler@@QEAA@XZ
??0eCColorSrcFresnel@@QEAA@AEBV0@@Z
??0eCColorSrcFresnel@@QEAA@XZ
??0eCColorSrcMask@@QEAA@AEBV0@@Z
??0eCColorSrcMask@@QEAA@XZ
??0eCColorSrcProxy@@QEAA@AEBV0@@Z
??0eCColorSrcProxy@@QEAA@PEAVeCColorSrcBase@@@Z
??0eCColorSrcProxy@@QEAA@XZ
??0eCColorSrcSampler@@QEAA@AEBV0@@Z
??0eCColorSrcSampler@@QEAA@XZ
??0eCColorSrcSkydomeSampler@@QEAA@AEBV0@@Z
??0eCColorSrcSkydomeSampler@@QEAA@XZ
??0eCColorSrcVertexColor@@QEAA@AEBV0@@Z
??0eCColorSrcVertexColor@@QEAA@XZ
??0eCConfigAdmin@@QEAA@AEBV0@@Z
??0eCConfigAdmin@@QEAA@XZ
??0eCConfigFile@@QEAA@AEBV0@@Z
??0eCConfigFile@@QEAA@AEBVbCString@@@Z
??0eCConfigFile@@QEAA@XZ
??0eCConfigFile_KeyObject@@QEAA@AEAV0@@Z
??0eCConfigFile_KeyObject@@QEAA@AEBVbCString@@00@Z
??0eCConfigFile_KeyObject@@QEAA@AEBVbCString@@0@Z
??0eCConfigFile_KeyObject@@QEAA@AEBVbCString@@@Z
??0eCConfigFile_KeyObject@@QEAA@XZ
??0eCConfigFile_SectionObject@@QEAA@AEAV0@@Z
??0eCConfigFile_SectionObject@@QEAA@XZ
??0eCConfigMerger@@QEAA@XZ
??0eCConsole2@@QEAA@AEBV0@@Z
??0eCConsole2@@QEAA@XZ
??0eCContactIterator@@QEAA@AEAVNxContactPair@@@Z
??0eCContactIterator@@QEAA@AEBV0@@Z
??0eCContactIterator@@QEAA@W4eEPropertySetType@@@Z
??0eCContactIterator@@QEAA@W4eEPropertySetType@@AEBVbCVector@@@Z
??0eCContactIterator@@QEAA@W4eEPropertySetType@@AEBVbCVector@@AEAVbCString@@H@Z
??0eCContactIterator@@QEAA@W4eEPropertySetType@@AEBVbCVector@@PEAVeCCollisionShape@@@Z
??0eCContactIterator@@QEAA@XZ
??0eCContextBase@@QEAA@AEBV0@@Z
??0eCContextBase@@QEAA@XZ
??0eCDX9CubeMap@@IEAA@AEAUeSGfxLayersDesc@eCGfxShared@@EPEBXIPEAVeCDX9Device@@AEA_N@Z
??0eCDX9CubeMap@@IEAA@AEAUeSGfxLayersDesc@eCGfxShared@@EQEADPEAVeCDX9Device@@AEA_N@Z
??0eCDX9CubeMap@@IEAA@AEBUeSGfxLayersDesc@eCGfxShared@@PEAVeCDX9Device@@AEA_N@Z
??0eCDX9CubeMap@@QEAA@AEBV0@@Z
??0eCDX9Device@@IEAA@PEAUIDirect3DDevice9@@@Z
??0eCDX9Device@@QEAA@AEBV0@@Z
??0eCDX9Effect@@IEAA@PEBXIPEAVeCDX9Device@@PEAUID3DXEffectPool@@AEA_N@Z
??0eCDX9Effect@@QEAA@AEBV0@@Z
??0eCDX9Font@@IEAA@AEAUeSFontDesc@eCGfxShared@@PEAUIDirect3DDevice9@@PEAVeCDX9Device@@AEA_N@Z
??0eCDX9Font@@QEAA@AEBV0@@Z
??0eCDX9HLSLShader@@IEAA@PEAVeCDX9Device@@@Z
??0eCDX9HLSLShader@@QEAA@AEBV0@@Z
??0eCDX9IndexData@@IEAA@AEBUeSGfxIndexBufDesc@eCGfxShared@@PEAUIDirect3DDevice9@@AEA_N@Z
??0eCDX9IndexData@@IEAA@QEAUID3DXMesh@@PEAUIDirect3DDevice9@@@Z
??0eCDX9IndexData@@QEAA@AEBV0@@Z
??0eCDX9Instance@@IEAA@PEAPEAVeCAPIInstance@@@Z
??0eCDX9Instance@@QEAA@AEBV0@@Z
??0eCDX9Primitive@@QEAA@AEBV0@@Z
??0eCDX9Primitive@@QEAA@PEAVeCDX9Device@@@Z
??0eCDX9Sprite@@IEAA@AEAUeSSpriteDesc@eCGfxShared@@PEAUIDirect3DDevice9@@PEAVeCDX9Device@@AEA_N@Z
??0eCDX9Sprite@@QEAA@AEBV0@@Z
??0eCDX9Texture@@IEAA@AEAUeSGfxLayersDesc@eCGfxShared@@EPEBXIPEAVeCDX9Device@@AEA_N@Z
??0eCDX9Texture@@IEAA@AEAUeSGfxLayersDesc@eCGfxShared@@EQEADPEAVeCDX9Device@@AEA_N@Z
??0eCDX9Texture@@IEAA@AEBUeSGfxLayersDesc@eCGfxShared@@PEAVeCDX9Device@@AEA_N@Z
??0eCDX9Texture@@IEAA@PEAUIDirect3DTexture9@@PEAVeCDX9Device@@AEAUeSGfxLayersDesc@eCGfxShared@@@Z
??0eCDX9Texture@@QEAA@AEBV0@@Z
??0eCDX9VertexData@@IEAA@AEBUeSGfxVertexBufDesc@eCGfxShared@@PEAUIDirect3DDevice9@@AEA_N@Z
??0eCDX9VertexData@@IEAA@QEAUID3DXMesh@@PEAUIDirect3DDevice9@@@Z
??0eCDX9VertexData@@QEAA@AEBV0@@Z
??0eCDX9Volume@@IEAA@AEBUeSGfxLayersDesc@eCGfxShared@@PEAVeCDX9Device@@AEA_N@Z
??0eCDX9Volume@@QEAA@AEBV0@@Z
??0eCDebugModule@@QEAA@AEBV0@@Z
??0eCDebugModule@@QEAA@XZ
??0eCDecal@@IEAA@XZ
??0eCDecal@@QEAA@AEBV0@@Z
??0eCDecalAdmin@@QEAA@AEBV0@@Z
??0eCDecalAdmin@@QEAA@XZ
??0eCDecal_PS@@QEAA@AEBV0@@Z
??0eCDecal_PS@@QEAA@XZ
??0eCDeferredGuiBitmap2@@QEAA@AEBV0@@Z
??0eCDeferredGuiBitmap2@@QEAA@XZ
??0eCDeferredGuiCursor2@@QEAA@AEBV0@@Z
??0eCDeferredGuiCursor2@@QEAA@XZ
??0eCDeferredGuiFont2@@QEAA@AEBV0@@Z
??0eCDeferredGuiFont2@@QEAA@XZ
??0eCDepthMap@@QEAA@AEBV0@@Z
??0eCDepthMap@@QEAA@XZ
??0eCDirectionalLight_PS@@QEAA@AEBV0@@Z
??0eCDirectionalLight_PS@@QEAA@XZ
??0eCDocArchive@@QEAA@AEBV0@@Z
??0eCDocArchive@@QEAA@XZ
??0eCDocObject@@QEAA@$$QEAV0@@Z
??0eCDocObject@@QEAA@AEBV0@@Z
??0eCDocObject@@QEAA@XZ
??0eCDynamicEntity@@IEAA@AEBV0@@Z
??0eCDynamicEntity@@IEAA@XZ
??0eCDynamicLight_PS@@QEAA@AEBV0@@Z
??0eCDynamicLight_PS@@QEAA@XZ
??0eCEditEventArgs@@IEAA@PEAVeCScriptEdit@@PEAX@Z
??0eCEditEventArgs@@QEAA@AEBV0@@Z
??0eCEditorEntityPropertySet@@QEAA@AEBV0@@Z
??0eCEditorEntityPropertySet@@QEAA@XZ
??0eCEffectModuleBase@@QEAA@AEBV0@@Z
??0eCEffectModuleBase@@QEAA@XZ
??0eCEffectSystemBase@@QEAA@AEBV0@@Z
??0eCEffectSystemBase@@QEAA@XZ
??0eCEngineComponentBase@@QEAA@AEBV0@@Z
??0eCEngineComponentBase@@QEAA@XZ
??0eCEntity@@IEAA@AEBV0@@Z
??0eCEntity@@IEAA@XZ
??0eCEntityAdmin@@QEAA@AEBV0@@Z
??0eCEntityAdmin@@QEAA@XZ
??0eCEntityDynamicContext@@QEAA@AEBV0@@Z
??0eCEntityDynamicContext@@QEAA@XZ
??0eCEntityPropertySet@@QEAA@AEBV0@@Z
??0eCEntityPropertySet@@QEAA@XZ
??0eCEntityProxy@@QEAA@AEBV0@@Z
??0eCEntityProxy@@QEAA@PEAVeCEntity@@@Z
??0eCEntityProxy@@QEAA@XZ
??0eCEntityStringProxy@@QEAA@AEBV0@@Z
??0eCEntityStringProxy@@QEAA@AEBVbCString@@@Z
??0eCEntityStringProxy@@QEAA@PEAVeCEntity@@@Z
??0eCEntityStringProxy@@QEAA@XZ
??0eCFileChangeInterface@@QEAA@XZ
??0eCFileChangeListener@@AEAA@XZ
??0eCFixedGuiBitmapFont2@@QEAA@AEBV0@@Z
??0eCFixedGuiBitmapFont2@@QEAA@PEAVeCGuiFontCache2@@@Z
??0eCFloatScale@@QEAA@AEBV0@@Z
??0eCFloatScale@@QEAA@XZ
??0eCFnt@@QEAA@XZ
??0eCFont@@QEAA@AEBV0@@Z
??0eCFont@@QEAA@XZ
??0eCFrustumDatabase@@QEAA@AEBV0@@Z
??0eCFrustumDatabase@@QEAA@XZ
??0eCFrustumElementItem@@IEAA@AEBV0@@Z
??0eCFrustumElementItem@@QEAA@XZ
??0eCFrustumEx@@QEAA@AEBV0@@Z
??0eCFrustumEx@@QEAA@XZ
??0eCFrustumFilter@@QEAA@AEBV0@@Z
??0eCFrustumFilter@@QEAA@XZ
??0eCGenericEntityListener_PS@@QEAA@AEBV0@@Z
??0eCGenericEntityListener_PS@@QEAA@XZ
??0eCGeometryCollisionDesc@@QEAA@AEBV0@@Z
??0eCGeometryCollisionDesc@@QEAA@XZ
??0eCGeometryEntity@@IEAA@AEBV0@@Z
??0eCGeometryEntity@@IEAA@XZ
??0eCGfxAdmin@@QEAA@AEBV0@@Z
??0eCGfxAdmin@@QEAA@XZ
??0eCGfxAssistantAdmin@@IEAA@XZ
??0eCGfxAssistantAdmin@@QEAA@AEBV0@@Z
??0eCGfxCamera@@QEAA@AEBV0@@Z
??0eCGfxCamera@@QEAA@XZ
??0eCGfxCameraStates@@QEAA@AEBV0@@Z
??0eCGfxCameraStates@@QEAA@XZ
??0eCGfxContextAdmin@@IEAA@XZ
??0eCGfxContextAdmin@@QEAA@AEBV0@@Z
??0eCGfxEffect@@QEAA@AEBV0@@Z
??0eCGfxEffect@@QEAA@XZ
??0eCGfxFog@@QEAA@AEBV0@@Z
??0eCGfxFog@@QEAA@XZ
??0eCGfxGaugeAdmin@@IEAA@XZ
??0eCGfxGaugeAdmin@@QEAA@AEBV0@@Z
??0eCGfxHLSLShader@@QEAA@AEBV0@@Z
??0eCGfxHLSLShader@@QEAA@XZ
??0eCGfxImageData@@QEAA@AEBV0@@Z
??0eCGfxImageData@@QEAA@XZ
??0eCGfxImageDataGlyph@@QEAA@$$QEAV0@@Z
??0eCGfxImageDataGlyph@@QEAA@AEBV0@@Z
??0eCGfxImageDataGlyph@@QEAA@XZ
??0eCGfxIndexData@@QEAA@AEBV0@@Z
??0eCGfxIndexData@@QEAA@XZ
??0eCGfxLight@@QEAA@AEBV0@@Z
??0eCGfxLight@@QEAA@XZ
??0eCGfxMaterial@@QEAA@AEBV0@@Z
??0eCGfxMaterial@@QEAA@XZ
??0eCGfxMixerAdmin@@IEAA@XZ
??0eCGfxMixerAdmin@@QEAA@AEBV0@@Z
??0eCGfxObject@@QEAA@$$QEAV0@@Z
??0eCGfxObject@@QEAA@AEBV0@@Z
??0eCGfxObject@@QEAA@XZ
??0eCGfxPixelProgram@@QEAA@AEBV0@@Z
??0eCGfxPixelProgram@@QEAA@XZ
??0eCGfxShader@@QEAA@AEBV0@@Z
??0eCGfxShader@@QEAA@XZ
??0eCGfxTextureBlock@@QEAA@AEBV0@@Z
??0eCGfxTextureBlock@@QEAA@XZ
??0eCGfxVertexData@@QEAA@AEBV0@@Z
??0eCGfxVertexData@@QEAA@XZ
??0eCGfxVertexDecl@@QEAA@AEBV0@@Z
??0eCGfxVertexDecl@@QEAA@XZ
??0eCGfxVertexProgram@@QEAA@AEBV0@@Z
??0eCGfxVertexProgram@@QEAA@XZ
??0eCGfxVisual@@QEAA@AEBV0@@Z
??0eCGfxVisual@@QEAA@XZ
??0eCGfxVisualCollection@@QEAA@AEBV0@@Z
??0eCGfxVisualCollection@@QEAA@XZ
??0eCGizmoBase@@IEAA@XZ
??0eCGizmoBase@@QEAA@AEBV0@@Z
??0eCGizmoTransform@@IEAA@XZ
??0eCGizmoTransform@@QEAA@AEBV0@@Z
??0eCGizmoTransformCapsule@@IEAA@XZ
??0eCGizmoTransformCapsule@@QEAA@AEBV0@@Z
??0eCGizmoTransformCapsuleCollisionShape@@IEAA@XZ
??0eCGizmoTransformCapsuleCollisionShape@@QEAA@AEBV0@@Z
??0eCGizmoTransformOBB@@IEAA@XZ
??0eCGizmoTransformOBB@@QEAA@AEBV0@@Z
??0eCGizmoTransformOBBCollisionShape@@IEAA@XZ
??0eCGizmoTransformOBBCollisionShape@@QEAA@AEBV0@@Z
??0eCGizmoTransformSphere@@IEAA@XZ
??0eCGizmoTransformSphere@@QEAA@AEBV0@@Z
??0eCGizmoTransformSphereCollisionShape@@IEAA@XZ
??0eCGizmoTransformSphereCollisionShape@@QEAA@AEBV0@@Z
??0eCGizmoTranslateAndScale@@IEAA@XZ
??0eCGizmoTranslateAndScale@@QEAA@AEBV0@@Z
??0eCGizmoTranslateAndScaleBox@@IEAA@XZ
??0eCGizmoTranslateAndScaleBox@@QEAA@AEBV0@@Z
??0eCGizmoTranslateAndScaleSphere@@IEAA@XZ
??0eCGizmoTranslateAndScaleSphere@@QEAA@AEBV0@@Z
??0eCGlobalStatistics@@QEAA@XZ
??0eCGlyphOutline@@QEAA@AEBV0@@Z
??0eCGlyphOutline@@QEAA@XZ
??0eCGlyphSheet@@QEAA@XZ
??0eCGlyphSheetCollection@@QEAA@AEBV0@@Z
??0eCGlyphSheetCollection@@QEAA@XZ
??0eCGuiAnimImage2@@QEAA@AEBV0@@Z
??0eCGuiAnimImage2@@QEAA@PEAVeCGuiImageList2@@@Z
??0eCGuiBaseBitmap2@@QEAA@$$QEAV0@@Z
??0eCGuiBaseBitmap2@@QEAA@AEBV0@@Z
??0eCGuiBaseBitmap2@@QEAA@XZ
??0eCGuiBaseCursor2@@QEAA@$$QEAV0@@Z
??0eCGuiBaseCursor2@@QEAA@AEBV0@@Z
??0eCGuiBaseCursor2@@QEAA@XZ
??0eCGuiBaseFont2@@QEAA@AEBV0@@Z
??0eCGuiBaseFont2@@QEAA@XZ
??0eCGuiBitmap2@@QEAA@AEBV0@@Z
??0eCGuiBitmap2@@QEAA@XZ
??0eCGuiBitmapFont2@@QEAA@AEBV0@@Z
??0eCGuiBitmapFont2@@QEAA@PEAVeCGuiFontCache2@@@Z
??0eCGuiBitmapList2@@QEAA@AEBV0@@Z
??0eCGuiBitmapList2@@QEAA@XZ
??0eCGuiBitmapProxy2@@QEAA@XZ
??0eCGuiButton2@@QEAA@AEBV0@@Z
??0eCGuiButton2@@QEAA@XZ
??0eCGuiCheckBox2@@QEAA@AEBV0@@Z
??0eCGuiCheckBox2@@QEAA@XZ
??0eCGuiCursor2@@QEAA@AEBV0@@Z
??0eCGuiCursor2@@QEAA@XZ
??0eCGuiCursorProxy2@@QEAA@XZ
??0eCGuiDevice2@@QEAA@AEBV0@@Z
??0eCGuiDevice2@@QEAA@XZ
??0eCGuiDropSource2@@QEAA@AEBV0@@Z
??0eCGuiDropSource2@@QEAA@PEAVeCGuiWindow2@@@Z
??0eCGuiDropTarget2@@AEAA@XZ
??0eCGuiDropTarget2@@QEAA@AEBV0@@Z
??0eCGuiEdit2@@QEAA@AEBV0@@Z
??0eCGuiEdit2@@QEAA@XZ
??0eCGuiFont2@@QEAA@AEBV0@@Z
??0eCGuiFont2@@QEAA@PEAVeCGuiFontCache2@@@Z
??0eCGuiFontFile2@@QEAA@AEBV0@@Z
??0eCGuiFontFile2@@QEAA@XZ
??0eCGuiFontProxy2@@QEAA@XZ
??0eCGuiFrame2@@QEAA@AEBV0@@Z
??0eCGuiFrame2@@QEAA@XZ
??0eCGuiGroupBox2@@QEAA@AEBV0@@Z
??0eCGuiGroupBox2@@QEAA@XZ
??0eCGuiImage2@@QEAA@AEBV0@@Z
??0eCGuiImage2@@QEAA@PEAVeCGuiImageList2@@@Z
??0eCGuiImageCollection2@@QEAA@AEBV0@@Z
??0eCGuiImageCollection2@@QEAA@XZ
??0eCGuiImageList2@@QEAA@AEBV0@@Z
??0eCGuiImageList2@@QEAA@XZ
??0eCGuiLayeredImage2@@QEAA@AEBV0@@Z
??0eCGuiLayeredImage2@@QEAA@PEAVeCGuiImageList2@@@Z
??0eCGuiListCtrl2@@QEAA@AEBV0@@Z
??0eCGuiListCtrl2@@QEAA@XZ
??0eCGuiModule2@@QEAA@AEBV0@@Z
??0eCGuiModule2@@QEAA@XZ
??0eCGuiPanel2@@QEAA@AEBV0@@Z
??0eCGuiPanel2@@QEAA@XZ
??0eCGuiPictureBox2@@QEAA@AEBV0@@Z
??0eCGuiPictureBox2@@QEAA@XZ
??0eCGuiProgressBar2@@QEAA@AEBV0@@Z
??0eCGuiProgressBar2@@QEAA@XZ
??0eCGuiPushButton2@@QEAA@AEBV0@@Z
??0eCGuiPushButton2@@QEAA@XZ
??0eCGuiRadioButton2@@QEAA@AEBV0@@Z
??0eCGuiRadioButton2@@QEAA@XZ
??0eCGuiResource2@@QEAA@AEBV0@@Z
??0eCGuiResource2@@QEAA@XZ
??0eCGuiScrollBar2@@QEAA@AEBV0@@Z
??0eCGuiScrollBar2@@QEAA@XZ
??0eCGuiSplitImage2@@QEAA@AEBV0@@Z
??0eCGuiSplitImage2@@QEAA@PEAVeCGuiImageList2@@@Z
??0eCGuiStatic2@@QEAA@AEBV0@@Z
??0eCGuiStatic2@@QEAA@XZ
??0eCGuiSystemFont2@@QEAA@AEBV0@@Z
??0eCGuiSystemFont2@@QEAA@PEAVeCGuiFontCache2@@@Z
??0eCGuiSystemFontDesc2@@QEAA@$$QEAV0@@Z
??0eCGuiSystemFontDesc2@@QEAA@AEBV0@@Z
??0eCGuiSystemFontDesc2@@QEAA@XZ
??0eCGuiSystemFontLanguage2@@QEAA@$$QEAV0@@Z
??0eCGuiSystemFontLanguage2@@QEAA@AEBV0@@Z
??0eCGuiSystemFontLanguage2@@QEAA@XZ
??0eCGuiTexture2@@QEAA@AEBV0@@Z
??0eCGuiTexture2@@QEAA@XZ
??0eCGuiToolTipCtrl2@@QEAA@AEBV0@@Z
??0eCGuiToolTipCtrl2@@QEAA@XZ
??0eCGuiTooltipData2@@IEAA@PEAVeCGuiWindow2@@@Z
??0eCGuiTooltipData2@@QEAA@$$QEAV0@@Z
??0eCGuiTooltipData2@@QEAA@AEBV0@@Z
??0eCGuiTooltipTextCtrl2@@QEAA@AEBV0@@Z
??0eCGuiTooltipTextCtrl2@@QEAA@XZ
??0eCGuiTrackBar2@@QEAA@AEBV0@@Z
??0eCGuiTrackBar2@@QEAA@XZ
??0eCGuiWindow2@@QEAA@AEBV0@@Z
??0eCGuiWindow2@@QEAA@XZ
??0eCHemisphere_PS@@QEAA@AEBV0@@Z
??0eCHemisphere_PS@@QEAA@XZ
??0eCIlluminated_PS@@QEAA@AEBV0@@Z
??0eCIlluminated_PS@@QEAA@XZ
??0eCIlluminationAdmin@@QEAA@AEBV0@@Z
??0eCIlluminationAdmin@@QEAA@XZ
??0eCImageEffect@@QEAA@AEBV0@@Z
??0eCImageEffect@@QEAA@XZ
??0eCImageFilterAdmin@@QEAA@AEBV0@@Z
??0eCImageFilterAdmin@@QEAA@XZ
??0eCImageFilterBase@@QEAA@AEBV0@@Z
??0eCImageFilterBase@@QEAA@XZ
??0eCImageFilterCopy@@QEAA@AEBV0@@Z
??0eCImageFilterCopy@@QEAA@XZ
??0eCImageFilterEffect@@QEAA@AEBV0@@Z
??0eCImageFilterEffect@@QEAA@XZ
??0eCImageFilterImage@@QEAA@AEBV0@@Z
??0eCImageFilterImage@@QEAA@XZ
??0eCImageFilterImageEffect@@QEAA@AEBV0@@Z
??0eCImageFilterImageEffect@@QEAA@XZ
??0eCImageFilterRTBase@@QEAA@AEBV0@@Z
??0eCImageFilterRTBase@@QEAA@XZ
??0eCImageFilterScene@@QEAA@AEBV0@@Z
??0eCImageFilterScene@@QEAA@XZ
??0eCImageFilterShadowMask@@QEAA@AEBV0@@Z
??0eCImageFilterShadowMask@@QEAA@XZ
??0eCImageFilterTexture@@QEAA@AEBV0@@Z
??0eCImageFilterTexture@@QEAA@XZ
??0eCImageFilterTextureRandom@@QEAA@AEBV0@@Z
??0eCImageFilterTextureRandom@@QEAA@XZ
??0eCImageResource2@@QEAA@XZ
??0eCInputAdmin@@QEAA@AEBV0@@Z
??0eCInputAdmin@@QEAA@XZ
??0eCInputX360@@QEAA@XZ
??0eCIterator@@QEAA@AEBV0@@Z
??0eCIterator@@QEAA@XZ
??0eCIteratorPrimitive@@QEAA@AEBV0@@Z
??0eCIteratorPrimitive@@QEAA@XZ
??0eCIteratorPrimitiveBillboard@@QEAA@AEBV0@@Z
??0eCIteratorPrimitiveBillboard@@QEAA@AEBVbCString@@@Z
??0eCIteratorPrimitiveBillboard@@QEAA@XZ
??0eCIteratorPrimitiveIndexedTriangleList@@QEAA@AEBV0@@Z
??0eCIteratorPrimitiveIndexedTriangleList@@QEAA@XZ
??0eCIteratorPrimitiveLineList@@QEAA@AEBV0@@Z
??0eCIteratorPrimitiveLineList@@QEAA@XZ
??0eCIteratorPrimitiveTriangleList@@QEAA@AEBV0@@Z
??0eCIteratorPrimitiveTriangleList@@QEAA@XZ
??0eCIteratorReport@@QEAA@XZ
??0eCLameMp3Codec@@QEAA@AEBV0@@Z
??0eCLameMp3Codec@@QEAA@H@Z
??0eCLameMp3Codec@@QEAA@HHM@Z
??0eCLameMp3Codec@@QEAA@XZ
??0eCLightSet@@IEAA@AEBV0@@Z
??0eCLightSet@@IEAA@XZ
??0eCLightStreaks_PS@@QEAA@AEBV0@@Z
??0eCLightStreaks_PS@@QEAA@XZ
??0eCLightmapBatcher@@QEAA@AEBV0@@Z
??0eCLightmapBatcher@@QEAA@HHH@Z
??0eCLightmapBitmap@@QEAA@XZ
??0eCLightmapPreprocessor@@QEAA@AEBV0@@Z
??0eCLightmapPreprocessor@@QEAA@XZ
??0eCListCtrlEventArgs@@IEAA@PEAVeCScriptListCtrl@@PEAX@Z
??0eCListCtrlEventArgs@@QEAA@AEBV0@@Z
??0eCLocAdmin2@@IEAA@AEBV0@@Z
??0eCLocAdmin2@@IEAA@XZ
??0eCLocString@@QEAA@AEBV0@@Z
??0eCLocString@@QEAA@AEBVbCString@@@Z
??0eCLocString@@QEAA@XZ
??0eCLocStringEx@@QEAA@AEBV0@@Z
??0eCLocStringEx@@QEAA@AEBVbCString@@0@Z
??0eCLocStringEx@@QEAA@XZ
??0eCMaterialResource2@@QEAA@XZ
??0eCMeshResource2@@QEAA@XZ
??0eCMesh_PS@@QEAA@AEBV0@@Z
??0eCMesh_PS@@QEAA@XZ
??0eCMessageHandler@@QEAA@AEBV0@@Z
??0eCMessageHandler@@QEAA@XZ
??0eCModuleAdmin@@QEAA@AEBV0@@Z
??0eCModuleAdmin@@QEAA@XZ
??0eCMotionActorResource2@@QEAA@XZ
??0eCMotionResource2@@QEAA@XZ
??0eCMoverAnimationBase@@QEAA@AEBV0@@Z
??0eCMoverAnimationBase@@QEAA@XZ
??0eCMoverAnimationBezier@@QEAA@AEBV0@@Z
??0eCMoverAnimationBezier@@QEAA@XZ
??0eCMoverAnimationFile@@QEAA@AEBV0@@Z
??0eCMoverAnimationFile@@QEAA@XZ
??0eCMoverAnimationHermit@@QEAA@AEBV0@@Z
??0eCMoverAnimationHermit@@QEAA@XZ
??0eCMoverAnimationKFBase@@QEAA@AEBV0@@Z
??0eCMoverAnimationKFBase@@QEAA@XZ
??0eCMoverAnimationLinear@@QEAA@AEBV0@@Z
??0eCMoverAnimationLinear@@QEAA@XZ
??0eCMoverAnimationRotate@@QEAA@AEBV0@@Z
??0eCMoverAnimationRotate@@QEAA@XZ
??0eCMoverAnimationSkeletal@@QEAA@AEBV0@@Z
??0eCMoverAnimationSkeletal@@QEAA@XZ
??0eCMoverAnimationTCB@@QEAA@AEBV0@@Z
??0eCMoverAnimationTCB@@QEAA@XZ
??0eCMover_PS@@QEAA@AEBV0@@Z
??0eCMover_PS@@QEAA@XZ
??0eCNode@@QEAA@AEBV0@@Z
??0eCNode@@QEAA@XZ
??0eCOccluder_PS@@QEAA@AEBV0@@Z
??0eCOccluder_PS@@QEAA@XZ
??0eCPSMap@@QEAA@XZ
??0eCPackedShadowMap@@QEAA@AEBV0@@Z
??0eCPackedShadowMap@@QEAA@XZ
??0eCParticleMaterial@@IEAA@XZ
??0eCParticleMaterial@@QEAA@AEBV0@@Z
??0eCParticleMaterialBlendSubdivisions@@QEAA@$$QEAV0@@Z
??0eCParticleMaterialBlendSubdivisions@@QEAA@AEBV0@@Z
??0eCParticleMaterialBlendSubdivisions@@QEAA@XZ
??0eCParticleMaterialSimple@@QEAA@$$QEAV0@@Z
??0eCParticleMaterialSimple@@QEAA@AEBV0@@Z
??0eCParticleMaterialSimple@@QEAA@XZ
??0eCParticleModule@@QEAA@AEBV0@@Z
??0eCParticleModule@@QEAA@XZ
??0eCParticle_PS@@QEAA@AEBV0@@Z
??0eCParticle_PS@@QEAA@XZ
??0eCPhysicObject@@QEAA@AEAVeCGeometryEntity@@@Z
??0eCPhysicObject@@QEAA@AEAVeCGeometryEntity@@AEAV?$bTPtrArray@PEAVNxActor@@@@@Z
??0eCPhysicObject@@QEAA@AEBV0@@Z
??0eCPhysicObjectStateBuffer@@QEAA@AEBV0@@Z
??0eCPhysicObjectStateBuffer@@QEAA@XZ
??0eCPhysicQueryReport@@QEAA@AEBV0@@Z
??0eCPhysicQueryReport@@QEAA@XZ
??0eCPhysicalFileSystem@@IEAA@XZ
??0eCPhysicsScene@@QEAA@XZ
??0eCPhysicsScene_PS@@QEAA@AEBV0@@Z
??0eCPhysicsScene_PS@@QEAA@XZ
??0eCPointLight_PS@@QEAA@AEBV0@@Z
??0eCPointLight_PS@@QEAA@XZ
??0eCPolyGeometryCollisionDesc@@QEAA@AEBV0@@Z
??0eCPolyGeometryCollisionDesc@@QEAA@AEBVeCGeometryCollisionDesc@@@Z
??0eCPolyGeometryCollisionDesc@@QEAA@XZ
??0eCPortal@@QEAA@AEBV0@@Z
??0eCPortal@@QEAA@XZ
??0eCPortalAdmin@@QEAA@AEBV0@@Z
??0eCPortalAdmin@@QEAA@XZ
??0eCPortalCell_PS@@QEAA@AEBV0@@Z
??0eCPortalCell_PS@@QEAA@XZ
??0eCPortalRoom_PS@@QEAA@AEBV0@@Z
??0eCPortalRoom_PS@@QEAA@XZ
??0eCPrecipitation_PS@@QEAA@AEBV0@@Z
??0eCPrecipitation_PS@@QEAA@XZ
??0eCPrefetchAdmin@@QEAA@AEBV0@@Z
??0eCPrefetchAdmin@@QEAA@XZ
??0eCPrimitiveCollisionDesc@@QEAA@AEBV0@@Z
??0eCPrimitiveCollisionDesc@@QEAA@XZ
??0eCPrimitiveStateGraphArrow@@QEAA@AEBV0@@Z
??0eCPrimitiveStateGraphArrow@@QEAA@K@Z
??0eCPrimitiveStateGraphLine@@QEAA@AEBV0@@Z
??0eCPrimitiveStateGraphLine@@QEAA@K@Z
??0eCProcessible@@QEAA@AEBV0@@Z
??0eCProcessible@@QEAA@XZ
??0eCProcessibleElement@@QEAA@AEBV0@@Z
??0eCProcessibleElement@@QEAA@XZ
??0eCProcessor@@AEAA@XZ
??0eCProfilerAdmin@@QEAA@AEBV0@@Z
??0eCProfilerAdmin@@QEAA@XZ
??0eCProgressbarEventArgs@@IEAA@PEAVeCScriptProgressbar@@PEAX@Z
??0eCProgressbarEventArgs@@QEAA@AEBV0@@Z
??0eCPropertyProxy@@QEAA@AEBV0@@Z
??0eCPropertyProxy@@QEAA@XZ
??0eCPropertySetProxy@@QEAA@AEBV0@@Z
??0eCPropertySetProxy@@QEAA@XZ
??0eCRenderContext@@QEAA@AEBV0@@Z
??0eCRenderContext@@QEAA@XZ
??0eCRenderContextAnimation2@@QEAA@AEBV0@@Z
??0eCRenderContextAnimation2@@QEAA@XZ
??0eCRenderContextDebug@@QEAA@AEBV0@@Z
??0eCRenderContextDebug@@QEAA@XZ
??0eCRenderContextMesh@@QEAA@AEBV0@@Z
??0eCRenderContextMesh@@QEAA@XZ
??0eCRenderContextSpeedTree@@QEAA@AEBV0@@Z
??0eCRenderContextSpeedTree@@QEAA@XZ
??0eCRenderContextSpeedTreeBB@@QEAA@AEBV0@@Z
??0eCRenderContextSpeedTreeBB@@QEAA@XZ
??0eCRenderContextVegetation@@QEAA@AEBV0@@Z
??0eCRenderContextVegetation@@QEAA@XZ
??0eCRenderOp2@@QEAA@XZ
??0eCRenderSystemAdmin@@QEAA@AEBV0@@Z
??0eCRenderSystemAdmin@@QEAA@XZ
??0eCResource2@@QEAA@XZ
??0eCResourceCache2@@QEAA@XZ
??0eCResourceInputStream2@@QEAA@AEAVCFXVirtualFile@@KKK@Z
??0eCResourceInputStream2@@QEAA@AEBV0@@Z
??0eCResourceInputStream2@@QEAA@XZ
??0eCResourceModule2@@QEAA@AEBV0@@Z
??0eCResourceModule2@@QEAA@XZ
??0eCResourceOutputStream2@@QEAA@AEBV0@@Z
??0eCResourceOutputStream2@@QEAA@XZ
??0eCRigidBodyBase_PS@@QEAA@AEBV0@@Z
??0eCRigidBodyBase_PS@@QEAA@XZ
??0eCRigidBody_PS@@QEAA@AEBV0@@Z
??0eCRigidBody_PS@@QEAA@XZ
??0eCSceneAdmin@@IEAA@AEBV0@@Z
??0eCSceneAdmin@@QEAA@XZ
??0eCScriptAdminBase@@QEAA@AEBV0@@Z
??0eCScriptAdminBase@@QEAA@XZ
??0eCScriptEdit@@QEAA@AEBV0@@Z
??0eCScriptEdit@@QEAA@XZ
??0eCScriptEventArgs@@IEAA@PEAVeCGuiWindow2@@PEAX@Z
??0eCScriptEventArgs@@QEAA@AEBV0@@Z
??0eCScriptFunctionMap@@QEAA@AEBV0@@Z
??0eCScriptFunctionMap@@QEAA@XZ
??0eCScriptListCtrl@@QEAA@AEBV0@@Z
??0eCScriptListCtrl@@QEAA@XZ
??0eCScriptProgressbar@@QEAA@AEBV0@@Z
??0eCScriptProgressbar@@QEAA@XZ
??0eCScriptProxy@@QEAA@AEBV0@@Z
??0eCScriptProxy@@QEAA@XZ
??0eCScriptProxyScript@@QEAA@AEBV0@@Z
??0eCScriptProxyScript@@QEAA@AEBVbCString@@@Z
??0eCScriptProxyScript@@QEAA@PEAUeSScriptBase@@@Z
??0eCScriptProxyScript@@QEAA@XZ
??0eCScriptRadioButton@@QEAA@AEBV0@@Z
??0eCScriptRadioButton@@QEAA@XZ
??0eCScriptStatic@@QEAA@AEBV0@@Z
??0eCScriptStatic@@QEAA@XZ
??0eCScriptTrackbar@@QEAA@AEBV0@@Z
??0eCScriptTrackbar@@QEAA@XZ
??0eCShaderBase@@QEAA@AEBV0@@Z
??0eCShaderBase@@QEAA@XZ
??0eCShaderDefault@@QEAA@AEBV0@@Z
??0eCShaderDefault@@QEAA@XZ
??0eCShaderEllementBase@@QEAA@AEBV0@@Z
??0eCShaderEllementBase@@QEAA@XZ
??0eCShaderEllementProxy@@QEAA@AEBV0@@Z
??0eCShaderEllementProxy@@QEAA@XZ
??0eCShaderLeafs@@QEAA@AEBV0@@Z
??0eCShaderLeafs@@QEAA@XZ
??0eCShaderLightStreaks@@QEAA@AEBV0@@Z
??0eCShaderLightStreaks@@QEAA@XZ
??0eCShaderMaterialAdmin@@QEAA@AEBV0@@Z
??0eCShaderMaterialAdmin@@QEAA@XZ
??0eCShaderParticle@@QEAA@AEBV0@@Z
??0eCShaderParticle@@QEAA@XZ
??0eCShaderSkyDome@@QEAA@AEBV0@@Z
??0eCShaderSkyDome@@QEAA@XZ
??0eCShadowMapBase@@QEAA@AEBV0@@Z
??0eCShadowMapBase@@QEAA@XZ
??0eCShadowMapDirectionalLight2@@QEAA@AEBV0@@Z
??0eCShadowMapDirectionalLight2@@QEAA@XZ
??0eCShadowMapDirectionalLight2Ex@@QEAA@AEBV0@@Z
??0eCShadowMapDirectionalLight2Ex@@QEAA@XZ
??0eCShadowMapDirectionalLight2VS@@QEAA@AEBV0@@Z
??0eCShadowMapDirectionalLight2VS@@QEAA@XZ
??0eCShadowMapPointLight@@QEAA@AEBV0@@Z
??0eCShadowMapPointLight@@QEAA@XZ
??0eCShadowMapSpotLight@@QEAA@AEBV0@@Z
??0eCShadowMapSpotLight@@QEAA@XZ
??0eCSkyObject@@QEAA@AEBV0@@Z
??0eCSkyObject@@QEAA@XZ
??0eCSkydome_PS@@QEAA@AEBV0@@Z
??0eCSkydome_PS@@QEAA@XZ
??0eCSoundResource2@@QEAA@XZ
??0eCSpeedTreeAdmin@@QEAA@AEBV0@@Z
??0eCSpeedTreeAdmin@@QEAA@XZ
??0eCSpeedTreeBBMesh_PS@@QEAA@AEBV0@@Z
??0eCSpeedTreeBBMesh_PS@@QEAA@XZ
??0eCSpeedTreeCollisionDesc@@QEAA@AEBV0@@Z
??0eCSpeedTreeCollisionDesc@@QEAA@XZ
??0eCSpeedTreeRenderBuffer@@QEAA@AEBV0@@Z
??0eCSpeedTreeRenderBuffer@@QEAA@XZ
??0eCSpeedTreeResource2@@QEAA@XZ
??0eCSpeedTreeWind_PS@@QEAA@AEBV0@@Z
??0eCSpeedTreeWind_PS@@QEAA@XZ
??0eCSpeedTree_PS@@QEAA@AEBV0@@Z
??0eCSpeedTree_PS@@QEAA@XZ
??0eCSplash@@QEAA@AEBV0@@Z
??0eCSplash@@QEAA@AEBVbCString@@K@Z
??0eCSplash@@QEAA@XZ
??0eCSprite@@QEAA@AEBV0@@Z
??0eCSprite@@QEAA@XZ
??0eCSpriteEffect@@QEAA@XZ
??0eCSpriteMesh@@QEAA@XZ
??0eCStaticAmbientLight_PS@@QEAA@AEBV0@@Z
??0eCStaticAmbientLight_PS@@QEAA@XZ
??0eCStaticEventArgs@@IEAA@PEAVeCScriptStatic@@PEAX@Z
??0eCStaticEventArgs@@QEAA@AEBV0@@Z
??0eCStaticLightPreprocessor@@QEAA@AEBV0@@Z
??0eCStaticLightPreprocessor@@QEAA@XZ
??0eCStaticLight_PS@@QEAA@AEBV0@@Z
??0eCStaticLight_PS@@QEAA@XZ
??0eCStaticPointLight_PS@@QEAA@AEBV0@@Z
??0eCStaticPointLight_PS@@QEAA@XZ
??0eCStatistic@@QEAA@AEBV0@@Z
??0eCStatistic@@QEAA@AEBVbCString@@@Z
??0eCStatisticList@@QEAA@AEBV0@@Z
??0eCStatisticList@@QEAA@AEBVbCString@@@Z
??0eCStatisticScreen@@QEAA@AEBV0@@Z
??0eCStatisticScreen@@QEAA@XZ
??0eCStatisticText@@QEAA@AEBV0@@Z
??0eCStatisticText@@QEAA@AEBVbCString@@@Z
??0eCStatisticView@@QEAA@AEBV0@@Z
??0eCStatisticView@@QEAA@XZ
??0eCStatisticViewList@@QEAA@AEBV0@@Z
??0eCStatisticViewList@@QEAA@XZ
??0eCStatisticViewText@@QEAA@AEBV0@@Z
??0eCStatisticViewText@@QEAA@XZ
??0eCStrip_PS@@QEAA@AEBV0@@Z
??0eCStrip_PS@@QEAA@XZ
??0eCSubMesh@@QEAA@AEBV0@@Z
??0eCSubMesh@@QEAA@XZ
??0eCTemplateEntity@@IEAA@AEBV0@@Z
??0eCTemplateEntity@@IEAA@XZ
??0eCTemplateEntityProxy@@QEAA@AEBV0@@Z
??0eCTemplateEntityProxy@@QEAA@PEAVeCTemplateEntity@@@Z
??0eCTemplateEntityProxy@@QEAA@XZ
??0eCTexCoordSrcBase@@QEAA@AEBV0@@Z
??0eCTexCoordSrcBase@@QEAA@XZ
??0eCTexCoordSrcBumpOffset@@QEAA@AEBV0@@Z
??0eCTexCoordSrcBumpOffset@@QEAA@XZ
??0eCTexCoordSrcColor@@QEAA@AEBV0@@Z
??0eCTexCoordSrcColor@@QEAA@XZ
??0eCTexCoordSrcOscillator@@QEAA@AEBV0@@Z
??0eCTexCoordSrcOscillator@@QEAA@XZ
??0eCTexCoordSrcProxy@@QEAA@AEBV0@@Z
??0eCTexCoordSrcProxy@@QEAA@PEAVeCTexCoordSrcBase@@@Z
??0eCTexCoordSrcProxy@@QEAA@XZ
??0eCTexCoordSrcReflect@@QEAA@AEBV0@@Z
??0eCTexCoordSrcReflect@@QEAA@XZ
??0eCTexCoordSrcRotator@@QEAA@AEBV0@@Z
??0eCTexCoordSrcRotator@@QEAA@XZ
??0eCTexCoordSrcScale@@QEAA@AEBV0@@Z
??0eCTexCoordSrcScale@@QEAA@XZ
??0eCTexCoordSrcScroller@@QEAA@AEBV0@@Z
??0eCTexCoordSrcScroller@@QEAA@XZ
??0eCTimer@@QEAA@AEBV0@@Z
??0eCTimer@@QEAA@XZ
??0eCTipLocString@@QEAA@$$QEAV0@@Z
??0eCTipLocString@@QEAA@AEBV0@@Z
??0eCTipLocString@@QEAA@XZ
??0eCTrackbarEventArgs@@IEAA@PEAVeCScriptTrackbar@@PEAX@Z
??0eCTrackbarEventArgs@@QEAA@AEBV0@@Z
??0eCUnicodeConfigFile@@QEAA@AEBV0@@Z
??0eCUnicodeConfigFile@@QEAA@AEBVbCString@@@Z
??0eCUnicodeConfigFile@@QEAA@XZ
??0eCUnicodeConfigFile_KeyObject@@QEAA@AEAV0@@Z
??0eCUnicodeConfigFile_KeyObject@@QEAA@AEBVbCUnicodeString@@00@Z
??0eCUnicodeConfigFile_KeyObject@@QEAA@AEBVbCUnicodeString@@0@Z
??0eCUnicodeConfigFile_KeyObject@@QEAA@AEBVbCUnicodeString@@@Z
??0eCUnicodeConfigFile_KeyObject@@QEAA@XZ
??0eCUnicodeConfigFile_SectionObject@@QEAA@AEAV0@@Z
??0eCUnicodeConfigFile_SectionObject@@QEAA@XZ
??0eCVectorScale@@QEAA@AEBV0@@Z
??0eCVectorScale@@QEAA@XZ
??0eCVegetationAdmin@@QEAA@AEBV0@@Z
??0eCVegetationAdmin@@QEAA@XZ
??0eCVegetationBrush_PS@@QEAA@AEBV0@@Z
??0eCVegetationBrush_PS@@QEAA@XZ
??0eCVegetation_Grid@@QEAA@AEBV0@@Z
??0eCVegetation_Grid@@QEAA@XZ
??0eCVegetation_GridNode@@QEAA@AEBV0@@Z
??0eCVegetation_GridNode@@QEAA@XZ
??0eCVegetation_Mesh@@QEAA@AEBV0@@Z
??0eCVegetation_Mesh@@QEAA@XZ
??0eCVegetation_PS@@QEAA@AEBV0@@Z
??0eCVegetation_PS@@QEAA@XZ
??0eCVertexBufferArray@@QEAA@AEBV0@@Z
??0eCVertexBufferArray@@QEAA@PEAVeCGfxVertexData@@K_N@Z
??0eCVertexBufferArray@@QEAA@PEAVeCGfxVertexData@@PEAVeCGfxVertexDecl@@H_N@Z
??0eCVertexBufferArray@@QEAA@XZ
??0eCVirtualFileSystem@@IEAA@XZ
??0eCVirtualFileSystem@@QEAA@AEBV0@@Z
??0eCWeatherAdmin@@QEAA@AEBV0@@Z
??0eCWeatherAdmin@@QEAA@XZ
??0eCWeatherEnvironment@@QEAA@AEBV0@@Z
??0eCWeatherEnvironment@@QEAA@XZ
??0eCWeatherStates@@QEAA@AEBV0@@Z
??0eCWeatherStates@@QEAA@XZ
??0eCWeatherZone_PS@@QEAA@AEBV0@@Z
??0eCWeatherZone_PS@@QEAA@XZ
??0eCWindow@@QEAA@AEBV0@@Z
??0eCWindow@@QEAA@XZ
??0eCWraper_SpeedTreeRT@@QEAA@AEBV0@@Z
??0eCWraper_SpeedTreeRT@@QEAA@XZ
??0eCWrapper_emfx3ActorInstance@@QEAA@AEBV0@@Z
??0eCWrapper_emfx3ActorInstance@@QEAA@XZ
??0eCWrapper_emfx3SkeletalMotion@@QEAA@AEBV0@@Z
??0eCWrapper_emfx3SkeletalMotion@@QEAA@XZ
??0eCXMLFile@@QEAA@XZ
??0eIGuiBitmap2@@QEAA@$$QEAV0@@Z
??0eIGuiBitmap2@@QEAA@AEBV0@@Z
??0eIGuiBitmap2@@QEAA@XZ
??0eIGuiCursor2@@QEAA@$$QEAV0@@Z
??0eIGuiCursor2@@QEAA@AEBV0@@Z
??0eIGuiCursor2@@QEAA@XZ
??0eIGuiFont2@@QEAA@$$QEAV0@@Z
??0eIGuiFont2@@QEAA@AEBV0@@Z
??0eIGuiFont2@@QEAA@XZ
??0eIGuiImageList2@@QEAA@$$QEAV0@@Z
??0eIGuiImageList2@@QEAA@AEBV0@@Z
??0eIGuiImageList2@@QEAA@XZ
??0eSAnimationOptions@@QEAA@XZ
??0eSAudioOptions@@QEAA@XZ
??0eSDebugOptions@@QEAA@XZ
??0eSFPUOptions@@QEAA@XZ
??0eSGizmoPickInfo@@QEAA@$$QEAU0@@Z
??0eSGizmoPickInfo@@QEAA@AEBU0@@Z
??0eSGizmoPickInfo@@QEAA@XZ
??0eSGraphicsOptions@@QEAA@XZ
??0eSInput@eCImageFilterBase@@QEAA@AEBU01@@Z
??0eSInput@eCImageFilterBase@@QEAA@XZ
??0eSKeyboardOptions@@QEAA@XZ
??0eSLanguageOptions@@QEAA@XZ
??0eSMotionDesc@eAnimShared@@QEAA@AEBU01@@Z
??0eSMotionDesc@eAnimShared@@QEAA@AEBVbCString@@@Z
??0eSMotionDesc@eAnimShared@@QEAA@PEAVeCMotionResource2@@@Z
??0eSMotionDesc@eAnimShared@@QEAA@XZ
??0eSMouseOptions@@QEAA@XZ
??0eSOutput@eCImageFilterBase@@QEAA@AEBU01@@Z
??0eSOutput@eCImageFilterBase@@QEAA@XZ
??0eSPhysicsOptions@@QEAA@XZ
??0eSProfilerOptions@@QEAA@XZ
??0eSRenderOptions@@QEAA@XZ
??0eSSceneOptions@@QEAA@XZ
??0eSTimerOptions@@QEAA@XZ
??0eSVegetationOptions@@QEAA@XZ
??0eSWindowOptions@@QEAA@XZ
??1?$eCAOPerTriangleMeshBase@G@eCAmbientOcclusionPreprocessor@@UEAA@XZ
??1?$eCAOPerTriangleMeshBase@K@eCAmbientOcclusionPreprocessor@@UEAA@XZ
??1?$eTShaderEllementProxy@VeCColorSrcBase@@@@UEAA@XZ
??1?$eTShaderEllementProxy@VeCTexCoordSrcBase@@@@UEAA@XZ
??1SItem@eCVectorScale@@QEAA@XZ
??1SPlay3D@eCSoundResource2@@QEAA@XZ
??1eCAOCustomMesh@eCAmbientOcclusionPreprocessor@@UEAA@XZ
??1eCAOMeshBase@eCAmbientOcclusionPreprocessor@@UEAA@XZ
??1eCAOMeshEmitterInstance@eCAmbientOcclusionPreprocessor@@UEAA@XZ
??1eCAOMeshGroup@eCAmbientOcclusionPreprocessor@@UEAA@XZ
??1eCAOMeshInstance@eCAmbientOcclusionPreprocessor@@UEAA@XZ
??1eCAOMeshLoD@eCAmbientOcclusionPreprocessor@@UEAA@XZ
??1eCAOMeshReciverBase@eCAmbientOcclusionPreprocessor@@UEAA@XZ
??1eCAOPerTriangleMesh16@eCAmbientOcclusionPreprocessor@@UEAA@XZ
??1eCAOPerTriangleMesh@eCAmbientOcclusionPreprocessor@@UEAA@XZ
??1eCAOPerVertexMesh@eCAmbientOcclusionPreprocessor@@UEAA@XZ
??1eCAOTreeNode@eCAmbientOcclusionPreprocessor@@QEAA@XZ
??1eCAPICubeMap@@UEAA@XZ
??1eCAPIDevice@@UEAA@XZ
??1eCAPIEffect@@UEAA@XZ
??1eCAPIFont@@UEAA@XZ
??1eCAPIHLSLShader@@UEAA@XZ
??1eCAPIIndexData@@UEAA@XZ
??1eCAPIInstance@@UEAA@XZ
??1eCAPIPrimitive@@UEAA@XZ
??1eCAPISprite@@UEAA@XZ
??1eCAPITexture@@UEAA@XZ
??1eCAPIVertexData@@UEAA@XZ
??1eCAPIVolume@@UEAA@XZ
??1eCActorAttachment@@QEAA@XZ
??1eCAmbientOcclusionPreprocessor@@UEAA@XZ
??1eCAnimation2Admin@@UEAA@XZ
??1eCAnimationCollisionDesc@@UEAA@XZ
??1eCAnimation_HardRenderActor2@@QEAA@XZ
??1eCAnimation_PS@@UEAA@XZ
??1eCApplication@@UEAA@XZ
??1eCArchiveFile@@UEAA@XZ
??1eCArchiveManager@@IEAA@XZ
??1eCAreaAdmin@@UEAA@XZ
??1eCArea_StringProperty_PS@@UEAA@XZ
??1eCAudioChannel@@UEAA@XZ
??1eCAudioChannelGroup@@UEAA@XZ
??1eCAudioCodec@@QEAA@XZ
??1eCAudioEmitter_PS@@UEAA@XZ
??1eCAudioModule@@UEAA@XZ
??1eCAudioReverb@@UEAA@XZ
??1eCAudioReverbPreset@@UEAA@XZ
??1eCAudioRollOffPreset@@UEAA@XZ
??1eCAudioSound@@UEAA@XZ
??1eCAudioSystem@@UEAA@XZ
??1eCBeamTree@@QEAA@XZ
??1eCBenchmark@@UEAA@XZ
??1eCBillboard@@QEAA@XZ
??1eCBillboardAdmin@@UEAA@XZ
??1eCBillboard_PS@@UEAA@XZ
??1eCBodyPart_PS@@UEAA@XZ
??1eCButtonEventArgs@@UEAA@XZ
??1eCCameraBase@@UEAA@XZ
??1eCCascadeShadowMap@@MEAA@XZ
??1eCCollisionDesc@@MEAA@XZ
??1eCCollisionDescMesh@@UEAA@XZ
??1eCCollisionMeshResource2@@UEAA@XZ
??1eCCollisionShape@@MEAA@XZ
??1eCCollisionShapeBase_PS@@UEAA@XZ
??1eCCollisionShape_PS@@UEAA@XZ
??1eCColorScale@@QEAA@XZ
??1eCColorSrcBase@@UEAA@XZ
??1eCColorSrcBlend@@UEAA@XZ
??1eCColorSrcCamDistance@@UEAA@XZ
??1eCColorSrcCamObstacle@@UEAA@XZ
??1eCColorSrcCombiner@@UEAA@XZ
??1eCColorSrcConstant@@UEAA@XZ
??1eCColorSrcConstantAnimation@@UEAA@XZ
??1eCColorSrcConstantSwitch@@UEAA@XZ
??1eCColorSrcCubeSampler@@UEAA@XZ
??1eCColorSrcFresnel@@UEAA@XZ
??1eCColorSrcMask@@UEAA@XZ
??1eCColorSrcProxy@@UEAA@XZ
??1eCColorSrcSampler@@UEAA@XZ
??1eCColorSrcSkydomeSampler@@UEAA@XZ
??1eCColorSrcVertexColor@@UEAA@XZ
??1eCConfigAdmin@@UEAA@XZ
??1eCConfigFile@@QEAA@XZ
??1eCConfigFile_KeyObject@@QEAA@XZ
??1eCConfigFile_SectionObject@@QEAA@XZ
??1eCConfigMerger@@QEAA@XZ
??1eCConsole2@@UEAA@XZ
??1eCContactIterator@@QEAA@XZ
??1eCContextBase@@UEAA@XZ
??1eCDX9CubeMap@@UEAA@XZ
??1eCDX9Device@@UEAA@XZ
??1eCDX9Effect@@UEAA@XZ
??1eCDX9Font@@UEAA@XZ
??1eCDX9HLSLShader@@UEAA@XZ
??1eCDX9IndexData@@UEAA@XZ
??1eCDX9Instance@@UEAA@XZ
??1eCDX9Primitive@@UEAA@XZ
??1eCDX9Sprite@@UEAA@XZ
??1eCDX9Texture@@UEAA@XZ
??1eCDX9VertexData@@UEAA@XZ
??1eCDX9Volume@@UEAA@XZ
??1eCDebugModule@@UEAA@XZ
??1eCDecal@@QEAA@XZ
??1eCDecalAdmin@@UEAA@XZ
??1eCDecal_PS@@UEAA@XZ
??1eCDeferredGuiBitmap2@@UEAA@XZ
??1eCDeferredGuiCursor2@@UEAA@XZ
??1eCDeferredGuiFont2@@UEAA@XZ
??1eCDepthMap@@UEAA@XZ
??1eCDirectionalLight_PS@@UEAA@XZ
??1eCDocArchive@@UEAA@XZ
??1eCDocObject@@UEAA@XZ
??1eCDynamicEntity@@MEAA@XZ
??1eCDynamicLight_PS@@UEAA@XZ
??1eCEditEventArgs@@MEAA@XZ
??1eCEditorEntityPropertySet@@UEAA@XZ
??1eCEffectModuleBase@@UEAA@XZ
??1eCEffectSystemBase@@UEAA@XZ
??1eCEngineComponentBase@@UEAA@XZ
??1eCEntity@@MEAA@XZ
??1eCEntityAdmin@@QEAA@XZ
??1eCEntityDynamicContext@@UEAA@XZ
??1eCEntityPropertySet@@UEAA@XZ
??1eCEntityProxy@@QEAA@XZ
??1eCEntityStringProxy@@QEAA@XZ
??1eCFileChangeInterface@@QEAA@XZ
??1eCFileChangeListener@@AEAA@XZ
??1eCFixedGuiBitmapFont2@@UEAA@XZ
??1eCFloatScale@@QEAA@XZ
??1eCFnt@@QEAA@XZ
??1eCFont@@QEAA@XZ
??1eCFrustumDatabase@@UEAA@XZ
??1eCFrustumElementItem@@QEAA@XZ
??1eCFrustumEx@@QEAA@XZ
??1eCFrustumFilter@@UEAA@XZ
??1eCGenericEntityListener_PS@@UEAA@XZ
??1eCGeometryCollisionDesc@@MEAA@XZ
??1eCGeometryEntity@@MEAA@XZ
??1eCGfxAdmin@@UEAA@XZ
??1eCGfxAssistantAdmin@@MEAA@XZ
??1eCGfxCamera@@MEAA@XZ
??1eCGfxCameraStates@@MEAA@XZ
??1eCGfxContextAdmin@@MEAA@XZ
??1eCGfxEffect@@MEAA@XZ
??1eCGfxFog@@MEAA@XZ
??1eCGfxGaugeAdmin@@MEAA@XZ
??1eCGfxHLSLShader@@MEAA@XZ
??1eCGfxImageData@@MEAA@XZ
??1eCGfxImageDataGlyph@@UEAA@XZ
??1eCGfxIndexData@@MEAA@XZ
??1eCGfxLight@@MEAA@XZ
??1eCGfxMaterial@@MEAA@XZ
??1eCGfxMixerAdmin@@MEAA@XZ
??1eCGfxObject@@UEAA@XZ
??1eCGfxPixelProgram@@MEAA@XZ
??1eCGfxShader@@MEAA@XZ
??1eCGfxTextureBlock@@MEAA@XZ
??1eCGfxVertexData@@MEAA@XZ
??1eCGfxVertexDecl@@MEAA@XZ
??1eCGfxVertexProgram@@MEAA@XZ
??1eCGfxVisual@@MEAA@XZ
??1eCGfxVisualCollection@@MEAA@XZ
??1eCGizmoBase@@MEAA@XZ
??1eCGizmoTransform@@MEAA@XZ
??1eCGizmoTransformCapsule@@MEAA@XZ
??1eCGizmoTransformCapsuleCollisionShape@@MEAA@XZ
??1eCGizmoTransformOBB@@MEAA@XZ
??1eCGizmoTransformOBBCollisionShape@@MEAA@XZ
??1eCGizmoTransformSphere@@MEAA@XZ
??1eCGizmoTransformSphereCollisionShape@@MEAA@XZ
??1eCGizmoTranslateAndScale@@MEAA@XZ
??1eCGizmoTranslateAndScaleBox@@MEAA@XZ
??1eCGizmoTranslateAndScaleSphere@@MEAA@XZ
??1eCGlobalStatistics@@UEAA@XZ
??1eCGlyphOutline@@QEAA@XZ
??1eCGlyphSheet@@QEAA@XZ
??1eCGlyphSheetCollection@@QEAA@XZ
??1eCGuiAnimImage2@@UEAA@XZ
??1eCGuiBaseBitmap2@@UEAA@XZ
??1eCGuiBaseCursor2@@UEAA@XZ
??1eCGuiBaseFont2@@UEAA@XZ
??1eCGuiBitmap2@@UEAA@XZ
??1eCGuiBitmapFont2@@UEAA@XZ
??1eCGuiBitmapList2@@UEAA@XZ
??1eCGuiBitmapProxy2@@QEAA@XZ
??1eCGuiButton2@@UEAA@XZ
??1eCGuiCheckBox2@@UEAA@XZ
??1eCGuiCursor2@@UEAA@XZ
??1eCGuiCursorProxy2@@QEAA@XZ
??1eCGuiDevice2@@UEAA@XZ
??1eCGuiDropSource2@@UEAA@XZ
??1eCGuiDropTarget2@@UEAA@XZ
??1eCGuiEdit2@@UEAA@XZ
??1eCGuiFont2@@UEAA@XZ
??1eCGuiFontFile2@@UEAA@XZ
??1eCGuiFontProxy2@@QEAA@XZ
??1eCGuiFrame2@@UEAA@XZ
??1eCGuiGroupBox2@@UEAA@XZ
??1eCGuiImage2@@UEAA@XZ
??1eCGuiImageCollection2@@UEAA@XZ
??1eCGuiImageList2@@UEAA@XZ
??1eCGuiLayeredImage2@@UEAA@XZ
??1eCGuiListCtrl2@@UEAA@XZ
??1eCGuiModule2@@UEAA@XZ
??1eCGuiPanel2@@UEAA@XZ
??1eCGuiPictureBox2@@UEAA@XZ
??1eCGuiProgressBar2@@UEAA@XZ
??1eCGuiPushButton2@@UEAA@XZ
??1eCGuiRadioButton2@@UEAA@XZ
??1eCGuiResource2@@UEAA@XZ
??1eCGuiScrollBar2@@UEAA@XZ
??1eCGuiSplitImage2@@UEAA@XZ
??1eCGuiStatic2@@UEAA@XZ
??1eCGuiSystemFont2@@UEAA@XZ
??1eCGuiSystemFontDesc2@@UEAA@XZ
??1eCGuiSystemFontLanguage2@@UEAA@XZ
??1eCGuiTexture2@@UEAA@XZ
??1eCGuiToolTipCtrl2@@UEAA@XZ
??1eCGuiTooltipData2@@UEAA@XZ
??1eCGuiTooltipTextCtrl2@@UEAA@XZ
??1eCGuiTrackBar2@@UEAA@XZ
??1eCGuiWindow2@@UEAA@XZ
??1eCHemisphere_PS@@UEAA@XZ
??1eCIlluminated_PS@@UEAA@XZ
??1eCIlluminationAdmin@@UEAA@XZ
??1eCImageEffect@@UEAA@XZ
??1eCImageFilterAdmin@@UEAA@XZ
??1eCImageFilterBase@@MEAA@XZ
??1eCImageFilterCopy@@MEAA@XZ
??1eCImageFilterEffect@@MEAA@XZ
??1eCImageFilterImage@@MEAA@XZ
??1eCImageFilterImageEffect@@MEAA@XZ
??1eCImageFilterRTBase@@MEAA@XZ
??1eCImageFilterScene@@MEAA@XZ
??1eCImageFilterShadowMask@@MEAA@XZ
??1eCImageFilterTexture@@MEAA@XZ
??1eCImageFilterTextureRandom@@MEAA@XZ
??1eCImageResource2@@UEAA@XZ
??1eCInputAdmin@@UEAA@XZ
??1eCInputX360@@QEAA@XZ
??1eCIterator@@QEAA@XZ
??1eCIteratorPrimitive@@UEAA@XZ
??1eCIteratorPrimitiveBillboard@@UEAA@XZ
??1eCIteratorPrimitiveIndexedTriangleList@@UEAA@XZ
??1eCIteratorPrimitiveLineList@@UEAA@XZ
??1eCIteratorPrimitiveTriangleList@@UEAA@XZ
??1eCIteratorReport@@QEAA@XZ
??1eCLameMp3Codec@@QEAA@XZ
??1eCLightSet@@UEAA@XZ
??1eCLightStreaks_PS@@UEAA@XZ
??1eCLightmapBatcher@@QEAA@XZ
??1eCLightmapBitmap@@QEAA@XZ
??1eCLightmapPreprocessor@@UEAA@XZ
??1eCListCtrlEventArgs@@UEAA@XZ
??1eCLocAdmin2@@QEAA@XZ
??1eCLocString@@QEAA@XZ
??1eCLocStringEx@@QEAA@XZ
??1eCMaterialResource2@@UEAA@XZ
??1eCMeshResource2@@UEAA@XZ
??1eCMesh_PS@@UEAA@XZ
??1eCMessageHandler@@UEAA@XZ
??1eCModuleAdmin@@UEAA@XZ
??1eCMotionActorResource2@@UEAA@XZ
??1eCMotionResource2@@UEAA@XZ
??1eCMoverAnimationBase@@UEAA@XZ
??1eCMoverAnimationBezier@@UEAA@XZ
??1eCMoverAnimationFile@@UEAA@XZ
??1eCMoverAnimationHermit@@UEAA@XZ
??1eCMoverAnimationKFBase@@UEAA@XZ
??1eCMoverAnimationLinear@@UEAA@XZ
??1eCMoverAnimationRotate@@UEAA@XZ
??1eCMoverAnimationSkeletal@@UEAA@XZ
??1eCMoverAnimationTCB@@UEAA@XZ
??1eCMover_PS@@UEAA@XZ
??1eCNode@@MEAA@XZ
??1eCOccluder_PS@@UEAA@XZ
??1eCPSMap@@QEAA@XZ
??1eCPackedShadowMap@@UEAA@XZ
??1eCParticleMaterial@@QEAA@XZ
??1eCParticleMaterialBlendSubdivisions@@QEAA@XZ
??1eCParticleMaterialSimple@@QEAA@XZ
??1eCParticleModule@@UEAA@XZ
??1eCParticle_PS@@UEAA@XZ
??1eCPhysicObject@@UEAA@XZ
??1eCPhysicObjectStateBuffer@@QEAA@XZ
??1eCPhysicQueryReport@@QEAA@XZ
??1eCPhysicalFileSystem@@IEAA@XZ
??1eCPhysicsScene@@UEAA@XZ
??1eCPhysicsScene_PS@@UEAA@XZ
??1eCPointLight_PS@@UEAA@XZ
??1eCPolyGeometryCollisionDesc@@MEAA@XZ
??1eCPortal@@QEAA@XZ
??1eCPortalAdmin@@UEAA@XZ
??1eCPortalCell_PS@@UEAA@XZ
??1eCPortalRoom_PS@@UEAA@XZ
??1eCPrecipitation_PS@@UEAA@XZ
??1eCPrefetchAdmin@@UEAA@XZ
??1eCPrimitiveCollisionDesc@@UEAA@XZ
??1eCPrimitiveStateGraphArrow@@UEAA@XZ
??1eCPrimitiveStateGraphLine@@UEAA@XZ
??1eCProcessible@@UEAA@XZ
??1eCProcessibleElement@@UEAA@XZ
??1eCProcessor@@AEAA@XZ
??1eCProfilerAdmin@@UEAA@XZ
??1eCProgressbarEventArgs@@MEAA@XZ
??1eCPropertyProxy@@QEAA@XZ
??1eCPropertySetProxy@@QEAA@XZ
??1eCRenderContext@@UEAA@XZ
??1eCRenderContextAnimation2@@UEAA@XZ
??1eCRenderContextDebug@@UEAA@XZ
??1eCRenderContextMesh@@UEAA@XZ
??1eCRenderContextSpeedTree@@UEAA@XZ
??1eCRenderContextSpeedTreeBB@@UEAA@XZ
??1eCRenderContextVegetation@@UEAA@XZ
??1eCRenderOp2@@QEAA@XZ
??1eCRenderSystemAdmin@@UEAA@XZ
??1eCResource2@@UEAA@XZ
??1eCResourceCache2@@QEAA@XZ
??1eCResourceInputStream2@@UEAA@XZ
??1eCResourceModule2@@UEAA@XZ
??1eCResourceOutputStream2@@UEAA@XZ
??1eCRigidBodyBase_PS@@UEAA@XZ
??1eCRigidBody_PS@@UEAA@XZ
??1eCSceneAdmin@@UEAA@XZ
??1eCScriptAdminBase@@UEAA@XZ
??1eCScriptEdit@@UEAA@XZ
??1eCScriptEventArgs@@MEAA@XZ
??1eCScriptFunctionMap@@QEAA@XZ
??1eCScriptListCtrl@@UEAA@XZ
??1eCScriptProgressbar@@UEAA@XZ
??1eCScriptProxy@@QEAA@XZ
??1eCScriptProxyScript@@QEAA@XZ
??1eCScriptRadioButton@@UEAA@XZ
??1eCScriptStatic@@UEAA@XZ
??1eCScriptTrackbar@@UEAA@XZ
??1eCShaderBase@@UEAA@XZ
??1eCShaderDefault@@UEAA@XZ
??1eCShaderEllementBase@@UEAA@XZ
??1eCShaderEllementProxy@@UEAA@XZ
??1eCShaderLeafs@@UEAA@XZ
??1eCShaderLightStreaks@@UEAA@XZ
??1eCShaderMaterialAdmin@@UEAA@XZ
??1eCShaderParticle@@UEAA@XZ
??1eCShaderSkyDome@@UEAA@XZ
??1eCShadowMapBase@@UEAA@XZ
??1eCShadowMapDirectionalLight2@@UEAA@XZ
??1eCShadowMapDirectionalLight2Ex@@UEAA@XZ
??1eCShadowMapDirectionalLight2VS@@UEAA@XZ
??1eCShadowMapPointLight@@UEAA@XZ
??1eCShadowMapSpotLight@@UEAA@XZ
??1eCSkyObject@@UEAA@XZ
??1eCSkydome_PS@@UEAA@XZ
??1eCSoundResource2@@UEAA@XZ
??1eCSpeedTreeAdmin@@UEAA@XZ
??1eCSpeedTreeBBMesh_PS@@UEAA@XZ
??1eCSpeedTreeCollisionDesc@@UEAA@XZ
??1eCSpeedTreeRenderBuffer@@UEAA@XZ
??1eCSpeedTreeResource2@@UEAA@XZ
??1eCSpeedTreeWind_PS@@UEAA@XZ
??1eCSpeedTree_PS@@UEAA@XZ
??1eCSplash@@UEAA@XZ
??1eCSprite@@QEAA@XZ
??1eCSpriteEffect@@QEAA@XZ
??1eCSpriteMesh@@QEAA@XZ
??1eCStaticAmbientLight_PS@@UEAA@XZ
??1eCStaticEventArgs@@UEAA@XZ
??1eCStaticLightPreprocessor@@UEAA@XZ
??1eCStaticLight_PS@@UEAA@XZ
??1eCStaticPointLight_PS@@UEAA@XZ
??1eCStatistic@@UEAA@XZ
??1eCStatisticList@@UEAA@XZ
??1eCStatisticScreen@@UEAA@XZ
??1eCStatisticText@@UEAA@XZ
??1eCStatisticView@@UEAA@XZ
??1eCStatisticViewList@@UEAA@XZ
??1eCStatisticViewText@@UEAA@XZ
??1eCStrip_PS@@UEAA@XZ
??1eCSubMesh@@UEAA@XZ
??1eCTemplateEntity@@MEAA@XZ
??1eCTemplateEntityProxy@@QEAA@XZ
??1eCTexCoordSrcBase@@UEAA@XZ
??1eCTexCoordSrcBumpOffset@@UEAA@XZ
??1eCTexCoordSrcColor@@UEAA@XZ
??1eCTexCoordSrcOscillator@@UEAA@XZ
??1eCTexCoordSrcProxy@@UEAA@XZ
??1eCTexCoordSrcReflect@@UEAA@XZ
??1eCTexCoordSrcRotator@@UEAA@XZ
??1eCTexCoordSrcScale@@UEAA@XZ
??1eCTexCoordSrcScroller@@UEAA@XZ
??1eCTimer@@UEAA@XZ
??1eCTipLocString@@QEAA@XZ
??1eCTrackbarEventArgs@@MEAA@XZ
??1eCUnicodeConfigFile@@QEAA@XZ
??1eCUnicodeConfigFile_KeyObject@@QEAA@XZ
??1eCUnicodeConfigFile_SectionObject@@QEAA@XZ
??1eCVectorScale@@QEAA@XZ
??1eCVegetationAdmin@@UEAA@XZ
??1eCVegetationBrush_PS@@UEAA@XZ
??1eCVegetation_Grid@@MEAA@XZ
??1eCVegetation_GridNode@@MEAA@XZ
??1eCVegetation_Mesh@@MEAA@XZ
??1eCVegetation_PS@@UEAA@XZ
??1eCVertexBufferArray@@QEAA@XZ
??1eCVirtualFileSystem@@IEAA@XZ
??1eCWeatherAdmin@@UEAA@XZ
??1eCWeatherEnvironment@@QEAA@XZ
??1eCWeatherStates@@UEAA@XZ
??1eCWeatherZone_PS@@UEAA@XZ
??1eCWindow@@UEAA@XZ
??1eCWraper_SpeedTreeRT@@QEAA@XZ
??1eCWrapper_emfx3ActorInstance@@UEAA@XZ
??1eCWrapper_emfx3SkeletalMotion@@UEAA@XZ
??1eCXMLFile@@QEAA@XZ
??1eSAnimationOptions@@QEAA@XZ
??1eSAudioOptions@@QEAA@XZ
??1eSDebugOptions@@QEAA@XZ
??1eSFPUOptions@@QEAA@XZ
??1eSGizmoPickInfo@@QEAA@XZ
??1eSGraphicsOptions@@QEAA@XZ
??1eSInput@eCImageFilterBase@@QEAA@XZ
??1eSKeyboardOptions@@QEAA@XZ
??1eSLanguageOptions@@QEAA@XZ
??1eSMotionDesc@eAnimShared@@QEAA@XZ
??1eSMouseOptions@@QEAA@XZ
??1eSOutput@eCImageFilterBase@@QEAA@XZ
??1eSPhysicsOptions@@QEAA@XZ
??1eSProfilerOptions@@QEAA@XZ
??1eSRenderOptions@@QEAA@XZ
??1eSSceneOptions@@QEAA@XZ
??1eSTimerOptions@@QEAA@XZ
??1eSVegetationOptions@@QEAA@XZ
??1eSWindowOptions@@QEAA@XZ
??2eCAudioChannel@@SAPEAX_KPEBD11H@Z
??2eCAudioChannelGroup@@SAPEAX_KPEBD11H@Z
??2eCAudioModule@@SAPEAX_KPEBD11H@Z
??2eCAudioReverb@@SAPEAX_KPEBD11H@Z
??2eCAudioSound@@SAPEAX_KPEBD11H@Z
??2eCAudioSystem@@SAPEAX_KPEBD11H@Z
??2eCCollisionShape@@SAPEAX_KPEBD11H@Z
??2eCEntity@@SAPEAX_KPEBD11H@Z
??2eCEntityPropertySet@@SAPEAX_KPEBD11H@Z
??2eCGuiResource2@@SAPEAX_KPEBD11H@Z
??2eCPhysicObject@@SAPEAX_KPEBD11H@Z
??2eCPhysicObjectStateBuffer@@SAPEAX_KPEBD11H@Z
??2eCPhysicsScene@@SAPEAX_KPEBD11H@Z
??2eCShaderEllementBase@@SAPEAX_KPEBD11H@Z
??2eCWrapper_emfx3ActorInstance@@SAPEAX_KPEBD11H@Z
??2eCWrapper_emfx3SkeletalMotion@@SAPEAX_KPEBD11H@Z
??4?$eCAOPerTriangleMeshBase@G@eCAmbientOcclusionPreprocessor@@QEAAAEAV01@AEBV01@@Z
??4?$eCAOPerTriangleMeshBase@K@eCAmbientOcclusionPreprocessor@@QEAAAEAV01@AEBV01@@Z
??4?$eTShaderEllementProxy@VeCColorSrcBase@@@@QEAAAEBV0@AEBV0@@Z
??4?$eTShaderEllementProxy@VeCTexCoordSrcBase@@@@QEAAAEBV0@AEBV0@@Z
??4SItem@eCColorScale@@QEAAAEAU01@$$QEAU01@@Z
??4SItem@eCColorScale@@QEAAAEAU01@AEBU01@@Z
??4SItem@eCFloatScale@@QEAAAEAU01@$$QEAU01@@Z
??4SItem@eCFloatScale@@QEAAAEAU01@AEBU01@@Z
??4SItem@eCVectorScale@@QEAAAEAU01@$$QEAU01@@Z
??4SItem@eCVectorScale@@QEAAAEAU01@AEBU01@@Z
??4SPlay3D@eCSoundResource2@@QEAAAEAU01@$$QEAU01@@Z
??4SPlay3D@eCSoundResource2@@QEAAAEAU01@AEBU01@@Z
??4eCAOCustomMesh@eCAmbientOcclusionPreprocessor@@QEAAAEAV01@AEBV01@@Z
??4eCAOMeshBase@eCAmbientOcclusionPreprocessor@@QEAAAEAV01@AEBV01@@Z
??4eCAOMeshEmitterInstance@eCAmbientOcclusionPreprocessor@@QEAAAEAV01@AEBV01@@Z
??4eCAOMeshGroup@eCAmbientOcclusionPreprocessor@@QEAAAEAV01@AEBV01@@Z
??4eCAOMeshInstance@eCAmbientOcclusionPreprocessor@@QEAAAEAV01@AEBV01@@Z
??4eCAOMeshLoD@eCAmbientOcclusionPreprocessor@@QEAAAEAV01@AEBV01@@Z
??4eCAOMeshReciverBase@eCAmbientOcclusionPreprocessor@@QEAAAEAV01@AEBV01@@Z
??4eCAOPerTriangleMesh16@eCAmbientOcclusionPreprocessor@@QEAAAEAV01@AEBV01@@Z
??4eCAOPerTriangleMesh@eCAmbientOcclusionPreprocessor@@QEAAAEAV01@AEBV01@@Z
??4eCAOPerVertexMesh@eCAmbientOcclusionPreprocessor@@QEAAAEAV01@AEBV01@@Z
??4eCAOTreeNode@eCAmbientOcclusionPreprocessor@@QEAAAEAV01@AEBV01@@Z
??4eCAPICubeMap@@QEAAAEAV0@AEBV0@@Z
??4eCAPIDevice@@QEAAAEAV0@AEBV0@@Z
??4eCAPIEffect@@QEAAAEAV0@AEBV0@@Z
??4eCAPIFont@@QEAAAEAV0@AEBV0@@Z
??4eCAPIHLSLShader@@QEAAAEAV0@AEBV0@@Z
??4eCAPIIndexData@@QEAAAEAV0@AEBV0@@Z
??4eCAPIInstance@@QEAAAEAV0@AEBV0@@Z
??4eCAPIPrimitive@@QEAAAEAV0@AEBV0@@Z
??4eCAPISprite@@QEAAAEAV0@AEBV0@@Z
??4eCAPITexture@@QEAAAEAV0@AEBV0@@Z
??4eCAPIVertexData@@QEAAAEAV0@AEBV0@@Z
??4eCAPIVolume@@QEAAAEAV0@AEBV0@@Z
??4eCActorAttachment@@QEAAAEAV0@AEBV0@@Z
??4eCAmbientOcclusionPreprocessor@@QEAAAEAV0@AEBV0@@Z
??4eCAnimation2Admin@@QEAAAEAV0@AEBV0@@Z
??4eCAnimationCollisionDesc@@IEAAAEBV0@AEBV0@@Z
??4eCAnimation_HardRenderActor2@@QEAAAEAV0@AEBV0@@Z
??4eCApplication@@IEAAAEBV0@AEBV0@@Z
??4eCArchiveFile@@QEAAAEAV0@AEBV0@@Z
??4eCArchiveManager@@QEAAAEAV0@AEBV0@@Z
??4eCAreaAdmin@@QEAAAEAV0@AEBV0@@Z
??4eCArea_StringProperty_PS@@QEAAAEAV0@AEBV0@@Z
??4eCAudioChannel@@QEAAAEAV0@AEBV0@@Z
??4eCAudioChannelGroup@@QEAAAEAV0@AEBV0@@Z
??4eCAudioCodec@@QEAAAEAV0@AEBV0@@Z
??4eCAudioEmitter_PS@@QEAAAEAV0@AEBV0@@Z
??4eCAudioModule@@QEAAAEAV0@AEBV0@@Z
??4eCAudioReverb@@QEAAAEAV0@AEBV0@@Z
??4eCAudioReverbPreset@@QEAAAEAV0@AEBV0@@Z
??4eCAudioRollOffPreset@@QEAAAEAV0@AEBV0@@Z
??4eCAudioSound@@QEAAAEAV0@AEBV0@@Z
??4eCAudioSystem@@QEAAAEAV0@AEBV0@@Z
??4eCBeamTree@@QEAAAEAV0@AEBV0@@Z
??4eCBenchmark@@QEAAAEAV0@AEBV0@@Z
??4eCBillboard@@QEAAAEAV0@AEBV0@@Z
??4eCBillboardAdmin@@QEAAAEAV0@AEBV0@@Z
??4eCBillboard_PS@@QEAAAEAV0@AEBV0@@Z
??4eCButtonEventArgs@@QEAAAEAV0@AEBV0@@Z
??4eCCameraBase@@QEAAAEAV0@AEBV0@@Z
??4eCCascadeShadowMap@@QEAAAEAV0@AEBV0@@Z
??4eCCollisionDesc@@IEAAAEBV0@AEBV0@@Z
??4eCCollisionDescMesh@@IEAAAEBV0@AEBV0@@Z
??4eCCollisionMeshResource2@@QEAAAEAV0@AEBV0@@Z
??4eCCollisionShape@@QEAAAEAV0@AEBV0@@Z
??4eCCollisionShapeBase_PS@@QEAAAEAV0@AEBV0@@Z
??4eCCollisionShape_PS@@QEAAAEAV0@AEBV0@@Z
??4eCColorScale@@QEAAAEAV0@AEBV0@@Z
??4eCColorSrcBase@@QEAAAEAV0@AEBV0@@Z
??4eCColorSrcBlend@@QEAAAEAV0@AEBV0@@Z
??4eCColorSrcCamDistance@@QEAAAEAV0@AEBV0@@Z
??4eCColorSrcCamObstacle@@QEAAAEAV0@AEBV0@@Z
??4eCColorSrcCombiner@@QEAAAEAV0@AEBV0@@Z
??4eCColorSrcConstant@@QEAAAEAV0@AEBV0@@Z
??4eCColorSrcConstantAnimation@@QEAAAEAV0@AEBV0@@Z
??4eCColorSrcConstantSwitch@@QEAAAEAV0@AEBV0@@Z
??4eCColorSrcCubeSampler@@QEAAAEAV0@AEBV0@@Z
??4eCColorSrcFresnel@@QEAAAEAV0@AEBV0@@Z
??4eCColorSrcMask@@QEAAAEAV0@AEBV0@@Z
??4eCColorSrcProxy@@QEAAAEBV0@AEBV0@@Z
??4eCColorSrcSampler@@QEAAAEAV0@AEBV0@@Z
??4eCColorSrcSkydomeSampler@@QEAAAEAV0@AEBV0@@Z
??4eCColorSrcVertexColor@@QEAAAEAV0@AEBV0@@Z
??4eCConfigAdmin@@QEAAAEAV0@AEBV0@@Z
??4eCConfigFile@@IEAAAEBV0@AEBV0@@Z
??4eCConfigFile_KeyObject@@QEAAAEBV0@AEBV0@@Z
??4eCConfigFile_SectionObject@@QEAAAEBV0@AEBV0@@Z
??4eCConfigMerger@@QEAAAEAV0@AEBV0@@Z
??4eCConsole2@@QEAAAEAV0@AEBV0@@Z
??4eCContactIterator@@QEAAAEAV0@AEBV0@@Z
??4eCContextBase@@QEAAAEAV0@AEBV0@@Z
??4eCDX9CubeMap@@QEAAAEAV0@AEBV0@@Z
??4eCDX9Device@@QEAAAEAV0@AEBV0@@Z
??4eCDX9Effect@@QEAAAEAV0@AEBV0@@Z
??4eCDX9Font@@QEAAAEAV0@AEBV0@@Z
??4eCDX9HLSLShader@@QEAAAEAV0@AEBV0@@Z
??4eCDX9IndexData@@QEAAAEAV0@AEBV0@@Z
??4eCDX9Instance@@QEAAAEAV0@AEBV0@@Z
??4eCDX9Primitive@@QEAAAEAV0@AEBV0@@Z
??4eCDX9Sprite@@QEAAAEAV0@AEBV0@@Z
??4eCDX9Texture@@QEAAAEAV0@AEBV0@@Z
??4eCDX9VertexData@@QEAAAEAV0@AEBV0@@Z
??4eCDX9Volume@@QEAAAEAV0@AEBV0@@Z
??4eCDebugModule@@QEAAAEAV0@AEBV0@@Z
??4eCDecal@@QEAAAEAV0@AEBV0@@Z
??4eCDecalAdmin@@QEAAAEAV0@AEBV0@@Z
??4eCDecal_PS@@QEAAAEAV0@AEBV0@@Z
??4eCDeferredGuiBitmap2@@QEAAAEAV0@AEBV0@@Z
??4eCDeferredGuiCursor2@@QEAAAEAV0@AEBV0@@Z
??4eCDeferredGuiFont2@@QEAAAEAV0@AEBV0@@Z
??4eCDepthMap@@QEAAAEAV0@AEBV0@@Z
??4eCDirectionalLight_PS@@QEAAAEAV0@AEBV0@@Z
??4eCDocArchive@@QEAAAEAV0@AEBV0@@Z
??4eCDocObject@@QEAAAEAV0@$$QEAV0@@Z
??4eCDocObject@@QEAAAEAV0@AEBV0@@Z
??4eCDynamicEntity@@IEAAAEBV0@AEBV0@@Z
??4eCDynamicEntity@@IEAAAEBV0@AEBVeCEntity@@@Z
??4eCDynamicLight_PS@@QEAAAEAV0@AEBV0@@Z
??4eCEditEventArgs@@QEAAAEAV0@AEBV0@@Z
??4eCEditorEntityPropertySet@@QEAAAEAV0@AEBV0@@Z
??4eCEffectModuleBase@@QEAAAEAV0@AEBV0@@Z
??4eCEffectSystemBase@@QEAAAEAV0@AEBV0@@Z
??4eCEngineComponentBase@@QEAAAEAV0@AEBV0@@Z
??4eCEntity@@IEAAAEBV0@AEBV0@@Z
??4eCEntityAdmin@@QEAAAEAV0@AEBV0@@Z
??4eCEntityDynamicContext@@QEAAAEAV0@AEBV0@@Z
??4eCEntityPropertySet@@QEAAAEAV0@AEBV0@@Z
??4eCEntityProxy@@QEAAAEBV0@AEBV0@@Z
??4eCEntityStringProxy@@QEAAAEBV0@AEBV0@@Z
??4eCFixedGuiBitmapFont2@@QEAAAEAV0@AEBV0@@Z
??4eCFloatScale@@QEAAAEAV0@AEBV0@@Z
??4eCFnt@@QEAAAEAV0@AEBV0@@Z
??4eCFont@@QEAAAEAV0@AEBV0@@Z
??4eCFrustumDatabase@@QEAAAEBV0@AEBV0@@Z
??4eCFrustumElementItem@@QEAAAEBV0@AEBV0@@Z
??4eCFrustumEx@@QEAAAEAV0@AEBV0@@Z
??4eCFrustumFilter@@AEAAAEBV0@AEBV0@@Z
??4eCGenericEntityListener_PS@@QEAAAEAV0@AEBV0@@Z
??4eCGeometryCollisionDesc@@QEAAAEAV0@AEBV0@@Z
??4eCGeometryEntity@@IEAAAEBV0@AEBV0@@Z
??4eCGfxAdmin@@QEAAAEAV0@AEBV0@@Z
??4eCGfxAssistantAdmin@@QEAAAEAV0@AEBV0@@Z
??4eCGfxCamera@@QEAAAEAV0@AEBV0@@Z
??4eCGfxCameraStates@@QEAAAEAV0@AEBV0@@Z
??4eCGfxContextAdmin@@QEAAAEAV0@AEBV0@@Z
??4eCGfxEffect@@QEAAAEAV0@AEBV0@@Z
??4eCGfxFog@@QEAAAEAV0@AEBV0@@Z
??4eCGfxGaugeAdmin@@QEAAAEAV0@AEBV0@@Z
??4eCGfxHLSLShader@@QEAAAEAV0@AEBV0@@Z
??4eCGfxImageData@@QEAAAEAV0@AEBV0@@Z
??4eCGfxImageDataGlyph@@QEAAAEAV0@$$QEAV0@@Z
??4eCGfxImageDataGlyph@@QEAAAEAV0@AEBV0@@Z
??4eCGfxIndexData@@QEAAAEAV0@AEBV0@@Z
??4eCGfxLight@@QEAAAEAV0@AEBV0@@Z
??4eCGfxMaterial@@QEAAAEAV0@AEBV0@@Z
??4eCGfxMixerAdmin@@QEAAAEAV0@AEBV0@@Z
??4eCGfxObject@@QEAAAEAV0@$$QEAV0@@Z
??4eCGfxObject@@QEAAAEAV0@AEBV0@@Z
??4eCGfxPixelProgram@@QEAAAEAV0@AEBV0@@Z
??4eCGfxShader@@QEAAAEAV0@AEBV0@@Z
??4eCGfxTextureBlock@@QEAAAEAV0@AEBV0@@Z
??4eCGfxVertexData@@QEAAAEAV0@AEBV0@@Z
??4eCGfxVertexDecl@@QEAAAEAV0@AEBV0@@Z
??4eCGfxVertexProgram@@QEAAAEAV0@AEBV0@@Z
??4eCGfxVisual@@QEAAAEAV0@AEBV0@@Z
??4eCGizmoBase@@QEAAAEAV0@AEBV0@@Z
??4eCGizmoTransform@@QEAAAEAV0@AEBV0@@Z
??4eCGizmoTransformCapsule@@QEAAAEAV0@AEBV0@@Z
??4eCGizmoTransformCapsuleCollisionShape@@QEAAAEAV0@AEBV0@@Z
??4eCGizmoTransformOBB@@QEAAAEAV0@AEBV0@@Z
??4eCGizmoTransformOBBCollisionShape@@QEAAAEAV0@AEBV0@@Z
??4eCGizmoTransformSphere@@QEAAAEAV0@AEBV0@@Z
??4eCGizmoTransformSphereCollisionShape@@QEAAAEAV0@AEBV0@@Z
??4eCGizmoTranslateAndScale@@QEAAAEAV0@AEBV0@@Z
??4eCGizmoTranslateAndScaleBox@@QEAAAEAV0@AEBV0@@Z
??4eCGizmoTranslateAndScaleSphere@@QEAAAEAV0@AEBV0@@Z
??4eCGlobalStatistics@@QEAAAEAV0@AEBV0@@Z
??4eCGlyphOutline@@QEAAAEAV0@AEBV0@@Z
??4eCGlyphSheet@@QEAAAEAV0@AEBV0@@Z
??4eCGlyphSheetCollection@@QEAAAEAV0@AEBV0@@Z
??4eCGuiAnimImage2@@QEAAAEAV0@AEBV0@@Z
??4eCGuiBaseBitmap2@@QEAAAEAV0@$$QEAV0@@Z
??4eCGuiBaseBitmap2@@QEAAAEAV0@AEBV0@@Z
??4eCGuiBaseCursor2@@QEAAAEAV0@$$QEAV0@@Z
??4eCGuiBaseCursor2@@QEAAAEAV0@AEBV0@@Z
??4eCGuiBaseFont2@@QEAAAEAV0@AEBV0@@Z
??4eCGuiBitmap2@@QEAAAEAV0@AEBV0@@Z
??4eCGuiBitmapFont2@@QEAAAEAV0@AEBV0@@Z
??4eCGuiBitmapList2@@QEAAAEAV0@AEBV0@@Z
??4eCGuiBitmapProxy2@@QEAAAEAV0@AEBV0@@Z
??4eCGuiButton2@@QEAAAEAV0@AEBV0@@Z
??4eCGuiCheckBox2@@QEAAAEAV0@AEBV0@@Z
??4eCGuiCursor2@@QEAAAEAV0@AEBV0@@Z
??4eCGuiCursorProxy2@@QEAAAEAV0@AEBV0@@Z
??4eCGuiDevice2@@QEAAAEAV0@AEBV0@@Z
??4eCGuiDropSource2@@QEAAAEAV0@AEBV0@@Z
??4eCGuiDropTarget2@@QEAAAEAV0@AEBV0@@Z
??4eCGuiEdit2@@QEAAAEAV0@AEBV0@@Z
??4eCGuiFont2@@QEAAAEAV0@AEBV0@@Z
??4eCGuiFontFile2@@QEAAAEAV0@AEBV0@@Z
??4eCGuiFontProxy2@@QEAAAEAV0@AEBV0@@Z
??4eCGuiFrame2@@QEAAAEAV0@AEBV0@@Z
??4eCGuiGroupBox2@@QEAAAEAV0@AEBV0@@Z
??4eCGuiImage2@@QEAAAEAV0@AEBV0@@Z
??4eCGuiImageCollection2@@QEAAAEAV0@AEBV0@@Z
??4eCGuiImageList2@@QEAAAEAV0@AEBV0@@Z
??4eCGuiLayeredImage2@@QEAAAEAV0@AEBV0@@Z
??4eCGuiListCtrl2@@QEAAAEAV0@AEBV0@@Z
??4eCGuiModule2@@QEAAAEAV0@AEBV0@@Z
??4eCGuiPanel2@@QEAAAEAV0@AEBV0@@Z
??4eCGuiPictureBox2@@QEAAAEAV0@AEBV0@@Z
??4eCGuiProgressBar2@@QEAAAEAV0@AEBV0@@Z
??4eCGuiPushButton2@@QEAAAEAV0@AEBV0@@Z
??4eCGuiRadioButton2@@QEAAAEAV0@AEBV0@@Z
??4eCGuiResource2@@QEAAAEAV0@AEBV0@@Z
??4eCGuiScrollBar2@@QEAAAEAV0@AEBV0@@Z
??4eCGuiSplitImage2@@QEAAAEAV0@AEBV0@@Z
??4eCGuiStatic2@@QEAAAEAV0@AEBV0@@Z
??4eCGuiSystemFont2@@QEAAAEAV0@AEBV0@@Z
??4eCGuiSystemFontDesc2@@QEAAAEAV0@$$QEAV0@@Z
??4eCGuiSystemFontDesc2@@QEAAAEAV0@AEBV0@@Z
??4eCGuiSystemFontLanguage2@@QEAAAEAV0@$$QEAV0@@Z
??4eCGuiSystemFontLanguage2@@QEAAAEAV0@AEBV0@@Z
??4eCGuiTexture2@@QEAAAEAV0@AEBV0@@Z
??4eCGuiToolTipCtrl2@@QEAAAEAV0@AEBV0@@Z
??4eCGuiTooltipData2@@QEAAAEAV0@$$QEAV0@@Z
??4eCGuiTooltipData2@@QEAAAEAV0@AEBV0@@Z
??4eCGuiTooltipTextCtrl2@@QEAAAEAV0@AEBV0@@Z
??4eCGuiTrackBar2@@QEAAAEAV0@AEBV0@@Z
??4eCGuiWindow2@@QEAAAEAV0@AEBV0@@Z
??4eCHemisphere_PS@@QEAAAEAV0@AEBV0@@Z
??4eCIlluminated_PS@@QEAAAEAV0@AEBV0@@Z
??4eCIlluminationAdmin@@QEAAAEAV0@AEBV0@@Z
??4eCImageEffect@@QEAAAEAV0@AEBV0@@Z
??4eCImageFilterAdmin@@QEAAAEAV0@AEBV0@@Z
??4eCImageFilterBase@@QEAAAEAV0@AEBV0@@Z
??4eCImageFilterCopy@@QEAAAEAV0@AEBV0@@Z
??4eCImageFilterEffect@@QEAAAEAV0@AEBV0@@Z
??4eCImageFilterImage@@QEAAAEAV0@AEBV0@@Z
??4eCImageFilterImageEffect@@QEAAAEAV0@AEBV0@@Z
??4eCImageFilterRTBase@@QEAAAEAV0@AEBV0@@Z
??4eCImageFilterScene@@QEAAAEAV0@AEBV0@@Z
??4eCImageFilterShadowMask@@QEAAAEAV0@AEBV0@@Z
??4eCImageFilterTexture@@QEAAAEAV0@AEBV0@@Z
??4eCImageFilterTextureRandom@@QEAAAEAV0@AEBV0@@Z
??4eCImageResource2@@QEAAAEAV0@AEBV0@@Z
??4eCInputAdmin@@QEAAAEAV0@AEBV0@@Z
??4eCInputX360@@QEAAAEAV0@AEBV0@@Z
??4eCIterator@@QEAAAEAV0@AEBV0@@Z
??4eCIteratorPrimitive@@QEAAAEAV0@AEBV0@@Z
??4eCIteratorPrimitiveBillboard@@QEAAAEAV0@AEBV0@@Z
??4eCIteratorPrimitiveIndexedTriangleList@@QEAAAEAV0@AEBV0@@Z
??4eCIteratorPrimitiveLineList@@QEAAAEAV0@AEBV0@@Z
??4eCIteratorPrimitiveTriangleList@@QEAAAEAV0@AEBV0@@Z
??4eCIteratorReport@@QEAAAEAV0@AEBV0@@Z
??4eCLameMp3Codec@@QEAAAEAV0@AEBV0@@Z
??4eCLightSet@@QEAAAEAV0@AEBV0@@Z
??4eCLightStreaks_PS@@QEAAAEAV0@AEBV0@@Z
??4eCLightmapBatcher@@QEAAAEAV0@AEBV0@@Z
??4eCLightmapBitmap@@QEAAAEAV0@AEBV0@@Z
??4eCLightmapPreprocessor@@QEAAAEAV0@AEBV0@@Z
??4eCListCtrlEventArgs@@QEAAAEAV0@AEBV0@@Z
??4eCLocAdmin2@@IEAAAEAV0@AEBV0@@Z
??4eCLocString@@QEAAAEAV0@AEBV0@@Z
??4eCLocStringEx@@QEAAAEAV0@AEBV0@@Z
??4eCMaterialResource2@@QEAAAEAV0@AEBV0@@Z
??4eCMeshResource2@@QEAAAEAV0@AEBV0@@Z
??4eCMesh_PS@@QEAAAEAV0@AEBV0@@Z
??4eCMessageHandler@@QEAAAEAV0@AEBV0@@Z
??4eCModuleAdmin@@IEAAAEBV0@AEBV0@@Z
??4eCMotionActorResource2@@QEAAAEAV0@AEBV0@@Z
??4eCMotionResource2@@QEAAAEAV0@AEBV0@@Z
??4eCMoverAnimationBase@@QEAAAEAV0@AEBV0@@Z
??4eCMoverAnimationBezier@@QEAAAEAV0@AEBV0@@Z
??4eCMoverAnimationFile@@QEAAAEAV0@AEBV0@@Z
??4eCMoverAnimationHermit@@QEAAAEAV0@AEBV0@@Z
??4eCMoverAnimationKFBase@@QEAAAEAV0@AEBV0@@Z
??4eCMoverAnimationLinear@@QEAAAEAV0@AEBV0@@Z
??4eCMoverAnimationRotate@@QEAAAEAV0@AEBV0@@Z
??4eCMoverAnimationSkeletal@@QEAAAEAV0@AEBV0@@Z
??4eCMoverAnimationTCB@@QEAAAEAV0@AEBV0@@Z
??4eCMover_PS@@QEAAAEAV0@AEBV0@@Z
??4eCNode@@QEAAAEBV0@AEBV0@@Z
??4eCOccluder_PS@@QEAAAEAV0@AEBV0@@Z
??4eCPSMap@@QEAAAEAV0@AEBV0@@Z
??4eCPackedShadowMap@@QEAAAEAV0@AEBV0@@Z
??4eCParticleMaterial@@QEAAAEAV0@AEBV0@@Z
??4eCParticleMaterialBlendSubdivisions@@QEAAAEAV0@$$QEAV0@@Z
??4eCParticleMaterialBlendSubdivisions@@QEAAAEAV0@AEBV0@@Z
??4eCParticleMaterialSimple@@QEAAAEAV0@$$QEAV0@@Z
??4eCParticleMaterialSimple@@QEAAAEAV0@AEBV0@@Z
??4eCParticleModule@@QEAAAEAV0@AEBV0@@Z
??4eCParticle_PS@@QEAAAEAV0@AEBV0@@Z
??4eCPhysicObject@@AEAAAEBV0@AEBV0@@Z
??4eCPhysicObjectStateBuffer@@QEAAAEAV0@AEBV0@@Z
??4eCPhysicQueryReport@@QEAAAEAV0@AEBV0@@Z
??4eCPhysicalFileSystem@@QEAAAEAV0@AEBV0@@Z
??4eCPointLight_PS@@QEAAAEAV0@AEBV0@@Z
??4eCPolyGeometryCollisionDesc@@QEAAAEAV0@AEBV0@@Z
??4eCPortal@@QEAAAEAV0@AEBV0@@Z
??4eCPortalAdmin@@QEAAAEAV0@AEBV0@@Z
??4eCPortalCell_PS@@QEAAAEAV0@AEBV0@@Z
??4eCPortalRoom_PS@@QEAAAEAV0@AEBV0@@Z
??4eCPrecipitation_PS@@QEAAAEAV0@AEBV0@@Z
??4eCPrefetchAdmin@@QEAAAEAV0@AEBV0@@Z
??4eCPrimitiveCollisionDesc@@IEAAAEBV0@AEBV0@@Z
??4eCPrimitiveStateGraphArrow@@QEAAAEAV0@AEBV0@@Z
??4eCPrimitiveStateGraphLine@@QEAAAEAV0@AEBV0@@Z
??4eCProcessible@@QEAAAEAV0@AEBV0@@Z
??4eCProcessibleElement@@QEAAAEAV0@AEBV0@@Z
??4eCProfilerAdmin@@QEAAAEAV0@AEBV0@@Z
??4eCProgressbarEventArgs@@QEAAAEAV0@AEBV0@@Z
??4eCPropertyProxy@@QEAAAEBV0@AEBV0@@Z
??4eCPropertySetProxy@@QEAAAEBV0@AEBV0@@Z
??4eCRenderContext@@QEAAAEAV0@AEBV0@@Z
??4eCRenderContextAnimation2@@QEAAAEAV0@AEBV0@@Z
??4eCRenderContextDebug@@QEAAAEAV0@AEBV0@@Z
??4eCRenderContextMesh@@QEAAAEAV0@AEBV0@@Z
??4eCRenderContextSpeedTree@@QEAAAEAV0@AEBV0@@Z
??4eCRenderContextSpeedTreeBB@@QEAAAEAV0@AEBV0@@Z
??4eCRenderContextVegetation@@QEAAAEAV0@AEBV0@@Z
??4eCRenderOp2@@QEAAAEAV0@AEBV0@@Z
??4eCResource2@@QEAAAEAV0@AEBV0@@Z
??4eCResourceInputStream2@@QEAAAEAV0@AEBV0@@Z
??4eCResourceModule2@@QEAAAEAV0@AEBV0@@Z
??4eCResourceOutputStream2@@QEAAAEAV0@AEBV0@@Z
??4eCRigidBodyBase_PS@@QEAAAEAV0@AEBV0@@Z
??4eCRigidBody_PS@@QEAAAEAV0@AEBV0@@Z
??4eCSceneAdmin@@QEAAAEAV0@AEBV0@@Z
??4eCScriptAdminBase@@QEAAAEAV0@AEBV0@@Z
??4eCScriptEdit@@QEAAAEAV0@AEBV0@@Z
??4eCScriptEventArgs@@QEAAAEAV0@AEBV0@@Z
??4eCScriptFunctionMap@@QEAAAEAV0@AEBV0@@Z
??4eCScriptListCtrl@@QEAAAEAV0@AEBV0@@Z
??4eCScriptProgressbar@@QEAAAEAV0@AEBV0@@Z
??4eCScriptProxy@@QEAAAEBV0@AEBV0@@Z
??4eCScriptProxy@@QEAAAEBV0@AEBVbCString@@@Z
??4eCScriptProxyScript@@QEAAAEAV0@AEBV0@@Z
??4eCScriptRadioButton@@QEAAAEAV0@AEBV0@@Z
??4eCScriptStatic@@QEAAAEAV0@AEBV0@@Z
??4eCScriptTrackbar@@QEAAAEAV0@AEBV0@@Z
??4eCShaderBase@@QEAAAEAV0@AEBV0@@Z
??4eCShaderDefault@@QEAAAEAV0@AEBV0@@Z
??4eCShaderEllementBase@@QEAAAEAV0@AEBV0@@Z
??4eCShaderEllementProxy@@QEAAAEAV0@AEBV0@@Z
??4eCShaderLeafs@@QEAAAEAV0@AEBV0@@Z
??4eCShaderLightStreaks@@QEAAAEAV0@AEBV0@@Z
??4eCShaderMaterialAdmin@@QEAAAEAV0@AEBV0@@Z
??4eCShaderParticle@@QEAAAEAV0@AEBV0@@Z
??4eCShaderSkyDome@@QEAAAEAV0@AEBV0@@Z
??4eCShadowMapBase@@QEAAAEAV0@AEBV0@@Z
??4eCShadowMapDirectionalLight2@@QEAAAEAV0@AEBV0@@Z
??4eCShadowMapDirectionalLight2Ex@@QEAAAEAV0@AEBV0@@Z
??4eCShadowMapDirectionalLight2VS@@QEAAAEAV0@AEBV0@@Z
??4eCShadowMapPointLight@@QEAAAEAV0@AEBV0@@Z
??4eCShadowMapSpotLight@@QEAAAEAV0@AEBV0@@Z
??4eCSkyObject@@QEAAAEAV0@AEBV0@@Z
??4eCSkydome_PS@@QEAAAEAV0@AEBV0@@Z
??4eCSoundResource2@@QEAAAEAV0@AEBV0@@Z
??4eCSpeedTreeAdmin@@QEAAAEAV0@AEBV0@@Z
??4eCSpeedTreeBBMesh_PS@@QEAAAEAV0@AEBV0@@Z
??4eCSpeedTreeCollisionDesc@@IEAAAEBV0@AEBV0@@Z
??4eCSpeedTreeRenderBuffer@@QEAAAEAV0@AEBV0@@Z
??4eCSpeedTreeResource2@@QEAAAEAV0@AEBV0@@Z
??4eCSpeedTreeWind_PS@@QEAAAEAV0@AEBV0@@Z
??4eCSpeedTree_PS@@QEAAAEAV0@AEBV0@@Z
??4eCSplash@@QEAAAEAV0@AEBV0@@Z
??4eCSprite@@QEAAAEAV0@AEBV0@@Z
??4eCSpriteEffect@@QEAAAEAV0@AEBV0@@Z
??4eCSpriteMesh@@QEAAAEAV0@AEBV0@@Z
??4eCStaticAmbientLight_PS@@QEAAAEAV0@AEBV0@@Z
??4eCStaticEventArgs@@QEAAAEAV0@AEBV0@@Z
??4eCStaticLightPreprocessor@@QEAAAEAV0@AEBV0@@Z
??4eCStaticLight_PS@@QEAAAEAV0@AEBV0@@Z
??4eCStaticPointLight_PS@@QEAAAEAV0@AEBV0@@Z
??4eCStatistic@@QEAAAEAV0@AEBV0@@Z
??4eCStatisticList@@QEAAAEAV0@AEBV0@@Z
??4eCStatisticScreen@@QEAAAEAV0@AEBV0@@Z
??4eCStatisticText@@QEAAAEAV0@AEBV0@@Z
??4eCStatisticView@@QEAAAEAV0@AEBV0@@Z
??4eCStatisticViewList@@QEAAAEAV0@AEBV0@@Z
??4eCStatisticViewText@@QEAAAEAV0@AEBV0@@Z
??4eCStrip_PS@@QEAAAEAV0@AEBV0@@Z
??4eCSubMesh@@QEAAAEAV0@AEBV0@@Z
??4eCTemplateEntity@@IEAAAEBV0@AEBV0@@Z
??4eCTemplateEntityProxy@@QEAAAEBV0@AEBV0@@Z
??4eCTexCoordSrcBase@@QEAAAEAV0@AEBV0@@Z
??4eCTexCoordSrcBumpOffset@@QEAAAEAV0@AEBV0@@Z
??4eCTexCoordSrcColor@@QEAAAEAV0@AEBV0@@Z
??4eCTexCoordSrcOscillator@@QEAAAEAV0@AEBV0@@Z
??4eCTexCoordSrcProxy@@QEAAAEBV0@AEBV0@@Z
??4eCTexCoordSrcReflect@@QEAAAEAV0@AEBV0@@Z
??4eCTexCoordSrcRotator@@QEAAAEAV0@AEBV0@@Z
??4eCTexCoordSrcScale@@QEAAAEAV0@AEBV0@@Z
??4eCTexCoordSrcScroller@@QEAAAEAV0@AEBV0@@Z
??4eCTextRenderer@@QEAAAEAV0@$$QEAV0@@Z
??4eCTextRenderer@@QEAAAEAV0@AEBV0@@Z
??4eCTimer@@QEAAAEAV0@AEBV0@@Z
??4eCTipLocString@@QEAAAEAV0@$$QEAV0@@Z
??4eCTipLocString@@QEAAAEAV0@AEBV0@@Z
??4eCTrackbarEventArgs@@QEAAAEAV0@AEBV0@@Z
??4eCUnicodeConfigFile@@IEAAAEBV0@AEBV0@@Z
??4eCUnicodeConfigFile_KeyObject@@QEAAAEBV0@AEBV0@@Z
??4eCUnicodeConfigFile_SectionObject@@QEAAAEBV0@AEBV0@@Z
??4eCVectorScale@@QEAAAEAV0@AEBV0@@Z
??4eCVegetationAdmin@@QEAAAEAV0@AEBV0@@Z
??4eCVegetation_Grid@@IEAAAEBV0@AEBV0@@Z
??4eCVegetation_GridNode@@IEAAAEBV0@AEBV0@@Z
??4eCVegetation_Mesh@@QEAAAEAV0@AEBV0@@Z
??4eCVegetation_PS@@QEAAAEAV0@AEBV0@@Z
??4eCVertexBufferArray@@QEAAAEAV0@AEBV0@@Z
??4eCVirtualFileSystem@@QEAAAEAV0@AEBV0@@Z
??4eCWeatherAdmin@@QEAAAEAV0@AEBV0@@Z
??4eCWeatherEnvironment@@QEAAAEAV0@AEBV0@@Z
??4eCWeatherStates@@QEAAAEAV0@AEBV0@@Z
??4eCWeatherZone_PS@@QEAAAEAV0@AEBV0@@Z
??4eCWindow@@QEAAAEAV0@AEBV0@@Z
??4eCWraper_SpeedTreeRT@@QEAAAEAV0@AEBV0@@Z
??4eCWrapper_emfx3ActorInstance@@IEAAAEBV0@AEBV0@@Z
??4eCWrapper_emfx3SkeletalMotion@@IEAAAEBV0@AEBV0@@Z
??4eCXMLFile@@QEAAAEAV0@AEBV0@@Z
??4eIGuiBitmap2@@QEAAAEAV0@$$QEAV0@@Z
??4eIGuiBitmap2@@QEAAAEAV0@AEBV0@@Z
??4eIGuiCursor2@@QEAAAEAV0@$$QEAV0@@Z
??4eIGuiCursor2@@QEAAAEAV0@AEBV0@@Z
??4eIGuiFont2@@QEAAAEAV0@$$QEAV0@@Z
??4eIGuiFont2@@QEAAAEAV0@AEBV0@@Z
??4eIGuiImageList2@@QEAAAEAV0@$$QEAV0@@Z
??4eIGuiImageList2@@QEAAAEAV0@AEBV0@@Z
??4eSGizmoPickInfo@@QEAAAEAU0@$$QEAU0@@Z
??4eSGizmoPickInfo@@QEAAAEAU0@AEBU0@@Z
??4eSInput@eCImageFilterBase@@QEAAAEAU01@AEBU01@@Z
??4eSMotionDesc@eAnimShared@@QEAAAEBU01@AEBU01@@Z
??4eSOutput@eCImageFilterBase@@QEAAAEAU01@AEBU01@@Z
??5@YAAEAVbCIStream@@AEAV0@AEAVeCEntityProxy@@@Z
??5@YAAEAVbCIStream@@AEAV0@AEAVeCEntityStringProxy@@@Z
??5@YAAEAVbCIStream@@AEAV0@AEAVeCGuiBitmapProxy2@@@Z
??5@YAAEAVbCIStream@@AEAV0@AEAVeCGuiCursorProxy2@@@Z
??5@YAAEAVbCIStream@@AEAV0@AEAVeCLocString@@@Z
??5@YAAEAVbCIStream@@AEAV0@AEAVeCLocStringEx@@@Z
??5@YAAEAVbCIStream@@AEAV0@AEAVeCPropertySetProxy@@@Z
??5@YAAEAVbCIStream@@AEAV0@AEAVeCScriptProxy@@@Z
??5@YAAEAVbCIStream@@AEAV0@AEAVeCTemplateEntityProxy@@@Z
??5eCCameraBase@@QEAAAEAVbCOStream@@AEAV1@@Z
??5eCConfigFile@@QEAAAEAVbCOStream@@AEAV1@@Z
??5eCEntityProxy@@QEBAAEAVbCOStream@@AEAV1@@Z
??5eCEntityStringProxy@@QEAAAEAVbCOStream@@AEAV1@@Z
??5eCGuiBitmapProxy2@@QEBAAEAVbCOStream@@AEAV1@@Z
??5eCGuiCursorProxy2@@QEBAAEAVbCOStream@@AEAV1@@Z
??5eCGuiFontProxy2@@QEBAAEAVbCOStream@@AEAV1@@Z
??5eCLightmapBitmap@@QEBAAEAVbCOStream@@AEAV1@@Z
??5eCLocString@@QEBAAEAVbCOStream@@AEAV1@@Z
??5eCLocStringEx@@QEBAAEAVbCOStream@@AEAV1@@Z
??5eCPhysicsScene@@QEAAAEAVbCOStream@@AEAV1@@Z
??5eCPortal@@QEAAAEAVbCOStream@@AEAV1@@Z
??5eCPropertySetProxy@@QEAAAEAVbCOStream@@AEAV1@@Z
??5eCScriptProxy@@QEBAAEAVbCOStream@@AEAV1@@Z
??5eCShaderEllementProxy@@QEAAAEAVbCOStream@@AEAV1@@Z
??5eCTemplateEntityProxy@@QEBAAEAVbCOStream@@AEAV1@@Z
??5eCUnicodeConfigFile@@QEAAAEAVbCOStream@@AEAV1@@Z
??5eCWeatherEnvironment@@QEAAAEAVbCOStream@@AEAV1@@Z
??5eSMotionDesc@eAnimShared@@QEAAAEAVbCOStream@@AEAV2@@Z
??6@YAAEAVbCOStream@@AEAV0@AEAVeCEntityStringProxy@@@Z
??6@YAAEAVbCOStream@@AEAV0@AEAVeCPropertySetProxy@@@Z
??6@YAAEAVbCOStream@@AEAV0@AEBVeCEntityProxy@@@Z
??6@YAAEAVbCOStream@@AEAV0@AEBVeCGuiBitmapProxy2@@@Z
??6@YAAEAVbCOStream@@AEAV0@AEBVeCGuiCursorProxy2@@@Z
??6@YAAEAVbCOStream@@AEAV0@AEBVeCLocString@@@Z
??6@YAAEAVbCOStream@@AEAV0@AEBVeCLocStringEx@@@Z
??6@YAAEAVbCOStream@@AEAV0@AEBVeCScriptProxy@@@Z
??6@YAAEAVbCOStream@@AEAV0@AEBVeCTemplateEntityProxy@@@Z
??6eCCameraBase@@QEAAAEAVbCIStream@@AEAV1@@Z
??6eCConfigFile@@QEAAAEAVbCIStream@@AEAV1@@Z
??6eCEntityProxy@@QEAAAEAVbCIStream@@AEAV1@@Z
??6eCEntityStringProxy@@QEAAAEAVbCIStream@@AEAV1@@Z
??6eCGuiBitmapProxy2@@QEAAAEAVbCIStream@@AEAV1@@Z
??6eCGuiCursorProxy2@@QEAAAEAVbCIStream@@AEAV1@@Z
??6eCGuiFontProxy2@@QEAAAEAVbCIStream@@AEAV1@@Z
??6eCLightmapBitmap@@QEAAAEAVbCIStream@@AEAV1@@Z
??6eCLocString@@QEAAAEAVbCIStream@@AEAV1@@Z
??6eCLocStringEx@@QEAAAEAVbCIStream@@AEAV1@@Z
??6eCPhysicsScene@@QEAAAEAVbCIStream@@AEAV1@@Z
??6eCPortal@@QEAAAEAVbCIStream@@AEAV1@@Z
??6eCPropertySetProxy@@QEAAAEAVbCIStream@@AEAV1@@Z
??6eCScriptProxy@@QEAAAEAVbCIStream@@AEAV1@@Z
??6eCShaderEllementProxy@@QEAAAEAVbCIStream@@AEAV1@@Z
??6eCTemplateEntityProxy@@QEAAAEAVbCIStream@@AEAV1@@Z
??6eCUnicodeConfigFile@@QEAAAEAVbCIStream@@AEAV1@@Z
??6eCWeatherEnvironment@@QEAAAEAVbCIStream@@AEAV1@@Z
??6eSMotionDesc@eAnimShared@@QEAAAEAVbCIStream@@AEAV2@@Z
??8?$eTShaderEllementProxy@VeCColorSrcBase@@@@QEBA_NAEBV0@@Z
??8?$eTShaderEllementProxy@VeCTexCoordSrcBase@@@@QEBA_NAEBV0@@Z
??8SItem@eCColorScale@@QEBA_NAEBU01@@Z
??8SItem@eCFloatScale@@QEBA_NAEBU01@@Z
??8SItem@eCVectorScale@@QEBA_NAEBU01@@Z
??8eCColorScale@@QEBA_NAEBV0@@Z
??8eCColorSrcProxy@@QEBA_NAEBV0@@Z
??8eCEntityProxy@@QEBA_NAEBV0@@Z
??8eCEntityStringProxy@@QEBA_NAEBV0@@Z
??8eCFloatScale@@QEBA_NAEBV0@@Z
??8eCGuiBitmapProxy2@@QEBA_NAEBV0@@Z
??8eCGuiCursorProxy2@@QEBA_NAEBV0@@Z
??8eCGuiFontProxy2@@QEBA_NAEBV0@@Z
??8eCGuiSystemFontDesc2@@QEBA_NAEBV0@@Z
??8eCGuiSystemFontLanguage2@@QEBA_NAEBV0@@Z
??8eCLocString@@QEBA_NAEBV0@@Z
??8eCLocStringEx@@QEBA_NAEBV0@@Z
??8eCScriptProxy@@QEBA_NAEBV0@@Z
??8eCSubMesh@@QEBA_NAEBV0@@Z
??8eCTemplateEntityProxy@@QEBA_NAEBV0@@Z
??8eCTexCoordSrcProxy@@QEBA_NAEBV0@@Z
??8eCVectorScale@@QEBA_NAEBV0@@Z
??9?$eTShaderEllementProxy@VeCColorSrcBase@@@@QEBA_NAEBV0@@Z
??9?$eTShaderEllementProxy@VeCTexCoordSrcBase@@@@QEBA_NAEBV0@@Z
??9eCColorScale@@QEBA_NAEBV0@@Z
??9eCColorSrcProxy@@QEBA_NAEBV0@@Z
??9eCEntityProxy@@QEBA_NAEBV0@@Z
??9eCEntityStringProxy@@QEBA_NAEBV0@@Z
??9eCFloatScale@@QEBA_NAEBV0@@Z
??9eCLocString@@QEBA_NAEBV0@@Z
??9eCLocStringEx@@QEBA_NAEBV0@@Z
??9eCScriptProxy@@QEBA_NAEBV0@@Z
??9eCTemplateEntityProxy@@QEBA_NAEBV0@@Z
??9eCTexCoordSrcProxy@@QEBA_NAEBV0@@Z
??9eCVectorScale@@QEBA_NAEBV0@@Z
??AeCConfigFile_SectionObject@@QEAAAEAVbCString@@AEBV1@@Z
??AeCConfigFile_SectionObject@@QEBAAEBVbCString@@AEBV1@@Z
??AeCIterator@@QEBAAEBVeCIteratorReport@@H@Z
??AeCUnicodeConfigFile_SectionObject@@QEAAAEAVbCUnicodeString@@AEBV1@@Z
??AeCUnicodeConfigFile_SectionObject@@QEBAAEBVbCUnicodeString@@AEBV1@@Z
??B?$eTShaderEllementProxy@VeCColorSrcBase@@@@QEAAPEAVeCColorSrcBase@@XZ
??B?$eTShaderEllementProxy@VeCColorSrcBase@@@@QEBAPEBVeCColorSrcBase@@XZ
??B?$eTShaderEllementProxy@VeCTexCoordSrcBase@@@@QEAAPEAVeCTexCoordSrcBase@@XZ
??B?$eTShaderEllementProxy@VeCTexCoordSrcBase@@@@QEBAPEBVeCTexCoordSrcBase@@XZ
??BeCEntityProxy@@QEAAPEAVeCEntity@@XZ
??BeCEntityProxy@@QEBAPEBVeCEntity@@XZ
??BeCEntityStringProxy@@QEAAPEAVeCEntity@@XZ
??BeCEntityStringProxy@@QEBAPEBVeCEntity@@XZ
??BeCLocString@@QEBA?AVbCString@@XZ
??BeCLocString@@QEBA?AVbCUnicodeString@@XZ
??BeCLocStringEx@@QEBA?AVbCString@@XZ
??BeCLocStringEx@@QEBA?AVbCUnicodeString@@XZ
??BeCScriptProxy@@QEBAAEBVbCString@@XZ
??BeCTemplateEntityProxy@@QEAAPEAVeCTemplateEntity@@XZ
??BeCTemplateEntityProxy@@QEBAPEBVeCTemplateEntity@@XZ
??BeCWindow@@QEAAPEAUHINSTANCE__@@XZ
??BeCWindow@@QEAAPEAUHWND__@@XZ
??BeCWindow@@QEBAQEAUHINSTANCE__@@XZ
??BeCWindow@@QEBAQEAUHWND__@@XZ
??C?$eTShaderEllementProxy@VeCColorSrcBase@@@@QEAAPEAVeCColorSrcBase@@XZ
??C?$eTShaderEllementProxy@VeCColorSrcBase@@@@QEBAPEBVeCColorSrcBase@@XZ
??C?$eTShaderEllementProxy@VeCTexCoordSrcBase@@@@QEAAPEAVeCTexCoordSrcBase@@XZ
??C?$eTShaderEllementProxy@VeCTexCoordSrcBase@@@@QEBAPEBVeCTexCoordSrcBase@@XZ
??CeCEntityProxy@@QEAAPEAVeCEntity@@XZ
??CeCEntityProxy@@QEBAPEBVeCEntity@@XZ
??CeCEntityStringProxy@@QEAAPEAVeCEntity@@XZ
??CeCEntityStringProxy@@QEBAPEBVeCEntity@@XZ
??CeCTemplateEntityProxy@@QEAAPEAVeCTemplateEntity@@XZ
??CeCTemplateEntityProxy@@QEBAPEBVeCTemplateEntity@@XZ
??ReCConfigFile@@QEAAAEAVbCString@@AEBV1@0@Z
??ReCConfigFile@@QEBAAEBVbCString@@AEBV1@0@Z
??ReCScriptProxyScript@@QEBA_JPEAVeCEntity@@0_J@Z
??ReCUnicodeConfigFile@@QEAAAEAVbCUnicodeString@@AEBV1@0@Z
??ReCUnicodeConfigFile@@QEBAAEBVbCUnicodeString@@AEBV1@0@Z
??_7?$eCAOPerTriangleMeshBase@G@eCAmbientOcclusionPreprocessor@@6B@
??_7?$eCAOPerTriangleMeshBase@K@eCAmbientOcclusionPreprocessor@@6B@
??_7?$eTShaderEllementProxy@VeCColorSrcBase@@@@6B@
??_7?$eTShaderEllementProxy@VeCTexCoordSrcBase@@@@6B@
??_7eCAOCustomMesh@eCAmbientOcclusionPreprocessor@@6B@
??_7eCAOMeshBase@eCAmbientOcclusionPreprocessor@@6B@
??_7eCAOMeshEmitterInstance@eCAmbientOcclusionPreprocessor@@6B@
??_7eCAOMeshGroup@eCAmbientOcclusionPreprocessor@@6B@
??_7eCAOMeshInstance@eCAmbientOcclusionPreprocessor@@6B@
??_7eCAOMeshLoD@eCAmbientOcclusionPreprocessor@@6B@
??_7eCAOMeshReciverBase@eCAmbientOcclusionPreprocessor@@6B@
??_7eCAOPerTriangleMesh16@eCAmbientOcclusionPreprocessor@@6B@
??_7eCAOPerTriangleMesh@eCAmbientOcclusionPreprocessor@@6B@
??_7eCAOPerVertexMesh@eCAmbientOcclusionPreprocessor@@6B@
??_7eCAPICubeMap@@6B@
??_7eCAPIDevice@@6B@
??_7eCAPIEffect@@6B@
??_7eCAPIFont@@6B@
??_7eCAPIHLSLShader@@6B@
??_7eCAPIIndexData@@6B@
??_7eCAPIInstance@@6B@
??_7eCAPIPrimitive@@6B@
??_7eCAPISprite@@6B@
??_7eCAPITexture@@6B@
??_7eCAPIVertexData@@6B@
??_7eCAPIVolume@@6B@
??_7eCAmbientOcclusionPreprocessor@@6B@
??_7eCAnimation2Admin@@6B@
??_7eCAnimationCollisionDesc@@6B@
??_7eCAnimation_PS@@6B@
??_7eCApplication@@6B@
??_7eCArchiveFile@@6BbCIStream@@@
??_7eCArchiveFile@@6BbCOStream@@@
??_7eCAreaAdmin@@6B@
??_7eCArea_StringProperty_PS@@6B@
??_7eCAudioChannel@@6B@
??_7eCAudioChannelGroup@@6B@
??_7eCAudioCodec@@6B@
??_7eCAudioEmitter_PS@@6B@
??_7eCAudioModule@@6B@
??_7eCAudioReverb@@6B@
??_7eCAudioReverbPreset@@6B@
??_7eCAudioRollOffPreset@@6B@
??_7eCAudioSound@@6B@
??_7eCAudioSystem@@6B@
??_7eCBenchmark@@6B@
??_7eCBillboardAdmin@@6B@
??_7eCBillboard_PS@@6B@
??_7eCBodyPart_PS@@6B@
??_7eCButtonEventArgs@@6BCFXUnknown@@@
??_7eCButtonEventArgs@@6BIFFUnknown@@@
??_7eCCameraBase@@6B@
??_7eCCascadeShadowMap@@6B@
??_7eCCollisionDesc@@6B@
??_7eCCollisionDescMesh@@6B@
??_7eCCollisionMeshResource2@@6B@
??_7eCCollisionShape@@6B@
??_7eCCollisionShapeBase_PS@@6B@
??_7eCCollisionShape_PS@@6B@
??_7eCColorSrcBase@@6B@
??_7eCColorSrcBlend@@6B@
??_7eCColorSrcCamDistance@@6B@
??_7eCColorSrcCamObstacle@@6B@
??_7eCColorSrcCombiner@@6B@
??_7eCColorSrcConstant@@6B@
??_7eCColorSrcConstantAnimation@@6B@
??_7eCColorSrcConstantSwitch@@6B@
??_7eCColorSrcCubeSampler@@6B@
??_7eCColorSrcFresnel@@6B@
??_7eCColorSrcMask@@6B@
??_7eCColorSrcProxy@@6B@
??_7eCColorSrcSampler@@6B@
??_7eCColorSrcSkydomeSampler@@6B@
??_7eCColorSrcVertexColor@@6B@
??_7eCConfigAdmin@@6B@
??_7eCConfigFile@@6B@
??_7eCConsole2@@6B@
??_7eCContextBase@@6B@
??_7eCDX9CubeMap@@6B@
??_7eCDX9Device@@6B@
??_7eCDX9Effect@@6B@
??_7eCDX9Font@@6B@
??_7eCDX9HLSLShader@@6B@
??_7eCDX9IndexData@@6B@
??_7eCDX9Instance@@6B@
??_7eCDX9Primitive@@6B@
??_7eCDX9Sprite@@6B@
??_7eCDX9Texture@@6B@
??_7eCDX9VertexData@@6B@
??_7eCDX9Volume@@6B@
??_7eCDebugModule@@6B@
??_7eCDecalAdmin@@6B@
??_7eCDecal_PS@@6B@
??_7eCDeferredGuiBitmap2@@6B@
??_7eCDeferredGuiBitmap2@@6BIFFGuiBitmap2@@@
??_7eCDeferredGuiBitmap2@@6BIFFUnknown@@@
??_7eCDeferredGuiBitmap2@@6BeCDocObject@@@
??_7eCDeferredGuiCursor2@@6BIFFUnknown@@@
??_7eCDeferredGuiCursor2@@6BeCDocObject@@@
??_7eCDeferredGuiCursor2@@6BeIGuiCursor2@@@
??_7eCDeferredGuiFont2@@6B@
??_7eCDeferredGuiFont2@@6BIFFGuiFont2@@@
??_7eCDeferredGuiFont2@@6BIFFUnknown@@@
??_7eCDeferredGuiFont2@@6BeCDocObject@@@
??_7eCDepthMap@@6B@
??_7eCDirectionalLight_PS@@6B@
??_7eCDocArchive@@6B@
??_7eCDocObject@@6B@
??_7eCDynamicEntity@@6B@
??_7eCDynamicLight_PS@@6B@
??_7eCEditEventArgs@@6BCFXUnknown@@@
??_7eCEditEventArgs@@6BIFFUnknown@@@
??_7eCEditorEntityPropertySet@@6B@
??_7eCEffectModuleBase@@6B@
??_7eCEffectSystemBase@@6B@
??_7eCEngineComponentBase@@6B@
??_7eCEntity@@6B@
??_7eCEntityDynamicContext@@6B@
??_7eCEntityPropertySet@@6B@
??_7eCEntityProxy@@6B@
??_7eCFileChangeListener@@6B@
??_7eCFixedGuiBitmapFont2@@6B@
??_7eCFixedGuiBitmapFont2@@6BIFFGuiFont2@@@
??_7eCFixedGuiBitmapFont2@@6BIFFUnknown@@@
??_7eCFixedGuiBitmapFont2@@6BeCDocObject@@@
??_7eCFont@@6B@
??_7eCFrustumDatabase@@6B@
??_7eCFrustumFilter@@6B@
??_7eCGenericEntityListener_PS@@6B@
??_7eCGeometryCollisionDesc@@6B@
??_7eCGeometryEntity@@6B@
??_7eCGfxAdmin@@6B@
??_7eCGfxAssistantAdmin@@6B@
??_7eCGfxCamera@@6B@
??_7eCGfxCameraStates@@6B@
??_7eCGfxContextAdmin@@6B@
??_7eCGfxEffect@@6B@
??_7eCGfxFog@@6B@
??_7eCGfxGaugeAdmin@@6B@
??_7eCGfxHLSLShader@@6B@
??_7eCGfxImageData@@6B@
??_7eCGfxImageDataGlyph@@6B@
??_7eCGfxIndexData@@6B@
??_7eCGfxLight@@6B@
??_7eCGfxMaterial@@6B@
??_7eCGfxMixerAdmin@@6B@
??_7eCGfxObject@@6B@
??_7eCGfxPixelProgram@@6B@
??_7eCGfxShader@@6B@
??_7eCGfxTextureBlock@@6B@
??_7eCGfxVertexData@@6B@
??_7eCGfxVertexDecl@@6B@
??_7eCGfxVertexProgram@@6B@
??_7eCGfxVisual@@6B@
??_7eCGfxVisualCollection@@6B@
??_7eCGizmoBase@@6B@
??_7eCGizmoTransform@@6B@
??_7eCGizmoTransformCapsule@@6B@
??_7eCGizmoTransformCapsuleCollisionShape@@6B@
??_7eCGizmoTransformOBB@@6B@
??_7eCGizmoTransformOBBCollisionShape@@6B@
??_7eCGizmoTransformSphere@@6B@
??_7eCGizmoTransformSphereCollisionShape@@6B@
??_7eCGizmoTranslateAndScale@@6B@
??_7eCGizmoTranslateAndScaleBox@@6B@
??_7eCGizmoTranslateAndScaleSphere@@6B@
??_7eCGlobalStatistics@@6B@
??_7eCGuiAnimImage2@@6B@
??_7eCGuiAnimImage2@@6BIFFGuiBitmap2@@@
??_7eCGuiAnimImage2@@6BIFFUnknown@@@
??_7eCGuiAnimImage2@@6BeCDocObject@@@
??_7eCGuiBaseBitmap2@@6B@
??_7eCGuiBaseBitmap2@@6BIFFGuiBitmap2@@@
??_7eCGuiBaseBitmap2@@6BIFFUnknown@@@
??_7eCGuiBaseBitmap2@@6BeCDocObject@@@
??_7eCGuiBaseCursor2@@6BIFFUnknown@@@
??_7eCGuiBaseCursor2@@6BeCDocObject@@@
??_7eCGuiBaseCursor2@@6BeIGuiCursor2@@@
??_7eCGuiBaseFont2@@6B@
??_7eCGuiBaseFont2@@6BIFFGuiFont2@@@
??_7eCGuiBaseFont2@@6BIFFUnknown@@@
??_7eCGuiBaseFont2@@6BeCDocObject@@@
??_7eCGuiBitmap2@@6B@
??_7eCGuiBitmap2@@6BIFFGuiBitmap2@@@
??_7eCGuiBitmap2@@6BIFFUnknown@@@
??_7eCGuiBitmap2@@6BeCDocObject@@@
??_7eCGuiBitmapFont2@@6B@
??_7eCGuiBitmapFont2@@6BIFFGuiFont2@@@
??_7eCGuiBitmapFont2@@6BIFFUnknown@@@
??_7eCGuiBitmapFont2@@6BeCDocObject@@@
??_7eCGuiBitmapList2@@6B@
??_7eCGuiBitmapList2@@6BIFFGuiImageList2@@@
??_7eCGuiBitmapList2@@6BIFFUnknown@@@
??_7eCGuiBitmapList2@@6BeCDocObject@@@
??_7eCGuiButton2@@6B@
??_7eCGuiButton2@@6BIFFUnknown@@@
??_7eCGuiButton2@@6BeCDocObject@@@
??_7eCGuiCheckBox2@@6B@
??_7eCGuiCheckBox2@@6BIFFUnknown@@@
??_7eCGuiCheckBox2@@6BeCDocObject@@@
??_7eCGuiCursor2@@6BIFFUnknown@@@
??_7eCGuiCursor2@@6BeCDocObject@@@
??_7eCGuiCursor2@@6BeIGuiCursor2@@@
??_7eCGuiDevice2@@6BCFFUnknown@@@
??_7eCGuiDevice2@@6BIFFGuiDevice2@@@
??_7eCGuiDevice2@@6BIFFUnknown@@@
??_7eCGuiDropSource2@@6BCFXUnknown@@@
??_7eCGuiDropSource2@@6BIFFGuiDropSource2@@@
??_7eCGuiDropSource2@@6BIFFUnknown@@@
??_7eCGuiDropTarget2@@6BCFXUnknown@@@
??_7eCGuiDropTarget2@@6BIFFGuiDropTarget2@@@
??_7eCGuiDropTarget2@@6BIFFUnknown@@@
??_7eCGuiEdit2@@6B@
??_7eCGuiEdit2@@6BIFFUnknown@@@
??_7eCGuiEdit2@@6BeCDocObject@@@
??_7eCGuiFont2@@6B@
??_7eCGuiFont2@@6BIFFGuiFont2@@@
??_7eCGuiFont2@@6BIFFUnknown@@@
??_7eCGuiFont2@@6BeCDocObject@@@
??_7eCGuiFontFile2@@6BIFFUnknown@@@
??_7eCGuiFontFile2@@6BeCDocObject@@@
??_7eCGuiFrame2@@6B@
??_7eCGuiFrame2@@6BIFFUnknown@@@
??_7eCGuiFrame2@@6BeCDocObject@@@
??_7eCGuiGroupBox2@@6B@
??_7eCGuiGroupBox2@@6BIFFUnknown@@@
??_7eCGuiGroupBox2@@6BeCDocObject@@@
??_7eCGuiImage2@@6B@
??_7eCGuiImage2@@6BIFFGuiBitmap2@@@
??_7eCGuiImage2@@6BIFFUnknown@@@
??_7eCGuiImage2@@6BeCDocObject@@@
??_7eCGuiImageCollection2@@6B@
??_7eCGuiImageCollection2@@6BIFFGuiImageList2@@@
??_7eCGuiImageCollection2@@6BIFFUnknown@@@
??_7eCGuiImageCollection2@@6BeCDocObject@@@
??_7eCGuiImageList2@@6BIFFGuiBitmap2@@@
??_7eCGuiImageList2@@6BIFFGuiImageList2@@@
??_7eCGuiImageList2@@6BIFFUnknown@@@
??_7eCGuiImageList2@@6BeCDocObject@@@
??_7eCGuiImageList2@@6BeCGuiTexture2@@@
??_7eCGuiImageList2@@6BeIGuiImageList2@@@
??_7eCGuiLayeredImage2@@6B@
??_7eCGuiLayeredImage2@@6BIFFGuiBitmap2@@@
??_7eCGuiLayeredImage2@@6BIFFUnknown@@@
??_7eCGuiLayeredImage2@@6BeCDocObject@@@
??_7eCGuiListCtrl2@@6B@
??_7eCGuiListCtrl2@@6BIFFUnknown@@@
??_7eCGuiListCtrl2@@6BeCDocObject@@@
??_7eCGuiModule2@@6B@
??_7eCGuiPanel2@@6B@
??_7eCGuiPanel2@@6BIFFUnknown@@@
??_7eCGuiPanel2@@6BeCDocObject@@@
??_7eCGuiPictureBox2@@6B@
??_7eCGuiPictureBox2@@6BIFFUnknown@@@
??_7eCGuiPictureBox2@@6BeCDocObject@@@
??_7eCGuiProgressBar2@@6B@
??_7eCGuiProgressBar2@@6BIFFUnknown@@@
??_7eCGuiProgressBar2@@6BeCDocObject@@@
??_7eCGuiPushButton2@@6B@
??_7eCGuiPushButton2@@6BIFFUnknown@@@
??_7eCGuiPushButton2@@6BeCDocObject@@@
??_7eCGuiRadioButton2@@6B@
??_7eCGuiRadioButton2@@6BIFFUnknown@@@
??_7eCGuiRadioButton2@@6BeCDocObject@@@
??_7eCGuiResource2@@6BIFFUnknown@@@
??_7eCGuiResource2@@6BeCDocObject@@@
??_7eCGuiScrollBar2@@6B@
??_7eCGuiScrollBar2@@6BIFFUnknown@@@
??_7eCGuiScrollBar2@@6BeCDocObject@@@
??_7eCGuiSplitImage2@@6B@
??_7eCGuiSplitImage2@@6BIFFGuiBitmap2@@@
??_7eCGuiSplitImage2@@6BIFFUnknown@@@
??_7eCGuiSplitImage2@@6BeCDocObject@@@
??_7eCGuiStatic2@@6B@
??_7eCGuiStatic2@@6BIFFUnknown@@@
??_7eCGuiStatic2@@6BeCDocObject@@@
??_7eCGuiSystemFont2@@6B@
??_7eCGuiSystemFont2@@6BIFFGuiFont2@@@
??_7eCGuiSystemFont2@@6BIFFUnknown@@@
??_7eCGuiSystemFont2@@6BeCDocObject@@@
??_7eCGuiSystemFontDesc2@@6B@
??_7eCGuiSystemFontLanguage2@@6B@
??_7eCGuiTexture2@@6B@
??_7eCGuiTexture2@@6BIFFGuiBitmap2@@@
??_7eCGuiTexture2@@6BIFFUnknown@@@
??_7eCGuiTexture2@@6BeCDocObject@@@
??_7eCGuiToolTipCtrl2@@6B@
??_7eCGuiToolTipCtrl2@@6BIFFUnknown@@@
??_7eCGuiToolTipCtrl2@@6BeCDocObject@@@
??_7eCGuiTooltipData2@@6BCFXUnknown@@@
??_7eCGuiTooltipData2@@6BIFFUnknown@@@
??_7eCGuiTooltipTextCtrl2@@6B@
??_7eCGuiTooltipTextCtrl2@@6BIFFUnknown@@@
??_7eCGuiTooltipTextCtrl2@@6BeCDocObject@@@
??_7eCGuiTrackBar2@@6B@
??_7eCGuiTrackBar2@@6BIFFUnknown@@@
??_7eCGuiTrackBar2@@6BeCDocObject@@@
??_7eCGuiWindow2@@6B@
??_7eCGuiWindow2@@6BIFFUnknown@@@
??_7eCGuiWindow2@@6BeCDocObject@@@
??_7eCHemisphere_PS@@6B@
??_7eCIlluminated_PS@@6B@
??_7eCIlluminationAdmin@@6B@
??_7eCImageEffect@@6B@
??_7eCImageFilterAdmin@@6B@
??_7eCImageFilterBase@@6B@
??_7eCImageFilterCopy@@6B@
??_7eCImageFilterEffect@@6B@
??_7eCImageFilterImage@@6B@
??_7eCImageFilterImageEffect@@6B@
??_7eCImageFilterRTBase@@6B@
??_7eCImageFilterScene@@6B@
??_7eCImageFilterShadowMask@@6B@
??_7eCImageFilterTexture@@6B@
??_7eCImageFilterTextureRandom@@6B@
??_7eCImageResource2@@6B@
??_7eCInputAdmin@@6B@
??_7eCIteratorPrimitive@@6B@
??_7eCIteratorPrimitiveBillboard@@6B@
??_7eCIteratorPrimitiveIndexedTriangleList@@6B@
??_7eCIteratorPrimitiveLineList@@6B@
??_7eCIteratorPrimitiveTriangleList@@6B@
??_7eCLameMp3Codec@@6B@
??_7eCLightSet@@6B@
??_7eCLightStreaks_PS@@6B@
??_7eCLightmapPreprocessor@@6B@
??_7eCListCtrlEventArgs@@6BCFXUnknown@@@
??_7eCListCtrlEventArgs@@6BIFFUnknown@@@
??_7eCLocString@@6B@
??_7eCLocStringEx@@6B@
??_7eCMaterialResource2@@6B@
??_7eCMeshResource2@@6B@
??_7eCMesh_PS@@6B@
??_7eCMessageHandler@@6B@
??_7eCModuleAdmin@@6B@
??_7eCMotionActorResource2@@6B@
??_7eCMotionResource2@@6B@
??_7eCMoverAnimationBase@@6B@
??_7eCMoverAnimationBezier@@6B@
??_7eCMoverAnimationFile@@6B@
??_7eCMoverAnimationHermit@@6B@
??_7eCMoverAnimationKFBase@@6B@
??_7eCMoverAnimationLinear@@6B@
??_7eCMoverAnimationRotate@@6B@
??_7eCMoverAnimationSkeletal@@6B@
??_7eCMoverAnimationTCB@@6B@
??_7eCMover_PS@@6B@
??_7eCNode@@6B@
??_7eCOccluder_PS@@6B@
??_7eCPackedShadowMap@@6B@
??_7eCParticleMaterial@@6B@
??_7eCParticleMaterialBlendSubdivisions@@6B@
??_7eCParticleMaterialSimple@@6B@
??_7eCParticleModule@@6B@
??_7eCParticle_PS@@6B@
??_7eCPhysicObject@@6B@
??_7eCPhysicsScene@@6B@
??_7eCPhysicsScene_PS@@6B@
??_7eCPointLight_PS@@6B@
??_7eCPolyGeometryCollisionDesc@@6B@
??_7eCPortalAdmin@@6B@
??_7eCPortalCell_PS@@6B@
??_7eCPortalRoom_PS@@6B@
??_7eCPrecipitation_PS@@6B@
??_7eCPrefetchAdmin@@6B@
??_7eCPrimitiveCollisionDesc@@6B@
??_7eCPrimitiveStateGraphArrow@@6B@
??_7eCPrimitiveStateGraphLine@@6B@
??_7eCProcessible@@6B@
??_7eCProcessibleElement@@6B@
??_7eCProfilerAdmin@@6B@
??_7eCProgressbarEventArgs@@6BCFXUnknown@@@
??_7eCProgressbarEventArgs@@6BIFFUnknown@@@
??_7eCPropertyProxy@@6B@
??_7eCPropertySetProxy@@6B@
??_7eCRenderContext@@6B@
??_7eCRenderContextAnimation2@@6B@
??_7eCRenderContextDebug@@6B@
??_7eCRenderContextMesh@@6B@
??_7eCRenderContextSpeedTree@@6B@
??_7eCRenderContextSpeedTreeBB@@6B@
??_7eCRenderContextVegetation@@6B@
??_7eCRenderSystemAdmin@@6B@
??_7eCResource2@@6B@
??_7eCResourceInputStream2@@6B@
??_7eCResourceModule2@@6B@
??_7eCResourceOutputStream2@@6BbCIStream@@@
??_7eCResourceOutputStream2@@6BbCOStream@@@
??_7eCRigidBodyBase_PS@@6B@
??_7eCRigidBody_PS@@6B@
??_7eCSceneAdmin@@6B@
??_7eCScriptAdminBase@@6B@
??_7eCScriptEdit@@6B@
??_7eCScriptEdit@@6BIFFUnknown@@@
??_7eCScriptEdit@@6BeCDocObject@@@
??_7eCScriptEventArgs@@6BCFXUnknown@@@
??_7eCScriptEventArgs@@6BIFFUnknown@@@
??_7eCScriptListCtrl@@6B@
??_7eCScriptListCtrl@@6BIFFUnknown@@@
??_7eCScriptListCtrl@@6BeCDocObject@@@
??_7eCScriptProgressbar@@6B@
??_7eCScriptProgressbar@@6BIFFUnknown@@@
??_7eCScriptProgressbar@@6BeCDocObject@@@
??_7eCScriptProxy@@6B@
??_7eCScriptProxyScript@@6B@
??_7eCScriptRadioButton@@6B@
??_7eCScriptRadioButton@@6BIFFUnknown@@@
??_7eCScriptRadioButton@@6BeCDocObject@@@
??_7eCScriptStatic@@6B@
??_7eCScriptStatic@@6BIFFUnknown@@@
??_7eCScriptStatic@@6BeCDocObject@@@
??_7eCScriptTrackbar@@6B@
??_7eCScriptTrackbar@@6BIFFUnknown@@@
??_7eCScriptTrackbar@@6BeCDocObject@@@
??_7eCShaderBase@@6B@
??_7eCShaderDefault@@6B@
??_7eCShaderEllementBase@@6B@
??_7eCShaderEllementProxy@@6B@
??_7eCShaderLeafs@@6B@
??_7eCShaderLightStreaks@@6B@
??_7eCShaderMaterialAdmin@@6B@
??_7eCShaderParticle@@6B@
??_7eCShaderSkyDome@@6B@
??_7eCShadowMapBase@@6B@
??_7eCShadowMapDirectionalLight2@@6B@
??_7eCShadowMapDirectionalLight2Ex@@6B@
??_7eCShadowMapDirectionalLight2VS@@6B@
??_7eCShadowMapPointLight@@6B@
??_7eCShadowMapSpotLight@@6B@
??_7eCSkyObject@@6B@
??_7eCSkydome_PS@@6B@
??_7eCSoundResource2@@6B@
??_7eCSpeedTreeAdmin@@6B@
??_7eCSpeedTreeBBMesh_PS@@6B@
??_7eCSpeedTreeCollisionDesc@@6B@
??_7eCSpeedTreeRenderBuffer@@6B@
??_7eCSpeedTreeResource2@@6B@
??_7eCSpeedTreeWind_PS@@6B@
??_7eCSpeedTree_PS@@6B@
??_7eCSplash@@6B@
??_7eCStaticAmbientLight_PS@@6B@
??_7eCStaticEventArgs@@6BCFXUnknown@@@
??_7eCStaticEventArgs@@6BIFFUnknown@@@
??_7eCStaticLightPreprocessor@@6B@
??_7eCStaticLight_PS@@6B@
??_7eCStaticPointLight_PS@@6B@
??_7eCStatistic@@6B@
??_7eCStatisticList@@6B@
??_7eCStatisticScreen@@6B@
??_7eCStatisticText@@6B@
??_7eCStatisticView@@6B@
??_7eCStatisticViewList@@6B@
??_7eCStatisticViewText@@6B@
??_7eCStrip_PS@@6B@
??_7eCSubMesh@@6B@
??_7eCTemplateEntity@@6B@
??_7eCTexCoordSrcBase@@6B@
??_7eCTexCoordSrcBumpOffset@@6B@
??_7eCTexCoordSrcColor@@6B@
??_7eCTexCoordSrcOscillator@@6B@
??_7eCTexCoordSrcProxy@@6B@
??_7eCTexCoordSrcReflect@@6B@
??_7eCTexCoordSrcRotator@@6B@
??_7eCTexCoordSrcScale@@6B@
??_7eCTexCoordSrcScroller@@6B@
??_7eCTimer@@6B@
??_7eCTipLocString@@6B@
??_7eCTrackbarEventArgs@@6BCFXUnknown@@@
??_7eCTrackbarEventArgs@@6BIFFUnknown@@@
??_7eCUnicodeConfigFile@@6B@
??_7eCVegetationAdmin@@6B@
??_7eCVegetationBrush_PS@@6B@
??_7eCVegetation_Grid@@6B@
??_7eCVegetation_GridNode@@6B@
??_7eCVegetation_Mesh@@6B@
??_7eCVegetation_PS@@6B@
??_7eCWeatherAdmin@@6B@
??_7eCWeatherEnvironment@@6B@
??_7eCWeatherStates@@6B@
??_7eCWeatherZone_PS@@6B@
??_7eCWindow@@6B@
??_7eCWrapper_emfx3ActorInstance@@6B@
??_7eCWrapper_emfx3SkeletalMotion@@6B@
??_7eIGuiBitmap2@@6B@
??_7eIGuiBitmap2@@6BIFFGuiBitmap2@@@
??_7eIGuiBitmap2@@6BIFFUnknown@@@
??_7eIGuiCursor2@@6B0@@
??_7eIGuiCursor2@@6BIFFGuiCursor2@@@
??_7eIGuiFont2@@6B@
??_7eIGuiFont2@@6BIFFGuiFont2@@@
??_7eIGuiFont2@@6BIFFUnknown@@@
??_7eIGuiImageList2@@6B@
??_7eIGuiImageList2@@6BIFFGuiImageList2@@@
??_7eIGuiImageList2@@6BIFFUnknown@@@
??_8eCButtonEventArgs@@7BCFXUnknown@@@
??_8eCButtonEventArgs@@7BIFFGuiDataObject2@@@
??_8eCDeferredGuiBitmap2@@7B@
??_8eCDeferredGuiBitmap2@@7BIFFGuiBitmap2@@@
??_8eCDeferredGuiBitmap2@@7BeIGuiBitmap2@@@
??_8eCDeferredGuiCursor2@@7B@
??_8eCDeferredGuiCursor2@@7BIFFGuiCursor2@@@
??_8eCDeferredGuiCursor2@@7BeIGuiCursor2@@@
??_8eCDeferredGuiFont2@@7B@
??_8eCDeferredGuiFont2@@7BIFFGuiFont2@@@
??_8eCDeferredGuiFont2@@7BeIGuiFont2@@@
??_8eCEditEventArgs@@7BCFXUnknown@@@
??_8eCEditEventArgs@@7BIFFGuiDataObject2@@@
??_8eCFixedGuiBitmapFont2@@7B@
??_8eCFixedGuiBitmapFont2@@7BIFFGuiFont2@@@
??_8eCFixedGuiBitmapFont2@@7BeIGuiFont2@@@
??_8eCGuiAnimImage2@@7B@
??_8eCGuiAnimImage2@@7BIFFGuiBitmap2@@@
??_8eCGuiAnimImage2@@7BeIGuiBitmap2@@@
??_8eCGuiBaseBitmap2@@7B@
??_8eCGuiBaseBitmap2@@7BIFFGuiBitmap2@@@
??_8eCGuiBaseBitmap2@@7BeIGuiBitmap2@@@
??_8eCGuiBaseCursor2@@7B@
??_8eCGuiBaseCursor2@@7BIFFGuiCursor2@@@
??_8eCGuiBaseCursor2@@7BeIGuiCursor2@@@
??_8eCGuiBaseFont2@@7B@
??_8eCGuiBaseFont2@@7BIFFGuiFont2@@@
??_8eCGuiBaseFont2@@7BeIGuiFont2@@@
??_8eCGuiBitmap2@@7B@
??_8eCGuiBitmap2@@7BIFFGuiBitmap2@@@
??_8eCGuiBitmap2@@7BeIGuiBitmap2@@@
??_8eCGuiBitmapFont2@@7B@
??_8eCGuiBitmapFont2@@7BIFFGuiFont2@@@
??_8eCGuiBitmapFont2@@7BeIGuiFont2@@@
??_8eCGuiBitmapList2@@7B@
??_8eCGuiBitmapList2@@7BIFFGuiImageList2@@@
??_8eCGuiBitmapList2@@7BeIGuiImageList2@@@
??_8eCGuiButton2@@7B@
??_8eCGuiCheckBox2@@7B@
??_8eCGuiCursor2@@7B@
??_8eCGuiCursor2@@7BIFFGuiCursor2@@@
??_8eCGuiCursor2@@7BeIGuiCursor2@@@
??_8eCGuiDevice2@@7BCFFUnknown@@@
??_8eCGuiDevice2@@7BIFFGuiDevice2@@@
??_8eCGuiDropSource2@@7BCFXUnknown@@@
??_8eCGuiDropSource2@@7BIFFGuiDataObject2@@@
??_8eCGuiDropSource2@@7BIFFGuiDropSource2@@@
??_8eCGuiDropTarget2@@7BCFXUnknown@@@
??_8eCGuiDropTarget2@@7BIFFGuiDropTarget2@@@
??_8eCGuiEdit2@@7B@
??_8eCGuiFont2@@7B@
??_8eCGuiFont2@@7BIFFGuiFont2@@@
??_8eCGuiFont2@@7BeIGuiFont2@@@
??_8eCGuiFontFile2@@7B@
??_8eCGuiFrame2@@7B@
??_8eCGuiGroupBox2@@7B@
??_8eCGuiImage2@@7B@
??_8eCGuiImage2@@7BIFFGuiBitmap2@@@
??_8eCGuiImage2@@7BeIGuiBitmap2@@@
??_8eCGuiImageCollection2@@7B@
??_8eCGuiImageCollection2@@7BIFFGuiImageList2@@@
??_8eCGuiImageCollection2@@7BeIGuiImageList2@@@
??_8eCGuiImageList2@@7B@
??_8eCGuiImageList2@@7BIFFGuiBitmap2@@@
??_8eCGuiImageList2@@7BIFFGuiImageList2@@@
??_8eCGuiImageList2@@7BeIGuiBitmap2@@@
??_8eCGuiImageList2@@7BeIGuiImageList2@@@
??_8eCGuiLayeredImage2@@7B@
??_8eCGuiLayeredImage2@@7BIFFGuiBitmap2@@@
??_8eCGuiLayeredImage2@@7BeIGuiBitmap2@@@
??_8eCGuiListCtrl2@@7B@
??_8eCGuiPanel2@@7B@
??_8eCGuiPictureBox2@@7B@
??_8eCGuiProgressBar2@@7B@
??_8eCGuiPushButton2@@7B@
??_8eCGuiRadioButton2@@7B@
??_8eCGuiResource2@@7B@
??_8eCGuiScrollBar2@@7B@
??_8eCGuiSplitImage2@@7B@
??_8eCGuiSplitImage2@@7BIFFGuiBitmap2@@@
??_8eCGuiSplitImage2@@7BeIGuiBitmap2@@@
??_8eCGuiStatic2@@7B@
??_8eCGuiSystemFont2@@7B@
??_8eCGuiSystemFont2@@7BIFFGuiFont2@@@
??_8eCGuiSystemFont2@@7BeIGuiFont2@@@
??_8eCGuiTexture2@@7B@
??_8eCGuiTexture2@@7BIFFGuiBitmap2@@@
??_8eCGuiTexture2@@7BeIGuiBitmap2@@@
??_8eCGuiToolTipCtrl2@@7B@
??_8eCGuiTooltipData2@@7BCFXUnknown@@@
??_8eCGuiTooltipData2@@7BIFFGuiDataObject2@@@
??_8eCGuiTooltipTextCtrl2@@7B@
??_8eCGuiTrackBar2@@7B@
??_8eCGuiWindow2@@7B@
??_8eCListCtrlEventArgs@@7BCFXUnknown@@@
??_8eCListCtrlEventArgs@@7BIFFGuiDataObject2@@@
??_8eCProgressbarEventArgs@@7BCFXUnknown@@@
??_8eCProgressbarEventArgs@@7BIFFGuiDataObject2@@@
??_8eCScriptEdit@@7B@
??_8eCScriptEventArgs@@7BCFXUnknown@@@
??_8eCScriptEventArgs@@7BIFFGuiDataObject2@@@
??_8eCScriptListCtrl@@7B@
??_8eCScriptProgressbar@@7B@
??_8eCScriptRadioButton@@7B@
??_8eCScriptStatic@@7B@
??_8eCScriptTrackbar@@7B@
??_8eCStaticEventArgs@@7BCFXUnknown@@@
??_8eCStaticEventArgs@@7BIFFGuiDataObject2@@@
??_8eCTrackbarEventArgs@@7BCFXUnknown@@@
??_8eCTrackbarEventArgs@@7BIFFGuiDataObject2@@@
??_B?1??GetCenter@eCCollisionShape@@QEAAAEAVbCVector@@XZ@51
??_B?1??GetCenter@eCCollisionShape@@QEBAAEBVbCVector@@XZ@51
??_B?1??GetName@eCDynamicEntity@@UEBAAEBVbCString@@XZ@51
??_B?1??GetName@eCTemplateEntity@@UEBAAEBVbCString@@XZ@51
??_B?1??GetOrientation@eCCollisionShape@@QEAAAEAVbCMatrix3@@XZ@51
??_B?1??GetOrientation@eCCollisionShape@@QEBAAEBVbCMatrix3@@XZ@51
??_FeCAOMeshGroup@eCAmbientOcclusionPreprocessor@@QEAAXXZ
??_FeCAOMeshLoD@eCAmbientOcclusionPreprocessor@@QEAAXXZ
??_FeCFixedGuiBitmapFont2@@QEAAXXZ
??_FeCGuiAnimImage2@@QEAAXXZ
??_FeCGuiBitmapFont2@@QEAAXXZ
??_FeCGuiFont2@@QEAAXXZ
??_FeCGuiImage2@@QEAAXXZ
??_FeCGuiLayeredImage2@@QEAAXXZ
??_FeCGuiSplitImage2@@QEAAXXZ
??_FeCGuiSystemFont2@@QEAAXXZ
??_FeCPrimitiveStateGraphArrow@@QEAAXXZ
??_FeCPrimitiveStateGraphLine@@QEAAXXZ
?AccessAcceleration@eCParticle_PS@@QEAAAEAVbCVector@@XZ
?AccessAdaptScale@eCCollisionShape@@QEAAAEAMXZ
?AccessAdaptToAABB@eCCollisionShape@@QEAAAEA_NXZ
?AccessAddVelocityFromOwnerFactor@eCParticle_PS@@QEAAAEAMXZ
?AccessAirAbsorptionHF@eCAudioReverbPreset@@QEAAAEAMXZ
?AccessAlignRotation@eCVegetationBrush_PS@@QEAAAEA_NXZ
?AccessAlpha@eCColorSrcConstant@@QEAAAEAMXZ
?AccessAlphaReference@eCParticle_PS@@QEAAAEAEXZ
?AccessAlphaTest@eCParticle_PS@@QEAAAEA_NXZ
?AccessAmbientBackLightColor@eCWeatherZone_PS@@QEAAAEAVbCFloatColor@@XZ
?AccessAmbientBackLightOverwrite@eCWeatherZone_PS@@QEAAAEAV?$bTPropertyContainer@W4eEWeatherZoneOverwrite@@@@XZ
?AccessAmbientGeneralColor@eCWeatherZone_PS@@QEAAAEAVbCFloatColor@@XZ
?AccessAmbientGeneralOverwrite@eCWeatherZone_PS@@QEAAAEAV?$bTPropertyContainer@W4eEWeatherZoneOverwrite@@@@XZ
?AccessAmbientIntensity@eCWeatherZone_PS@@QEAAAEAMXZ
?AccessAmbientIntensityOverwrite@eCWeatherZone_PS@@QEAAAEAV?$bTPropertyContainer@W4eEWeatherZoneOverwrite@@@@XZ
?AccessAmplitude@eCTexCoordSrcOscillator@@QEAAAEAVbCVector2@@XZ
?AccessAmplitude@eCTexCoordSrcRotator@@QEAAAEAVbCEulerAngles@@XZ
?AccessAnchorBottom@eCGuiWindow2@@QEAAAEA_NXZ
?AccessAnchorLeft@eCGuiWindow2@@QEAAAEA_NXZ
?AccessAnchorRight@eCGuiWindow2@@QEAAAEA_NXZ
?AccessAnchorTop@eCGuiWindow2@@QEAAAEA_NXZ
?AccessAngle@eCTexCoordSrcRotator@@QEAAAEAVbCEulerAngles@@XZ
?AccessAngularDamping@eCRigidBody_PS@@QEAAAEAMXZ
?AccessAnimationFileName@eCMoverAnimationFile@@QEAAAEAVbCString@@XZ
?AccessAnimationFileName@eCMoverAnimationSkeletal@@QEAAAEAVbCString@@XZ
?AccessAnimationLength@eCColorSrcConstantAnimation@@QEAAAEAMXZ
?AccessAnimationSpeed@eCColorSrcSampler@@QEAAAEAMXZ
?AccessAreaBox@eCArea_StringProperty_PS@@QEAAAEAVbCRange3@@XZ
?AccessAspectRatio@eCCameraBase@@QEAAAEAMXZ
?AccessAspectRatio@eCColorSrcCamObstacle@@QEAAAEAMXZ
?AccessAutoFocus@eCGuiWindow2@@QEAAAEA_NXZ
?AccessAutoReset@eCAudioEmitter_PS@@QEAAAEA_NXZ
?AccessAutoReset@eCParticle_PS@@QEAAAEA_NXZ
?AccessAutoSize@eCGuiWindow2@@QEAAAEA_NXZ
?AccessAutomaticSpawning@eCParticle_PS@@QEAAAEA_NXZ
?AccessAxis@eCMoverAnimationRotate@@QEAAAEAVbCEulerAngles@@XZ
?AccessBHWindAngle@eCSpeedTreeWind_PS@@QEAAAEAVbCVector2@@XZ
?AccessBHWindSpeed@eCSpeedTreeWind_PS@@QEAAAEAVbCVector2@@XZ
?AccessBRDFLightingType@eCShaderDefault@@QEAAAEAV?$bTPropertyContainer@W4eEShaderMaterialBRDFType@@@@XZ
?AccessBVWindAngle@eCSpeedTreeWind_PS@@QEAAAEAVbCVector2@@XZ
?AccessBVWindSpeed@eCSpeedTreeWind_PS@@QEAAAEAVbCVector2@@XZ
?AccessBackLight@eCHemisphere_PS@@QEAAAEAVbCFloatColor@@XZ
?AccessBackLightAxisDirectionOffset@eCHemisphere_PS@@QEAAAEAVbCEulerAngles@@XZ
?AccessBackfaceThreshold@eCDecal_PS@@QEAAAEAMXZ
?AccessBackgroundBlendMode@eCGuiLayeredImage2@@QEAAAEAV?$bTPropertyContainer@W4eEImageLayerBlend@@@@XZ
?AccessBias@eCColorSrcCamDistance@@QEAAAEAMXZ
?AccessBias@eCColorSrcFresnel@@QEAAAEAMXZ
?AccessBillboardCount@eCBillboard_PS@@QEAAAEAHXZ
?AccessBillboards@eCSkyObject@@QEAAPEAUeSSkyObjectBillboard@1@XZ
?AccessBitmapListName@eCGuiBitmapList2@@QEAAAEAVbCString@@XZ
?AccessBitmaps@eCGuiBitmapList2@@QEAAAEAV?$bTObjArray@VeCGuiBitmapProxy2@@@@XZ
?AccessBlendAdditive@eCMoverAnimationBase@@QEAAAEA_NXZ
?AccessBlendBetweenSubdivisions@eCParticle_PS@@QEAAAEA_NXZ
?AccessBlendMode@eCBillboard_PS@@QEAAAEAV?$bTPropertyContainer@W4eEShaderMaterialBlendMode@@@@XZ
?AccessBlendMode@eCGuiImage2@@QEAAAEAV?$bTPropertyContainer@W4eEImageBlend@@@@XZ
?AccessBlendMode@eCShaderBase@@QEAAAEAV?$bTPropertyContainer@W4eEShaderMaterialBlendMode@@@@XZ
?AccessBlendTime@eCMoverAnimationBase@@QEAAAEAMXZ
?AccessBodyFlag@eCRigidBody_PS@@QEAAAEAV?$bTPropertyContainer@W4eERigidbody_Flag@@@@XZ
?AccessBounceTreshold@eCPhysicsScene_PS@@QEAAAEAMXZ
?AccessBoundary@eCCollisionMeshResource2@@QEAAAEAVbCBox@@XZ
?AccessBoundary@eCMeshResource2@@QEAAAEAVbCBox@@XZ
?AccessBoundary@eCMotionActorResource2@@QEAAAEAVbCBox@@XZ
?AccessBoundary@eCSpeedTreeResource2@@QEAAAEAVbCBox@@XZ
?AccessBoxShape@eCAudioEmitter_PS@@QEAAAEAVbCBox@@XZ
?AccessBranchExponent@eCSpeedTreeWind_PS@@QEAAAEAMXZ
?AccessCCDMotionTreshold@eCRigidBody_PS@@QEAAAEAMXZ
?AccessCastDirLightShadows@eCIlluminated_PS@@QEAAAEA_NXZ
?AccessCastDirLightShadowsOverwrite@eCIlluminated_PS@@QEAAAEAV?$bTPropertyContainer@W4eEBoolOverwrite@@@@XZ
?AccessCastDynamicShadows@eCStaticPointLight_PS@@QEAAAEA_NXZ
?AccessCastPntLightShadows@eCIlluminated_PS@@QEAAAEA_NXZ
?AccessCastPntLightShadowsOverwrite@eCIlluminated_PS@@QEAAAEAV?$bTPropertyContainer@W4eEBoolOverwrite@@@@XZ
?AccessCastShadows@eCPointLight_PS@@QEAAAEA_NXZ
?AccessCastShadows@eCStaticAmbientLight_PS@@QEAAAEA_NXZ
?AccessCastShadows@eCStaticPointLight_PS@@QEAAAEA_NXZ
?AccessCastStaticShadows@eCIlluminated_PS@@QEAAAEA_NXZ
?AccessCastStaticShadowsOverwrite@eCIlluminated_PS@@QEAAAEAV?$bTPropertyContainer@W4eEBoolOverwrite@@@@XZ
?AccessCenter@eCBillboard_PS@@QEAAAEAVbCVector2@@XZ
?AccessCenterOfMass@eCRigidBody_PS@@QEAAAEAVbCVector@@XZ
?AccessCenterVariation@eCBillboard_PS@@QEAAAEAVbCVector2@@XZ
?AccessCharSize@eCFixedGuiBitmapFont2@@QEAAAEAVbCPoint@@XZ
?AccessClearColor@eCImageFilterShadowMask@@QEAAAEAKXZ
?AccessClipDepth@eCCameraBase@@QEAAAEAVbCVector2@@XZ
?AccessClipProjection@eCCameraBase@@QEAAAEAVbCVector2@@XZ
?AccessCloudColor@eCShaderSkyDome@@QEAAAEAVbCFloatAlphaColor@@XZ
?AccessCloudColor@eCSkydome_PS@@QEAAAEAVbCFloatColor@@XZ
?AccessCloudColor@eCWeatherZone_PS@@QEAAAEAVbCFloatColor@@XZ
?AccessCloudColorOverwrite@eCWeatherZone_PS@@QEAAAEAV?$bTPropertyContainer@W4eEWeatherZoneOverwrite@@@@XZ
?AccessCloudDirection@eCSkydome_PS@@QEAAAEAVbCVector2@@XZ
?AccessCloudSize1@eCSkydome_PS@@QEAAAEAMXZ
?AccessCloudSize2@eCSkydome_PS@@QEAAAEAMXZ
?AccessCloudTexture1@eCSkydome_PS@@QEAAAEAVbCImageResourceString@@XZ
?AccessCloudTexture2@eCSkydome_PS@@QEAAAEAVbCImageResourceString@@XZ
?AccessCloudThickness@eCSkydome_PS@@QEAAAEAMXZ
?AccessCloudThickness@eCWeatherZone_PS@@QEAAAEAMXZ
?AccessCloudThicknessrOverwrite@eCWeatherZone_PS@@QEAAAEAV?$bTPropertyContainer@W4eEWeatherZoneOverwrite@@@@XZ
?AccessCollideWithCharacters@eCParticle_PS@@QEAAAEA_NXZ
?AccessCollideWithDynamic@eCParticle_PS@@QEAAAEA_NXZ
?AccessCollideWithStatic@eCParticle_PS@@QEAAAEA_NXZ
?AccessCollideWithTransparent@eCParticle_PS@@QEAAAEA_NXZ
?AccessColor@eCColorSrcConstant@@QEAAAEAVbCFloatColor@@XZ
?AccessColor@eCDirectionalLight_PS@@QEAAAEAVbCFloatColor@@XZ
?AccessColor@eCPointLight_PS@@QEAAAEAVbCFloatColor@@XZ
?AccessColor@eCStaticAmbientLight_PS@@QEAAAEAVbCFloatColor@@XZ
?AccessColor@eCStaticPointLight_PS@@QEAAAEAVbCFloatColor@@XZ
?AccessColorFormat@eCImageFilterRTBase@@QEAAAEAV?$bTPropertyContainer@W4eEColorFormat@eCGfxShared@@@@XZ
?AccessColorFunction@eCVegetationBrush_PS@@QEAAAEAV?$bTPropertyContainer@W4eEVegetationBrushColorFunction@@@@XZ
?AccessColorNoiseModify@eCVegetationBrush_PS@@QEAAAEAVbCVector2@@XZ
?AccessColorNoiseOctaves@eCVegetationBrush_PS@@QEAAAEAHXZ
?AccessColorNoiseScale@eCVegetationBrush_PS@@QEAAAEAMXZ
?AccessColorNoiseTurbulence@eCVegetationBrush_PS@@QEAAAEAV?$bTPropertyContainer@W4bENoiseTurbulence@@@@XZ
?AccessColorPepper@eCVegetationBrush_PS@@QEAAAEAVbCFloatColor@@XZ
?AccessColorSalt@eCVegetationBrush_PS@@QEAAAEAVbCFloatColor@@XZ
?AccessColorScaleRepeats@eCParticle_PS@@QEAAAEAMXZ
?AccessColors@eCColorSrcConstantSwitch@@QEAAAEAV?$bTValArray@VbCFloatAlphaColor@@@@XZ
?AccessCombinerType@eCColorSrcCombiner@@QEAAAEAV?$bTPropertyContainer@W4eEColorSrcCombinerType@@@@XZ
?AccessCompressedNormalMap@eCShaderDefault@@QEAAAEA_NXZ
?AccessContextBox@eCContextBase@@QEAAAEAVbCBox@@XZ
?AccessCoordinateSystem@eCParticle_PS@@QEAAAEAV?$bTPropertyContainer@W4eECoordinateSystem@@@@XZ
?AccessCreateOnDynamicEntities@eCDecal_PS@@QEAAAEA_NXZ
?AccessCurrentTextureTile@eCPrecipitation_PS@@QEAAAEAHXZ
?AccessCurrentTextureTile@eCWeatherStates@@QEAAAEAHXZ
?AccessCursorName@eCGuiCursor2@@QEAAAEAVbCString@@XZ
?AccessCursorSize@eCGuiCursor2@@QEAAAEAV?$bTPropertyContainer@W4eEGuiCursorSize@@@@XZ
?AccessDampingFactor@eCParticle_PS@@QEAAAEAVbCRange3@@XZ
?AccessDecayDuration@eCPointLight_PS@@QEAAAEAMXZ
?AccessDecayHFRatio@eCAudioReverbPreset@@QEAAAEAMXZ
?AccessDecayLFRatio@eCAudioReverbPreset@@QEAAAEAMXZ
?AccessDecayTime@eCAudioReverbPreset@@QEAAAEAMXZ
?AccessDefaultAnimation@eCMover_PS@@QEAAAEAVbCString@@XZ
?AccessDefaultSkinWidth@eCPhysicsScene_PS@@QEAAAEAMXZ
?AccessDefaultSleepAngVeloSquared@eCPhysicsScene_PS@@QEAAAEAMXZ
?AccessDefaultSleepLinVeloSquared@eCPhysicsScene_PS@@QEAAAEAMXZ
?AccessDensity@eCAudioReverbPreset@@QEAAAEAMXZ
?AccessDensity@eCVegetationBrush_PS@@QEAAAEAMXZ
?AccessDepthBias@eCCameraBase@@QEAAAEAMXZ
?AccessDepthSortOffset@eCParticle_PS@@QEAAAEAMXZ
?AccessDepthTest@eCParticle_PS@@QEAAAEA_NXZ
?AccessDepthWrite@eCParticle_PS@@QEAAAEA_NXZ
?AccessDiffusion@eCAudioReverbPreset@@QEAAAEAMXZ
?AccessDirection@eCPrecipitation_PS@@QEAAAEAVbCVector@@XZ
?AccessDirection@eCTexCoordSrcScroller@@QEAAAEAVbCVector2@@XZ
?AccessDirectionOffset@eCDecal_PS@@QEAAAEAVbCEulerAngles@@XZ
?AccessDirectionOffset@eCDirectionalLight_PS@@QEAAAEAVbCEulerAngles@@XZ
?AccessDirectionScale@eCPrecipitation_PS@@QEAAAEAMXZ
?AccessDirectionScale@eCWeatherStates@@QEAAAEAMXZ
?AccessDisableAmbientOcclusion@eCShaderDefault@@QEAAAEA_NXZ
?AccessDisableCollision@eCCollisionShape@@QEAAAEA_NXZ
?AccessDisableCollision@eCCollisionShape_PS@@QEAAAEA_NXZ
?AccessDisableCollision@eCMaterialResource2@@QEAAAEA_NXZ
?AccessDisableDirLightShadows@eCShaderDefault@@QEAAAEA_NXZ
?AccessDisableFog@eCShaderDefault@@QEAAAEA_NXZ
?AccessDisableFogging@eCParticle_PS@@QEAAAEA_NXZ
?AccessDisableLighting@eCShaderDefault@@QEAAAEA_NXZ
?AccessDisablePntLightShadows@eCShaderDefault@@QEAAAEA_NXZ
?AccessDisableResponse@eCCollisionShape@@QEAAAEA_NXZ
?AccessDisableResponse@eCCollisionShape_PS@@QEAAAEA_NXZ
?AccessDisableResponse@eCMaterialResource2@@QEAAAEA_NXZ
?AccessDistance@eCAudioRollOffPreset@@QEAAAEAVbCRange1@@XZ
?AccessDistanceType@eCColorSrcCamDistance@@QEAAAEAV?$bTPropertyContainer@W4eEDistanceType@@@@XZ
?AccessDizzerScale@eCImageFilterShadowMask@@QEAAAEAMXZ
?AccessDock@eCGuiWindow2@@QEAAAEAV?$bTPropertyContainer@W4eEDock@@@@XZ
?AccessDoubleSided@eCShaderDefault@@QEAAAEA_NXZ
?AccessDoubleSided@eCVegetation_Mesh@@QEAAAEA_NXZ
?AccessDrawCallDescription@eCGfxVisual@@QEAAAEAUeSGfxDrawCallDesc@eCGfxShared@@XZ
?AccessDrawStyle@eCGuiSplitImage2@@QEAAAEAV?$bTPropertyContainer@W4eESplitImageStyle@@@@XZ
?AccessDrawStyle@eCParticle_PS@@QEAAAEAV?$bTPropertyContainer@W4eETextureDrawStyle@@@@XZ
?AccessDuration@eCSoundResource2@@QEAAAEAKXZ
?AccessDynFrictionScaling@eCPhysicsScene_PS@@QEAAAEAMXZ
?AccessEchoDepth@eCAudioReverbPreset@@QEAAAEAMXZ
?AccessEchoTime@eCAudioReverbPreset@@QEAAAEAMXZ
?AccessEditorBillboard@eCBillboard_PS@@QEAAAEA_NXZ
?AccessEffect@eCPointLight_PS@@QEAAAEAV?$bTPropertyContainer@W4eEDynamicLightEffect@@@@XZ
?AccessEffectColor@eCPointLight_PS@@QEAAAEAVbCFloatColor@@XZ
?AccessEffectPeriod@eCPointLight_PS@@QEAAAEAMXZ
?AccessEffectPhase@eCPointLight_PS@@QEAAAEAMXZ
?AccessEffectProbability@eCWeatherStates@@QEAAAEAMXZ
?AccessEffects@eCMotionResource2@@QEAAAEAV?$bTObjArray@USEffect@eCMotionResource2@@@@XZ
?AccessEnableAlphaZWrite@eCShaderDefault@@QEAAAEA_NXZ
?AccessEnableCCD@eCCollisionShape@@QEAAAEA_NXZ
?AccessEnableDecals@eCMesh_PS@@QEAAAEA_NXZ
?AccessEnableFading@eCShaderLightStreaks@@QEAAAEA_NXZ
?AccessEnableFog@eCShaderParticle@@QEAAAEA_NXZ
?AccessEnableRadiosity@eCMesh_PS@@QEAAAEA_NXZ
?AccessEnableRepositioning@eCAnimation_PS@@QEAAAEA_NXZ
?AccessEnableSSAO@eCImageFilterShadowMask@@QEAAAEA_NXZ
?AccessEnableSpecular@eCShaderDefault@@QEAAAEA_NXZ
?AccessEnableWind@eCSpeedTree_PS@@QEAAAEA_NXZ
?AccessEnabled@eCAudioEmitter_PS@@QEAAAEA_NXZ
?AccessEnabled@eCDynamicLight_PS@@QEAAAEA_NXZ
?AccessEnabled@eCParticle_PS@@QEAAAEA_NXZ
?AccessEnabled@eCStrip_PS@@QEAAAEA_NXZ
?AccessEnabledDepthOutput@eCImageFilterScene@@QEAAAEA_NXZ
?AccessEnabledHDR@eCImageFilterScene@@QEAAAEA_NXZ
?AccessEndAlpha@eCStrip_PS@@QEAAAEAMXZ
?AccessEndColor@eCStrip_PS@@QEAAAEAVbCFloatColor@@XZ
?AccessEnvDiffusion@eCAudioReverbPreset@@QEAAAEAMXZ
?AccessEnvSize@eCAudioReverbPreset@@QEAAAEAMXZ
?AccessEnvironment@eCAudioReverbPreset@@QEAAAEAHXZ
?AccessExtends@eCSubMesh@@QEAAAEAVbCBox@@XZ
?AccessExtentMultiplier@eCParticle_PS@@QEAAAEAVbCVector@@XZ
?AccessFaceInFactor@eCParticle_PS@@QEAAAEAVbCFloatAlphaColor@@XZ
?AccessFaceName@eCGuiSystemFontLanguage2@@QEAAAEAVbCString@@XZ
?AccessFaceOutFactor@eCParticle_PS@@QEAAAEAVbCFloatAlphaColor@@XZ
?AccessFacingDirection@eCParticle_PS@@QEAAAEAV?$bTPropertyContainer@W4eEFacingDirection@@@@XZ
?AccessFadeIn@eCParticle_PS@@QEAAAEA_NXZ
?AccessFadeInEndTime@eCParticle_PS@@QEAAAEAMXZ
?AccessFadeInTime@eCDecal_PS@@QEAAAEAMXZ
?AccessFadeOut@eCParticle_PS@@QEAAAEA_NXZ
?AccessFadeOutInSec@eCStrip_PS@@QEAAAEAMXZ
?AccessFadeOutStart@eCVegetation_PS@@QEAAAEAMXZ
?AccessFadeOutStartTime@eCParticle_PS@@QEAAAEAMXZ
?AccessFadeOutTime@eCDecal_PS@@QEAAAEAMXZ
?AccessFadeWaveLenght@eCShaderLightStreaks@@QEAAAEAMXZ
?AccessFallOff@eCAudioEmitter_PS@@QEAAAEAV?$bTPropertyContainer@W4eEAudioChannelFallOff@@@@XZ
?AccessFallOff@eCAudioRollOffPreset@@QEAAAEAV?$bTPropertyContainer@W4eEAudioChannelFallOff@@@@XZ
?AccessFallbackMaterial@eCShaderBase@@QEAAAEAVbCImageOrMaterialResourceString@@XZ
?AccessFieldOfView@eCCameraBase@@QEAAAEAMXZ
?AccessFileVersion@eCCollisionShape@@QEAAAEAGXZ
?AccessFirstChar@eCFixedGuiBitmapFont2@@QEAAAEAGXZ
?AccessFirstIndex@eCSubMesh@@QEAAAEAKXZ
?AccessFirstVertex@eCSubMesh@@QEAAAEAKXZ
?AccessFlags@eCSoundResource2@@QEAAAEAEXZ
?AccessFocalRange@eCCameraBase@@QEAAAEAVbCVector@@XZ
?AccessFogColor@eCWeatherZone_PS@@QEAAAEAVbCFloatColor@@XZ
?AccessFogColorOverwrite@eCWeatherZone_PS@@QEAAAEAV?$bTPropertyContainer@W4eEWeatherZoneOverwrite@@@@XZ
?AccessFogDensity@eCWeatherZone_PS@@QEAAAEAMXZ
?AccessFogDensityOverwrite@eCWeatherZone_PS@@QEAAAEAV?$bTPropertyContainer@W4eEWeatherZoneOverwrite@@@@XZ
?AccessFogEnd@eCWeatherZone_PS@@QEAAAEAMXZ
?AccessFogEndrOverwrite@eCWeatherZone_PS@@QEAAAEAV?$bTPropertyContainer@W4eEWeatherZoneOverwrite@@@@XZ
?AccessFogStart@eCWeatherZone_PS@@QEAAAEAMXZ
?AccessFogStartrOverwrite@eCWeatherZone_PS@@QEAAAEAV?$bTPropertyContainer@W4eEWeatherZoneOverwrite@@@@XZ
?AccessFrameIndent@eCGuiSplitImage2@@QEAAAEAVbCRect@@XZ
?AccessFramesPerSecond@eCGuiAnimImage2@@QEAAAEAMXZ
?AccessGenMipMaps@eCImageFilterTextureRandom@@QEAAAEA_NXZ
?AccessGeneralAmbient@eCHemisphere_PS@@QEAAAEAVbCFloatColor@@XZ
?AccessGlobalSizeScale@eCParticle_PS@@QEAAAEAVbCRange1@@XZ
?AccessGravityVector@eCPhysicsScene_PS@@QEAAAEAVbCVector@@XZ
?AccessGridNodeSize@eCVegetation_PS@@QEAAAEAMXZ
?AccessGroundLight@eCHemisphere_PS@@QEAAAEAVbCFloatColor@@XZ
?AccessGroup@eCCollisionShape@@QEAAAEAV?$bTPropertyContainer@W4eEShapeGroup@@@@XZ
?AccessGroup@eCCollisionShape_PS@@QEAAAEAV?$bTPropertyContainer@W4eECollisionGroup@@@@XZ
?AccessGustDuration@eCSpeedTreeWind_PS@@QEAAAEAVbCVector2@@XZ
?AccessGustFrequency@eCSpeedTreeWind_PS@@QEAAAEAMXZ
?AccessGustStrength@eCSpeedTreeWind_PS@@QEAAAEAVbCVector2@@XZ
?AccessHFReference@eCAudioReverbPreset@@QEAAAEAMXZ
?AccessHazeColor@eCShaderSkyDome@@QEAAAEAVbCFloatColor@@XZ
?AccessHazeColor@eCWeatherZone_PS@@QEAAAEAVbCFloatColor@@XZ
?AccessHazeColorOverwrite@eCWeatherZone_PS@@QEAAAEAV?$bTPropertyContainer@W4eEWeatherZoneOverwrite@@@@XZ
?AccessHeight@eCImageFilterTextureRandom@@QEAAAEAHXZ
?AccessHeight@eCImageResource2@@QEAAAEAHXZ
?AccessHighQuality@eCImageFilterShadowMask@@QEAAAEA_NXZ
?AccessHitByProjectile@eCCollisionShape_PS@@QEAAAEA_NXZ
?AccessHitByProjectile@eCMesh_PS@@QEAAAEA_NXZ
?AccessHotSpot@eCGuiCursor2@@QEAAAEAVbCPoint@@XZ
?AccessID@eCContextBase@@QEAAAEAVbCGuid@@XZ
?AccessIconSize@eCGuiCursor2@@QEAAAEAVbCPoint@@XZ
?AccessIconSizeLarge@eCGuiListCtrl2@@QEAAAEAVbCPoint@@XZ
?AccessIconSizeSmall@eCGuiListCtrl2@@QEAAAEAVbCPoint@@XZ
?AccessIgnoredByTraceRay@eCCollisionShape@@QEAAAEA_NXZ
?AccessIgnoredByTraceRay@eCCollisionShape_PS@@QEAAAEA_NXZ
?AccessIgnoredByTraceRay@eCMaterialResource2@@QEAAAEA_NXZ
?AccessImageCollectionName@eCGuiImageCollection2@@QEAAAEAVbCString@@XZ
?AccessImageEffectName@eCImageFilterImageEffect@@QEAAAEAVbCString@@XZ
?AccessImageFilePath@eCColorSrcCubeSampler@@QEAAAEAVbCImageResourceString@@XZ
?AccessImageFilePath@eCColorSrcSampler@@QEAAAEAVbCImageResourceString@@XZ
?AccessImageFilter@eCImageEffect@@QEAAAEAV?$bTRefPropertyArray@PEAVeCImageFilterBase@@@@XZ
?AccessImageName@eCGuiImage2@@QEAAAEAVbCString@@XZ
?AccessImageOrMaterial@eCBillboard_PS@@QEAAAEAVbCImageOrMaterialResourceString@@XZ
?AccessImageOrMaterial@eCDecal_PS@@QEAAAEAVbCImageOrMaterialResourceString@@XZ
?AccessImageSize@eCGuiBitmapList2@@QEAAAEAVbCPoint@@XZ
?AccessImageSize@eCGuiImageCollection2@@QEAAAEAVbCPoint@@XZ
?AccessImageSize@eCGuiImageList2@@QEAAAEAVbCPoint@@XZ
?AccessImgOverlay@eCGuiPictureBox2@@QEAAAEAVeCGuiBitmapProxy2@@XZ
?AccessImgOverlay@eCScriptRadioButton@@QEAAAEAVeCGuiBitmapProxy2@@XZ
?AccessInZoneScript@eCWeatherZone_PS@@QEAAAEAVeCScriptProxyScript@@XZ
?AccessIndexCount@eCSubMesh@@QEAAAEAKXZ
?AccessIndoorAmbientColor@eCHemisphere_PS@@QEAAAEAVbCFloatColor@@XZ
?AccessInfluenceGlobalAmbientOcclusion@eCSpeedTree_PS@@QEAAAEA_NXZ
?AccessInitialAge@eCParticle_PS@@QEAAAEAVbCRange1@@XZ
?AccessInitialDelay@eCParticle_PS@@QEAAAEAVbCRange1@@XZ
?AccessInnerConeScale@eCLightStreaks_PS@@QEAAAEAMXZ
?AccessInnerExtends@eCWeatherZone_PS@@QEAAAEAVbCVector@@XZ
?AccessInnerLenghtScale@eCLightStreaks_PS@@QEAAAEAMXZ
?AccessInnerRadius@eCWeatherZone_PS@@QEAAAEAMXZ
?AccessInputSizeIndex@eCImageFilterRTBase@@QEAAAEAJXZ
?AccessInputSizeScale@eCImageFilterRTBase@@QEAAAEAVbCVector2@@XZ
?AccessInstanced@eCParticle_PS@@QEAAAEA_NXZ
?AccessIntensity@eCDirectionalLight_PS@@QEAAAEAMXZ
?AccessIntensity@eCHemisphere_PS@@QEAAAEAMXZ
?AccessIntensity@eCPointLight_PS@@QEAAAEAMXZ
?AccessIntensity@eCStaticAmbientLight_PS@@QEAAAEAMXZ
?AccessIntensity@eCStaticPointLight_PS@@QEAAAEAMXZ
?AccessIsClimbable@eCCollisionShape_PS@@QEAAAEA_NXZ
?AccessIsConvex@eCCollisionMeshResource2@@QEAAAEA_NXZ
?AccessIsLazyGenerated@eCCollisionShape@@QEAAAEA_NXZ
?AccessIsPersistable@eCProcessibleElement@@QEAAAEA_NXZ
?AccessIsPhysicsEnabled@eCPhysicsScene@@QEAAAEA_NXZ
?AccessIsPhysicsEnabled@eCPhysicsScene_PS@@QEAAAEA_NXZ
?AccessIsUnique@eCCollisionShape_PS@@QEAAAEA_NXZ
?AccessIteratorReportAtIndex@eCIterator@@QEAAAEAVeCIteratorReport@@H@Z
?AccessJitterPower@eCPrecipitation_PS@@QEAAAEAMXZ
?AccessJitterPower@eCWeatherStates@@QEAAAEAMXZ
?AccessJitterSpeed@eCPrecipitation_PS@@QEAAAEAMXZ
?AccessJitterSpeed@eCWeatherStates@@QEAAAEAMXZ
?AccessKeyboardDisabled@eCGuiWindow2@@QEAAAEA_NXZ
?AccessLFReference@eCAudioReverbPreset@@QEAAAEAMXZ
?AccessLRockWindAngle@eCSpeedTreeWind_PS@@QEAAAEAVbCVector2@@XZ
?AccessLRockWindSpeed@eCSpeedTreeWind_PS@@QEAAAEAVbCVector2@@XZ
?AccessLRustleWindAngle@eCSpeedTreeWind_PS@@QEAAAEAVbCVector2@@XZ
?AccessLRustleWindSpeed@eCSpeedTreeWind_PS@@QEAAAEAVbCVector2@@XZ
?AccessLabelID@eCGuiScrollBar2@@QEAAAEAGXZ
?AccessLabelID@eCGuiTrackBar2@@QEAAAEAGXZ
?AccessLanguage@eCGuiSystemFontLanguage2@@QEAAAEAVbCString@@XZ
?AccessLanguages@eCGuiSystemFont2@@QEAAAEAV?$bTObjArray@VeCGuiSystemFontLanguage2@@@@XZ
?AccessLastChar@eCFixedGuiBitmapFont2@@QEAAAEAGXZ
?AccessLayers@eCImageFilterTextureRandom@@QEAAAEAHXZ
?AccessLeafExponent@eCSpeedTreeWind_PS@@QEAAAEAMXZ
?AccessLength@eCMoverAnimationRotate@@QEAAAEAMXZ
?AccessLifeTime@eCDecal_PS@@QEAAAEAMXZ
?AccessLifetime@eCParticle_PS@@QEAAAEAVbCRange1@@XZ
?AccessLightDiffuseColor@eCWeatherZone_PS@@QEAAAEAVbCFloatColor@@XZ
?AccessLightDiffuseOverwrite@eCWeatherZone_PS@@QEAAAEAV?$bTPropertyContainer@W4eEWeatherZoneOverwrite@@@@XZ
?AccessLightDirection@eCCascadeShadowMap@@QEAAAEAVbCVector@@XZ
?AccessLightIntensity@eCWeatherZone_PS@@QEAAAEAMXZ
?AccessLightIntensityOverwrite@eCWeatherZone_PS@@QEAAAEAV?$bTPropertyContainer@W4eEWeatherZoneOverwrite@@@@XZ
?AccessLightSpecularColor@eCWeatherZone_PS@@QEAAAEAVbCFloatColor@@XZ
?AccessLightSpecularOverwrite@eCWeatherZone_PS@@QEAAAEAV?$bTPropertyContainer@W4eEWeatherZoneOverwrite@@@@XZ
?AccessLightingStyle@eCParticle_PS@@QEAAAEAV?$bTPropertyContainer@W4eELightingStyle@@@@XZ
?AccessLightmapName@eCMeshResource2@@QEAAAEAVbCString@@XZ
?AccessLightmaped@eCMesh_PS@@QEAAAEA_NXZ
?AccessLinearDamping@eCRigidBody_PS@@QEAAAEAMXZ
?AccessLinks@eCSoundResource2@@QEAAAEAV?$bTObjArray@USLink@eCSoundResource2@@@@XZ
?AccessLoDFactor@eCSpeedTree_PS@@QEAAAEAMXZ
?AccessLoDFarDistance@eCSpeedTree_PS@@QEAAAEAMXZ
?AccessLoDNearDistance@eCSpeedTree_PS@@QEAAAEAMXZ
?AccessLogSplitFactor@eCCascadeShadowMap@@QEAAAEAMXZ
?AccessLoopCount@eCMoverAnimationBase@@QEAAAEAHXZ
?AccessLoopSample@eCWeatherStates@@QEAAAEAVbCString@@XZ
?AccessLoopVolume@eCWeatherStates@@QEAAAEAMXZ
?AccessMaskReference@eCShaderBase@@QEAAAEAEXZ
?AccessMaskThreshold@eCColorSrcMask@@QEAAAEAMXZ
?AccessMassSpaceInertia@eCRigidBody_PS@@QEAAAEAVbCVector@@XZ
?AccessMaterial@eCCollisionShape@@QEAAAEAV?$bTPropertyContainer@W4eEShapeMaterial@@@@XZ
?AccessMaterial@eCParticle_PS@@QEAAAEAVbCImageOrMaterialResourceString@@XZ
?AccessMaterial@eCStrip_PS@@QEAAAEAVbCString@@XZ
?AccessMaterialName@eCSubMesh@@QEAAAEAVbCString@@XZ
?AccessMaterialResource@eCLightStreaks_PS@@QEAAAEAVbCImageOrMaterialResourceString@@XZ
?AccessMaterialSwitch@eCAnimation_PS@@QEAAAEAHXZ
?AccessMaterialSwitch@eCBillboard_PS@@QEAAAEAKXZ
?AccessMaterialSwitch@eCBodyPart_PS@@QEAAAEAHXZ
?AccessMaterialSwitch@eCMesh_PS@@QEAAAEAHXZ
?AccessMaterialSwitch@eCStrip_PS@@QEAAAEAHXZ
?AccessMaxAbsoluteVelocity@eCParticle_PS@@QEAAAEAVbCVector@@XZ
?AccessMaxAngularVelocity@eCRigidBody_PS@@QEAAAEAMXZ
?AccessMaxBendAngle@eCSpeedTreeWind_PS@@QEAAAEAMXZ
?AccessMaxCollisions@eCParticle_PS@@QEAAAEAVbCRange1@@XZ
?AccessMaxDistance@eCAudioEmitter_PS@@QEAAAEAMXZ
?AccessMaxDistance@eCCascadeShadowMap@@QEAAAEAMXZ
?AccessMaxLenght@eCLightStreaks_PS@@QEAAAEAMXZ
?AccessMaxNumParticles@eCParticle_PS@@QEAAAEAHXZ
?AccessMaxNumRepeats@eCAudioEmitter_PS@@QEAAAEAVbCRange1@@XZ
?AccessMaxParticles@eCPrecipitation_PS@@QEAAAEAKXZ
?AccessMaxScaling@eCVegetationBrush_PS@@QEAAAEAVbCVector2@@XZ
?AccessMaxSegmentCount@eCStrip_PS@@QEAAAEAHXZ
?AccessMaxShaderVersion@eCShaderBase@@QEAAAEAV?$bTPropertyContainer@W4eEShaderMaterialVersion@@@@XZ
?AccessMaxSpawnPoints@eCPrecipitation_PS@@QEAAAEAKXZ
?AccessMaxSubMeshTriangles@eCMesh_PS@@QEAAAEAHXZ
?AccessMaxSubMeshTriangles@eCSpeedTreeBBMesh_PS@@QEAAAEAHXZ
?AccessMaximumAngularVelocity@eCPhysicsScene_PS@@QEAAAEAMXZ
?AccessMesh@eCLightStreaks_PS@@QEAAAEAVbCMeshResourceString@@XZ
?AccessMeshFaceDirTollerance@eCBillboard_PS@@QEAAAEAMXZ
?AccessMeshFaceDirection@eCBillboard_PS@@QEAAAEAVbCVector@@XZ
?AccessMeshFileName@eCEditorEntityPropertySet@@QEAAAEAVbCString@@XZ
?AccessMeshFilePath@eCVegetation_Mesh@@QEAAAEAVbCMeshResourceString@@XZ
?AccessMeshID@eCVegetation_Mesh@@IEAAAEAUeSVegetationMeshID@@XZ
?AccessMeshShading@eCVegetation_Mesh@@QEAAAEAV?$bTPropertyContainer@W4eEVegetationMeshShading@@@@XZ
?AccessMinDistance@eCAudioEmitter_PS@@QEAAAEAMXZ
?AccessMinLenght@eCLightStreaks_PS@@QEAAAEAMXZ
?AccessMinScaling@eCVegetationBrush_PS@@QEAAAEAVbCVector2@@XZ
?AccessMinSpacing@eCVegetation_Mesh@@QEAAAEAMXZ
?AccessMinSquaredVelocity@eCParticle_PS@@QEAAAEAMXZ
?AccessMode@eCVegetationBrush_PS@@QEAAAEAV?$bTPropertyContainer@W4eEVegetationBrushMode@@@@XZ
?AccessModulationDepth@eCAudioReverbPreset@@QEAAAEAMXZ
?AccessModulationTime@eCAudioReverbPreset@@QEAAAEAMXZ
?AccessMoonColor@eCSkydome_PS@@QEAAAEAVbCFloatColor@@XZ
?AccessMoonSize@eCSkydome_PS@@QEAAAEAMXZ
?AccessMoonTexture@eCSkydome_PS@@QEAAAEAVbCImageResourceString@@XZ
?AccessName@eCGuiWindow2@@QEAAAEAVbCString@@XZ
?AccessName@eCImageFilterBase@@QEAAAEAVbCString@@XZ
?AccessName@eCMoverAnimationBase@@QEAAAEAVbCString@@XZ
?AccessNormalize@eCImageFilterTextureRandom@@QEAAAEA_NXZ
?AccessNumUSubdivisions@eCGuiAnimImage2@@QEAAAEAHXZ
?AccessNumUSubdivisions@eCParticle_PS@@QEAAAEAHXZ
?AccessNumVSubdivisions@eCGuiAnimImage2@@QEAAAEAHXZ
?AccessNumVSubdivisions@eCParticle_PS@@QEAAAEAHXZ
?AccessOffset@eCBillboard_PS@@QEAAAEAVbCVector@@XZ
?AccessOffset@eCDecal_PS@@QEAAAEAVbCVector@@XZ
?AccessOffset@eCPointLight_PS@@QEAAAEAVbCVector@@XZ
?AccessOffset@eCStaticAmbientLight_PS@@QEAAAEAVbCVector@@XZ
?AccessOffset@eCStaticPointLight_PS@@QEAAAEAVbCVector@@XZ
?AccessOffset@eCTexCoordSrcOscillator@@QEAAAEAVbCVector2@@XZ
?AccessOffset@eCTexCoordSrcRotator@@QEAAAEAVbCVector2@@XZ
?AccessOffsetAmount@eCTexCoordSrcBumpOffset@@QEAAAEAMXZ
?AccessOffsetLeft@eCStrip_PS@@QEAAAEAVbCVector@@XZ
?AccessOffsetRight@eCStrip_PS@@QEAAAEAVbCVector@@XZ
?AccessOffsetVariation@eCBillboard_PS@@QEAAAEAVbCVector@@XZ
?AccessOffsetX@eCLightmapBitmap@@QEAAAEAJXZ
?AccessOffsetY@eCLightmapBitmap@@QEAAAEAJXZ
?AccessOnChange@eCScriptEdit@@QEAAAEAVeCScriptProxyScript@@XZ
?AccessOnClick@eCScriptRadioButton@@QEAAAEAVeCScriptProxyScript@@XZ
?AccessOnDestroy@eCScriptEdit@@QEAAAEAVeCScriptProxyScript@@XZ
?AccessOnDestroy@eCScriptListCtrl@@QEAAAEAVeCScriptProxyScript@@XZ
?AccessOnDestroy@eCScriptProgressbar@@QEAAAEAVeCScriptProxyScript@@XZ
?AccessOnDestroy@eCScriptRadioButton@@QEAAAEAVeCScriptProxyScript@@XZ
?AccessOnDestroy@eCScriptStatic@@QEAAAEAVeCScriptProxyScript@@XZ
?AccessOnDestroy@eCScriptTrackbar@@QEAAAEAVeCScriptProxyScript@@XZ
?AccessOnDragAction@eCScriptListCtrl@@QEAAAEAVeCScriptProxyScript@@XZ
?AccessOnDragAction@eCScriptStatic@@QEAAAEAVeCScriptProxyScript@@XZ
?AccessOnDropResult@eCScriptListCtrl@@QEAAAEAVeCScriptProxyScript@@XZ
?AccessOnDropResult@eCScriptStatic@@QEAAAEAVeCScriptProxyScript@@XZ
?AccessOnGameMsg@eCScriptEdit@@QEAAAEAVeCScriptProxyScript@@XZ
?AccessOnGameMsg@eCScriptListCtrl@@QEAAAEAVeCScriptProxyScript@@XZ
?AccessOnGameMsg@eCScriptProgressbar@@QEAAAEAVeCScriptProxyScript@@XZ
?AccessOnGameMsg@eCScriptRadioButton@@QEAAAEAVeCScriptProxyScript@@XZ
?AccessOnGameMsg@eCScriptStatic@@QEAAAEAVeCScriptProxyScript@@XZ
?AccessOnGameMsg@eCScriptTrackbar@@QEAAAEAVeCScriptProxyScript@@XZ
?AccessOnInit@eCScriptEdit@@QEAAAEAVeCScriptProxyScript@@XZ
?AccessOnInit@eCScriptListCtrl@@QEAAAEAVeCScriptProxyScript@@XZ
?AccessOnInit@eCScriptProgressbar@@QEAAAEAVeCScriptProxyScript@@XZ
?AccessOnInit@eCScriptRadioButton@@QEAAAEAVeCScriptProxyScript@@XZ
?AccessOnInit@eCScriptStatic@@QEAAAEAVeCScriptProxyScript@@XZ
?AccessOnInit@eCScriptTrackbar@@QEAAAEAVeCScriptProxyScript@@XZ
?AccessOnItemActivate@eCScriptListCtrl@@QEAAAEAVeCScriptProxyScript@@XZ
?AccessOnItemChanged@eCScriptListCtrl@@QEAAAEAVeCScriptProxyScript@@XZ
?AccessOnKeyDown@eCScriptListCtrl@@QEAAAEAVeCScriptProxyScript@@XZ
?AccessOnMouse@eCScriptListCtrl@@QEAAAEAVeCScriptProxyScript@@XZ
?AccessOnPaint@eCScriptEdit@@QEAAAEAVeCScriptProxyScript@@XZ
?AccessOnPaint@eCScriptListCtrl@@QEAAAEAVeCScriptProxyScript@@XZ
?AccessOnPaint@eCScriptProgressbar@@QEAAAEAVeCScriptProxyScript@@XZ
?AccessOnPaint@eCScriptRadioButton@@QEAAAEAVeCScriptProxyScript@@XZ
?AccessOnPaint@eCScriptStatic@@QEAAAEAVeCScriptProxyScript@@XZ
?AccessOnPaint@eCScriptTrackbar@@QEAAAEAVeCScriptProxyScript@@XZ
?AccessOnSelectChange@eCScriptTrackbar@@QEAAAEAVeCScriptProxyScript@@XZ
?AccessOnUpdateData@eCScriptListCtrl@@QEAAAEAVeCScriptProxyScript@@XZ
?AccessOpacity@eCStrip_PS@@QEAAAEAMXZ
?AccessOpacityCenter@eCVegetationBrush_PS@@QEAAAEAMXZ
?AccessOpacityFalloff@eCVegetationBrush_PS@@QEAAAEAMXZ
?AccessOscillatorTypeU@eCTexCoordSrcOscillator@@QEAAAEAV?$bTPropertyContainer@W4eETexCoordSrcOscillatorType@@@@XZ
?AccessOscillatorTypeV@eCTexCoordSrcOscillator@@QEAAAEAV?$bTPropertyContainer@W4eETexCoordSrcOscillatorType@@@@XZ
?AccessOuterConeScale@eCLightStreaks_PS@@QEAAAEAMXZ
?AccessOuterExtends@eCWeatherZone_PS@@QEAAAEAVbCVector@@XZ
?AccessOuterRadius@eCWeatherZone_PS@@QEAAAEAMXZ
?AccessOutputMode@eCImageFilterRTBase@@QEAAAEAV?$bTPropertyContainer@W4eEIFOutputMode@@@@XZ
?AccessOverlayBlendMode@eCGuiLayeredImage2@@QEAAAEAV?$bTPropertyContainer@W4eEImageLayerBlend@@@@XZ
?AccessOverrideEntityAABB@eCCollisionShape@@QEAAAEA_NXZ
?AccessParticlesPerSecond@eCParticle_PS@@QEAAAEAMXZ
?AccessParticlesPerSecond@eCPrecipitation_PS@@QEAAAEAHXZ
?AccessParticlesPerSecond@eCWeatherStates@@QEAAAEAHXZ
?AccessPerspective@eCCameraBase@@QEAAAEA_NXZ
?AccessPhase@eCTexCoordSrcOscillator@@QEAAAEAVbCVector2@@XZ
?AccessPhase@eCTexCoordSrcRotator@@QEAAAEAVbCEulerAngles@@XZ
?AccessPhysicMaterial@eCMaterialResource2@@QEAAAEAV?$bTPropertyContainer@W4eEShapeMaterial@@@@XZ
?AccessPhysicsEnabled@eCRigidBodyBase_PS@@QEAAAEA_NXZ
?AccessPixelFormat@eCImageResource2@@QEAAAEAV?$bTPropertyContainer@W4eEColorFormat@eCGfxShared@@@@XZ
?AccessPlaceOnTargetMesh@eCBillboard_PS@@QEAAAEA_NXZ
?AccessPlacement@eCVegetationBrush_PS@@QEAAAEAV?$bTPropertyContainer@W4eEVegetationBrushPlace@@@@XZ
?AccessPlayBackMode@eCMoverAnimationBase@@QEAAAEAV?$bTPropertyContainer@W4eEMoverPlayBackMode@@@@XZ
?AccessPosition@eCCameraBase@@QEAAAEAVbCVector@@XZ
?AccessPosition@eCMoverAnimationBezier@@QEAAAEAV?$bTInterpolatorBezier@VbCVector@@U?$bSKeyFrameBezier@VbCVector@@@@@@XZ
?AccessPosition@eCMoverAnimationHermit@@QEAAAEAV?$bTInterpolatorHermit@VbCVector@@U?$bSKeyFrameHermitEx@VbCVector@@@@@@XZ
?AccessPosition@eCMoverAnimationLinear@@QEAAAEAV?$bTInterpolatorLinear@VbCVector@@U?$bSKeyFrameLinearEx@VbCVector@@@@@@XZ
?AccessPosition@eCMoverAnimationTCB@@QEAAAEAV?$bTInterpolatorHermit@VbCVector@@U?$bSKeyFrameTCBEx@VbCVector@@@@@@XZ
?AccessPower@eCColorSrcCamDistance@@QEAAAEAMXZ
?AccessPower@eCColorSrcFresnel@@QEAAAEAMXZ
?AccessPrecipitationCubeSize@eCPrecipitation_PS@@QEAAAEAMXZ
?AccessProbabilityFunction@eCVegetationBrush_PS@@QEAAAEAV?$bTPropertyContainer@W4eEVegetationBrushProbabilityFunction@@@@XZ
?AccessProbabilityNoiseModify@eCVegetationBrush_PS@@QEAAAEAVbCVector2@@XZ
?AccessProbabilityNoiseOctaves@eCVegetationBrush_PS@@QEAAAEAHXZ
?AccessProbabilityNoiseScale@eCVegetationBrush_PS@@QEAAAEAMXZ
?AccessProbabilityNoiseTurbulence@eCVegetationBrush_PS@@QEAAAEAV?$bTPropertyContainer@W4bENoiseTurbulence@@@@XZ
?AccessProjectionMatrix@eCCameraBase@@QEAAAEAVbCMatrix@@XZ
?AccessProjectionNormal@eCParticle_PS@@QEAAAEAVbCVector@@XZ
?AccessPropertyNameList@eCArea_StringProperty_PS@@QEAAAEAV?$bTObjArray@VbCString@@@@XZ
?AccessPublic@eCImageFilterBase@@QEAAAEA_NXZ
?AccessRadiusAdd@eCColorSrcCamObstacle@@QEAAAEAMXZ
?AccessRadiusMultiply@eCColorSrcCamObstacle@@QEAAAEAMXZ
?AccessRagDollMass@eCAnimation_PS@@QEAAAEAMXZ
?AccessRandomEffect@eCWeatherStates@@QEAAAEAVbCString@@XZ
?AccessRandomRotation@eCVegetationBrush_PS@@QEAAAEAMXZ
?AccessRandomSubdivision@eCParticle_PS@@QEAAAEA_NXZ
?AccessRandomTile@eCBillboard_PS@@QEAAAEA_NXZ
?AccessRandomTile@eCDecal_PS@@QEAAAEA_NXZ
?AccessRange@eCCollisionShape_PS@@QEAAAEAV?$bTPropertyContainer@W4eEPhysicRangeType@@@@XZ
?AccessRange@eCPointLight_PS@@QEAAAEAMXZ
?AccessRange@eCStaticAmbientLight_PS@@QEAAAEAMXZ
?AccessRange@eCStaticPointLight_PS@@QEAAAEAMXZ
?AccessRate@eCTexCoordSrcOscillator@@QEAAAEAVbCVector2@@XZ
?AccessRate@eCTexCoordSrcRotator@@QEAAAEAVbCEulerAngles@@XZ
?AccessRate@eCTexCoordSrcScroller@@QEAAAEAMXZ
?AccessRectOnTexture@eCGuiImage2@@QEAAAEAVbCRect@@XZ
?AccessReflectType@eCTexCoordSrcReflect@@QEAAAEAV?$bTPropertyContainer@W4eEReflectType@@@@XZ
?AccessReflections@eCAudioReverbPreset@@QEAAAEAHXZ
?AccessReflectionsDelay@eCAudioReverbPreset@@QEAAAEAMXZ
?AccessReflectionsPan@eCAudioReverbPreset@@QEAAAEAVbCVector@@XZ
?AccessRelativeSpinPivot@eCParticle_PS@@QEAAAEAVbCVector@@XZ
?AccessRelativeWarmupTime@eCParticle_PS@@QEAAAEAMXZ
?AccessRenderPriority@eCShaderBase@@QEAAAEAHXZ
?AccessRepeatProbability@eCAudioEmitter_PS@@QEAAAEAVbCRange1@@XZ
?AccessResetOnTrigger@eCParticle_PS@@QEAAAEA_NXZ
?AccessResourceFilePath@eCSpeedTree_PS@@QEAAAEAVbCSpeedTreeResourceString@@XZ
?AccessRespawnDeadParticles@eCParticle_PS@@QEAAAEA_NXZ
?AccessReverb@eCAudioReverbPreset@@QEAAAEAHXZ
?AccessReverbDelay@eCAudioReverbPreset@@QEAAAEAMXZ
?AccessReverbPan@eCAudioReverbPreset@@QEAAAEAVbCVector@@XZ
?AccessReverbPreset@eCPortalRoom_PS@@QEAAAEAVbCString@@XZ
?AccessRevolutionCenterOffset@eCParticle_PS@@QEAAAEAVbCRange3@@XZ
?AccessRevolutionScaleRepeats@eCParticle_PS@@QEAAAEAMXZ
?AccessRevolutionsPerSecond@eCParticle_PS@@QEAAAEAVbCRange3@@XZ
?AccessRollOffPreset@eCAudioEmitter_PS@@QEAAAEAVbCString@@XZ
?AccessRoom@eCAudioReverbPreset@@QEAAAEAHXZ
?AccessRoomHF@eCAudioReverbPreset@@QEAAAEAHXZ
?AccessRoomLF@eCAudioReverbPreset@@QEAAAEAHXZ
?AccessRoomRolloffFactor@eCAudioReverbPreset@@QEAAAEAMXZ
?AccessRotation@eCBillboard_PS@@QEAAAEAMXZ
?AccessRotation@eCCameraBase@@QEAAAEAVbCVector@@XZ
?AccessRotation@eCMoverAnimationBezier@@QEAAAEAV?$bTInterpolatorBezier@VbCQuaternion@@U?$bSKeyFrameBezier@VbCQuaternion@@@@@@XZ
?AccessRotation@eCMoverAnimationHermit@@QEAAAEAV?$bTInterpolatorHermit@VbCQuaternion@@U?$bSKeyFrameHermitEx@VbCQuaternion@@@@@@XZ
?AccessRotation@eCMoverAnimationLinear@@QEAAAEAV?$bTInterpolatorLinear@VbCQuaternion@@U?$bSKeyFrameLinearEx@VbCQuaternion@@@@@@XZ
?AccessRotation@eCMoverAnimationTCB@@QEAAAEAV?$bTInterpolatorHermit@VbCQuaternion@@U?$bSKeyFrameTCBEx@VbCQuaternion@@@@@@XZ
?AccessRotationDampingFactor@eCParticle_PS@@QEAAAEAVbCRange3@@XZ
?AccessRotationType@eCTexCoordSrcRotator@@QEAAAEAV?$bTPropertyContainer@W4eETexCoordSrcRotatorType@@@@XZ
?AccessRotationVariation@eCBillboard_PS@@QEAAAEAMXZ
?AccessRubberRadius@eCVegetationBrush_PS@@QEAAAEAMXZ
?AccessSRGBRead@eCColorSrcSampler@@QEAAAEA_NXZ
?AccessSSAORadius@eCImageFilterShadowMask@@QEAAAEAVbCVector@@XZ
?AccessSSAOScale@eCImageFilterShadowMask@@QEAAAEAMXZ
?AccessScale@eCCameraBase@@QEAAAEAVbCVector@@XZ
?AccessScale@eCColorSrcCamDistance@@QEAAAEAMXZ
?AccessScale@eCColorSrcFresnel@@QEAAAEAMXZ
?AccessScale@eCTexCoordSrcScale@@QEAAAEAVbCVector2@@XZ
?AccessScreen@eCCameraBase@@QEAAAEAVbCRect@@XZ
?AccessScrollOffset@eCTexCoordSrcScroller@@QEAAAEAVbCVector2@@XZ
?AccessSecondsBeforeInactive@eCParticle_PS@@QEAAAEAMXZ
?AccessSecondsBetweenRepeats@eCAudioEmitter_PS@@QEAAAEAVbCRange1@@XZ
?AccessSection@eCConfigFile@@IEAAPEAVeCConfigFile_SectionObject@@AEBVbCString@@@Z
?AccessSection@eCUnicodeConfigFile@@IEAAPEAVeCUnicodeConfigFile_SectionObject@@AEBVbCUnicodeString@@@Z
?AccessSegmentLenght@eCStrip_PS@@QEAAAEAMXZ
?AccessSegmentLifeTime@eCStrip_PS@@QEAAAEAMXZ
?AccessSegmentsPerSecond@eCStrip_PS@@QEAAAEAMXZ
?AccessShadow@eCGuiSystemFont2@@QEAAAEA_NXZ
?AccessShadowCasterType@eCIlluminated_PS@@QEAAAEAV?$bTPropertyContainer@W4eEShadowCasterType@@@@XZ
?AccessShadowMaskIndex@eCStaticPointLight_PS@@QEAAAEAV?$bTPropertyContainer@W4eEShadowMaskIndex@@@@XZ
?AccessShadowOffset@eCGuiSystemFont2@@QEAAAEAVbCPoint@@XZ
?AccessShape@eCAudioEmitter_PS@@QEAAAEAV?$bTPropertyContainer@W4eEAudioEmitterShape@@@@XZ
?AccessShape@eCVegetationBrush_PS@@QEAAAEAV?$bTPropertyContainer@W4eEVegetationBrushShape@@@@XZ
?AccessShape@eCWeatherZone_PS@@QEAAAEAV?$bTPropertyContainer@W4eEWeatherZoneShape@@@@XZ
?AccessShapeAABBAdaptMode@eCCollisionShape@@QEAAAEAV?$bTPropertyContainer@W4eEShapeAABBAdapt@@@@XZ
?AccessShapeType@eCCollisionShape@@QEAAAEAV?$bTPropertyContainer@W4eECollisionShapeType@@@@XZ
?AccessSimulationFPS@eCPhysicsScene_PS@@QEAAAEAMXZ
?AccessSize@eCBillboard_PS@@QEAAAEAVbCVector2@@XZ
?AccessSize@eCDecal_PS@@QEAAAEAVbCVector@@XZ
?AccessSize@eCPrecipitation_PS@@QEAAAEAVbCVector2@@XZ
?AccessSize@eCVegetationBrush_PS@@QEAAAEAMXZ
?AccessSize@eCWeatherStates@@QEAAAEAVbCVector2@@XZ
?AccessSizeMode@eCImageFilterRTBase@@QEAAAEAV?$bTPropertyContainer@W4eEIFSizeMode@@@@XZ
?AccessSizeScaleRepeats@eCParticle_PS@@QEAAAEAMXZ
?AccessSizeVariation@eCBillboard_PS@@QEAAAEAVbCVector2@@XZ
?AccessSkinWidth@eCCollisionShape@@QEAAAEAMXZ
?AccessSkyColor@eCShaderSkyDome@@QEAAAEAVbCFloatColor@@XZ
?AccessSkyColor@eCWeatherZone_PS@@QEAAAEAVbCFloatColor@@XZ
?AccessSkyColorOverwrite@eCWeatherZone_PS@@QEAAAEAV?$bTPropertyContainer@W4eEWeatherZoneOverwrite@@@@XZ
?AccessSndClick@eCGuiButton2@@QEAAAEAVbCString@@XZ
?AccessSndPush@eCGuiButton2@@QEAAAEAVbCString@@XZ
?AccessSndUnPush@eCGuiButton2@@QEAAAEAVbCString@@XZ
?AccessSound@eCAudioEmitter_PS@@QEAAAEAVbCString@@XZ
?AccessSpawnFromOtherEmitter@eCParticle_PS@@QEAAAEAVeCEntityProxy@@XZ
?AccessSpawnMode@eCStrip_PS@@QEAAAEAV?$bTPropertyContainer@W4eEStripSpawning@@@@XZ
?AccessSpawnNumParticles@eCParticle_PS@@QEAAAEAVbCRange1@@XZ
?AccessSpawnPointDizzer@eCPrecipitation_PS@@QEAAAEAMXZ
?AccessSpawnPointDizzer@eCWeatherStates@@QEAAAEAMXZ
?AccessSpawnedVelocityScale@eCParticle_PS@@QEAAAEAVbCRange3@@XZ
?AccessSpawningMode@eCAudioEmitter_PS@@QEAAAEAV?$bTPropertyContainer@W4eEAudioEmitterMode@@@@XZ
?AccessSpecularColor@eCDirectionalLight_PS@@QEAAAEAVbCFloatColor@@XZ
?AccessSpecularColor@eCPointLight_PS@@QEAAAEAVbCFloatColor@@XZ
?AccessSpeed@eCMoverAnimationBase@@QEAAAEAMXZ
?AccessSpeedMinMax@eCPrecipitation_PS@@QEAAAEAVbCVector2@@XZ
?AccessSpeedMinMax@eCWeatherStates@@QEAAAEAVbCVector2@@XZ
?AccessSpinDirection@eCParticle_PS@@QEAAAEAMXZ
?AccessSpinParticles@eCParticle_PS@@QEAAAEA_NXZ
?AccessSpinsPerSecond@eCParticle_PS@@QEAAAEAVbCRange3@@XZ
?AccessSplashDuration@eCPrecipitation_PS@@QEAAAEAMXZ
?AccessSplashDuration@eCWeatherStates@@QEAAAEAMXZ
?AccessSplashSizeScale@eCPrecipitation_PS@@QEAAAEAVbCVector2@@XZ
?AccessSplashSizeScale@eCWeatherStates@@QEAAAEAVbCVector2@@XZ
?AccessSplashTextureTile@eCPrecipitation_PS@@QEAAAEAHXZ
?AccessSplashTextureTile@eCWeatherStates@@QEAAAEAHXZ
?AccessSpread@eCAudioEmitter_PS@@QEAAAEAVbCRange1@@XZ
?AccessStarCount@eCSkydome_PS@@QEAAAEAHXZ
?AccessStarTexture@eCSkydome_PS@@QEAAAEAVbCImageResourceString@@XZ
?AccessStartAlpha@eCStrip_PS@@QEAAAEAMXZ
?AccessStartAngularVelocity@eCRigidBody_PS@@QEAAAEAVbCVector@@XZ
?AccessStartBoxLocation@eCParticle_PS@@QEAAAEAVbCRange3@@XZ
?AccessStartColor@eCStrip_PS@@QEAAAEAVbCFloatColor@@XZ
?AccessStartForce@eCRigidBody_PS@@QEAAAEAVbCVector@@XZ
?AccessStartLocationOffset@eCParticle_PS@@QEAAAEAVbCVector@@XZ
?AccessStartLocationShape@eCParticle_PS@@QEAAAEAV?$bTPropertyContainer@W4eELocationShape@@@@XZ
?AccessStartLocationTarget@eCParticle_PS@@QEAAAEAV?$bTPropertyContainer@W4eELocationTarget@@@@XZ
?AccessStartSize@eCParticle_PS@@QEAAAEAVbCRange3@@XZ
?AccessStartSphereRadius@eCParticle_PS@@QEAAAEAVbCRange1@@XZ
?AccessStartSpin@eCParticle_PS@@QEAAAEAVbCRange3@@XZ
?AccessStartTorque@eCRigidBody_PS@@QEAAAEAVbCVector@@XZ
?AccessStartVelocity@eCParticle_PS@@QEAAAEAVbCRange3@@XZ
?AccessStartVelocity@eCRigidBody_PS@@QEAAAEAVbCVector@@XZ
?AccessStatFrictionScaling@eCPhysicsScene_PS@@QEAAAEAMXZ
?AccessStaticIlluminated@eCIlluminated_PS@@QEAAAEAV?$bTPropertyContainer@W4eEStaticIlluminated@@@@XZ
?AccessStiffness@eCParticle_PS@@QEAAAEAMXZ
?AccessStretchToEmitter@eCParticle_PS@@QEAAAEA_NXZ
?AccessSubBoundaries@eCCollisionMeshResource2@@QEAAAEAV?$bTObjArray@VbCBox@@@@XZ
?AccessSubMeshCulling@eCMesh_PS@@QEAAAEA_NXZ
?AccessSubMeshes@eCMeshResource2@@QEAAAEAV?$bTObjArray@VeCSubMesh@@@@XZ
?AccessSubdivisionEnd@eCGuiAnimImage2@@QEAAAEAHXZ
?AccessSubdivisionEnd@eCParticle_PS@@QEAAAEAHXZ
?AccessSubdivisionRowMajor@eCGuiAnimImage2@@QEAAAEA_NXZ
?AccessSubdivisionRowMajor@eCParticle_PS@@QEAAAEA_NXZ
?AccessSubdivisionScaleRepeats@eCParticle_PS@@QEAAAEAMXZ
?AccessSubdivisionStart@eCGuiAnimImage2@@QEAAAEAHXZ
?AccessSubdivisionStart@eCParticle_PS@@QEAAAEAHXZ
?AccessSunColor@eCShaderSkyDome@@QEAAAEAVbCFloatColor@@XZ
?AccessSunColor@eCSkydome_PS@@QEAAAEAVbCFloatColor@@XZ
?AccessSunLight@eCHemisphere_PS@@QEAAAEAVbCFloatColor@@XZ
?AccessSunLightAxisDirectionOffset@eCHemisphere_PS@@QEAAAEAVbCEulerAngles@@XZ
?AccessSunNormal@eCShaderSkyDome@@QEAAAEAVbCVector@@XZ
?AccessSunOcclusion@eCShaderSkyDome@@QEAAAEA_NXZ
?AccessSunSize@eCSkydome_PS@@QEAAAEAMXZ
?AccessSunTexture@eCSkydome_PS@@QEAAAEAVbCImageResourceString@@XZ
?AccessSupportPointLights@eCLightStreaks_PS@@QEAAAEA_NXZ
?AccessSwitchBegin@eCColorSrcSampler@@QEAAAEAHXZ
?AccessSwitchRepeat@eCColorSrcConstantSwitch@@QEAAAEAV?$bTPropertyContainer@W4eEColorSrcSwitchRepeat@@@@XZ
?AccessSwitchRepeat@eCColorSrcSampler@@QEAAAEAV?$bTPropertyContainer@W4eEColorSrcSwitchRepeat@@@@XZ
?AccessTarget@eCParticle_PS@@QEAAAEAVeCEntityProxy@@XZ
?AccessTargetEntity@eCBillboard_PS@@QEAAAEAVeCEntityProxy@@XZ
?AccessTargetMode@eCBillboard_PS@@QEAAAEAV?$bTPropertyContainer@W4eEBillboardTargetMode@@@@XZ
?AccessTargetWeight@eCMoverAnimationBase@@QEAAAEAMXZ
?AccessTerm@eCColorSrcFresnel@@QEAAAEAV?$bTPropertyContainer@W4eEFresnelTerm@@@@XZ
?AccessTexRepeatU@eCColorSrcSampler@@QEAAAEAV?$bTPropertyContainer@W4eEColorSrcSampleTexRepeat@@@@XZ
?AccessTexRepeatV@eCColorSrcSampler@@QEAAAEAV?$bTPropertyContainer@W4eEColorSrcSampleTexRepeat@@@@XZ
?AccessTexture@eCGuiBitmapFont2@@QEAAAEAVbCString@@XZ
?AccessTexture@eCParticle_PS@@QEAAAEAVbCString@@XZ
?AccessTexture@eCPrecipitation_PS@@QEAAAEAVbCImageResourceString@@XZ
?AccessTextureMode@eCImageFilterTexture@@QEAAAEAV?$bTPropertyContainer@W4eEIFTextureMode@@@@XZ
?AccessTextureName@eCGuiTexture2@@QEAAAEAVbCString@@XZ
?AccessTextureTileCountU@eCPrecipitation_PS@@QEAAAEAHXZ
?AccessTextureTileCountV@eCPrecipitation_PS@@QEAAAEAHXZ
?AccessThunderDuration@eCWeatherStates@@QEAAAEAMXZ
?AccessThunderIntesity@eCWeatherStates@@QEAAAEAVbCRange1@@XZ
?AccessThunderProbability@eCWeatherStates@@QEAAAEAMXZ
?AccessTicksPerSecond@eCParticle_PS@@QEAAAEAMXZ
?AccessTileCount@eCImageFilterEffect@@QEAAAEAVbCPoint@@XZ
?AccessTileCountX@eCBillboard_PS@@QEAAAEAHXZ
?AccessTileCountX@eCDecal_PS@@QEAAAEAHXZ
?AccessTileCountY@eCBillboard_PS@@QEAAAEAHXZ
?AccessTileCountY@eCDecal_PS@@QEAAAEAHXZ
?AccessTileIndex@eCBillboard_PS@@QEAAAEAHXZ
?AccessTileIndex@eCDecal_PS@@QEAAAEAHXZ
?AccessToolTip@eCGuiWindow2@@QEAAAEAVbCString@@XZ
?AccessToolTipText@eCGuiWindow2@@QEAAAEAVeCTipLocString@@XZ
?AccessTotalMass@eCRigidBody_PS@@QEAAAEAMXZ
?AccessTrackName@eCMoverAnimationFile@@QEAAAEAVbCString@@XZ
?AccessTradeAlphaAsSolid@eCShaderBase@@QEAAAEA_NXZ
?AccessTransformationType@eCShaderDefault@@QEAAAEAV?$bTPropertyContainer@W4eEShaderMaterialTransformation@@@@XZ
?AccessTriggerNumParticles@eCParticle_PS@@QEAAAEAVbCRange1@@XZ
?AccessTriggerParticlesPerSecond@eCParticle_PS@@QEAAAEAMXZ
?AccessTriggersOnIntersect@eCCollisionShape@@QEAAAEA_NXZ
?AccessTriggersOnTouch@eCCollisionShape@@QEAAAEA_NXZ
?AccessTriggersOnUntouch@eCCollisionShape@@QEAAAEA_NXZ
?AccessUniformDistribution@eCVegetationBrush_PS@@QEAAAEA_NXZ
?AccessUniformSize@eCParticle_PS@@QEAAAEA_NXZ
?AccessUniformSizeVariation@eCBillboard_PS@@QEAAAEA_NXZ
?AccessUnitsPerLightmapTexel@eCMesh_PS@@QEAAAEAMXZ
?AccessUseCollision@eCParticle_PS@@QEAAAEA_NXZ
?AccessUseColorScale@eCParticle_PS@@QEAAAEA_NXZ
?AccessUseDefaultViewRange@eCVegetation_PS@@QEAAAEA_NXZ
?AccessUseDepthBias@eCShaderBase@@QEAAAEA_NXZ
?AccessUseEntityDirection@eCDecal_PS@@QEAAAEA_NXZ
?AccessUseMaxCollisions@eCParticle_PS@@QEAAAEA_NXZ
?AccessUseMaxRepeats@eCAudioEmitter_PS@@QEAAAEA_NXZ
?AccessUseQuality@eCVegetation_PS@@QEAAAEA_NXZ
?AccessUseRevolution@eCParticle_PS@@QEAAAEA_NXZ
?AccessUseRevolutionScale@eCParticle_PS@@QEAAAEA_NXZ
?AccessUseRollOffPreset@eCAudioEmitter_PS@@QEAAAEA_NXZ
?AccessUseRotationDamping@eCParticle_PS@@QEAAAEA_NXZ
?AccessUseRotationFrom@eCParticle_PS@@QEAAAEAV?$bTPropertyContainer@W4eERotationFrom@@@@XZ
?AccessUseSizeScale@eCParticle_PS@@QEAAAEA_NXZ
?AccessUseSpawnedVelocityScale@eCParticle_PS@@QEAAAEA_NXZ
?AccessUseSubdivisionScale@eCParticle_PS@@QEAAAEA_NXZ
?AccessUseVelocityScale@eCParticle_PS@@QEAAAEA_NXZ
?AccessUseVolumeFromPreset@eCAudioEmitter_PS@@QEAAAEA_NXZ
?AccessVariation@eCVegetationBrush_PS@@QEAAAEAMXZ
?AccessVelocityDirectionFrom@eCParticle_PS@@QEAAAEAV?$bTPropertyContainer@W4eEVelocityDirectionFrom@@@@XZ
?AccessVelocityLeft@eCStrip_PS@@QEAAAEAMXZ
?AccessVelocityLoss@eCParticle_PS@@QEAAAEAVbCRange3@@XZ
?AccessVelocityRight@eCStrip_PS@@QEAAAEAMXZ
?AccessVelocityScaleRepeats@eCParticle_PS@@QEAAAEAMXZ
?AccessVertexCount@eCSubMesh@@QEAAAEAKXZ
?AccessViewMatrix@eCCameraBase@@QEAAAEAVbCMatrix@@XZ
?AccessViewRange@eCVegetation_PS@@QEAAAEAMXZ
?AccessVolume@eCAudioEmitter_PS@@QEAAAEAMXZ
?AccessVolume@eCAudioRollOffPreset@@QEAAAEAMXZ
?AccessWakeUpCounter@eCRigidBody_PS@@QEAAAEAMXZ
?AccessWarmupTicksPerSecond@eCParticle_PS@@QEAAAEAMXZ
?AccessWeatherEnvironment@eCWeatherZone_PS@@QEAAAEAVbCString@@XZ
?AccessWidth@eCImageFilterTextureRandom@@QEAAAEAHXZ
?AccessWidth@eCImageResource2@@QEAAAEAHXZ
?AccessWindPower@eCWeatherStates@@QEAAAEAMXZ
?AccessWindResponse@eCSpeedTreeWind_PS@@QEAAAEAMXZ
?AccessWindResponseLimit@eCSpeedTreeWind_PS@@QEAAAEAMXZ
?AccessWindStrength@eCSpeedTreeWind_PS@@QEAAAEAMXZ
?AccessWindStrength@eCVegetation_Mesh@@QEAAAEAMXZ
?AccessWorldOffset@eCPointLight_PS@@QEAAAEAVbCVector@@XZ
?ActivateAlphaTesting@eCDX9Device@@IEAA?AW4bEResult@@W4eEAlphaTest@eCGfxShared@@AEBUeSGfxAlphaTestData@4@@Z
?ActivateBlending@eCDX9Device@@IEAA?AW4bEResult@@W4eEBlending@eCGfxShared@@0@Z
?ActivateCullingMode@eCDX9Device@@IEAA?AW4bEResult@@W4eECullingMode@eCGfxShared@@@Z
?ActivateDefaultEffect@eCImageFilterAdmin@@QEAA_NXZ
?ActivateDepthBias@eCDX9Device@@IEAA?AW4bEResult@@MM@Z
?ActivateDepthTesting@eCDX9Device@@IEAA?AW4bEResult@@W4eECmpFunc@eCGfxShared@@@Z
?ActivateDepthWrite@eCDX9Device@@IEAA?AW4bEResult@@W4eEWrite@eCGfxShared@@@Z
?ActivateEffect@eCImageFilterAdmin@@QEAA_NAEBVbCString@@@Z
?ActivateEffect@eCImageFilterAdmin@@QEAA_NPEAVeCImageEffect@@@Z
?ActivateIdle@eCMessageHandler@@QEAAX_N@Z
?ActivateRenderMode@eCDX9Device@@IEAA?AW4bEResult@@W4eERenderMode@eCGfxShared@@@Z
?ActivateShadeMode@eCDX9Device@@IEAA?AW4bEResult@@W4eEShadeMode@eCGfxShared@@@Z
?ActivateStencilTesting@eCDX9Device@@IEAA?AW4bEResult@@W4eEStencil@eCGfxShared@@AEBUeSGfxStencilData@4@@Z
?ActivateView@eCStatisticScreen@@QEAAXPEAVeCStatistic@@@Z
?AddActorFlag@eCPhysicObjectStateBuffer@@QEAAXW4eEPhysicObjectFlag@@@Z
?AddActorFlag@eCRigidBody_PS@@UEAAXW4eEPhysicObjectFlag@@@Z
?AddAnimImage@eCGuiImageList2@@QEAAHAEBUtagRECT@@@Z
?AddAnimation@eCMover_PS@@QEAAXPEAVeCMoverAnimationBase@@@Z
?AddAttachment@eCAnimation_PS@@QEAA_NPEAVeCEntity@@AEBVbCString@@P6A_NPEAVeCActorAttachment@@@Z@Z
?AddAttachment@eCAnimation_PS@@QEAA_NPEAVeCEntity@@AEBVbCString@@PEBVbCMatrix@@K_N@Z
?AddAttachment@eCAnimation_PS@@QEAA_NPEAVeCEntity@@KP6A_NPEAVeCActorAttachment@@@Z@Z
?AddAttachment@eCAnimation_PS@@QEAA_NPEAVeCEntity@@KPEBVbCMatrix@@K_N@Z
?AddAxisAction@eCInputAdmin@@QEAAXKK@Z
?AddBodyFlag@eCPhysicObjectStateBuffer@@QEAAXW4eERigidbody_Flag@@@Z
?AddBodyFlag@eCRigidBody_PS@@UEAAXW4eERigidbody_Flag@@@Z
?AddBodyPart@eCAnimation_PS@@QEAA_NPEAVeCBodyPart_PS@@@Z
?AddCCDEntity@eCPhysicsScene@@QEAAXPEAVeCGeometryEntity@@@Z
?AddCell@eCPackedShadowMap@@QEAA_NEAEBVbCMatrix@@00AEBVbCVector2@@MK@Z
?AddChild@eCStatistic@@IEAAXPEAV1@@Z
?AddComment@eCConfigFile@@QEAAXAEBVbCString@@@Z
?AddComment@eCUnicodeConfigFile@@QEAAXAEBVbCUnicodeString@@@Z
?AddDecal@eCDecalAdmin@@IEAA_NPEAVeCDecal@@@Z
?AddDeletedTemplate@eCSceneAdmin@@IEAA_NAEBVbCPropertyID@@@Z
?AddDeletedTemplate@eCSceneAdmin@@QEAA_NPEAVeCTemplateEntity@@_N@Z
?AddDelimiter@eCStatisticText@@QEAAXXZ
?AddDetail@eCStatisticText@@QEAAXAEBVbCString@@@Z
?AddDetailPercentage@eCStatisticText@@QEAAXAEBVbCString@@M@Z
?AddDynamicEntity@eCPhysicsScene@@IEAAXPEAVeCDynamicEntity@@@Z
?AddDynamicShape@eCCollisionShape_PS@@UEAA?AW4bEResult@@W4eECollisionShapeType@@W4eEShapeGroup@@W4eEShapeAABBAdapt@@M@Z
?AddEditorSimulationEntity@eCPhysicsScene@@QEAAXAEAVeCGeometryEntity@@@Z
?AddEffectedDynamicLight@eCLightSet@@IEAAXPEAVeCDynamicLight_PS@@@Z
?AddEffectedObject@eCLightSet@@IEAA_NPEAVeCIlluminated_PS@@@Z
?AddEllement@eCShaderBase@@QEAA_NPEAVeCShaderEllementBase@@@Z
?AddEmitterMesh@eCAmbientOcclusionPreprocessor@@QEAAXPEAVeCAOMeshBase@1@@Z
?AddEmptyLine@eCConfigFile@@QEAAXXZ
?AddEmptyLine@eCUnicodeConfigFile@@QEAAXXZ
?AddEntity@eCPortalRoom_PS@@IEAAXPEAVeCGeometryEntity@@@Z
?AddEntity@eCPrefetchAdmin@@QEAAXPEAVeCGeometryEntity@@@Z
?AddEntityReport@eCIterator@@QEAA_NAEBVeCEntity@@PEBVbCObjectRefBase@@PEAVeCCollisionDesc@@@Z
?AddEntry@eCVegetation_GridNode@@IEAAHAEBUeSVegetationNodeEntry@@@Z
?AddFontWrapper@eCDX9Device@@IEAAXPEAVeCDX9Font@@@Z
?AddForce@eCPhysicObjectStateBuffer@@QEAAXAEBVbCVector@@W4eEForceMode@@@Z
?AddForce@eCRigidBodyBase_PS@@UEAAXAEBVbCVector@@W4eEForceMode@@@Z
?AddForce@eCRigidBody_PS@@UEAAXAEBVbCVector@@W4eEForceMode@@@Z
?AddForceAtPos@eCAnimation_PS@@QEAAXAEBVbCVector@@0@Z
?AddForceAtPos@eCPhysicObjectStateBuffer@@QEAAXAEBVbCVector@@0W4eEForceMode@@@Z
?AddForceAtPos@eCRigidBodyBase_PS@@UEAAXAEBVbCVector@@0W4eEForceMode@@@Z
?AddForceAtPos@eCRigidBody_PS@@UEAAXAEBVbCVector@@0W4eEForceMode@@@Z
?AddForceAtRelPos@eCPhysicObjectStateBuffer@@QEAAXAEBVbCVector@@0W4eEForceMode@@@Z
?AddForceAtRelPos@eCRigidBodyBase_PS@@UEAAXAEBVbCVector@@0W4eEForceMode@@@Z
?AddForceAtRelPos@eCRigidBody_PS@@UEAAXAEBVbCVector@@0W4eEForceMode@@@Z
?AddHoverEntity@eCPhysicsScene@@QEAAXPEAVeCGeometryEntity@@@Z
?AddImage@eCGuiImageList2@@QEAAHAEBUtagRECT@@@Z
?AddJobs@eCImageFilterBase@@UEAA_NHAEAV?$bTValArray@UeSImageFilterJob@eCImageFilterBase@@@@@Z
?AddJobs@eCImageFilterImageEffect@@MEAA_NHAEAV?$bTValArray@UeSImageFilterJob@eCImageFilterBase@@@@@Z
?AddJobs@eCImageFilterRTBase@@UEAA_NHAEAV?$bTValArray@UeSImageFilterJob@eCImageFilterBase@@@@@Z
?AddJobs@eCImageFilterScene@@MEAA_NHAEAV?$bTValArray@UeSImageFilterJob@eCImageFilterBase@@@@@Z
?AddKeyAction@eCInputAdmin@@QEAAXKKE@Z
?AddKeyDebug@eCInputAdmin@@QEAAXKKK@Z
?AddKilledEntity@eCEntityAdmin@@QEAAXPEAVeCEntity@@@Z
?AddLayer@eCGuiImageCollection2@@QEAAHXZ
?AddLayeredImage@eCGuiImageList2@@QEAAHAEBUtagRECT@@@Z
?AddLightSet@eCDynamicLight_PS@@MEAAXPEAVeCLightSet@@@Z
?AddLightSet@eCIlluminationAdmin@@IEAAXPEAVeCLightSet@@@Z
?AddLightmap@eCLightmapPreprocessor@@QEAAHAEBVbCString@@@Z
?AddLoDMesh@eCAOMeshLoD@eCAmbientOcclusionPreprocessor@@QEAAXPEAVeCAOMeshBase@2@@Z
?AddLookAtController@eCAnimation_PS@@QEAA_NAEBVbCString@@AEBVbCVector@@1M@Z
?AddMesh@eCAOMeshGroup@eCAmbientOcclusionPreprocessor@@QEAAXPEAVeCAOMeshBase@2@@Z
?AddMesh@eCAmbientOcclusionPreprocessor@@QEAAXPEAVeCAOMeshBase@1@@Z
?AddMesh@eCLightmapPreprocessor@@QEAA_NHPEAVeCMeshResource2@@MAEBVbCMatrix@@_N@Z
?AddMesh@eCVegetation_PS@@IEAA?AUeSVegetationMeshID@@PEAVeCVegetation_Mesh@@@Z
?AddOccluder@eCOccluder_PS@@UEAA_NAEAVeCFrustumFilter@@AEAV?$bTValArray@UeSOccluderDesc@eCOccluder_PS@@@@AEAV?$bTValArray@K@@@Z
?AddOccluder@eCPortalAdmin@@QEAAXPEAVeCOccluder_PS@@@Z
?AddPackedShadowCell@eCIlluminationAdmin@@QEAA_NEAEBVbCMatrix@@00AEBVbCVector2@@MK@Z
?AddPhysicObject@eCPhysicsScene@@IEAAXPEAVeCPhysicObject@@@Z
?AddPlane@eCBeamTree@@QEAAXAEBVbCPlane@@@Z
?AddPointShape@eCCollisionShape_PS@@UEAA?AW4bEResult@@W4eEShapeGroup@@AEBVbCVector@@@Z
?AddPoly@eCBeamTree@@QEAAXPEAPEAUeSBeamTreeNode@1@AEAUeSOccluderPoly@1@AEAUeSAddPolyInfo@1@@Z
?AddPoly@eCBeamTree@@QEAAXPEBVbCVector@@KAEBV2@1AEBVbCVector4@@_NPEAV1@3@Z
?AddPoly@eCBeamTree@@QEAAXPEBVbCVector@@PEBKKAEBV2@2AEBVbCVector4@@_NPEAV1@4@Z
?AddPoly@eCBeamTree@@QEAAXPEBVbCVector@@PEBKKAEBVbCPlane@@AEBV2@_NPEAV1@4@Z
?AddPolygon@eCDecal@@IEAA_NKPEBVbCVector@@00PEBVbCVector2@@PEBM@Z
?AddPortalCell@eCPortalAdmin@@IEAAXPEAVeCPortalCell_PS@@@Z
?AddPortalRoom@eCPortalAdmin@@QEAAXPEAVeCPortalRoom_PS@@@Z
?AddPortalTo@eCOccluder_PS@@UEAAXAEBVbCFrustum@@PEAVeCPortalCell_PS@@@Z
?AddPortalTo@eCPortalCell_PS@@UEAAXAEBVbCFrustum@@PEAV1@@Z
?AddPortalTo@eCPortalRoom_PS@@UEAAXAEBVbCFrustum@@PEAVeCPortalCell_PS@@@Z
?AddProfileTicksProcess@eCParticleModule@@QEAAXK@Z
?AddProfileTicksRender@eCParticleModule@@QEAAXK@Z
?AddPropertySet@eCEntity@@UEAA_NPEAVeCEntityPropertySet@@@Z
?AddRef@eCAPICubeMap@@QEAAKXZ
?AddRef@eCAPIDevice@@QEAAKXZ
?AddRef@eCAPIEffect@@QEAAKXZ
?AddRef@eCAPIFont@@QEAAKXZ
?AddRef@eCAPIHLSLShader@@QEAAKXZ
?AddRef@eCAPIIndexData@@QEAAKXZ
?AddRef@eCAPIInstance@@QEAAKXZ
?AddRef@eCAPISprite@@QEAAKXZ
?AddRef@eCAPITexture@@QEAAKXZ
?AddRef@eCAPIVertexData@@QEAAKXZ
?AddRef@eCAPIVolume@@QEAAKXZ
?AddRef@eCGuiBaseBitmap2@@UEAAKXZ
?AddRef@eCGuiBaseCursor2@@UEAAKXZ
?AddRef@eCGuiBaseFont2@@UEAAKXZ
?AddRef@eCGuiBitmapList2@@UEAAKXZ
?AddRef@eCGuiDevice2@@UEAAKXZ
?AddRef@eCGuiDropSource2@@UEAAKXZ
?AddRef@eCGuiDropTarget2@@UEAAKXZ
?AddRef@eCGuiImageCollection2@@UEAAKXZ
?AddRef@eCGuiImageList2@@UEAAKXZ
?AddRef@eCGuiResource2@@UEAAKXZ
?AddRef@eCGuiTooltipData2@@UEAAKXZ
?AddRef@eCScriptEventArgs@@UEAAKXZ
?AddRefOutputAt@eCImageFilterBase@@UEAA_NH@Z
?AddRefOutputAt@eCImageFilterImageEffect@@UEAA_NH@Z
?AddRefOutputAt@eCImageFilterRTBase@@UEAA_NH@Z
?AddReference@eCCameraBase@@UEAAKXZ
?AddReference@eCGfxImageDataGlyph@@UEAAKXZ
?AddReference@eCGuiResource2@@UEAAKXZ
?AddReference@eCLightSet@@UEAAKXZ
?AddReference@eCResource2@@MEAAKXZ
?AddRelForce@eCPhysicObjectStateBuffer@@QEAAXAEBVbCVector@@W4eEForceMode@@@Z
?AddRelForce@eCRigidBodyBase_PS@@UEAAXAEBVbCVector@@W4eEForceMode@@@Z
?AddRelForce@eCRigidBody_PS@@UEAAXAEBVbCVector@@W4eEForceMode@@@Z
?AddRelForceAtPos@eCPhysicObjectStateBuffer@@QEAAXAEBVbCVector@@0W4eEForceMode@@@Z
?AddRelForceAtPos@eCRigidBodyBase_PS@@UEAAXAEBVbCVector@@0W4eEForceMode@@@Z
?AddRelForceAtPos@eCRigidBody_PS@@UEAAXAEBVbCVector@@0W4eEForceMode@@@Z
?AddRelForceAtRelPos@eCPhysicObjectStateBuffer@@QEAAXAEBVbCVector@@0W4eEForceMode@@@Z
?AddRelForceAtRelPos@eCRigidBodyBase_PS@@UEAAXAEBVbCVector@@0W4eEForceMode@@@Z
?AddRelForceAtRelPos@eCRigidBody_PS@@UEAAXAEBVbCVector@@0W4eEForceMode@@@Z
?AddRelTorque@eCPhysicObjectStateBuffer@@QEAAXAEBVbCVector@@W4eEForceMode@@@Z
?AddRelTorque@eCRigidBodyBase_PS@@UEAAXAEBVbCVector@@W4eEForceMode@@@Z
?AddRelTorque@eCRigidBody_PS@@UEAAXAEBVbCVector@@W4eEForceMode@@@Z
?AddRenderInstance@eCMeshResource2@@QEAAXAEBVbCMatrix@@HPEAUeSShaderMaterialIllumination@@E@Z
?AddShadowCasterEntity@eCFrustumDatabase@@QEAAXAEAVeCGeometryEntity@@@Z
?AddShadowCells@eCPointLight_PS@@QEAA_NEAEBVbCFrustum@@@Z
?AddShadowCells@eCStaticPointLight_PS@@QEAA_NEAEBVbCFrustum@@@Z
?AddShape@eCCollisionShapeBase_PS@@UEAA?AW4bEResult@@AEBVbCString@@@Z
?AddShape@eCCollisionShapeBase_PS@@UEAA?AW4bEResult@@PEAVeCCollisionShape@@@Z
?AddShape@eCCollisionShape_PS@@UEAA?AW4bEResult@@AEBVbCString@@_N@Z
?AddShape@eCCollisionShape_PS@@UEAA?AW4bEResult@@PEAVeCCollisionShape@@@Z
?AddShape@eCCollisionShape_PS@@UEAA?AW4bEResult@@W4eECollisionShapeType@@W4eEShapeGroup@@AEBVbCVector@@2@Z
?AddShape@eCPhysicObjectStateBuffer@@QEAAXPEAVeCCollisionShape@@@Z
?AddShapesFromSpeedTreePS@eCCollisionShape_PS@@UEAA_NXZ
?AddShapesFromSpeedTreeResource@eCCollisionShape_PS@@UEAA_NPEAVeCSpeedTreeResource2@@@Z
?AddSkeleton@eCPhysicsScene@@IEAAXPEAVeCPhysicObject@@@Z
?AddSpec@eCFileChangeInterface@@QEAAXAEBVbCString@@@Z
?AddSpeedWindPS@eCSpeedTreeAdmin@@IEAAXPEAVeCSpeedTreeWind_PS@@@Z
?AddSplitImage@eCGuiImageList2@@QEAAHAEBUtagRECT@@@Z
?AddSpriteToSpriteList@eCDX9Device@@UEAA?AW4bEResult@@PEAVeCAPITexture@@PEBVbCRect@@PEBVbCVector@@2K@Z
?AddSpriteWrapper@eCDX9Device@@IEAAXPEAVeCDX9Sprite@@@Z
?AddStatisticRecursive@eCStatisticScreen@@IEAAXAEAHPEAVeCStatistic@@AEBVbCString@@@Z
?AddSwitchEllement@eCShaderBase@@QEAA_NPEAVeCShaderEllementBase@@@Z
?AddSyncPoint@eCAudioSound@@QEAA?AW4eEAudioResult@@KW4eEAudioTimeUnit@@@Z
?AddToCache@eCAnimation2Admin@@IEAAXAEBVbCString@@0@Z
?AddToLightList@eCDirectionalLight_PS@@MEAAXAEAUeSShaderMaterialLightList@@@Z
?AddToLightList@eCDynamicLight_PS@@UEAAXAEAUeSShaderMaterialLightList@@@Z
?AddToLightList@eCHemisphere_PS@@UEAAXAEAUeSShaderMaterialLightList@@@Z
?AddToLightList@eCPointLight_PS@@UEAAXAEAUeSShaderMaterialLightList@@@Z
?AddToRenderQueue@eCSpeedTreeRenderBuffer@@QEAAXPEAVeCSpeedTree_PS@@@Z
?AddToZPassRenderQueue@eCSpeedTreeRenderBuffer@@QEAAXPEAVeCSpeedTree_PS@@K@Z
?AddTopic@eCStatisticText@@QEAAXAEBVbCString@@@Z
?AddTorque@eCPhysicObjectStateBuffer@@QEAAXAEBVbCVector@@W4eEForceMode@@@Z
?AddTorque@eCRigidBodyBase_PS@@UEAAXAEBVbCVector@@W4eEForceMode@@@Z
?AddTorque@eCRigidBody_PS@@UEAAXAEBVbCVector@@W4eEForceMode@@@Z
?AddTouchingShape@eCCollisionShape_PS@@UEAA?AW4bEResult@@PEAVeCCollisionShape@@@Z
?AddType@eCVegetation_PS@@QEAAGAEBVbCString@@@Z
?AddValue@eCStatisticText@@QEAAXAEBVbCString@@@Z
?AddValuePercentage@eCStatisticText@@QEAAXAEBVbCString@@M@Z
?AddVisibleGridNode@eCVegetation_PS@@QEAAXPEAVeCVegetation_GridNode@@@Z
?AddVisual@eCGfxVisualCollection@@QEAAPEAXPEAVeCGfxVisual@@H@Z
?AddWeatherEnvironment@eCWeatherAdmin@@QEAA_NPEAVeCWeatherEnvironment@@@Z
?AddWeatherStateBlendFactor@eCWeatherEnvironment@@QEAA_NM@Z
?AddWeatherStateBlending@eCWeatherZone_PS@@QEAA_NMAEAVeCWeatherState@eCWeatherStates@@@Z
?AddWeatherStates@eCWeatherAdmin@@QEAA_NPEAVeCWeatherStates@@@Z
?AdvanceCell@eCGlyphSheet@@AEAA_NAEBUtagTEXTMETRICW@@AEBU_GLYPHMETRICS@@UtagRECT@@@Z
?AfterWorldDeactivate@eCEngineComponentBase@@MEAA?AW4bEResult@@XZ
?Alloc@eCLightmapBitmap@@QEAAXXZ
?AllocRenderTarget@eCImageFilterAdmin@@QEAAPEAVeCGfxImageData@@W4eEColorFormat@eCGfxShared@@AEBVbCPoint@@@Z
?AllocateShadowMapImage@eCIlluminationAdmin@@QEAAPEAVeCGfxImageData@@AEBUeSGfxLayersDesc@eCGfxShared@@@Z
?Analyze@eCDeferredGuiFont2@@UEAA_NPEB_WAEAPEAX@Z
?Analyze@eCGuiBaseFont2@@UEAA_NPEB_WAEAPEAX@Z
?Analyze@eCGuiDevice2@@UEAAPEAXPEAVIFFGuiFont2@@PEB_W@Z
?Analyze@eCGuiSystemFont2@@UEAA_NPEB_WAEAPEAX@Z
?AnchorChildren@eCGuiWindow2@@AEAAXXZ
?AnchorDefault@eCGuiWindow2@@AEAAXPEAV1@AEBVbCRect@@@Z
?AnchorRelative@eCGuiWindow2@@AEAAXPEAV1@AEBVbCRect@@@Z
?AppendGlyph@eCGlyphSheet@@QEAA_NAEBVeCGlyphOutline@@AEBUtagTEXTMETRICW@@AEAUtagRECT@@@Z
?AppendGlyph@eCGlyphSheetCollection@@QEAA_NAEBVeCGlyphOutline@@AEBUtagTEXTMETRICW@@AEAUtagRECT@@AEAI@Z
?Apply@eCConfigMerger@@QEBA_NAEBV?$bTObjArray@USDiff@eCConfigMerger@@@@AEAVeCConfigFile@@@Z
?ApplyConfiguration@eCAudioModule@@UEAAXXZ
?ApplyConfiguration@eCAudioSystem@@QEAAXXZ
?ApplyConfiguration@eCDirectionalLight_PS@@UEAAXXZ
?ApplyConfiguration@eCDynamicLight_PS@@UEAAXXZ
?ApplyConfiguration@eCEngineComponentBase@@UEAAXXZ
?ApplyConfiguration@eCGfxAdmin@@UEAAXXZ
?ApplyConfiguration@eCIlluminationAdmin@@UEAAXXZ
?ApplyConfiguration@eCImageFilterAdmin@@UEAAXXZ
?ApplyConfiguration@eCImageResource2@@SAXXZ
?ApplyConfiguration@eCLocAdmin2@@QEAAXXZ
?ApplyConfiguration@eCProfilerAdmin@@UEAAXXZ
?ApplyConfiguration@eCRenderSystemAdmin@@UEAAXXZ
?ApplyConfiguration@eCResourceModule2@@UEAAXXZ
?ApplyConfiguration@eCSceneAdmin@@UEAAXXZ
?ApplyConfiguration@eCShaderMaterialAdmin@@UEAAXXZ
?ApplyConfiguration@eCSoundResource2@@SAXXZ
?ApplyConfiguration@eCVegetationAdmin@@UEAAXXZ
?ApplyDefaults@eCAudioEmitter_PS@@QEAAXXZ
?ApplyDefaults@eCParticle_PS@@QEAAXXZ
?ApplyLinks@eCImageEffect@@IEAA_NAEBV?$bTValArray@UeSImageFilterLink@eCImageEffect@@@@@Z
?ApplyLoDValues@eCSpeedTree_PS@@QEAAXXZ
?ApplyRenderStates@eCParticle_PS@@IEAA_NMAEBVbCMatrix@@@Z
?ApplySettings@eCLocAdmin2@@QEAAXXZ
?AssembleProgram@eCGfxAssistantAdmin@@QEAA?AW4bEResult@@AEBVbCString@@K@Z
?AssembleProgramFromFile@eCGfxAssistantAdmin@@QEAA?AW4bEResult@@AEBVbCString@@@Z
?AssembleShaderProgram@eCDX9Device@@UEAA?AW4bEResult@@QEADKPEAUeSGfxMacro@eCGfxShared@@PEAPEAX2@Z
?AssembleShaderProgramFromFile@eCDX9Device@@UEAA?AW4bEResult@@QEBDPEAUeSGfxMacro@eCGfxShared@@PEAPEAX2@Z
?AsyncLoadHandler@eCResourceCache2@@CAXPEAVIFFFileStream2@@PEAXAEBVbCString@@@Z
?Attach@eCAudioChannel@@IEAAXPEAVChannel@FMOD@@@Z
?Attach@eCAudioChannelGroup@@IEAAXPEAVChannelGroup@FMOD@@@Z
?Attach@eCBodyPart_PS@@QEAAXPEAVeCAnimation_PS@@@Z
?Attach@eCDeferredGuiBitmap2@@QEAA_NPEAVeCGuiBitmap2@@@Z
?Attach@eCDeferredGuiCursor2@@QEAA_NPEAVeCGuiCursor2@@@Z
?Attach@eCGuiDropTarget2@@AEAA_NPEAVeCGuiWindow2@@@Z
?AttachCameraStates@eCGfxCamera@@QEAA?AW4bEResult@@PEAVeCGfxCameraStates@@@Z
?AttachChild@eCNode@@QEAA_NPEAV1@@Z
?AttachDeferredBitmap@eCGuiBitmap2@@IEAAXXZ
?AttachDeferredCursor@eCGuiCursor2@@IEAAXXZ
?AttachFirstEffect@eCGfxShader@@QEAA?AW4bEResult@@PEAVeCGfxEffect@@@Z
?AttachImageData@eCGfxTextureBlock@@QEAA?AW4bEResult@@PEAVeCGfxImageData@@@Z
?AttachImmImageData@eCGfxEffect@@QEAA?AW4bEResult@@QEAXPEAVeCGfxImageData@@@Z
?AttachIndexData@eCGfxVisual@@QEAA?AW4bEResult@@PEAVeCGfxIndexData@@@Z
?AttachMasterCamera@eCGfxMixerAdmin@@QEBA?AW4bEResult@@PEAVeCGfxCamera@@@Z
?AttachMasterCameraStates@eCGfxMixerAdmin@@QEBA?AW4bEResult@@PEAVeCGfxCameraStates@@@Z
?AttachMasterEffect@eCGfxMixerAdmin@@QEBA?AW4bEResult@@PEAVeCGfxEffect@@@Z
?AttachMasterFog@eCGfxMixerAdmin@@QEBA?AW4bEResult@@PEAVeCGfxFog@@@Z
?AttachMasterImageData@eCGfxMixerAdmin@@QEBA?AW4bEResult@@KPEAVeCGfxImageData@@@Z
?AttachMasterLight@eCGfxMixerAdmin@@QEBA?AW4bEResult@@PEAVeCGfxLight@@@Z
?AttachMasterMaterial@eCGfxMixerAdmin@@QEBA?AW4bEResult@@PEAVeCGfxMaterial@@@Z
?AttachMasterPixelProgram@eCGfxMixerAdmin@@QEBA?AW4bEResult@@PEAVeCGfxPixelProgram@@@Z
?AttachMasterShader@eCGfxMixerAdmin@@QEBA?AW4bEResult@@PEAVeCGfxShader@@@Z
?AttachMasterTextureBlock@eCGfxMixerAdmin@@QEBA?AW4bEResult@@KPEAVeCGfxTextureBlock@@@Z
?AttachMasterVertexProgram@eCGfxMixerAdmin@@QEBA?AW4bEResult@@PEAVeCGfxVertexProgram@@@Z
?AttachMaterial@eCGfxShader@@QEAA?AW4bEResult@@PEAVeCGfxMaterial@@@Z
?AttachPixelProgram@eCGfxShader@@QEAA?AW4bEResult@@PEAVeCGfxPixelProgram@@@Z
?AttachSecondEffect@eCGfxShader@@QEAA?AW4bEResult@@PEAVeCGfxEffect@@@Z
?AttachShader@eCGfxVisual@@QEAA?AW4bEResult@@PEAVeCGfxShader@@@Z
?AttachTextureBlock@eCGfxMaterial@@QEAA?AW4bEResult@@KPEAVeCGfxTextureBlock@@@Z
?AttachTo@eCWindow@@QEAAXQEAUHINSTANCE__@@QEAUHDC__@@@Z
?AttachTo@eCWindow@@QEAAXQEAUHINSTANCE__@@QEAUHWND__@@@Z
?AttachToolTip@eCGuiWindow2@@QEAAXPEAVeCGuiToolTipCtrl2@@@Z
?AttachVertexData@eCGfxVisual@@QEAA?AW4bEResult@@KPEAVeCGfxVertexData@@@Z
?AttachVertexDecl@eCGfxVisual@@QEAA?AW4bEResult@@PEAVeCGfxVertexDecl@@@Z
?AttachVertexProgram@eCGfxShader@@QEAA?AW4bEResult@@PEAVeCGfxVertexProgram@@@Z
?AutoArangeEllement@eCShaderBase@@IEAAHPEAVeCShaderEllementBase@@HH@Z
?AutoArangeLayout@eCShaderBase@@QEAAXXZ
?AutoSize@eCGuiWindow2@@AEAAXXZ
?BatchInstance@eCGfxVisualCollection@@QEAA?AW4bEResult@@PEAX0P6A?AW4eEGfxBatchInstanceCall@@0PEAVeCGfxVisual@@@Z@Z
?Begin@eCDX9Sprite@@UEAA?AW4bEResult@@K@Z
?Begin@eCSprite@@QEAA_NK@Z
?Begin@eCSpriteEffect@@QEAAXXZ
?BeginBatch@eCGfxVisualCollection@@QEAA?AW4bEResult@@XZ
?BeginEffectApplication@eCGfxEffect@@QEAA?AW4bEResult@@XZ
?BeginEffectTechnique@eCImageFilterEffect@@MEAAHXZ
?BeginFrame@eCGuiDevice2@@UEAA_NXZ
?BeginMaterial@eCShaderMaterialAdmin@@QEAA_NXZ
?BeginOcclusionTest@eCDX9Device@@UEAA?AW4bEResult@@QEAX@Z
?BeginOcclusionTest@eCGfxAssistantAdmin@@QEBA?AW4bEResult@@QEAX@Z
?BeginRadiosityPass@eCShaderMaterialAdmin@@QEAA_NW4eEMasterCmpFunc@eCGfxShared@@@Z
?BeginRenderStateBlock@eCDX9Device@@UEAAXXZ
?BeginRenderStateBlock@eCGfxMixerAdmin@@QEAAXXZ
?BeginScene@eCDX9Device@@UEAA?AW4bEResult@@XZ
?BeginScene@eCGfxMixerAdmin@@QEBA?AW4bEResult@@XZ
?BeginSpriteList@eCDX9Device@@UEAA?AW4bEResult@@W4eESpriteRenderOpt@eCGfxShared@@@Z
?BeginTechnique@eCDX9Effect@@UEAA?AW4bEResult@@XZ
?BeginZPass@eCShaderMaterialAdmin@@QEAA_NPEAVeCDepthMap@@_N1@Z
?Bind@eCSpriteMesh@@QEAA_NXZ
?BindLightmaps@eCMeshResource2@@QEAA?AW4eEShaderMaterialLightmapCombi@@W4eEResourceLoadMode@@@Z
?BlendTL@eCGfxMixerAdmin@@QEBA?AW4bEResult@@AEBV?$bTValArray@UeSTLColVertex@eCGfxShared@@@@W4eEPrimitiveType@eCGfxShared@@@Z
?BlendTLIndexedTriangleList@eCGfxMixerAdmin@@QEBA?AW4bEResult@@AEBV?$bTValArray@UeSTLColVertex@eCGfxShared@@@@AEBV?$bTValArray@G@@@Z
?BlendTLTriangleList@eCGfxMixerAdmin@@QEBA?AW4bEResult@@AEBV?$bTValArray@UeSTLColVertex@eCGfxShared@@@@@Z
?Build@eCAOTreeNode@eCAmbientOcclusionPreprocessor@@QEAA_NAEAV?$bTValArray@UeSOrientedDisk@eCAmbientOcclusionPreprocessor@@@@AEBV?$bTValArray@H@@@Z
?BuildCheckSum@eCLightSet@@SAKAEBV?$bTValArray@PEAVeCDynamicLight_PS@@@@@Z
?BuildConvexShapeGroup@eCOccluder_PS@@IEAAXAEAUeSTriangle@1@H@Z
?BuildEdgeList@eCOccluder_PS@@IEAAXXZ
?BuildHash@eCPSMap@@AEBAXAEBV?$bTValArray@PEAVeCEntityPropertySet@@@@AEAUSHash@1@@Z
?BuildIndexMap@eCPSMap@@AEBAXAEBV?$bTValArray@PEAVeCEntityPropertySet@@@@AEAUeSPSIndexMap@@@Z
?BuildLanguages@eCLocAdmin2@@IEAAXXZ
?BuildMeshToEntryMap@eCVegetation_GridNode@@QEAAXXZ
?BuildMeshToEntryMaps@eCVegetation_Grid@@QEAAXXZ
?BuildShapeList@eCOccluder_PS@@IEAAXXZ
?BuildUVGroups@eCMeshResource2@@QEBAXAEAV?$bTObjArray@UeSLightmapUVGroup@eCMeshResource2@@@@H_N@Z
?CacheEntities@eCPrefetchAdmin@@QEAAXAEBVbCVector@@E_N1@Z
?CacheIn@eCFrustumElementItem@@QEAAXXZ
?CacheIn@eCGuiBitmap2@@QEAAXPEAVeCGuiBitmapCache2@@W4eEGuiCache@@@Z
?CacheIn@eCGuiCursor2@@QEAAXPEAVeCGuiCursorCache2@@W4eEGuiCache@@@Z
?CacheIn@eCGuiImageCollection2@@QEAAXPEAVeCGuiBitmapCache2@@W4eEGuiCache@@@Z
?CacheOut@eCDeferredGuiBitmap2@@IEAAXXZ
?CacheOut@eCDeferredGuiCursor2@@IEAAXXZ
?CacheOut@eCDeferredGuiFont2@@IEAAXXZ
?CacheOut@eCEntity@@UEAAXXZ
?CacheOut@eCFrustumElementItem@@QEAAXXZ
?CacheOut@eCGeometryEntity@@UEAAXXZ
?CacheOut@eCGuiBitmap2@@QEAAXXZ
?CacheOut@eCGuiCursor2@@QEAAXXZ
?CacheOut@eCGuiImageCollection2@@QEAAXXZ
?CacheOutEntity@eCPrefetchAdmin@@QEAAXPEAVeCGeometryEntity@@@Z
?CacheResource@eCResourceCache2@@AEAAXPEAVeCResource2@@@Z
?CalcCellRect@eCGlyphSheet@@AEAA_NAEBUtagTEXTMETRICW@@AEBU_GLYPHMETRICS@@AEAUtagRECT@@@Z
?CalcCharWidth@eCDX9Font@@UEAAHPEAVeCAPISprite@@I@Z
?CalcCharWidth@eCDeferredGuiFont2@@UEAA_NAEAHI@Z
?CalcCharWidth@eCFixedGuiBitmapFont2@@UEAA_NAEAHI@Z
?CalcCharWidth@eCFont@@QEAAHK@Z
?CalcCharWidth@eCGuiBaseFont2@@UEAA_NAEAHI@Z
?CalcCharWidth@eCGuiDevice2@@UEAAHPEAVIFFGuiFont2@@I@Z
?CalcCharWidth@eCGuiSystemFont2@@UEAA_NAEAHI@Z
?CalcColor@eCParticle_PS@@IEBAXMAEAVbCFloatAlphaColor@@@Z
?CalcColorAt@eCVegetationBrush_PS@@QEAAXAEAVbCFloatColor@@PEBVbCNoise@@MM@Z
?CalcColorDistribution@eCVegetationBrush_PS@@QEAAXAEAV?$bTValArray@UeSBrushEntry@eCVegetationBrush_PS@@@@@Z
?CalcColorFactor@eCParticle_PS@@IEBAXMMAEAVbCFloatAlphaColor@@@Z
?CalcDepthSortValue@eCFrustumFilter@@QEBAKAEBVbCVector@@M@Z
?CalcDistribution@eCVegetationBrush_PS@@QEAAXAEAV?$bTValArray@UeSBrushEntry@eCVegetationBrush_PS@@@@@Z
?CalcExtents@eCParticle_PS@@IEBAXAEAVbCBox@@@Z
?CalcFontHeight@eCDX9Font@@UEAAHPEAVeCAPISprite@@I@Z
?CalcFontHeight@eCDeferredGuiFont2@@UEAA_NAEAHI@Z
?CalcFontHeight@eCFixedGuiBitmapFont2@@UEAA_NAEAHI@Z
?CalcFontHeight@eCFont@@QEAAHK@Z
?CalcFontHeight@eCGuiBaseFont2@@UEAA_NAEAHI@Z
?CalcFontHeight@eCGuiDevice2@@UEAAHPEAVIFFGuiFont2@@I@Z
?CalcFontHeight@eCGuiSystemFont2@@UEAA_NAEAHI@Z
?CalcFrame@eCParticle_PS@@IEBAXMAEAM@Z
?CalcGlyphSize@eCGlyphSheet@@AEAA_NAEBUtagTEXTMETRICW@@AEBU_GLYPHMETRICS@@AEAUtagSIZE@@@Z
?CalcMeshDistribution@eCVegetationBrush_PS@@QEAA?AUeSVegetationMeshID@@AEBVbCVector2@@@Z
?CalcProbabilityAt@eCVegetationBrush_PS@@QEAAMPEBVbCNoise@@MM@Z
?CalcProjectionMatrix@eCCameraBase@@IEAAXXZ
?CalcRevolutionFactor@eCParticle_PS@@IEBAXMAEAVbCVector@@@Z
?CalcShapeAABBLocal@eCCollisionShape@@IEAAXXZ
?CalcSizeFactor@eCParticle_PS@@IEBAXMAEAVbCVector@@@Z
?CalcTextRect@eCDX9Device@@UEAAHPEAVeCAPIFont@@PEBDHAEAVbCRect@@K@Z
?CalcTextRect@eCDX9Device@@UEAAHPEAVeCAPIFont@@PEB_WHAEAVbCRect@@K@Z
?CalcTextRectA@eCDX9Font@@UEAAHPEAVeCAPISprite@@PEBDHPEAUtagRECT@@I@Z
?CalcTextRectA@eCDeferredGuiFont2@@UEAA_NPEBDHPEAUtagRECT@@IAEAHP6AXPEAVeCSprite@@PEB_WHPEAUtagPOINT@@PEAX@Z6@Z
?CalcTextRectA@eCFixedGuiBitmapFont2@@UEAA_NPEBDHPEAUtagRECT@@IAEAHP6AXPEAVeCSprite@@PEB_WHPEAUtagPOINT@@PEAX@Z6@Z
?CalcTextRectA@eCFont@@QEAAHPEBDHPEAUtagRECT@@KP6AXPEAVeCSprite@@PEB_WHPEAUtagPOINT@@PEAX@Z5@Z
?CalcTextRectA@eCGuiBaseFont2@@UEAA_NPEBDHPEAUtagRECT@@IAEAHP6AXPEAVeCSprite@@PEB_WHPEAUtagPOINT@@PEAX@Z6@Z
?CalcTextRectA@eCGuiDevice2@@UEAAHPEAVIFFGuiFont2@@PEBDHPEAUtagRECT@@II@Z
?CalcTextRectA@eCGuiSystemFont2@@UEAA_NPEBDHPEAUtagRECT@@IAEAHP6AXPEAVeCSprite@@PEB_WHPEAUtagPOINT@@PEAX@Z6@Z
?CalcTextRectA@eCTextRenderer@@SAHPEAVeIGlyphProvider@@PEBDHPEAUtagRECT@@KP6AXPEAVeCSprite@@PEB_WHPEAUtagPOINT@@PEAX@Z6@Z
?CalcTextRectW@eCDX9Font@@UEAAHPEAVeCAPISprite@@PEB_WHPEAUtagRECT@@I@Z
?CalcTextRectW@eCDeferredGuiFont2@@UEAA_NPEB_WHPEAUtagRECT@@IAEAHP6AXPEAVeCSprite@@0HPEAUtagPOINT@@PEAX@Z5@Z
?CalcTextRectW@eCFixedGuiBitmapFont2@@UEAA_NPEB_WHPEAUtagRECT@@IAEAHP6AXPEAVeCSprite@@0HPEAUtagPOINT@@PEAX@Z5@Z
?CalcTextRectW@eCFont@@QEAAHPEB_WHPEAUtagRECT@@KP6AXPEAVeCSprite@@0HPEAUtagPOINT@@PEAX@Z4@Z
?CalcTextRectW@eCGuiBaseFont2@@UEAA_NPEB_WHPEAUtagRECT@@IAEAHP6AXPEAVeCSprite@@0HPEAUtagPOINT@@PEAX@Z5@Z
?CalcTextRectW@eCGuiDevice2@@UEAAHPEAVIFFGuiFont2@@PEB_WHPEAUtagRECT@@II@Z
?CalcTextRectW@eCGuiSystemFont2@@UEAA_NPEB_WHPEAUtagRECT@@IAEAHP6AXPEAVeCSprite@@0HPEAUtagPOINT@@PEAX@Z5@Z
?CalcTextRectW@eCTextRenderer@@SAHPEAVeIGlyphProvider@@PEB_WHPEAUtagRECT@@KP6AXPEAVeCSprite@@1HPEAUtagPOINT@@PEAX@Z5@Z
?CalcUV@eCSprite@@QEAA_NPEAVeCGfxImageData@@PEBUtagRECT@@AEAM222AEAH3@Z
?CalcValue@eCColorScale@@QEBAXMAEAVbCFloatAlphaColor@@@Z
?CalcValue@eCFloatScale@@QEBAXMAEAM@Z
?CalcValue@eCVectorScale@@QEBAXMAEAVbCVector@@@Z
?CalcValueBinary@eCVectorScale@@IEBAXMAEAVbCVector@@@Z
?CalcValueLinear@eCVectorScale@@IEBAXMAEAVbCVector@@@Z
?CalcVelocityFactor@eCParticle_PS@@IEBAXMAEAVbCVector@@@Z
?CalcViewMatrix@eCCameraBase@@IEAAXXZ
?CalculateAreaFactor@eCFrustumFilter@@QEAAMAEBVbCSphere@@@Z
?CalculateCacheRect@eCVegetation_Grid@@QEAAXAEBVeCCameraBase@@AEAVbCRect@@@Z
?CalculateEffectIntensity@eCDynamicLight_PS@@IEBAMW4eEDynamicLightEffect@@MMM@Z
?CalculateExtents@eCStrip_PS@@IEAAXAEAVbCBox@@@Z
?CalculateFadeOut@eCFrustumElementItem@@QEBAMAEAVeCFrustumDatabase@@@Z
?CalculateFootprint@eCResource2@@QEBAXAEAI0@Z
?CalculateHardwareEnvironment@eCApplication@@IEAAXXZ
?CalculateLocalNode@eCTemplateEntity@@QEBA?AVbCBox@@XZ
?CalculateObjectSize@eCFrustumElementItem@@QEBAMAEAVeCFrustumDatabase@@@Z
?CalculateWorldMatrix@eCTemplateEntity@@QEBA?AVbCMatrix@@XZ
?CallScript@eCScriptProxyScript@@IEBA_JPEAVeCEntity@@0_J@Z
?CallScriptEvent@eCGuiWindow2@@QEAA_NAEAVeCScriptProxyScript@@PEAVeCScriptEventArgs@@PEAH@Z
?CanBePaused@eCEntityPropertySet@@UEBA_NXZ
?CaretToPixel@eCGuiDevice2@@UEAAHHPEAX@Z
?CellIndexToGrid@eCVegetation_Grid@@QEBAXHAEAVbCPoint@@@Z
?Center@eCWindow@@QEAAXXZ
?ChangeKeyAction@eCInputAdmin@@QEAAXKKK@Z
?CharToGlyphDescW@eCFont@@UEAA_N_WAEAUeSGlyph@@@Z
?CharactersToGlyphsW@eCFont@@QEAA_NPEB_WHAEAV?$bTValArray@I@@@Z
?CheckAppStateFlags@eCApplication@@IEAA_NK@Z
?CheckDeviceFormat@eCDX9Device@@UEAA?AW4bEResult@@AEBUeSGfxLayersDesc@eCGfxShared@@_N@Z
?CheckDeviceFormat@eCGfxContextAdmin@@QEAA?AW4bEResult@@AEBUeSGfxLayersDesc@eCGfxShared@@_N@Z
?CheckIfEntityNameExists@eCSceneAdmin@@QEBA_NAEBVbCString@@@Z
?CheckMotions@eCBodyPart_PS@@IEAAXXZ
?CheckPadConected@eCInputX360@@QEAA_NXZ
?CheckRagdollDeathPose@eCAnimation_PS@@IEAA_NXZ
?CheckResourceTimeStamp@eCVegetation_Mesh@@QEAAX_N@Z
?CleanupFileNames@eCColorSrcCubeSampler@@UEAAXXZ
?CleanupFileNames@eCColorSrcSampler@@UEAAXXZ
?CleanupFileNames@eCShaderBase@@UEAAXXZ
?CleanupFileNames@eCShaderEllementBase@@UEAAXXZ
?Clear@eCAmbientOcclusionPreprocessor@@QEAAXXZ
?Clear@eCArchiveFile@@QEAAXXZ
?Clear@eCBeamTree@@QEAAXXZ
?Clear@eCConfigFile@@QEAAXXZ
?Clear@eCConfigFile_KeyObject@@QEAAXXZ
?Clear@eCConfigFile_SectionObject@@QEAAXXZ
?Clear@eCFrustumEx@@QEAAXXZ
?Clear@eCInputX360@@QEAAXXZ
?Clear@eCLightmapBatcher@@QEAAX_N@Z
?Clear@eCPortal@@QEAAXXZ
?Clear@eCScriptProxy@@QEAAXXZ
?Clear@eCUnicodeConfigFile@@QEAAXXZ
?Clear@eCUnicodeConfigFile_KeyObject@@QEAAXXZ
?Clear@eCUnicodeConfigFile_SectionObject@@QEAAXXZ
?Clear@eSGizmoPickInfo@@QEAAXXZ
?ClearActions@eCInputAdmin@@QEAAXXZ
?ClearAll@eCPhysicObjectStateBuffer@@IEAAXXZ
?ClearBillboards@eCSkyObject@@QEAAXXZ
?ClearCells@eCPackedShadowMap@@QEAAXXZ
?ClearConstantTables@eCShaderBase@@QEAAXXZ
?ClearDecals@eCDecalAdmin@@QEAA_NXZ
?ClearDefaultBuffer@eCPhysicObjectStateBuffer@@SAXXZ
?ClearDocs@eCDocArchive@@AEAAXXZ
?ClearEffectedDynamicLights@eCLightSet@@IEAAXXZ
?ClearExtractedItems@eCFrustumDatabase@@QEAAXXZ
?ClearIteratorReports@eCIterator@@QEAAXXZ
?ClearLightmaps@eCMeshResource2@@AEAAXXZ
?ClearPad@eCInputX360@@AEAAXI@Z
?ClearPortals@eCPortalCell_PS@@QEAAXXZ
?ClearPrefetchCoherence@eCPrefetchAdmin@@QEAAXXZ
?ClearProgramRegister@eCGfxPixelProgram@@QEAA?AW4bEResult@@KK@Z
?ClearProgramRegister@eCGfxVertexProgram@@QEAA?AW4bEResult@@KK@Z
?ClearRegisteredEntities@eCSceneAdmin@@QEAAXXZ
?ClearRenderInstances@eCMeshResource2@@QEAAXXZ
?ClearRenderQueue@eCSpeedTreeRenderBuffer@@QEAAXXZ
?ClearSpecs@eCFileChangeInterface@@QEAAXXZ
?ClearStaticLightData@eCIlluminated_PS@@QEAAXXZ
?ClearStaticPose@eCAnimation_PS@@QEAAXXZ
?ClearTemplateEntities@eCSceneAdmin@@QEAA_NXZ
?ClearTouchingShapes@eCCollisionShape_PS@@QEAAXXZ
?ClearViewPort@eCDepthMap@@UEAA_NXZ
?ClearViewport@eCDX9Device@@UEAA?AW4bEResult@@W4eEViewportClear@eCGfxShared@@KMK@Z
?ClearViewport@eCGfxMixerAdmin@@QEBA?AW4bEResult@@W4eEViewportClear@eCGfxShared@@KMK@Z
?ClearVisibleGridNodes@eCVegetation_PS@@QEAAXXZ
?ClearZPassRenderQueue@eCSpeedTreeRenderBuffer@@QEAAXXZ
?Clip@eCBeamTree@@QEBAHPEBVbCVector@@KPEAUeSOccluderPoly@1@KAEBV2@_N@Z
?Clip@eCFrustumEx@@QEBA_NAEBUeSPoly@1@AEAU21@@Z
?ClipMesh@eCDecal@@IEAAXAEBVbCFrustum@@PEBKKV?$eTVertexBufferArray@VbCVector@@@@22V?$eTVertexBufferArray@VbCVector2@@@@V?$eTVertexBufferArray@K@@M@Z
?ClipPoly@eCBeamTree@@IEBAXPEAUeSBeamTreeNode@1@AEAUeSOccluderPoly@1@PEAU31@AEAHHAEBVbCVector@@_N@Z
?ClipPolygon@eCDecal@@IEAAKAEBVbCFrustum@@KPEBVbCVector@@11PEBVbCVector2@@PEBMPEAV3@44PEAV4@PEAM@Z
?ClipPolygonAgainstPlane@eCDecal@@IEAAKAEBVbCPlane@@KPEBVbCVector@@11PEBVbCVector2@@PEBMPEAV3@44PEAV4@PEAM@Z
?ClipToPlane@eCFrustumEx@@QEBAXAEBUeSPoly@1@AEBVbCPlane@@AEAU21@@Z
?Clone@eCEditorEntityPropertySet@@UEBAPEAV1@PEAVeCEntity@@@Z
?Clone@eCEntityPropertySet@@UEBAPEAV1@PEAVeCEntity@@@Z
?Clone@eCGenericEntityListener_PS@@UEBAPEAV1@PEAVeCEntity@@@Z
?Clone@eCGizmoTransform@@UEAAPEAVeCGizmoBase@@XZ
?Clone@eCGizmoTransformCapsuleCollisionShape@@UEAAPEAVeCGizmoBase@@XZ
?Clone@eCGizmoTransformOBBCollisionShape@@UEAAPEAVeCGizmoBase@@XZ
?Clone@eCGizmoTransformSphereCollisionShape@@UEAAPEAVeCGizmoBase@@XZ
?Clone@eCGizmoTranslateAndScale@@UEAAPEAVeCGizmoBase@@XZ
?Clone@eCGuiWindow2@@QEAAPEAV1@PEAV1@@Z
?Clone@eCGuiWindow2@@QEAAPEAV1@XZ
?Clone@eCNode@@QEBAPEAV1@XZ
?Clone@eCSpeedTreeWind_PS@@UEBAPEAV1@PEAVeCEntity@@@Z
?Clone@eCSpeedTree_PS@@UEBAPEAV1@PEAVeCEntity@@@Z
?CloneID@eCLocAdmin2@@QEAA_NAEBVbCString@@0@Z
?CloneIntoWorld@eCNode@@QEBAPEAV1@XZ
?CloneSubgraph@eCNode@@QEBAPEAV1@XZ
?Close@eCArchiveFile@@QEAAXXZ
?Close@eCResourceInputStream2@@AEAAXXZ
?Close@eCSplash@@QEAAHXZ
?Collect@eCIterator@@QEAA_NAEAUeSRayIntersectionDesc@@W4eEHitSubType@eIterator@@PEAW4eEPropertySetType@@@Z
?Collect@eCIterator@@QEAA_NAEAVbCVolume@@W4eEHitSubType@eIterator@@PEAW4eEPropertySetType@@_NM@Z
?Collect@eCIterator@@QEAA_NW4eEHitSubType@eIterator@@PEAW4eEPropertySetType@@@Z
?CollectBBSpeedTrees@eCSpeedTreeAdmin@@IEAA_NAEAV?$bTValArray@PEAVeCGeometryEntity@@@@@Z
?CollectBBSpeedTreesRecurse@eCSpeedTreeAdmin@@IEAAXPEAVeCGeometryEntity@@AEAV?$bTValArray@PEAVeCGeometryEntity@@@@@Z
?CollectChildrenRecursive@eCNode@@QEBAXAEAV?$bTPtrArray@PEAVeCNode@@@@@Z
?CollectCollisionPS@eCPhysicsScene@@IEAA_NAEAV?$bTValArray@PEAVeCCollisionShape_PS@@@@@Z
?CollectCollisionPSRecurse@eCPhysicsScene@@IEAAXPEAVeCGeometryEntity@@AEAV?$bTValArray@PEAVeCCollisionShape_PS@@@@@Z
?CollectData@eCProfilerAdmin@@IEAAXXZ
?CollectDataEx@eCProfilerAdmin@@IEAAXXZ
?CollectEntities@eCIterator@@QEAA?AW4eEIteratorResult@1@AEAUeSRayIntersectionDesc@@PEBVeCEntity@@@Z
?CollectEntities@eCIterator@@QEAA?AW4eEIteratorResult@1@AEAVbCVolume@@PEBVeCEntity@@@Z
?CollectEntitiesInAABB@eCPhysicsScene@@QEBA_NAEBVbCBox@@_NPEBVeCGeometryEntity@@PEAV?$bTPtrArray@PEAVeCGeometryEntity@@@@K1W4eEPropertySetType@@G@Z
?CollectEntitiesInCapsule@eCPhysicsScene@@QEBA_NAEBVbCCapsule@@_NPEBVeCGeometryEntity@@PEAV?$bTPtrArray@PEAVeCGeometryEntity@@@@K1W4eEPropertySetType@@G@Z
?CollectEntitiesInOBB@eCPhysicsScene@@QEBA_NAEBVbCOrientedBox@@_NPEBVeCGeometryEntity@@PEAV?$bTPtrArray@PEAVeCGeometryEntity@@@@K1W4eEPropertySetType@@G@Z
?CollectEntitiesInRange@eCStaticAmbientLight_PS@@MEBAHAEAV?$bTValArray@PEAVeCEntity@@@@@Z
?CollectEntitiesInSphere@eCPhysicsScene@@QEBA_NAEBVbCSphere@@_NPEBVeCGeometryEntity@@PEAV?$bTPtrArray@PEAVeCGeometryEntity@@@@K1W4eEPropertySetType@@G@Z
?CollectEntity@eCIterator@@QEAA?AW4eEIteratorResult@1@AEAUeSRayIntersectionDesc@@AEBVeCEntity@@@Z
?CollectEntity@eCIterator@@QEAA?AW4eEIteratorResult@1@AEAVbCVolume@@AEBVeCEntity@@@Z
?CollectEntries@eCVegetation_GridNode@@QEAAXAEAV?$bTValArray@PEAUeSVegetationNodeEntry@@@@AEBVbCVector2@@MPEBV?$bTObjArray@UeSVegetationMeshID@@@@@Z
?CollectFromNodes@eCProfilerAdmin@@IEAAXPEBVbCProfileNode@@AEAV?$bTObjArray@VeCPerformanceEntry@eCProfilerAdmin@@@@HH@Z
?CollectGameContexts@eCIterator@@QEAA?AW4eEIteratorResult@1@AEAUeSRayIntersectionDesc@@@Z
?CollectGameContexts@eCIterator@@QEAA?AW4eEIteratorResult@1@AEAVbCVolume@@@Z
?CollectGridNodes@eCVegetation_Grid@@QEAAXAEAV?$bTValArray@PEAVeCVegetation_GridNode@@@@AEBVbCVector2@@M@Z
?CollectHeaders@eCDocArchive@@AEAA_NAEAV?$bTObjArray@VCHeader@eCDocArchive@@@@@Z
?CollectIteratorEntries@eCIterator@@QEAA?AW4eEIteratorResult@1@AEAUeSRayIntersectionDesc@@AEBV1@@Z
?CollectIteratorEntries@eCIterator@@QEAA?AW4eEIteratorResult@1@AEAVbCVolume@@AEBV1@@Z
?CollectLinks@eCImageEffect@@IEBA_NAEAV?$bTValArray@UeSImageFilterLink@eCImageEffect@@@@@Z
?CollectNodes@eCContextBase@@IEBAXPEAVeCNode@@AEAV?$bTValArray@PEAVeCNode@@@@@Z
?CollectPolysInAABB@eCPhysicsScene@@QEBA_NAEBVbCBox@@PEAV?$bTObjArray@VbCTriangle@@@@@Z
?CollectPropertySet@eCIterator@@QEAA?AW4eEIteratorResult@1@AEAUeSRayIntersectionDesc@@AEBVeCEntity@@AEAVeCEntityPropertySet@@@Z
?CollectPropertySet@eCIterator@@QEAA?AW4eEIteratorResult@1@AEAVbCVolume@@AEBVeCEntity@@AEAVeCEntityPropertySet@@@Z
?CollectSaveGameEntities@eCContextBase@@UEAAXAEAV?$bTValArray@PEAVeCEntity@@@@@Z
?CollectSaveGameEntities@eCEntityDynamicContext@@IEAAXAEAV?$bTValArray@PEAVeCEntity@@@@PEAVeCNode@@@Z
?CollectSaveGameEntities@eCEntityDynamicContext@@UEAAXAEAV?$bTValArray@PEAVeCEntity@@@@@Z
?CollectScreenRect@eCIterator@@QEAA_NAEAVbCRect@@W4eEHitSubType@eIterator@@PEAW4eEPropertySetType@@_NM@Z
?CollectStatistics@eCResourceCache2@@AEBAXAEAUSStats@1@@Z
?ColorFill@eCGuiTexture2@@KA_NPEAVeCGfxImageData@@K@Z
?ColorizeEntries@eCVegetationBrush_PS@@IEAAXXZ
?Commit@eCSpriteEffect@@QEAAXXZ
?Compare@eCEntityProxy@@IEBA_NAEBV1@@Z
?Compare@eCEntityStringProxy@@IEBA_NAEBV1@@Z
?Compare@eCPropertyProxy@@IEBA_NAEBVeCEntityProxy@@@Z
?Compare@eCPropertySetProxy@@IEBA_NAEBVeCEntityProxy@@@Z
?Compare@eCScriptProxy@@IEBA_NAEBV1@@Z
?Compare@eCTemplateEntityProxy@@IEBA_NAEBV1@@Z
?ComparePropertySets@eCEntity@@KAHPEBX0@Z
?CompareSpritesDepth@eCSprite@@CAHPEAXPEBX1@Z
?CompareSpritesTexture@eCSprite@@CAHPEAXPEBX1@Z
?Compile@eCDX9HLSLShader@@UEAA?AW4bEResult@@AEBUeSGfxHLSLShaderSrc@eCGfxShared@@@Z
?CompileAll@eCShaderBase@@QEAA_N_N@Z
?CompileAllSystemDependencies@eCShaderMaterialAdmin@@QEAAXPEAVeCShaderBase@@@Z
?CompileEffect@eCDX9Device@@UEAA?AW4bEResult@@AEBUeSGfxEffectSource@eCGfxShared@@PEAPEAX1@Z
?CompileEffect@eCGfxAssistantAdmin@@QEAA?AW4bEResult@@AEBUeSGfxEffectSource@eCGfxShared@@@Z
?CompileEffectFromFile@eCDX9Device@@UEAA?AW4bEResult@@AEBUeSGfxEffectFileSource@eCGfxShared@@PEAPEAX1@Z
?CompileEffectFromFile@eCGfxAssistantAdmin@@QEAA?AW4bEResult@@AEBUeSGfxEffectFileSource@eCGfxShared@@@Z
?CompilePreviewShaderPoolEllement@eCShaderMaterialAdmin@@IEAAPEAVeCShaderPoolEllement@@AEBUeSGfxHLSLShaderSrc@eCGfxShared@@@Z
?CompileShaderPoolEllement@eCShaderMaterialAdmin@@IEAAPEAVeCShaderPoolEllement@@AEBUeSGfxHLSLShaderSrc@eCGfxShared@@AEAV?$bTValMap@VbCPropertyID@@PEAVeCShaderPoolEllement@@@@@Z
?CompileShaderPoolEllement@eCShaderMaterialAdmin@@IEAAPEAVeCShaderPoolEllement@@AEBUeSGfxHLSLShaderSrc@eCGfxShared@@W4eEShaderMaterialVersion@@K@Z
?CompileShaders@eCMaterialResource2@@QEAAXXZ
?CompileSpecialPass@eCShaderBase@@QEAA_NW4eEShaderMaterialVersion@@W4eEShaderMaterialSpecialPassType@@W4eEShaderMaterialSpecialPassOption@@@Z
?CompileVersion@eCShaderBase@@QEAA_NW4eEShaderMaterialVersion@@_N@Z
?ComposeID@eCLocString@@UEBA?AVbCString@@AEBV2@@Z
?CompressNormalMapToDXT5InPlace@eCGfxImageData@@QEAA?AW4bEResult@@XZ
?Compute@eCAOMeshBase@eCAmbientOcclusionPreprocessor@@UEAAXPEAV12@@Z
?Compute@eCAOMeshLoD@eCAmbientOcclusionPreprocessor@@UEAAXPEAVeCAOMeshBase@2@@Z
?Compute@eCAOTreeNode@eCAmbientOcclusionPreprocessor@@QEAAXPEAVeCAOMeshBase@2@@Z
?Compute@eCAmbientOcclusionPreprocessor@@QEAAXXZ
?ComputeInstanceLighting@eCStaticLightPreprocessor@@IEAA_NAEBVbCBox@@PEAVeCPortalRoom_PS@@AEAUeSShaderMaterialIllumination@@_N@Z
?ComputeInstanceLighting@eCStaticLightPreprocessor@@QEAA_NPEAVeCGeometryEntity@@_N1@Z
?ComputeLightmapLighting@eCStaticLightPreprocessor@@QEAA_NPEAVeCContextBase@@@Z
?ComputeLightmapLighting@eCStaticLightPreprocessor@@QEAA_NPEAVeCGeometryEntity@@H_N@Z
?ComputeMesh@eCCollisionMeshResource2@@IEAA_NAEAV?$bTValArray@VbCVector@@@@AEAV?$bTValArray@K@@_N@Z
?ComputeNormalMap@eCDX9Texture@@UEAA?AW4bEResult@@PEAVeCAPITexture@@W4eENormalMapGen@eCGfxShared@@W4eEChannel@5@M@Z
?ComputeNormalMap@eCGfxAssistantAdmin@@QEBA?AW4bEResult@@AEAVeCGfxImageData@@0W4eENormalMapGen@eCGfxShared@@W4eEChannel@5@M@Z
?ComputeNormalMap@eCGfxImageData@@IEAA?AW4bEResult@@AEAV1@W4eENormalMapGen@eCGfxShared@@W4eEChannel@4@M@Z
?ComputeNormalMapInPlace@eCGfxImageData@@IEAA?AW4bEResult@@W4eENormalMapGen@eCGfxShared@@W4eEChannel@4@M@Z
?ComputeNovodexMesh@eCCollisionMeshResource2@@IEAA_NAEBV?$bTValArray@VbCVector@@@@AEBV?$bTValArray@K@@_N@Z
?ComputeOcclusion@eCAOMeshBase@eCAmbientOcclusionPreprocessor@@UEAAMAEAUeSOrientedDisk@2@@Z
?ComputeOcclusionFactor@?$eCAOPerTriangleMeshBase@G@eCAmbientOcclusionPreprocessor@@UEAAXAEAUeSOrientedDisk@2@AEAV?$bTSphericalHarmonics3@M@@AEBVbCMatrix@@@Z
?ComputeOcclusionFactor@?$eCAOPerTriangleMeshBase@K@eCAmbientOcclusionPreprocessor@@UEAAXAEAUeSOrientedDisk@2@AEAV?$bTSphericalHarmonics3@M@@AEBVbCMatrix@@@Z
?ComputeOcclusionFactor@eCAOCustomMesh@eCAmbientOcclusionPreprocessor@@UEAAXAEAUeSOrientedDisk@2@AEAV?$bTSphericalHarmonics3@M@@AEBVbCMatrix@@@Z
?ComputeOcclusionFactor@eCAOMeshEmitterInstance@eCAmbientOcclusionPreprocessor@@UEAAXAEAUeSOrientedDisk@2@AEAV?$bTSphericalHarmonics3@M@@AEBVbCMatrix@@@Z
?ComputeOcclusionFactor@eCAOMeshGroup@eCAmbientOcclusionPreprocessor@@UEAAXAEAUeSOrientedDisk@2@AEAV?$bTSphericalHarmonics3@M@@AEBVbCMatrix@@@Z
?ComputeOcclusionFactor@eCAOMeshInstance@eCAmbientOcclusionPreprocessor@@UEAAXAEAUeSOrientedDisk@2@AEAV?$bTSphericalHarmonics3@M@@AEBVbCMatrix@@@Z
?ComputeOcclusionFactor@eCAOMeshLoD@eCAmbientOcclusionPreprocessor@@UEAAXAEAUeSOrientedDisk@2@AEAV?$bTSphericalHarmonics3@M@@AEBVbCMatrix@@@Z
?ComputeOcclusionFactor@eCAOPerVertexMesh@eCAmbientOcclusionPreprocessor@@UEAAXAEAUeSOrientedDisk@2@AEAV?$bTSphericalHarmonics3@M@@AEBVbCMatrix@@@Z
?ComputeOcclusionFactor@eCAOTreeNode@eCAmbientOcclusionPreprocessor@@QEAAXAEAUeSOrientedDisk@2@AEAV?$bTSphericalHarmonics3@M@@AEBVbCMatrix@@@Z
?ComputePass@?$eCAOPerTriangleMeshBase@G@eCAmbientOcclusionPreprocessor@@UEAAXPEAVeCAOMeshBase@2@@Z
?ComputePass@?$eCAOPerTriangleMeshBase@K@eCAmbientOcclusionPreprocessor@@UEAAXPEAVeCAOMeshBase@2@@Z
?ComputePass@eCAOCustomMesh@eCAmbientOcclusionPreprocessor@@UEAAXPEAVeCAOMeshBase@2@@Z
?ComputePass@eCAOMeshEmitterInstance@eCAmbientOcclusionPreprocessor@@UEAAXPEAVeCAOMeshBase@2@@Z
?ComputePass@eCAOMeshGroup@eCAmbientOcclusionPreprocessor@@UEAAXPEAVeCAOMeshBase@2@@Z
?ComputePass@eCAOMeshInstance@eCAmbientOcclusionPreprocessor@@UEAAXPEAVeCAOMeshBase@2@@Z
?ComputePass@eCAOMeshLoD@eCAmbientOcclusionPreprocessor@@UEAAXPEAVeCAOMeshBase@2@@Z
?ComputePass@eCAOPerVertexMesh@eCAmbientOcclusionPreprocessor@@UEAAXPEAVeCAOMeshBase@2@@Z
?ComputeRelightingGrid@eCStaticLightPreprocessor@@IEAA_NPEAVeCPortalRoom_PS@@_N@Z
?ComputeRelightingGrid@eCStaticLightPreprocessor@@QEAA_NPEAVeCGeometryEntity@@_N1@Z
?ComputeSHOcclusion@?$eCAOPerTriangleMeshBase@G@eCAmbientOcclusionPreprocessor@@UEAAXAEBVbCVector@@AEAV?$bTSphericalHarmonics3@M@@AEBVbCMatrix@@@Z
?ComputeSHOcclusion@?$eCAOPerTriangleMeshBase@K@eCAmbientOcclusionPreprocessor@@UEAAXAEBVbCVector@@AEAV?$bTSphericalHarmonics3@M@@AEBVbCMatrix@@@Z
?ComputeSHOcclusion@eCAOCustomMesh@eCAmbientOcclusionPreprocessor@@UEAAXAEBVbCVector@@AEAV?$bTSphericalHarmonics3@M@@AEBVbCMatrix@@@Z
?ComputeSHOcclusion@eCAOMeshEmitterInstance@eCAmbientOcclusionPreprocessor@@UEAAXAEBVbCVector@@AEAV?$bTSphericalHarmonics3@M@@AEBVbCMatrix@@@Z
?ComputeSHOcclusion@eCAOMeshGroup@eCAmbientOcclusionPreprocessor@@UEAAXAEBVbCVector@@AEAV?$bTSphericalHarmonics3@M@@AEBVbCMatrix@@@Z
?ComputeSHOcclusion@eCAOMeshInstance@eCAmbientOcclusionPreprocessor@@UEAAXAEBVbCVector@@AEAV?$bTSphericalHarmonics3@M@@AEBVbCMatrix@@@Z
?ComputeSHOcclusion@eCAOMeshLoD@eCAmbientOcclusionPreprocessor@@UEAAXAEBVbCVector@@AEAV?$bTSphericalHarmonics3@M@@AEBVbCMatrix@@@Z
?ComputeSHOcclusion@eCAOPerVertexMesh@eCAmbientOcclusionPreprocessor@@UEAAXAEBVbCVector@@AEAV?$bTSphericalHarmonics3@M@@AEBVbCMatrix@@@Z
?ComputeSHOcclusion@eCAOTreeNode@eCAmbientOcclusionPreprocessor@@QEAAXAEBVbCVector@@AEAV?$bTSphericalHarmonics3@M@@AEBVbCMatrix@@@Z
?ComputeSphereOcclusionFactor@?$eCAOPerTriangleMeshBase@G@eCAmbientOcclusionPreprocessor@@UEAAXAEAUeSOrientedDisk@2@AEAV?$bTSphericalHarmonics3@M@@AEBVbCMatrix@@@Z
?ComputeSphereOcclusionFactor@?$eCAOPerTriangleMeshBase@K@eCAmbientOcclusionPreprocessor@@UEAAXAEAUeSOrientedDisk@2@AEAV?$bTSphericalHarmonics3@M@@AEBVbCMatrix@@@Z
?ComputeSphereOcclusionFactor@eCAOCustomMesh@eCAmbientOcclusionPreprocessor@@UEAAXAEAUeSOrientedDisk@2@AEAV?$bTSphericalHarmonics3@M@@AEBVbCMatrix@@@Z
?ComputeSphereOcclusionFactor@eCAOMeshEmitterInstance@eCAmbientOcclusionPreprocessor@@UEAAXAEAUeSOrientedDisk@2@AEAV?$bTSphericalHarmonics3@M@@AEBVbCMatrix@@@Z
?ComputeSphereOcclusionFactor@eCAOMeshGroup@eCAmbientOcclusionPreprocessor@@UEAAXAEAUeSOrientedDisk@2@AEAV?$bTSphericalHarmonics3@M@@AEBVbCMatrix@@@Z
?ComputeSphereOcclusionFactor@eCAOMeshInstance@eCAmbientOcclusionPreprocessor@@UEAAXAEAUeSOrientedDisk@2@AEAV?$bTSphericalHarmonics3@M@@AEBVbCMatrix@@@Z
?ComputeSphereOcclusionFactor@eCAOMeshLoD@eCAmbientOcclusionPreprocessor@@UEAAXAEAUeSOrientedDisk@2@AEAV?$bTSphericalHarmonics3@M@@AEBVbCMatrix@@@Z
?ComputeSphereOcclusionFactor@eCAOPerVertexMesh@eCAmbientOcclusionPreprocessor@@UEAAXAEAUeSOrientedDisk@2@AEAV?$bTSphericalHarmonics3@M@@AEBVbCMatrix@@@Z
?ComputeSphereOcclusionFactor@eCAOTreeNode@eCAmbientOcclusionPreprocessor@@QEAAXAEAUeSOrientedDisk@2@AEAV?$bTSphericalHarmonics3@M@@AEBVbCMatrix@@@Z
?ConfineCursor@eCApplication@@QEAAXXZ
?Contains@eCArea_StringProperty_PS@@QEAA_NAEBVbCVector@@@Z
?Contains@eCConfigFile@@QEBA_NAEBVbCString@@0@Z
?Contains@eCConfigFile@@QEBA_NAEBVbCString@@@Z
?Contains@eCUnicodeConfigFile@@QEBA_NAEBVbCUnicodeString@@0@Z
?Contains@eCUnicodeConfigFile@@QEBA_NAEBVbCUnicodeString@@@Z
?ContainsBodyFlag@eCRigidBody_PS@@UEBA_NW4eERigidbody_Flag@@@Z
?ContainsParent@eCNode@@QEBA_NPEBV1@@Z
?ConvertCubeMap@eCGfxImageData@@IEAA?AW4bEResult@@AEAV1@W4eECopyFilter@eCGfxShared@@_N@Z
?ConvertCubeMapInPlace@eCGfxImageData@@IEAA?AW4bEResult@@H@Z
?ConvertCubeMapInPlace@eCGfxImageData@@IEAA?AW4bEResult@@W4eEColorFormat@eCGfxShared@@@Z
?ConvertFrom@eCDX9CubeMap@@UEAA?AW4bEResult@@PEAVeCAPICubeMap@@W4eECopyFilter@eCGfxShared@@_NH@Z
?ConvertFrom@eCDX9Texture@@UEAA?AW4bEResult@@PEAVeCAPITexture@@W4eECopyFilter@eCGfxShared@@_NH@Z
?ConvertFrom@eCGfxImageData@@QEAA?AW4bEResult@@AEAV1@W4eECopyFilter@eCGfxShared@@_N@Z
?ConvertFrom@eCMesh_PS@@UEAA_NAEBV1@@Z
?ConvertFrom@eCSpeedTreeBBMesh_PS@@UEAA_NAEBV1@@Z
?ConvertFrom@eCSpeedTreeWind_PS@@UEAA_NAEBV1@@Z
?ConvertFrom@eCSpeedTree_PS@@UEAA_NAEBV1@@Z
?ConvertFromString@eCConfigAdmin@@KAXAEBVbCString@@AEAH@Z
?ConvertFromString@eCConfigAdmin@@KAXAEBVbCString@@AEAK@Z
?ConvertFromString@eCConfigAdmin@@KAXAEBVbCString@@AEAM@Z
?ConvertFromString@eCConfigAdmin@@KAXAEBVbCString@@AEAV2@@Z
?ConvertFromString@eCConfigAdmin@@KAXAEBVbCString@@AEA_N@Z
?ConvertInPlace@eCGfxImageData@@QEAA?AW4bEResult@@H@Z
?ConvertInPlace@eCGfxImageData@@QEAA?AW4bEResult@@W4eEColorFormat@eCGfxShared@@@Z
?ConvertTexture@eCGfxImageData@@IEAA?AW4bEResult@@AEAV1@W4eECopyFilter@eCGfxShared@@_N@Z
?ConvertTextureInPlace@eCGfxImageData@@IEAA?AW4bEResult@@H@Z
?ConvertTextureInPlace@eCGfxImageData@@IEAA?AW4bEResult@@W4eEColorFormat@eCGfxShared@@@Z
?ConvertToString@eCConfigAdmin@@KA?AVbCString@@AEBH@Z
?ConvertToString@eCConfigAdmin@@KA?AVbCString@@AEBK@Z
?ConvertToString@eCConfigAdmin@@KA?AVbCString@@AEBM@Z
?ConvertToString@eCConfigAdmin@@KA?AVbCString@@AEBV2@@Z
?ConvertToString@eCConfigAdmin@@KA?AVbCString@@AEB_N@Z
?ConvertVolume@eCGfxImageData@@IEAA?AW4bEResult@@AEAV1@W4eECopyFilter@eCGfxShared@@_N@Z
?ConvertVolumeInPlace@eCGfxImageData@@IEAA?AW4bEResult@@H@Z
?ConvertVolumeInPlace@eCGfxImageData@@IEAA?AW4bEResult@@W4eEColorFormat@eCGfxShared@@@Z
?Copy@eCConfigMerger@@QEBA_NAEBVeCConfigFile@@AEAV2@@Z
?CopyCurrentRTToImage@eCDX9Texture@@UEAA?AW4bEResult@@W4eETexFilter@eCGfxShared@@PEAVbCRect@@1@Z
?CopyCurrentRTToImage@eCGfxAssistantAdmin@@QEBA?AW4bEResult@@AEAVeCGfxImageData@@W4eETexFilter@eCGfxShared@@PEAVbCRect@@2@Z
?CopyCurrentRTToImage@eCGfxImageData@@IEAA?AW4bEResult@@W4eETexFilter@eCGfxShared@@PEAVbCRect@@1@Z
?CopyEntityPrivateData@eCDynamicEntity@@UEAAXAEBVeCEntity@@_N@Z
?CopyEntityPrivateData@eCEntity@@MEAAXAEBV1@_N@Z
?CopyEntityPrivateData@eCGeometryEntity@@MEAAXAEBVeCEntity@@_N@Z
?CopyEntityPrivateData@eCTemplateEntity@@UEAAXAEBVeCEntity@@_N@Z
?CopyFileA@eCPhysicalFileSystem@@QEAA_NAEBVbCString@@0@Z
?CopyFileA@eCVirtualFileSystem@@QEAA_NAEBVbCString@@0@Z
?CopyFrom@?$eTShaderEllementProxy@VeCColorSrcBase@@@@MEAAXAEBV1@@Z
?CopyFrom@?$eTShaderEllementProxy@VeCTexCoordSrcBase@@@@MEAAXAEBV1@@Z
?CopyFrom@eCApplication@@MEAAXAEBV1@@Z
?CopyFrom@eCBeamTree@@IEAAXPEAPEAUeSBeamTreeNode@1@PEAU21@@Z
?CopyFrom@eCBeamTree@@QEAAXAEAV1@@Z
?CopyFrom@eCColorSrcProxy@@MEAAXAEBV1@@Z
?CopyFrom@eCColorSrcProxy@@MEAAXAEBV?$eTShaderEllementProxy@VeCColorSrcBase@@@@@Z
?CopyFrom@eCConfigFile@@QEAAXAEBV1@@Z
?CopyFrom@eCConfigFile_KeyObject@@QEAAXAEBV1@@Z
?CopyFrom@eCConfigFile_SectionObject@@QEAAXAEBV1@@Z
?CopyFrom@eCEntityProxy@@MEAA?AW4bEResult@@AEBV1@@Z
?CopyFrom@eCEntityStringProxy@@IEAA?AW4bEResult@@AEBV1@@Z
?CopyFrom@eCFrustumElementItem@@QEAAXAEBV1@@Z
?CopyFrom@eCIteratorPrimitive@@UEAA?AW4bEResult@@AEBV1@@Z
?CopyFrom@eCIteratorPrimitiveBillboard@@UEAA?AW4bEResult@@AEBV1@@Z
?CopyFrom@eCIteratorPrimitiveIndexedTriangleList@@UEAA?AW4bEResult@@AEBV1@@Z
?CopyFrom@eCIteratorPrimitiveLineList@@UEAA?AW4bEResult@@AEBV1@@Z
?CopyFrom@eCIteratorPrimitiveTriangleList@@UEAA?AW4bEResult@@AEBV1@@Z
?CopyFrom@eCPropertyProxy@@MEAA?AW4bEResult@@AEBVeCEntityProxy@@@Z
?CopyFrom@eCPropertySetProxy@@MEAA?AW4bEResult@@AEBVeCEntityProxy@@@Z
?CopyFrom@eCScriptProxy@@IEAA?AW4bEResult@@AEBV1@@Z
?CopyFrom@eCTemplateEntityProxy@@IEAA?AW4bEResult@@AEBV1@@Z
?CopyFrom@eCTexCoordSrcProxy@@MEAAXAEBV1@@Z
?CopyFrom@eCTexCoordSrcProxy@@MEAAXAEBV?$eTShaderEllementProxy@VeCTexCoordSrcBase@@@@@Z
?CopyFrom@eCUnicodeConfigFile@@QEAAXAEBV1@@Z
?CopyFrom@eCUnicodeConfigFile_KeyObject@@QEAAXAEBV1@@Z
?CopyFrom@eCUnicodeConfigFile_SectionObject@@QEAAXAEBV1@@Z
?CopyFrom@eCWeatherEnvironment@@UEAA?AW4bEResult@@AEBV1@@Z
?CopyFrom@eCWraper_SpeedTreeRT@@QEAAXAEAV1@@Z
?CopyFromMaster@eCParticle_PS@@IEAAXPEBV1@@Z
?CopyGlyphToTexture@eCGlyphSheet@@AEAA_NAEBVeCGlyphOutline@@AEBUtagTEXTMETRICW@@AEAUtagRECT@@@Z
?CopyGlyphToTexture@eCGlyphSheet@@AEAA_NAEBVeCGlyphOutline@@PEBEIII@Z
?CopyImageToCurrentRT@eCDX9Texture@@UEAA?AW4bEResult@@W4eETexFilter@eCGfxShared@@PEAVbCRect@@1@Z
?CopyImageToCurrentRT@eCGfxAssistantAdmin@@QEBA?AW4bEResult@@AEAVeCGfxImageData@@W4eETexFilter@eCGfxShared@@PEAVbCRect@@2@Z
?CopyImageToCurrentRT@eCGfxImageData@@IEAA?AW4bEResult@@W4eETexFilter@eCGfxShared@@PEAVbCRect@@1@Z
?CopySurface@eCDX9Texture@@UEAA?AW4bEResult@@PEAVeCAPITexture@@@Z
?CopyTo@eCApplication@@IEBAXAEAV1@@Z
?CopyTo@eCCameraBase@@IEBAXAEAV1@@Z
?CountStatisticRecursive@eCStatisticScreen@@IEAAHPEAVeCStatistic@@@Z
?Create@?$eCAOPerTriangleMeshBase@G@eCAmbientOcclusionPreprocessor@@QEAAXPEBGKPEBVbCVector@@1KPEBVbCMatrix@@_N@Z
?Create@?$eCAOPerTriangleMeshBase@K@eCAmbientOcclusionPreprocessor@@QEAAXPEBKKPEBVbCVector@@1KPEBVbCMatrix@@_N@Z
?Create@eCAOCustomMesh@eCAmbientOcclusionPreprocessor@@UEAAX_NV?$bTValArray@UeSOrientedDisk@eCAmbientOcclusionPreprocessor@@@@@Z
?Create@eCAOPerVertexMesh@eCAmbientOcclusionPreprocessor@@QEAAXPEBKKPEBVbCVector@@1KPEBVbCMatrix@@_N@Z
?Create@eCActorAttachment@@QEAAXPEAVeCAnimation_PS@@PEAVeCGeometryEntity@@AEBVbCString@@PEBVbCMatrix@@K_N@Z
?Create@eCAmbientOcclusionPreprocessor@@UEAA?AW4bEResult@@XZ
?Create@eCAnimation2Admin@@UEAA?AW4bEResult@@XZ
?Create@eCAnimationCollisionDesc@@UEAA?AW4bEResult@@XZ
?Create@eCAnimation_HardRenderActor2@@QEAA?AW4bEResult@@PEAVeCMotionActorResource2@@@Z
?Create@eCAnimation_PS@@UEAA?AW4bEResult@@XZ
?Create@eCApplication@@MEAA?AW4bEResult@@XZ
?Create@eCApplication@@QEAA?AW4bEResult@@PEAUHINSTANCE__@@AEBVbCString@@1@Z
?Create@eCArchiveFile@@QEAAXAEBVbCString@@@Z
?Create@eCAreaAdmin@@UEAA?AW4bEResult@@XZ
?Create@eCArea_StringProperty_PS@@UEAA?AW4bEResult@@XZ
?Create@eCAudioEmitter_PS@@UEAA?AW4bEResult@@XZ
?Create@eCAudioSound@@QEAA?AW4bEResult@@AEBUSCreateFromMemory@1@@Z
?Create@eCAudioSystem@@UEAA?AW4bEResult@@XZ
?Create@eCBillboard@@IEAAXXZ
?Create@eCBillboardAdmin@@UEAA?AW4bEResult@@XZ
?Create@eCBillboard_PS@@UEAA?AW4bEResult@@XZ
?Create@eCBodyPart_PS@@UEAA?AW4bEResult@@XZ
?Create@eCCameraBase@@UEAA?AW4bEResult@@XZ
?Create@eCCameraBase@@UEAA?AW4bEResult@@_N@Z
?Create@eCCascadeShadowMap@@UEAA?AW4bEResult@@XZ
?Create@eCCollisionDesc@@UEAA?AW4bEResult@@XZ
?Create@eCCollisionDescMesh@@UEAA?AW4bEResult@@XZ
?Create@eCCollisionShape@@UEAA?AW4bEResult@@XZ
?Create@eCCollisionShapeBase_PS@@UEAA?AW4bEResult@@XZ
?Create@eCCollisionShape_PS@@UEAA?AW4bEResult@@XZ
?Create@eCColorSrcBase@@UEAA?AW4bEResult@@XZ
?Create@eCColorSrcBlend@@UEAA?AW4bEResult@@XZ
?Create@eCColorSrcCamDistance@@UEAA?AW4bEResult@@XZ
?Create@eCColorSrcCamObstacle@@UEAA?AW4bEResult@@XZ
?Create@eCColorSrcCombiner@@UEAA?AW4bEResult@@XZ
?Create@eCColorSrcConstant@@UEAA?AW4bEResult@@XZ
?Create@eCColorSrcConstantAnimation@@UEAA?AW4bEResult@@XZ
?Create@eCColorSrcConstantSwitch@@UEAA?AW4bEResult@@XZ
?Create@eCColorSrcCubeSampler@@UEAA?AW4bEResult@@XZ
?Create@eCColorSrcFresnel@@UEAA?AW4bEResult@@XZ
?Create@eCColorSrcMask@@UEAA?AW4bEResult@@XZ
?Create@eCColorSrcSampler@@UEAA?AW4bEResult@@XZ
?Create@eCColorSrcSkydomeSampler@@UEAA?AW4bEResult@@XZ
?Create@eCColorSrcVertexColor@@UEAA?AW4bEResult@@XZ
?Create@eCConfigFile@@QEAAXXZ
?Create@eCConfigFile_KeyObject@@QEAAXXZ
?Create@eCConfigFile_SectionObject@@QEAAXXZ
?Create@eCConsole2@@QEAA_NXZ
?Create@eCContextBase@@UEAA?AW4bEResult@@XZ
?Create@eCDX9HLSLShader@@IEAA?AW4bEResult@@PEAUID3DXBuffer@@W4eEGfxHLSLShaderType@eCGfxShared@@@Z
?Create@eCDecal@@IEAA_NAEBVbCFrustum@@PEAVeCEntity@@M@Z
?Create@eCDecal@@QEAA_NAEBVbCMatrix@@PEAVeCEntity@@M@Z
?Create@eCDecal@@QEAA_NAEBVbCVector@@000AEBVbCVector2@@1PEAVeCEntity@@M@Z
?Create@eCDecal@@QEAA_NAEBVbCVector@@000PEAVeCEntity@@M@Z
?Create@eCDecalAdmin@@UEAA?AW4bEResult@@XZ
?Create@eCDecal_PS@@UEAA?AW4bEResult@@XZ
?Create@eCDepthMap@@MEAA?AW4bEResult@@XZ
?Create@eCDepthMap@@UEAA?AW4bEResult@@H_NW4eEDepthMapFormat@@K@Z
?Create@eCDirectionalLight_PS@@UEAA?AW4bEResult@@XZ
?Create@eCDocArchive@@QEAAXAEBUeSDocArchiveConfig@@@Z
?Create@eCDynamicEntity@@UEAA?AW4bEResult@@XZ
?Create@eCDynamicLight_PS@@UEAA?AW4bEResult@@XZ
?Create@eCEditorEntityPropertySet@@UEAA?AW4bEResult@@XZ
?Create@eCEngineComponentBase@@UEAA?AW4bEResult@@XZ
?Create@eCEntity@@UEAA?AW4bEResult@@XZ
?Create@eCEntityAdmin@@QEAA?AW4bEResult@@XZ
?Create@eCEntityDynamicContext@@UEAA?AW4bEResult@@XZ
?Create@eCEntityPropertySet@@UEAA?AW4bEResult@@XZ
?Create@eCEntityProxy@@IEAA?AW4bEResult@@XZ
?Create@eCEntityStringProxy@@IEAA?AW4bEResult@@XZ
?Create@eCFnt@@QEAA_NAEBUtagLOGFONTA@@@Z
?Create@eCFnt@@QEAA_NAEBUtagLOGFONTW@@@Z
?Create@eCFont@@QEAA_NAEBUtagLOGFONTW@@@Z
?Create@eCFrustumDatabase@@UEAA?AW4bEResult@@XZ
?Create@eCFrustumElementItem@@IEAA_NXZ
?Create@eCFrustumFilter@@UEAA?AW4bEResult@@XZ
?Create@eCGenericEntityListener_PS@@UEAA?AW4bEResult@@XZ
?Create@eCGeometryEntity@@UEAA?AW4bEResult@@XZ
?Create@eCGfxAdmin@@QEAA?AW4bEResult@@W4eEAPIType@eCGfxShared@@@Z
?Create@eCGfxAdmin@@UEAA?AW4bEResult@@XZ
?Create@eCGfxAssistantAdmin@@UEAA?AW4bEResult@@XZ
?Create@eCGfxCamera@@UEAA?AW4bEResult@@XZ
?Create@eCGfxCameraStates@@UEAA?AW4bEResult@@XZ
?Create@eCGfxContextAdmin@@QEAA?AW4bEResult@@AEAUeSGfxContextDesc@eCGfxShared@@PEAUHWND__@@W4eEContextCreate@4@_NW4eEMultiSample@4@W4eEDepthFormat@4@@Z
?Create@eCGfxContextAdmin@@UEAA?AW4bEResult@@XZ
?Create@eCGfxEffect@@UEAA?AW4bEResult@@PEBXI@Z
?Create@eCGfxEffect@@UEAA?AW4bEResult@@XZ
?Create@eCGfxFog@@UEAA?AW4bEResult@@XZ
?Create@eCGfxGaugeAdmin@@UEAA?AW4bEResult@@XZ
?Create@eCGfxHLSLShader@@UEAA?AW4bEResult@@AEBUeSGfxHLSLShaderSrc@eCGfxShared@@@Z
?Create@eCGfxHLSLShader@@UEAA?AW4bEResult@@XZ
?Create@eCGfxImageData@@QEAA?AW4bEResult@@AEBUeSGfxLayersDesc@eCGfxShared@@@Z
?Create@eCGfxImageData@@QEAA?AW4bEResult@@W4eEColorFormat@eCGfxShared@@@Z
?Create@eCGfxImageData@@UEAA?AW4bEResult@@XZ
?Create@eCGfxIndexData@@QEAA?AW4bEResult@@AEBUeSGfxIndexBufDesc@eCGfxShared@@@Z
?Create@eCGfxIndexData@@UEAA?AW4bEResult@@XZ
?Create@eCGfxLight@@UEAA?AW4bEResult@@XZ
?Create@eCGfxMaterial@@UEAA?AW4bEResult@@XZ
?Create@eCGfxMixerAdmin@@UEAA?AW4bEResult@@XZ
?Create@eCGfxPixelProgram@@UEAA?AW4bEResult@@XZ
?Create@eCGfxShader@@UEAA?AW4bEResult@@XZ
?Create@eCGfxTextureBlock@@UEAA?AW4bEResult@@XZ
?Create@eCGfxVertexData@@QEAA?AW4bEResult@@AEBUeSGfxVertexBufDesc@eCGfxShared@@@Z
?Create@eCGfxVertexData@@UEAA?AW4bEResult@@XZ
?Create@eCGfxVertexDecl@@QEAA?AW4bEResult@@PEBUeSGfxDclElement@eCGfxShared@@@Z
?Create@eCGfxVertexDecl@@UEAA?AW4bEResult@@XZ
?Create@eCGfxVertexProgram@@QEAA?AW4bEResult@@PEAX_N@Z
?Create@eCGfxVertexProgram@@UEAA?AW4bEResult@@XZ
?Create@eCGfxVisual@@UEAA?AW4bEResult@@XZ
?Create@eCGfxVisualCollection@@UEAA?AW4bEResult@@XZ
?Create@eCGizmoBase@@UEAA_NXZ
?Create@eCGizmoTransform@@UEAA_NXZ
?Create@eCGizmoTransformCapsule@@UEAA_NXZ
?Create@eCGizmoTransformCapsuleCollisionShape@@UEAA_NXZ
?Create@eCGizmoTransformOBB@@UEAA_NXZ
?Create@eCGizmoTransformOBBCollisionShape@@UEAA_NXZ
?Create@eCGizmoTransformSphere@@UEAA_NXZ
?Create@eCGizmoTransformSphereCollisionShape@@UEAA_NXZ
?Create@eCGizmoTranslateAndScale@@UEAA_NXZ
?Create@eCGizmoTranslateAndScaleBox@@UEAA_NXZ
?Create@eCGizmoTranslateAndScaleSphere@@UEAA_NXZ
?Create@eCGlobalStatistics@@QEAA?AW4bEResult@@XZ
?Create@eCGlyphSheet@@QEAA_NII@Z
?Create@eCGuiButton2@@UEAA_NAEBVbCString@@AEBVbCPoint@@PEAVIFFGuiWnd2@@@Z
?Create@eCGuiCheckBox2@@UEAA_NAEBVbCString@@AEBVbCPoint@@PEAVIFFGuiWnd2@@@Z
?Create@eCGuiDevice2@@QEAAXXZ
?Create@eCGuiEdit2@@UEAA_NAEBVbCString@@AEBVbCPoint@@PEAVIFFGuiWnd2@@@Z
?Create@eCGuiFrame2@@UEAA_NAEBVbCString@@AEBVbCPoint@@PEAVIFFGuiWnd2@@@Z
?Create@eCGuiGroupBox2@@UEAA_NAEBVbCString@@AEBVbCPoint@@PEAVIFFGuiWnd2@@@Z
?Create@eCGuiListCtrl2@@UEAA_NAEBVbCString@@AEBVbCPoint@@PEAVIFFGuiWnd2@@@Z
?Create@eCGuiProgressBar2@@UEAA_NAEBVbCString@@AEBVbCPoint@@PEAVIFFGuiWnd2@@@Z
?Create@eCGuiPushButton2@@UEAA_NAEBVbCString@@AEBVbCPoint@@PEAVIFFGuiWnd2@@@Z
?Create@eCGuiRadioButton2@@UEAA_NAEBVbCString@@AEBVbCPoint@@PEAVIFFGuiWnd2@@@Z
?Create@eCGuiScrollBar2@@UEAA_NAEBVbCString@@AEBVbCPoint@@PEAVIFFGuiWnd2@@@Z
?Create@eCGuiStatic2@@UEAA_NAEBVbCString@@AEBVbCPoint@@PEAVIFFGuiWnd2@@@Z
?Create@eCGuiToolTipCtrl2@@UEAA_NAEBVbCString@@AEBVbCPoint@@PEAVIFFGuiWnd2@@@Z
?Create@eCGuiTrackBar2@@UEAA_NAEBVbCString@@AEBVbCPoint@@PEAVIFFGuiWnd2@@@Z
?Create@eCGuiWindow2@@UEAA_NAEBVbCString@@AEBVbCPoint@@PEAVIFFGuiWnd2@@@Z
?Create@eCHemisphere_PS@@UEAA?AW4bEResult@@XZ
?Create@eCIlluminated_PS@@UEAA?AW4bEResult@@XZ
?Create@eCIlluminationAdmin@@UEAA?AW4bEResult@@XZ
?Create@eCImageFilterAdmin@@UEAA?AW4bEResult@@XZ
?Create@eCImageFilterBase@@UEAA?AW4bEResult@@XZ
?Create@eCImageFilterCopy@@UEAA?AW4bEResult@@XZ
?Create@eCImageFilterEffect@@UEAA?AW4bEResult@@XZ
?Create@eCImageFilterImage@@UEAA?AW4bEResult@@XZ
?Create@eCImageFilterImageEffect@@UEAA?AW4bEResult@@XZ
?Create@eCImageFilterRTBase@@UEAA?AW4bEResult@@XZ
?Create@eCImageFilterScene@@UEAA?AW4bEResult@@XZ
?Create@eCImageFilterShadowMask@@UEAA?AW4bEResult@@XZ
?Create@eCImageFilterTexture@@UEAA?AW4bEResult@@XZ
?Create@eCImageFilterTextureRandom@@UEAA?AW4bEResult@@XZ
?Create@eCInputAdmin@@UEAA?AW4bEResult@@XZ
?Create@eCIterator@@QEAAXXZ
?Create@eCIteratorPrimitive@@UEAA?AW4bEResult@@XZ
?Create@eCIteratorPrimitiveBillboard@@UEAA?AW4bEResult@@XZ
?Create@eCIteratorPrimitiveIndexedTriangleList@@UEAA?AW4bEResult@@XZ
?Create@eCIteratorPrimitiveLineList@@UEAA?AW4bEResult@@XZ
?Create@eCIteratorPrimitiveTriangleList@@UEAA?AW4bEResult@@XZ
?Create@eCIteratorReport@@QEAAXXZ
?Create@eCLightSet@@UEAA?AW4bEResult@@XZ
?Create@eCLightStreaks_PS@@UEAA?AW4bEResult@@XZ
?Create@eCLightmapBitmap@@QEAAXHHH@Z
?Create@eCLightmapPreprocessor@@QEAAXXZ
?Create@eCMesh_PS@@UEAA?AW4bEResult@@XZ
?Create@eCModuleAdmin@@UEAA?AW4bEResult@@XZ
?Create@eCMoverAnimationBase@@MEAA?AW4bEResult@@XZ
?Create@eCMoverAnimationBezier@@MEAA?AW4bEResult@@XZ
?Create@eCMoverAnimationFile@@MEAA?AW4bEResult@@XZ
?Create@eCMoverAnimationHermit@@MEAA?AW4bEResult@@XZ
?Create@eCMoverAnimationKFBase@@MEAA?AW4bEResult@@XZ
?Create@eCMoverAnimationLinear@@MEAA?AW4bEResult@@XZ
?Create@eCMoverAnimationRotate@@MEAA?AW4bEResult@@XZ
?Create@eCMoverAnimationSkeletal@@MEAA?AW4bEResult@@XZ
?Create@eCMoverAnimationTCB@@MEAA?AW4bEResult@@XZ
?Create@eCMover_PS@@MEAA?AW4bEResult@@XZ
?Create@eCNode@@UEAA?AW4bEResult@@XZ
?Create@eCOccluder_PS@@MEAA?AW4bEResult@@XZ
?Create@eCPackedShadowMap@@UEAA?AW4bEResult@@HW4eEDepthMapFormat@@@Z
?Create@eCParticle_PS@@UEAA?AW4bEResult@@XZ
?Create@eCPhysicObject@@UEAA?AW4bEResult@@AEAV?$bTPtrArray@PEAVNxActor@@@@@Z
?Create@eCPhysicObject@@UEAA?AW4bEResult@@XZ
?Create@eCPhysicsScene@@UEAA?AW4bEResult@@XZ
?Create@eCPhysicsScene_PS@@UEAA?AW4bEResult@@XZ
?Create@eCPointLight_PS@@UEAA?AW4bEResult@@XZ
?Create@eCPortalAdmin@@UEAA?AW4bEResult@@XZ
?Create@eCPortalCell_PS@@MEAA?AW4bEResult@@XZ
?Create@eCPortalRoom_PS@@MEAA?AW4bEResult@@XZ
?Create@eCPrecipitation_PS@@UEAA?AW4bEResult@@XZ
?Create@eCPrefetchAdmin@@QEAAXXZ
?Create@eCPrimitiveCollisionDesc@@UEAA?AW4bEResult@@XZ
?Create@eCProcessibleElement@@MEAA?AW4eEResult@1@AEBVbCString@@0@Z
?Create@eCProcessibleElement@@UEAA?AW4bEResult@@XZ
?Create@eCProfilerAdmin@@UEAA?AW4bEResult@@XZ
?Create@eCPropertyProxy@@QEAA?AW4bEResult@@XZ
?Create@eCPropertySetProxy@@IEAA?AW4bEResult@@XZ
?Create@eCRenderContext@@QEAAXPEAVeCGeometryEntity@@PEAVeCEntityPropertySet@@@Z
?Create@eCRenderContextMesh@@QEAAXPEAVeCGeometryEntity@@PEAVeCEntityPropertySet@@@Z
?Create@eCRenderContextSpeedTreeBB@@QEAAXPEAVeCGeometryEntity@@PEAVeCSpeedTreeBBMesh_PS@@@Z
?Create@eCRenderOp2@@QEAAXPEAVeCMaterialResource2@@PEAVeCRenderContext@@KK@Z
?Create@eCRenderSystemAdmin@@UEAA?AW4bEResult@@XZ
?Create@eCResourceCache2@@QEAAXAEBUeSResourceCache@@@Z
?Create@eCRigidBodyBase_PS@@UEAA?AW4bEResult@@XZ
?Create@eCRigidBody_PS@@UEAA?AW4bEResult@@XZ
?Create@eCSceneAdmin@@UEAA?AW4bEResult@@XZ
?Create@eCScriptProxy@@IEAA?AW4bEResult@@XZ
?Create@eCShaderBase@@UEAA?AW4bEResult@@XZ
?Create@eCShaderDefault@@UEAA?AW4bEResult@@XZ
?Create@eCShaderEllementBase@@UEAA?AW4bEResult@@XZ
?Create@eCShaderLeafs@@UEAA?AW4bEResult@@XZ
?Create@eCShaderLightStreaks@@UEAA?AW4bEResult@@XZ
?Create@eCShaderMaterialAdmin@@UEAA?AW4bEResult@@XZ
?Create@eCShaderParticle@@UEAA?AW4bEResult@@XZ
?Create@eCShaderSkyDome@@UEAA?AW4bEResult@@XZ
?Create@eCShadowMapBase@@MEAA?AW4bEResult@@H_NW4eEDepthMapFormat@@K0@Z
?Create@eCShadowMapBase@@MEAA?AW4bEResult@@XZ
?Create@eCShadowMapDirectionalLight2@@UEAA?AW4bEResult@@HW4eEDepthMapFormat@@@Z
?Create@eCShadowMapDirectionalLight2VS@@UEAA?AW4bEResult@@H@Z
?Create@eCShadowMapPointLight@@UEAA?AW4bEResult@@HW4eEDepthMapFormat@@@Z
?Create@eCShadowMapSpotLight@@UEAA?AW4bEResult@@HW4eEDepthMapFormat@@@Z
?Create@eCSkyObject@@UEAAX_NW4eECmpFunc@eCGfxShared@@W4eEWrite@3@K@Z
?Create@eCSkydome_PS@@UEAA?AW4bEResult@@XZ
?Create@eCSpeedTreeAdmin@@UEAA?AW4bEResult@@XZ
?Create@eCSpeedTreeBBMesh_PS@@UEAA?AW4bEResult@@XZ
?Create@eCSpeedTreeCollisionDesc@@UEAA?AW4bEResult@@XZ
?Create@eCSpeedTreeRenderBuffer@@QEAAXPEAVeCWraper_SpeedTreeRT@@@Z
?Create@eCSpeedTreeWind_PS@@UEAA?AW4bEResult@@XZ
?Create@eCSpeedTree_PS@@UEAA?AW4bEResult@@XZ
?Create@eCSpriteEffect@@QEAA_NXZ
?Create@eCSpriteMesh@@QEAA_NI@Z
?Create@eCStaticAmbientLight_PS@@UEAA?AW4bEResult@@XZ
?Create@eCStaticLightPreprocessor@@QEAAXXZ
?Create@eCStaticLight_PS@@UEAA?AW4bEResult@@XZ
?Create@eCStaticPointLight_PS@@UEAA?AW4bEResult@@XZ
?Create@eCStatistic@@QEAAXXZ
?Create@eCStatisticScreen@@QEAAXXZ
?Create@eCStatisticViewList@@UEAAXPEAVeCGuiWindow2@@@Z
?Create@eCStatisticViewText@@UEAAXPEAVeCGuiWindow2@@@Z
?Create@eCStrip_PS@@UEAA?AW4bEResult@@XZ
?Create@eCSubMesh@@UEAA?AW4bEResult@@XZ
?Create@eCTemplateEntityProxy@@IEAA?AW4bEResult@@XZ
?Create@eCTexCoordSrcBase@@UEAA?AW4bEResult@@XZ
?Create@eCTexCoordSrcBumpOffset@@UEAA?AW4bEResult@@XZ
?Create@eCTexCoordSrcColor@@UEAA?AW4bEResult@@XZ
?Create@eCTexCoordSrcOscillator@@UEAA?AW4bEResult@@XZ
?Create@eCTexCoordSrcReflect@@UEAA?AW4bEResult@@XZ
?Create@eCTexCoordSrcRotator@@UEAA?AW4bEResult@@XZ
?Create@eCTexCoordSrcScale@@UEAA?AW4bEResult@@XZ
?Create@eCTexCoordSrcScroller@@UEAA?AW4bEResult@@XZ
?Create@eCUnicodeConfigFile@@QEAAXXZ
?Create@eCUnicodeConfigFile_KeyObject@@QEAAXXZ
?Create@eCUnicodeConfigFile_SectionObject@@QEAAXXZ
?Create@eCVegetationAdmin@@UEAA?AW4bEResult@@XZ
?Create@eCVegetationBrush_PS@@UEAA?AW4bEResult@@XZ
?Create@eCVegetation_Grid@@UEAA?AW4bEResult@@PEAVeCVegetation_PS@@M@Z
?Create@eCVegetation_GridNode@@UEAA?AW4bEResult@@XZ
?Create@eCVegetation_Mesh@@UEAA?AW4bEResult@@XZ
?Create@eCVegetation_PS@@UEAA?AW4bEResult@@XZ
?Create@eCWeatherAdmin@@UEAA?AW4bEResult@@XZ
?Create@eCWeatherEnvironment@@UEAA?AW4bEResult@@XZ
?Create@eCWeatherStates@@UEAA?AW4bEResult@@XZ
?Create@eCWeatherZone_PS@@UEAA?AW4bEResult@@XZ
?Create@eCWindow@@IEAA_NPEAUHINSTANCE__@@PEAXAEBVbCString@@AEBVbCRect@@W4eEWindowMode@1@@Z
?Create@eCWindow@@IEAA_NPEAUHINSTANCE__@@PEAXW4eEWindowMode@1@@Z
?Create@eCWindow@@MEAA?AW4bEResult@@XZ
?Create@eCWindow@@UEAA_NAEBUeSCreate@1@@Z
?Create@eCWraper_SpeedTreeRT@@QEAAXXZ
?Create@eCWrapper_emfx3ActorInstance@@UEAA?AW4bEResult@@XZ
?Create@eCWrapper_emfx3SkeletalMotion@@UEAA?AW4bEResult@@XZ
?Create@eCXMLFile@@IEAAXXZ
?CreateA@eCGuiFontFile2@@QEAA_NPEBD@Z
?CreateAbsorbationImage@eCSkydome_PS@@IEAAPEAVeCImageResource2@@PEAV2@@Z
?CreateActor@eCPhysicsScene@@QEAAPEAVNxActor@@AEAVNxActorDesc@@@Z
?CreateAuxBuffer@eCDX9Device@@UEAA?AW4bEResult@@KPEAPEAX@Z
?CreateBBShaderMaterial@eCSpeedTreeBBMesh_PS@@IEAAPEAVeCMaterialResource2@@AEBVbCString@@@Z
?CreateBBTexCoords@eCSpeedTreeBBMesh_PS@@IEAA_NAEBV?$bTValArray@PEAVeCGeometryEntity@@@@AEAV?$bTValMap@VbCString@@K@@@Z
?CreateBBVertexDeclaration@eCSpeedTreeBBMesh_PS@@IEAAPEAVeCGfxVertexDecl@@XZ
?CreateBBVertexIndexBuffers@eCSpeedTreeBBMesh_PS@@IEAA_NHAEAPEAVeCGfxVertexData@@AEAPEAVeCGfxIndexData@@@Z
?CreateBillboardMesh@eCSpeedTreeAdmin@@QEAA_NAEBVbCString@@PEAVeCDynamicEntity@@@Z
?CreateBillboardMesh@eCSpeedTreeBBMesh_PS@@QEAA_NAEBVbCString@@0AEAV?$bTValArray@PEAVeCGeometryEntity@@@@@Z
?CreateBillboards@eCBillboard_PS@@IEAAXXZ
?CreateBitmap@eCGuiDevice2@@QEAAPEAVIFFGuiBitmap2@@HHK@Z
?CreateBitmap@eCGuiDevice2@@UEAAPEAVeCGuiBitmap2@@HHK@Z
?CreateBitmap@eCGuiTexture2@@QEAA_NIIK@Z
?CreateBox@eCDX9Device@@UEAA?AW4bEResult@@AEBUeSGfxBoxData@eCGfxShared@@PEAPEAVeCAPIVertexData@@PEAPEAVeCAPIIndexData@@@Z
?CreateBox@eCGfxAssistantAdmin@@QEBA?AW4bEResult@@AEBUeSGfxBoxData@eCGfxShared@@AEAVeCGfxVertexData@@AEAVeCGfxIndexData@@@Z
?CreateBranchGeometry@eCSpeedTreeRenderBuffer@@IEAA_NPEAVCSpeedTreeRT@@@Z
?CreateBranchMaterial@eCSpeedTreeRenderBuffer@@IEAA_NXZ
?CreateBuffer@eCGfxIndexData@@IEAA?AW4bEResult@@AEBUeSGfxIndexBufDesc@eCGfxShared@@@Z
?CreateBuffer@eCGfxVertexData@@IEAA?AW4bEResult@@AEBUeSGfxVertexBufDesc@eCGfxShared@@@Z
?CreateBuffers@eCBillboardAdmin@@IEAA_NXZ
?CreateBuffers@eCDecalAdmin@@IEAA_NXZ
?CreateBuffers@eCLightStreaks_PS@@IEAA_NXZ
?CreateBuffers@eCSkyObject@@IEAA_NXZ
?CreateBuffers@eCSkydome_PS@@IEAA_NXZ
?CreateCache@eCResourceModule2@@AEAAXAEBUeSResourceCache@@@Z
?CreateCaches@eCResourceModule2@@AEAAXXZ
?CreateChannelGroups@eCAudioModule@@IEAA_NXZ
?CreateCollisionMesh@eCResource2@@SAPEAVeCCollisionMeshResource2@@XZ
?CreateCollisionShape@eCWraper_SpeedTreeRT@@QEAAPEAVeCCollisionShape@@H@Z
?CreateConfig@eCConfigAdmin@@QEAA_NAEBVbCString@@@Z
?CreateConfig@eCConfigAdmin@@QEAA_NW4eECfgLayer@@@Z
?CreateConstantTable@eCDX9HLSLShader@@UEAAPEAXXZ
?CreateConstantTable@eCGfxHLSLShader@@QEAAPEAXXZ
?CreateConvexMesh@eCPhysicsScene@@QEAAPEAVNxConvexMesh@@AEAVeCNovodexMeshDataStream@@@Z
?CreateCubeMap@eCDX9Device@@UEAA?AW4bEResult@@AEBUeSGfxLayersDesc@eCGfxShared@@PEAPEAVeCAPICubeMap@@@Z
?CreateCubeMapFromFile@eCDX9Device@@UEAA?AW4bEResult@@AEAUeSGfxLayersDesc@eCGfxShared@@EQEADPEAPEAVeCAPICubeMap@@@Z
?CreateCubeMapFromMemory@eCDX9Device@@UEAA?AW4bEResult@@AEAUeSGfxLayersDesc@eCGfxShared@@EPEAXIPEAPEAVeCAPICubeMap@@@Z
?CreateCylinder@eCDX9Device@@UEAA?AW4bEResult@@AEBUeSGfxCylinderData@eCGfxShared@@PEAPEAVeCAPIVertexData@@PEAPEAVeCAPIIndexData@@@Z
?CreateCylinder@eCGfxAssistantAdmin@@QEBA?AW4bEResult@@AEBUeSGfxCylinderData@eCGfxShared@@AEAVeCGfxVertexData@@AEAVeCGfxIndexData@@@Z
?CreateData@eCProcessibleElement@@QEAA_NXZ
?CreateDecals@eCDecalAdmin@@QEAA_NAEAV?$bTValArray@PEAVeCDecal@@@@AEBVbCRay@@AEBVbCVector@@AEBVbCVector2@@3PEAVeCResource2@@_NM@Z
?CreateDecals@eCDecalAdmin@@QEAA_NAEAV?$bTValArray@PEAVeCDecal@@@@AEBVbCVector@@111AEBVbCVector2@@2PEAVeCResource2@@PEAVeCEntity@@_NM@Z
?CreateDecals@eCDecal_PS@@IEAA_NXZ
?CreateDeclaration@eCGfxVertexDecl@@IEAA?AW4bEResult@@PEBUeSGfxDclElement@eCGfxShared@@@Z
?CreateDeclarationBuffer@eCGfxVertexProgram@@QEAA?AW4bEResult@@K@Z
?CreateDefaultActor@eCPhysicsScene@@QEAAPEAVNxActor@@AEBVeCGeometryEntity@@@Z
?CreateDefaultINI@eCPhysicsScene_PS@@IEAAXXZ
?CreateDefaultMaterial@eCBillboardAdmin@@IEAA_NXZ
?CreateDefaultShader@eCDecalAdmin@@IEAA_NXZ
?CreateDelcaration@eCSpriteMesh@@AEAA_NXZ
?CreateDepthBuffer@eCDX9Device@@UEAA?AW4bEResult@@KKW4eEDepthFormat@eCGfxShared@@PEAPEAX@Z
?CreateDevice@eCDX9Instance@@UEAA?AW4bEResult@@KAEBUeSAPIStartParameters@eCAPIDevice@@PEAPEAV4@@Z
?CreateDragCursor@eCGuiListCtrl2@@UEAAPEAVIFFGuiCursor2@@HH@Z
?CreateDragCursor@eCGuiPushButton2@@UEAAPEAVIFFGuiCursor2@@HH@Z
?CreateDragCursor@eCGuiStatic2@@UEAAPEAVIFFGuiCursor2@@HH@Z
?CreateDragCursor@eCGuiWindow2@@UEAAPEAVIFFGuiCursor2@@HH@Z
?CreateDragData@eCGuiPictureBox2@@MEAAPEAVIFFGuiDataObject2@@XZ
?CreateDragData@eCGuiWindow2@@UEAAPEAVIFFGuiDataObject2@@XZ
?CreateDropTarget@eCScriptListCtrl@@IEAA_NXZ
?CreateDropTarget@eCScriptStatic@@IEAA_NXZ
?CreateEffect@eCDX9Device@@UEAA?AW4bEResult@@PEBXIPEAPEAVeCAPIEffect@@@Z
?CreateEffect@eCGfxEffect@@IEAA?AW4bEResult@@PEBXI@Z
?CreateEffectParam@eCImageFilterEffect@@SAPEAUeSImageEffectParam@@AEBUeSGfxParameterDesc@eCGfxShared@@PEAV1@@Z
?CreateEngine@eCApplication@@IEAA?AW4bEResult@@XZ
?CreateEntityCopy@eCTemplateEntity@@SAPEAV1@PEAV1@@Z
?CreateEntityCopy@eCTemplateEntity@@SAPEAV1@PEAVeCDynamicEntity@@_N@Z
?CreateEntityCopy@eCTemplateEntity@@SAPEAV1@PEAVeCEntity@@_N@Z
?CreateEntry@eCProfilerAdmin@@IEAA?AVeCPerformanceEntry@1@PEBVbCProfileNode@@H@Z
?CreateFallbackBitmap@eCGuiDevice2@@IEAAXXZ
?CreateFallbackCursor@eCGuiDevice2@@IEAAXXZ
?CreateFallbackFont@eCGuiDevice2@@IEAAXXZ
?CreateFallbacks@eCGuiDevice2@@IEAAXXZ
?CreateFileA@eCArchiveManager@@QEAA?AVeCArchiveFile@@AEBVbCString@@@Z
?CreateFileA@eCArchiveManager@@QEAA_NAEBVbCString@@AEAVeCArchiveFile@@@Z
?CreateFileA@eCProcessibleElement@@MEAA?AW4eEResult@1@AEBVbCString@@0@Z
?CreateFontA@eCDX9Device@@UEAA?AW4bEResult@@AEAUeSFontDesc@eCGfxShared@@PEAPEAVeCAPIFont@@@Z
?CreateFontA@eCGuiDevice2@@QEAAPEAVIFFGuiFont2@@AEBUtagLOGFONTA@@@Z
?CreateFontA@eCGuiDevice2@@QEAAPEAVeCGuiFont2@@PEBDUtagPOINT@@@Z
?CreateFontA@eCGuiDevice2@@UEAAPEAVeCGuiFont2@@AEBUtagLOGFONTA@@@Z
?CreateFontA@eCGuiSystemFont2@@QEAA_NAEBUtagLOGFONTA@@@Z
?CreateFontW@eCGuiDevice2@@QEAAPEAVIFFGuiFont2@@AEBUtagLOGFONTW@@@Z
?CreateFontW@eCGuiDevice2@@QEAAPEAVeCGuiFont2@@PEB_WUtagPOINT@@@Z
?CreateFontW@eCGuiDevice2@@UEAAPEAVeCGuiFont2@@AEBUtagLOGFONTW@@@Z
?CreateFontW@eCGuiSystemFont2@@QEAA_NAEBUtagLOGFONTW@@@Z
?CreateFromMesh@eCCollisionMeshResource2@@QEAA_NPEAVeCMeshResource2@@_N1PEAV?$bTValArray@UeSPhysicMaterialInfos@@@@@Z
?CreateFromMesh@eCOccluder_PS@@IEAAXXZ
?CreateFromMesh@eCPortalRoom_PS@@IEAAXXZ
?CreateFromTemplate@eCEntity@@QEAA_NAEBVbCPropertyID@@@Z
?CreateFromTemplate@eCEntity@@QEAA_NAEBVeCTemplateEntity@@@Z
?CreateFrondGeometry@eCSpeedTreeRenderBuffer@@IEAA_NPEAVCSpeedTreeRT@@@Z
?CreateFrondMaterial@eCSpeedTreeRenderBuffer@@IEAA_NXZ
?CreateGBuffer@eCLightmapPreprocessor@@IEAA_NXZ
?CreateGeometry@eCSpeedTreeRenderBuffer@@QEAA_NXZ
?CreateGraphicsSubsystem@eCApplication@@IEAA?AW4bEResult@@AEAUeSSetupWindow@@_N@Z
?CreateHLSLShader@eCDX9Device@@UEAA?AW4bEResult@@PEAPEAVeCAPIHLSLShader@@@Z
?CreateHierarchyRecursive@eCSubMesh@@IEAA_NAEAV?$bTValArray@UeSBuildQuadTreeNode@eCSubMesh@@@@KPEAKAEBV?$eTVertexBufferArray@VbCVector@@@@KAEBVbCBox@@@Z
?CreateImage@eCParticle_PS@@IEAA_NXZ
?CreateImage@eCResource2@@SAPEAVeCImageResource2@@XZ
?CreateImageFilter@eCLightmapPreprocessor@@IEAA_NXZ
?CreateImageFromFile@eCGfxAssistantAdmin@@QEBA?AW4bEResult@@AEAVeCGfxImageData@@W4eEPoolType@eCGfxShared@@AEBVbCString@@IE@Z
?CreateImageFromFile@eCGfxImageData@@IEAA?AW4bEResult@@W4eEPoolType@eCGfxShared@@IQEADE@Z
?CreateImageFromMemory@eCDX9Device@@UEAA?AW4bEResult@@W4eEPoolType@eCGfxShared@@HEPEBXIAEAUeSGfxLayersDesc@4@AEAPEAX@Z
?CreateImageFromMemory@eCGfxAssistantAdmin@@QEBA?AW4bEResult@@AEAVeCGfxImageData@@W4eEPoolType@eCGfxShared@@QEAXIIE@Z
?CreateImageFromMemory@eCGfxImageData@@QEAA?AW4bEResult@@W4eEPoolType@eCGfxShared@@IPEAXIE@Z
?CreateImageFromMemoryExt@eCGfxImageData@@QEAA?AW4bEResult@@W4eEPoolType@eCGfxShared@@HPEBXIE@Z
?CreateImageList@eCGuiDevice2@@QEAAPEAVIFFGuiImageList2@@HHPEAVIFFGuiBitmap2@@@Z
?CreateImageList@eCGuiDevice2@@UEAAPEAVeCGuiImageList2@@HHPEAVIFFGuiBitmap2@@@Z
?CreateIndexBuffer@eCSpriteMesh@@AEAA_NI@Z
?CreateIndexData@eCDX9Device@@UEAA?AW4bEResult@@AEBUeSGfxIndexBufDesc@eCGfxShared@@PEAPEAVeCAPIIndexData@@@Z
?CreateIterator@eCContactIterator@@IEAAXXZ
?CreateLayers@eCGfxImageData@@IEAA?AW4bEResult@@AEBUeSGfxLayersDesc@eCGfxShared@@@Z
?CreateLeafCardGeometry@eCSpeedTreeRenderBuffer@@IEAA_NPEAVCSpeedTreeRT@@@Z
?CreateLeafCardMaterial@eCSpeedTreeRenderBuffer@@IEAA_NXZ
?CreateLeafMeshGeometry@eCSpeedTreeRenderBuffer@@IEAA_NPEAVCSpeedTreeRT@@@Z
?CreateLeafMeshMaterial@eCSpeedTreeRenderBuffer@@IEAA_NXZ
?CreateLightStreakPolys@eCLightStreaks_PS@@IEAAXPEAVeCMeshResource2@@@Z
?CreateLightStreakPolys@eCLightStreaks_PS@@IEAAXXZ
?CreateLoD@eCAnimation_HardRenderActor2@@IEAA_NPEAVActor@EMotionFX@@G@Z
?CreateMaterial@eCParticle_PS@@QEAA_NXZ
?CreateMaterial@eCResource2@@SAPEAVeCMaterialResource2@@XZ
?CreateMesh@eCMotionActorResource2@@AEAA_NPEAVNode@EMotionFX@@@Z
?CreateMesh@eCResource2@@SAPEAVeCMeshResource2@@XZ
?CreateMesh@eCVegetation_PS@@QEAAPEAVeCVegetation_Mesh@@XZ
?CreateModules@eCApplication@@IEAA?AW4bEResult@@XZ
?CreateMoon@eCSkydome_PS@@IEAA_NXZ
?CreateMotion@eCResource2@@SAPEAVeCMotionResource2@@XZ
?CreateMotionActor@eCResource2@@SAPEAVeCMotionActorResource2@@XZ
?CreateNewEntity@eCTemplateEntity@@SAPEAV1@XZ
?CreateNode@eCBeamTree@@IEAAPEAUeSBeamTreeNode@1@XZ
?CreateObject@eCAmbientOcclusionPreprocessor@@SAPEAVbCObjectBase@@XZ
?CreateObject@eCAnimation2Admin@@SAPEAVbCObjectBase@@XZ
?CreateObject@eCAnimation_PS@@SAPEAVbCObjectBase@@XZ
?CreateObject@eCAreaAdmin@@SAPEAVbCObjectBase@@XZ
?CreateObject@eCArea_StringProperty_PS@@SAPEAVbCObjectBase@@XZ
?CreateObject@eCAudioEmitter_PS@@SAPEAVbCObjectBase@@XZ
?CreateObject@eCAudioModule@@SAPEAVbCObjectBase@@XZ
?CreateObject@eCAudioReverbPreset@@SAPEAVbCObjectBase@@XZ
?CreateObject@eCAudioRollOffPreset@@SAPEAVbCObjectBase@@XZ
?CreateObject@eCBillboardAdmin@@SAPEAVbCObjectBase@@XZ
?CreateObject@eCBillboard_PS@@SAPEAVbCObjectBase@@XZ
?CreateObject@eCBodyPart_PS@@SAPEAVbCObjectBase@@XZ
?CreateObject@eCCameraBase@@SAPEAVbCObjectBase@@XZ
?CreateObject@eCCascadeShadowMap@@SAPEAVbCObjectBase@@XZ
?CreateObject@eCCollisionMeshResource2@@SAPEAVbCObjectBase@@XZ
?CreateObject@eCCollisionShape@@SAPEAVbCObjectBase@@XZ
?CreateObject@eCCollisionShapeBase_PS@@SAPEAVbCObjectBase@@XZ
?CreateObject@eCCollisionShape_PS@@SAPEAVbCObjectBase@@XZ
?CreateObject@eCColorSrcBase@@SAPEAVbCObjectBase@@XZ
?CreateObject@eCColorSrcBlend@@SAPEAVbCObjectBase@@XZ
?CreateObject@eCColorSrcCamDistance@@SAPEAVbCObjectBase@@XZ
?CreateObject@eCColorSrcCamObstacle@@SAPEAVbCObjectBase@@XZ
?CreateObject@eCColorSrcCombiner@@SAPEAVbCObjectBase@@XZ
?CreateObject@eCColorSrcConstant@@SAPEAVbCObjectBase@@XZ
?CreateObject@eCColorSrcConstantAnimation@@SAPEAVbCObjectBase@@XZ
?CreateObject@eCColorSrcConstantSwitch@@SAPEAVbCObjectBase@@XZ
?CreateObject@eCColorSrcCubeSampler@@SAPEAVbCObjectBase@@XZ
?CreateObject@eCColorSrcFresnel@@SAPEAVbCObjectBase@@XZ
?CreateObject@eCColorSrcMask@@SAPEAVbCObjectBase@@XZ
?CreateObject@eCColorSrcSampler@@SAPEAVbCObjectBase@@XZ
?CreateObject@eCColorSrcSkydomeSampler@@SAPEAVbCObjectBase@@XZ
?CreateObject@eCColorSrcVertexColor@@SAPEAVbCObjectBase@@XZ
?CreateObject@eCContextBase@@SAPEAVbCObjectBase@@XZ
?CreateObject@eCDebugModule@@SAPEAVbCObjectBase@@XZ
?CreateObject@eCDecalAdmin@@SAPEAVbCObjectBase@@XZ
?CreateObject@eCDecal_PS@@SAPEAVbCObjectBase@@XZ
?CreateObject@eCDirectionalLight_PS@@SAPEAVbCObjectBase@@XZ
?CreateObject@eCDocObject@@SAPEAVbCObjectBase@@XZ
?CreateObject@eCDynamicLight_PS@@SAPEAVbCObjectBase@@XZ
?CreateObject@eCEditorEntityPropertySet@@SAPEAVbCObjectBase@@XZ
?CreateObject@eCEngineComponentBase@@SAPEAVbCObjectBase@@XZ
?CreateObject@eCEntityDynamicContext@@SAPEAVbCObjectBase@@XZ
?CreateObject@eCEntityPropertySet@@SAPEAVbCObjectBase@@XZ
?CreateObject@eCFixedGuiBitmapFont2@@SAPEAVbCObjectBase@@XZ
?CreateObject@eCGenericEntityListener_PS@@SAPEAVbCObjectBase@@XZ
?CreateObject@eCGfxAdmin@@SAPEAVbCObjectBase@@XZ
?CreateObject@eCGfxObject@@SAPEAVbCObjectBase@@XZ
?CreateObject@eCGuiAnimImage2@@SAPEAVbCObjectBase@@XZ
?CreateObject@eCGuiBaseBitmap2@@SAPEAVbCObjectBase@@XZ
?CreateObject@eCGuiBaseCursor2@@SAPEAVbCObjectBase@@XZ
?CreateObject@eCGuiBaseFont2@@SAPEAVbCObjectBase@@XZ
?CreateObject@eCGuiBitmap2@@SAPEAVbCObjectBase@@XZ
?CreateObject@eCGuiBitmapFont2@@SAPEAVbCObjectBase@@XZ
?CreateObject@eCGuiBitmapList2@@SAPEAVbCObjectBase@@XZ
?CreateObject@eCGuiButton2@@SAPEAVbCObjectBase@@XZ
?CreateObject@eCGuiCheckBox2@@SAPEAVbCObjectBase@@XZ
?CreateObject@eCGuiCursor2@@SAPEAVbCObjectBase@@XZ
?CreateObject@eCGuiEdit2@@SAPEAVbCObjectBase@@XZ
?CreateObject@eCGuiFont2@@SAPEAVbCObjectBase@@XZ
?CreateObject@eCGuiFrame2@@SAPEAVbCObjectBase@@XZ
?CreateObject@eCGuiGroupBox2@@SAPEAVbCObjectBase@@XZ
?CreateObject@eCGuiImage2@@SAPEAVbCObjectBase@@XZ
?CreateObject@eCGuiImageCollection2@@SAPEAVbCObjectBase@@XZ
?CreateObject@eCGuiImageList2@@SAPEAVbCObjectBase@@XZ
?CreateObject@eCGuiLayeredImage2@@SAPEAVbCObjectBase@@XZ
?CreateObject@eCGuiListCtrl2@@SAPEAVbCObjectBase@@XZ
?CreateObject@eCGuiModule2@@SAPEAVbCObjectBase@@XZ
?CreateObject@eCGuiPanel2@@SAPEAVbCObjectBase@@XZ
?CreateObject@eCGuiPictureBox2@@SAPEAVbCObjectBase@@XZ
?CreateObject@eCGuiProgressBar2@@SAPEAVbCObjectBase@@XZ
?CreateObject@eCGuiPushButton2@@SAPEAVbCObjectBase@@XZ
?CreateObject@eCGuiRadioButton2@@SAPEAVbCObjectBase@@XZ
?CreateObject@eCGuiResource2@@SAPEAVbCObjectBase@@XZ
?CreateObject@eCGuiScrollBar2@@SAPEAVbCObjectBase@@XZ
?CreateObject@eCGuiSplitImage2@@SAPEAVbCObjectBase@@XZ
?CreateObject@eCGuiStatic2@@SAPEAVbCObjectBase@@XZ
?CreateObject@eCGuiSystemFont2@@SAPEAVbCObjectBase@@XZ
?CreateObject@eCGuiSystemFontDesc2@@SAPEAVbCObjectBase@@XZ
?CreateObject@eCGuiSystemFontLanguage2@@SAPEAVbCObjectBase@@XZ
?CreateObject@eCGuiTexture2@@SAPEAVbCObjectBase@@XZ
?CreateObject@eCGuiToolTipCtrl2@@SAPEAVbCObjectBase@@XZ
?CreateObject@eCGuiTooltipTextCtrl2@@SAPEAVbCObjectBase@@XZ
?CreateObject@eCGuiTrackBar2@@SAPEAVbCObjectBase@@XZ
?CreateObject@eCGuiWindow2@@SAPEAVbCObjectBase@@XZ
?CreateObject@eCHemisphere_PS@@SAPEAVbCObjectBase@@XZ
?CreateObject@eCIlluminated_PS@@SAPEAVbCObjectBase@@XZ
?CreateObject@eCIlluminationAdmin@@SAPEAVbCObjectBase@@XZ
?CreateObject@eCImageEffect@@SAPEAVbCObjectBase@@XZ
?CreateObject@eCImageFilterAdmin@@SAPEAVbCObjectBase@@XZ
?CreateObject@eCImageFilterBase@@SAPEAVbCObjectBase@@XZ
?CreateObject@eCImageFilterCopy@@SAPEAVbCObjectBase@@XZ
?CreateObject@eCImageFilterEffect@@SAPEAVbCObjectBase@@XZ
?CreateObject@eCImageFilterImage@@SAPEAVbCObjectBase@@XZ
?CreateObject@eCImageFilterImageEffect@@SAPEAVbCObjectBase@@XZ
?CreateObject@eCImageFilterRTBase@@SAPEAVbCObjectBase@@XZ
?CreateObject@eCImageFilterScene@@SAPEAVbCObjectBase@@XZ
?CreateObject@eCImageFilterShadowMask@@SAPEAVbCObjectBase@@XZ
?CreateObject@eCImageFilterTexture@@SAPEAVbCObjectBase@@XZ
?CreateObject@eCImageFilterTextureRandom@@SAPEAVbCObjectBase@@XZ
?CreateObject@eCImageResource2@@SAPEAVbCObjectBase@@XZ
?CreateObject@eCInputAdmin@@SAPEAVbCObjectBase@@XZ
?CreateObject@eCLightStreaks_PS@@SAPEAVbCObjectBase@@XZ
?CreateObject@eCMaterialResource2@@SAPEAVbCObjectBase@@XZ
?CreateObject@eCMeshResource2@@SAPEAVbCObjectBase@@XZ
?CreateObject@eCMesh_PS@@SAPEAVbCObjectBase@@XZ
?CreateObject@eCMotionActorResource2@@SAPEAVbCObjectBase@@XZ
?CreateObject@eCMotionResource2@@SAPEAVbCObjectBase@@XZ
?CreateObject@eCMoverAnimationBase@@SAPEAVbCObjectBase@@XZ
?CreateObject@eCMoverAnimationBezier@@SAPEAVbCObjectBase@@XZ
?CreateObject@eCMoverAnimationFile@@SAPEAVbCObjectBase@@XZ
?CreateObject@eCMoverAnimationHermit@@SAPEAVbCObjectBase@@XZ
?CreateObject@eCMoverAnimationKFBase@@SAPEAVbCObjectBase@@XZ
?CreateObject@eCMoverAnimationLinear@@SAPEAVbCObjectBase@@XZ
?CreateObject@eCMoverAnimationRotate@@SAPEAVbCObjectBase@@XZ
?CreateObject@eCMoverAnimationSkeletal@@SAPEAVbCObjectBase@@XZ
?CreateObject@eCMoverAnimationTCB@@SAPEAVbCObjectBase@@XZ
?CreateObject@eCMover_PS@@SAPEAVbCObjectBase@@XZ
?CreateObject@eCNode@@SAPEAVbCObjectBase@@XZ
?CreateObject@eCOccluder_PS@@SAPEAVbCObjectBase@@XZ
?CreateObject@eCParticleModule@@SAPEAVbCObjectBase@@XZ
?CreateObject@eCParticle_PS@@SAPEAVbCObjectBase@@XZ
?CreateObject@eCPhysicsScene@@SAPEAVbCObjectBase@@XZ
?CreateObject@eCPhysicsScene_PS@@SAPEAVbCObjectBase@@XZ
?CreateObject@eCPointLight_PS@@SAPEAVbCObjectBase@@XZ
?CreateObject@eCPortalAdmin@@SAPEAVbCObjectBase@@XZ
?CreateObject@eCPortalCell_PS@@SAPEAVbCObjectBase@@XZ
?CreateObject@eCPortalRoom_PS@@SAPEAVbCObjectBase@@XZ
?CreateObject@eCPrecipitation_PS@@SAPEAVbCObjectBase@@XZ
?CreateObject@eCProcessibleElement@@SAPEAVbCObjectBase@@XZ
?CreateObject@eCProfilerAdmin@@SAPEAVbCObjectBase@@XZ
?CreateObject@eCRenderSystemAdmin@@SAPEAVbCObjectBase@@XZ
?CreateObject@eCResource2@@SAPEAVbCObjectBase@@XZ
?CreateObject@eCResourceModule2@@SAPEAVbCObjectBase@@XZ
?CreateObject@eCRigidBodyBase_PS@@SAPEAVbCObjectBase@@XZ
?CreateObject@eCRigidBody_PS@@SAPEAVbCObjectBase@@XZ
?CreateObject@eCSceneAdmin@@SAPEAVbCObjectBase@@XZ
?CreateObject@eCScriptEdit@@SAPEAVbCObjectBase@@XZ
?CreateObject@eCScriptListCtrl@@SAPEAVbCObjectBase@@XZ
?CreateObject@eCScriptProgressbar@@SAPEAVbCObjectBase@@XZ
?CreateObject@eCScriptRadioButton@@SAPEAVbCObjectBase@@XZ
?CreateObject@eCScriptStatic@@SAPEAVbCObjectBase@@XZ
?CreateObject@eCScriptTrackbar@@SAPEAVbCObjectBase@@XZ
?CreateObject@eCShaderBase@@SAPEAVbCObjectBase@@XZ
?CreateObject@eCShaderDefault@@SAPEAVbCObjectBase@@XZ
?CreateObject@eCShaderEllementBase@@SAPEAVbCObjectBase@@XZ
?CreateObject@eCShaderLeafs@@SAPEAVbCObjectBase@@XZ
?CreateObject@eCShaderLightStreaks@@SAPEAVbCObjectBase@@XZ
?CreateObject@eCShaderMaterialAdmin@@SAPEAVbCObjectBase@@XZ
?CreateObject@eCShaderParticle@@SAPEAVbCObjectBase@@XZ
?CreateObject@eCShaderSkyDome@@SAPEAVbCObjectBase@@XZ
?CreateObject@eCSkydome_PS@@SAPEAVbCObjectBase@@XZ
?CreateObject@eCSoundResource2@@SAPEAVbCObjectBase@@XZ
?CreateObject@eCSpeedTreeAdmin@@SAPEAVbCObjectBase@@XZ
?CreateObject@eCSpeedTreeBBMesh_PS@@SAPEAVbCObjectBase@@XZ
?CreateObject@eCSpeedTreeResource2@@SAPEAVbCObjectBase@@XZ
?CreateObject@eCSpeedTreeWind_PS@@SAPEAVbCObjectBase@@XZ
?CreateObject@eCSpeedTree_PS@@SAPEAVbCObjectBase@@XZ
?CreateObject@eCStaticAmbientLight_PS@@SAPEAVbCObjectBase@@XZ
?CreateObject@eCStaticLight_PS@@SAPEAVbCObjectBase@@XZ
?CreateObject@eCStaticPointLight_PS@@SAPEAVbCObjectBase@@XZ
?CreateObject@eCStrip_PS@@SAPEAVbCObjectBase@@XZ
?CreateObject@eCSubMesh@@SAPEAVbCObjectBase@@XZ
?CreateObject@eCTexCoordSrcBase@@SAPEAVbCObjectBase@@XZ
?CreateObject@eCTexCoordSrcBumpOffset@@SAPEAVbCObjectBase@@XZ
?CreateObject@eCTexCoordSrcColor@@SAPEAVbCObjectBase@@XZ
?CreateObject@eCTexCoordSrcOscillator@@SAPEAVbCObjectBase@@XZ
?CreateObject@eCTexCoordSrcReflect@@SAPEAVbCObjectBase@@XZ
?CreateObject@eCTexCoordSrcRotator@@SAPEAVbCObjectBase@@XZ
?CreateObject@eCTexCoordSrcScale@@SAPEAVbCObjectBase@@XZ
?CreateObject@eCTexCoordSrcScroller@@SAPEAVbCObjectBase@@XZ
?CreateObject@eCVegetationAdmin@@SAPEAVbCObjectBase@@XZ
?CreateObject@eCVegetationBrush_PS@@SAPEAVbCObjectBase@@XZ
?CreateObject@eCVegetation_Grid@@SAPEAVbCObjectBase@@XZ
?CreateObject@eCVegetation_GridNode@@SAPEAVbCObjectBase@@XZ
?CreateObject@eCVegetation_Mesh@@SAPEAVbCObjectBase@@XZ
?CreateObject@eCVegetation_PS@@SAPEAVbCObjectBase@@XZ
?CreateObject@eCWeatherAdmin@@SAPEAVbCObjectBase@@XZ
?CreateObject@eCWeatherStates@@SAPEAVbCObjectBase@@XZ
?CreateObject@eCWeatherZone_PS@@SAPEAVbCObjectBase@@XZ
?CreateOccluder@eCOccluder_PS@@IEAAXXZ
?CreateOcclusionQuery@eCDX9Device@@UEAA?AW4bEResult@@AEAPEAX@Z
?CreateOcclusionQuery@eCGfxAssistantAdmin@@QEBA?AW4bEResult@@AEAPEAX@Z
?CreatePackedShadowMapVisual@eCImageFilterShadowMask@@IEAA_NXZ
?CreateParticleMaterial@eCParticleModule@@QEAAPEAVeCParticleMaterial@@AEBUSCreateParticleMaterial@1@@Z
?CreatePhysicObject@eCGeometryEntity@@QEAAXXZ
?CreatePixelProgram@eCDX9Device@@UEAA?AW4bEResult@@PEAXPEAK@Z
?CreatePolygon@eCDX9Device@@UEAA?AW4bEResult@@AEBUeSGfxPolygonData@eCGfxShared@@PEAPEAVeCAPIVertexData@@PEAPEAVeCAPIIndexData@@@Z
?CreatePolygon@eCGfxAssistantAdmin@@QEBA?AW4bEResult@@AEBUeSGfxPolygonData@eCGfxShared@@AEAVeCGfxVertexData@@AEAVeCGfxIndexData@@@Z
?CreatePreviewShader@eCShaderBase@@QEAA_NPEAVeCShaderEllementBase@@_N@Z
?CreatePrimititve@eCDX9Device@@UEAA?AW4bEResult@@PEAPEAVeCAPIPrimitive@@@Z
?CreateProgram@eCGfxPixelProgram@@IEAA?AW4bEResult@@PEAX@Z
?CreateProgram@eCGfxVertexProgram@@IEAA?AW4bEResult@@PEAX_N@Z
?CreateQuery@eCDX9Device@@IEAAXAEAPEAX@Z
?CreateRenderContext@eCAnimation_PS@@UEAAPEAVeCRenderContext@@XZ
?CreateRenderContext@eCBillboard_PS@@UEAAPEAVeCRenderContext@@XZ
?CreateRenderContext@eCDynamicLight_PS@@UEAAPEAVeCRenderContext@@XZ
?CreateRenderContext@eCEntityPropertySet@@UEAAPEAVeCRenderContext@@XZ
?CreateRenderContext@eCLightStreaks_PS@@UEAAPEAVeCRenderContext@@XZ
?CreateRenderContext@eCMesh_PS@@UEAAPEAVeCRenderContext@@XZ
?CreateRenderContext@eCParticle_PS@@UEAAPEAVeCRenderContext@@XZ
?CreateRenderContext@eCPointLight_PS@@MEAAPEAVeCRenderContext@@XZ
?CreateRenderContext@eCPrecipitation_PS@@UEAAPEAVeCRenderContext@@XZ
?CreateRenderContext@eCSkydome_PS@@UEAAPEAVeCRenderContext@@XZ
?CreateRenderContext@eCSpeedTreeBBMesh_PS@@UEAAPEAVeCRenderContext@@XZ
?CreateRenderContext@eCSpeedTree_PS@@UEAAPEAVeCRenderContext@@XZ
?CreateRenderContext@eCStaticPointLight_PS@@UEAAPEAVeCRenderContext@@XZ
?CreateRenderContext@eCStrip_PS@@UEAAPEAVeCRenderContext@@XZ
?CreateRenderContext@eCVegetation_PS@@UEAAPEAVeCRenderContext@@XZ
?CreateRenderTarget@eCDepthMap@@UEAA_N_N@Z
?CreateResource@eCResource2@@CAPEAV1@W4eEResourceType@@@Z
?CreateResource@eCResourceCache2@@QEAAPEAVeCResource2@@XZ
?CreateResource@eCResourceModule2@@QEBAPEAVeCResource2@@W4eEResourceType@@@Z
?CreateShader@eCDX9HLSLShader@@UEAA?AW4bEResult@@XZ
?CreateShader@eCGfxHLSLShader@@QEAA?AW4bEResult@@XZ
?CreateShader@eCPrecipitation_PS@@IEAA_NXZ
?CreateShader@eCSkydome_PS@@IEAA_NXZ
?CreateShaderVersion@eCShaderBase@@MEAA_NW4eEShaderMaterialVersion@@@Z
?CreateShaderVersion@eCShaderDefault@@MEAA_NW4eEShaderMaterialVersion@@@Z
?CreateShaderVersion@eCShaderLightStreaks@@MEAA_NW4eEShaderMaterialVersion@@@Z
?CreateShaderVersion@eCShaderParticle@@MEAA_NW4eEShaderMaterialVersion@@@Z
?CreateShaderVersion@eCShaderSkyDome@@MEAA_NW4eEShaderMaterialVersion@@@Z
?CreateSkydomeEnvCubemapCamera@eCSkydome_PS@@QEAA_NXZ
?CreateSound@eCAudioEmitter_PS@@IEAA_NXZ
?CreateSound@eCResource2@@SAPEAVeCSoundResource2@@XZ
?CreateSoundSubsystem@eCApplication@@IEAAXAEAUeSSetupWindow@@@Z
?CreateSpecialDepthBuffer@eCGfxMixerAdmin@@QEBA?AW4bEResult@@KKW4eEDepthFormat@eCGfxShared@@AEAPEAX@Z
?CreateSpecificEntity@eCContextBase@@UEAAPEAVeCNode@@XZ
?CreateSpecificEntity@eCEntityDynamicContext@@UEAAPEAVeCDynamicEntity@@XZ
?CreateSpeedTree@eCResource2@@SAPEAVeCSpeedTreeResource2@@XZ
?CreateSphere@eCDX9Device@@UEAA?AW4bEResult@@AEBUeSGfxSphereData@eCGfxShared@@PEAPEAVeCAPIVertexData@@PEAPEAVeCAPIIndexData@@@Z
?CreateSphere@eCGfxAssistantAdmin@@QEBA?AW4bEResult@@AEBUeSGfxSphereData@eCGfxShared@@AEAVeCGfxVertexData@@AEAVeCGfxIndexData@@@Z
?CreateSplashScreen@eCApplication@@SAXXZ
?CreateSprite@eCDX9Device@@UEAA?AW4bEResult@@AEAUeSSpriteDesc@eCGfxShared@@PEAPEAVeCAPISprite@@@Z
?CreateSprite@eCGuiDevice2@@IEAAXXZ
?CreateStars@eCSkydome_PS@@IEAA_NXZ
?CreateStatistics@eCAnimation2Admin@@UEBAPEAVeCStatistic@@XZ
?CreateStatistics@eCAudioModule@@UEBAPEAVeCStatistic@@XZ
?CreateStatistics@eCEngineComponentBase@@UEBAPEAVeCStatistic@@XZ
?CreateStatistics@eCGfxAdmin@@UEBAPEAVeCStatistic@@XZ
?CreateStatistics@eCProfilerAdmin@@UEBAPEAVeCStatistic@@XZ
?CreateStatistics@eCRenderSystemAdmin@@UEBAPEAVeCStatistic@@XZ
?CreateStatistics@eCResourceCache2@@AEBAPEAVeCStatistic@@XZ
?CreateStatistics@eCResourceModule2@@UEBAPEAVeCStatistic@@XZ
?CreateStatistics@eCSceneAdmin@@UEBAPEAVeCStatistic@@XZ
?CreateSun@eCSkydome_PS@@IEAA_NXZ
?CreateSunOcclusion@eCSkydome_PS@@IEAA_NXZ
?CreateTeapot@eCDX9Device@@UEAA?AW4bEResult@@PEAPEAVeCAPIVertexData@@PEAPEAVeCAPIIndexData@@@Z
?CreateTeapot@eCGfxAssistantAdmin@@QEBA?AW4bEResult@@AEAVeCGfxVertexData@@AEAVeCGfxIndexData@@@Z
?CreateTestBitmaps@eCGuiDevice2@@QEAA_NXZ
?CreateTestColumns@eCGuiListCtrl2@@IEAAXXZ
?CreateTestImages@eCGuiListCtrl2@@IEAAXXZ
?CreateTestItems@eCGuiListCtrl2@@IEAAXXZ
?CreateText@eCDX9Device@@UEAA?AW4bEResult@@AEBUeSGfxTextData@eCGfxShared@@PEAPEAVeCAPIVertexData@@PEAPEAVeCAPIIndexData@@@Z
?CreateText@eCGfxAssistantAdmin@@QEBA?AW4bEResult@@AEBUeSGfxTextData@eCGfxShared@@AEAVeCGfxVertexData@@AEAVeCGfxIndexData@@@Z
?CreateTexture@eCDX9Device@@UEAA?AW4bEResult@@AEBUeSGfxLayersDesc@eCGfxShared@@PEAPEAVeCAPITexture@@@Z
?CreateTextureFromFile@eCDX9Device@@UEAA?AW4bEResult@@AEAUeSGfxLayersDesc@eCGfxShared@@EQEADPEAPEAVeCAPITexture@@@Z
?CreateTextureFromMemory@eCDX9Device@@UEAA?AW4bEResult@@AEAUeSGfxLayersDesc@eCGfxShared@@EPEAXIPEAPEAVeCAPITexture@@@Z
?CreateToolTipData@eCGuiWindow2@@UEAAPEAVIFFGuiDataObject2@@XZ
?CreateTorus@eCDX9Device@@UEAA?AW4bEResult@@AEBUeSGfxTorusData@eCGfxShared@@PEAPEAVeCAPIVertexData@@PEAPEAVeCAPIIndexData@@@Z
?CreateTorus@eCGfxAssistantAdmin@@QEBA?AW4bEResult@@AEBUeSGfxTorusData@eCGfxShared@@AEAVeCGfxVertexData@@AEAVeCGfxIndexData@@@Z
?CreateTriangleMesh@eCPhysicsScene@@QEAAPEAVNxTriangleMesh@@AEAVeCNovodexMeshDataStream@@@Z
?CreateUVAtlas@eCDX9Device@@UEAA?AW4bEResult@@AEBV?$bTValArray@VbCVector@@@@AEAV?$bTValArray@K@@AEAV?$bTValArray@VbCVector2@@@@11M@Z
?CreateUVAtlas@eCGfxAssistantAdmin@@QEAA?AW4bEResult@@AEBV?$bTValArray@VbCVector@@@@AEAV?$bTValArray@K@@AEAV?$bTValArray@VbCVector2@@@@11M@Z
?CreateVertexAndIndexData@eCImageFilterEffect@@MEAA_NPEAVeCGfxVisual@@@Z
?CreateVertexBuffer@eCSpriteMesh@@AEAA_NI@Z
?CreateVertexData@eCDX9Device@@UEAA?AW4bEResult@@AEBUeSGfxVertexBufDesc@eCGfxShared@@PEAPEAVeCAPIVertexData@@@Z
?CreateVertexDecl@eCImageFilterEffect@@MEAA_NPEAVeCGfxVisual@@@Z
?CreateVertexDeclaration@eCAnimation_HardRenderActor2@@IEAAPEAVeCGfxVertexDecl@@XZ
?CreateVertexDeclaration@eCDX9Device@@UEAA?AW4bEResult@@PEBUeSGfxDclElement@eCGfxShared@@PEAPEAX@Z
?CreateVertexProgram@eCDX9Device@@UEAA?AW4bEResult@@PEAX0PEAK_N@Z
?CreateVertexStream@eCVegetationAdmin@@QEAA_NXZ
?CreateVertices@eCParticle_PS@@IEAA_NXZ
?CreateVertices@eCStrip_PS@@IEAA_NXZ
?CreateView@eCStatisticList@@UEAAPEAVeCStatisticView@@PEAVeCGuiWindow2@@@Z
?CreateView@eCStatisticText@@UEAAPEAVeCStatisticView@@PEAVeCGuiWindow2@@@Z
?CreateVisual@eCLightStreaks_PS@@IEAA_NXZ
?CreateVisual@eCParticle_PS@@IEAA_NXZ
?CreateVisual@eCSpriteMesh@@AEAA_NXZ
?CreateVisual@eCStrip_PS@@IEAA_NXZ
?CreateVolume@eCDX9Device@@UEAA?AW4bEResult@@AEBUeSGfxLayersDesc@eCGfxShared@@PEAPEAVeCAPIVolume@@@Z
?CreateW@eCGuiFontFile2@@QEAA_NPEB_W@Z
?CreateWindowExA@eCGuiWindow2@@IEAA_NAEBUtagUI_CREATESTRUCTA@@@Z
?CreateWindowExW@eCGuiWindow2@@IEAA_NAEBUtagUI_CREATESTRUCTW@@@Z
?CreateWorkspace@eCApplication@@MEAA?AW4bEResult@@XZ
?CreateYHorizon@eCLightmapBitmap@@QEAA_NXZ
?CreateYHorizonFromBitmap@eCLightmapBitmap@@QEAA_NXZ
?Creates@eCGfxPixelProgram@@QEAA?AW4bEResult@@PEAX@Z
?Cull@eCBeamTree@@QEBA?AW4eECull@1@AEBVbCBox@@@Z
?Cull@eCBeamTree@@QEBA?AW4eECull@1@AEBVbCSphere@@@Z
?Cull@eCBeamTree@@QEBA_NAEBVbCVector@@@Z
?Cull@eCFrustumEx@@QEBA?AW4eECull@1@AEBVbCBox@@@Z
?Cull@eCFrustumEx@@QEBA?AW4eECull@1@AEBVbCSphere@@@Z
?Cull@eCFrustumEx@@QEBA_NAEBVbCVector@@@Z
?CullCamera@eCFrustumFilter@@QEBA?AW4eECullStatus@1@AEBVbCBox@@@Z
?CullCamera@eCFrustumFilter@@QEBA?AW4eECullStatus@1@AEBVbCBox@@AEBVbCSphere@@M@Z
?CullCamera@eCFrustumFilter@@QEBA?AW4eECullStatus@1@AEBVbCSphere@@@Z
?CullCameraDistance@eCFrustumFilter@@QEBA?AW4eECullStatus@1@AEBVbCSphere@@M@Z
?CullCameraSphere@eCFrustumFilter@@QEBA_NAEBVbCBox@@@Z
?CullCameraSphere@eCFrustumFilter@@QEBA_NAEBVbCSphere@@@Z
?CullEntityCallback@eCCascadeShadowMap@@KA_NPEAVeCFrustumFilter@@PEAVeCGeometryEntity@@@Z
?CullEntityCallback@eCPackedShadowMap@@KA_NPEAVeCFrustumFilter@@PEAVeCGeometryEntity@@@Z
?CullFrustum@eCFrustumFilter@@QEAA_NAEBVbCVector@@@Z
?CullFrustum@eCFrustumFilter@@QEBA?AW4eECullStatus@1@AEBVbCBox@@@Z
?CullFrustum@eCFrustumFilter@@QEBA?AW4eECullStatus@1@AEBVbCSphere@@@Z
?CullNode@eCFrustumElementItem@@QEAA?AW4eECullStatus@eCFrustumFilter@@AEAVeCFrustumDatabase@@@Z
?CullPoint@eCFrustumDatabase@@QEAA?AW4eECullStatus@eCFrustumFilter@@AEBVbCVector@@@Z
?CullShadowCell@eCIlluminationAdmin@@QEAA_NAEBVbCMatrix@@AEBVbCFrustum@@@Z
?CullTSEntityCallback@eCDirectionalLight_PS@@KA_NPEAVeCFrustumFilter@@PEAVeCGeometryEntity@@@Z
?CullTree@eCFrustumElementItem@@QEAA?AW4eECullStatus@eCFrustumFilter@@AEAVeCFrustumDatabase@@@Z
?DeAttachImmImageData@eCGfxEffect@@QEBA?AW4bEResult@@QEAXAEAPEAVeCGfxImageData@@@Z
?DebugRender@eCPhysicsScene@@IEAAXXZ
?Debug_VisualizeTriangle@eCPhysicsScene@@QEAAXAEAVbCTriangle@@@Z
?Decay@eCAudioEmitter_PS@@UEAAXXZ
?Decay@eCDecal_PS@@UEAAXXZ
?Decay@eCDynamicEntity@@UEAAXXZ
?Decay@eCEntity@@UEAAXXZ
?Decay@eCEntityPropertySet@@UEAAXXZ
?Decay@eCParticle_PS@@UEAAXXZ
?Decay@eCPointLight_PS@@MEAAXXZ
?DeformBodyParts@eCWrapper_emfx3ActorInstance@@QEBA_NXZ
?DeleteAllSyncPoints@eCAudioSound@@QEAA?AW4eEAudioResult@@XZ
?DeleteChildren@eCStatistic@@IEAAXXZ
?DeleteContent@eCTemplateEntity@@QEAAXXZ
?DeleteDir@eCPhysicalFileSystem@@QEAA_NAEBVbCString@@@Z
?DeleteDir@eCVirtualFileSystem@@QEAA_NAEBVbCString@@@Z
?DeleteFileA@eCPhysicalFileSystem@@QEAA_NAEBVbCString@@@Z
?DeleteFileA@eCVirtualFileSystem@@QEAA_NAEBVbCString@@@Z
?DeleteFont@eCGuiSystemFont2@@IEAAXXZ
?DeleteInstances@eCTemplateEntity@@IEAAXPEAVeCEntity@@@Z
?DeleteInstances@eCTemplateEntity@@QEAAXXZ
?DeleteShadowMapBuffer@eCIlluminationAdmin@@QEAAXXZ
?DeleteSyncPoint@eCAudioSound@@QEAA?AW4eEAudioResult@@H@Z
?DeleteTexture@eCGuiBitmapFont2@@IEAAXXZ
?DeleteTexture@eCGuiTexture2@@IEAAXXZ
?DeleteWindow@eCGuiWindow2@@AEAAXXZ
?DepthSort@eCFrustumDatabase@@IEAAXAEAV?$bTValArray@VeCRenderOp2@@@@@Z
?DepthSortParticles@eCParticle_PS@@IEAAXXZ
?DeregisterAreaStringPropertyPS@eCAreaAdmin@@QEAA?AW4bEResult@@PEAVeCArea_StringProperty_PS@@@Z
?DeregisterDynamicLightPS@eCIlluminationAdmin@@QEAA?AW4bEResult@@PEAVeCDynamicLight_PS@@@Z
?DeregisterTimedShaderEllement@eCShaderMaterialAdmin@@QEAAXPEAVeCShaderEllementBase@@@Z
?Deserialize@eCGuiWindow2@@MEAA_NPEAVbCXMLParserNode@@@Z
?Deserialize@eCGuiWindow2@@MEAA_NPEAVbCXMLParserNode@@PEAV1@@Z
?Destroy@eCActorAttachment@@QEAAXXZ
?Destroy@eCAmbientOcclusionPreprocessor@@UEAAXXZ
?Destroy@eCAnimation2Admin@@UEAAXXZ
?Destroy@eCAnimationCollisionDesc@@UEAAXXZ
?Destroy@eCAnimation_HardRenderActor2@@QEAAXXZ
?Destroy@eCAnimation_PS@@UEAAXXZ
?Destroy@eCApplication@@UEAAXXZ
?Destroy@eCArchiveFile@@QEAAXXZ
?Destroy@eCAreaAdmin@@UEAAXXZ
?Destroy@eCArea_StringProperty_PS@@UEAAXXZ
?Destroy@eCAudioChannel@@UEAAXXZ
?Destroy@eCAudioChannelGroup@@UEAAXXZ
?Destroy@eCAudioEmitter_PS@@UEAAXXZ
?Destroy@eCAudioReverb@@UEAAXXZ
?Destroy@eCAudioSound@@UEAAXXZ
?Destroy@eCAudioSystem@@UEAAXXZ
?Destroy@eCBillboard@@IEAAXXZ
?Destroy@eCBillboardAdmin@@UEAAXXZ
?Destroy@eCBillboard_PS@@UEAAXXZ
?Destroy@eCBodyPart_PS@@UEAAXXZ
?Destroy@eCCameraBase@@UEAAXXZ
?Destroy@eCCascadeShadowMap@@UEAAXXZ
?Destroy@eCCollisionDesc@@UEAAXXZ
?Destroy@eCCollisionDescMesh@@UEAAXXZ
?Destroy@eCCollisionShape@@UEAAXXZ
?Destroy@eCCollisionShapeBase_PS@@UEAAXXZ
?Destroy@eCCollisionShape_PS@@UEAAXXZ
?Destroy@eCColorSrcBase@@UEAAXXZ
?Destroy@eCColorSrcBlend@@UEAAXXZ
?Destroy@eCColorSrcCamDistance@@UEAAXXZ
?Destroy@eCColorSrcCamObstacle@@UEAAXXZ
?Destroy@eCColorSrcCombiner@@UEAAXXZ
?Destroy@eCColorSrcConstant@@UEAAXXZ
?Destroy@eCColorSrcConstantAnimation@@UEAAXXZ
?Destroy@eCColorSrcConstantSwitch@@UEAAXXZ
?Destroy@eCColorSrcCubeSampler@@UEAAXXZ
?Destroy@eCColorSrcFresnel@@UEAAXXZ
?Destroy@eCColorSrcMask@@UEAAXXZ
?Destroy@eCColorSrcSampler@@UEAAXXZ
?Destroy@eCColorSrcSkydomeSampler@@UEAAXXZ
?Destroy@eCColorSrcVertexColor@@UEAAXXZ
?Destroy@eCConfigFile@@QEAAXXZ
?Destroy@eCConfigFile_KeyObject@@QEAAXXZ
?Destroy@eCConfigFile_SectionObject@@QEAAXXZ
?Destroy@eCConsole2@@QEAAXXZ
?Destroy@eCContextBase@@UEAAXXZ
?Destroy@eCDX9HLSLShader@@IEAAXXZ
?Destroy@eCDecal@@IEAAXXZ
?Destroy@eCDecalAdmin@@UEAAXXZ
?Destroy@eCDecal_PS@@UEAAXXZ
?Destroy@eCDepthMap@@UEAAXXZ
?Destroy@eCDirectionalLight_PS@@UEAAXXZ
?Destroy@eCDocArchive@@QEAAXXZ
?Destroy@eCDynamicEntity@@UEAAXXZ
?Destroy@eCDynamicLight_PS@@UEAAXXZ
?Destroy@eCEditorEntityPropertySet@@UEAAXXZ
?Destroy@eCEngineComponentBase@@UEAAXXZ
?Destroy@eCEntity@@UEAAXXZ
?Destroy@eCEntityAdmin@@QEAAXXZ
?Destroy@eCEntityDynamicContext@@UEAAXXZ
?Destroy@eCEntityPropertySet@@UEAAXXZ
?Destroy@eCEntityProxy@@MEAAXXZ
?Destroy@eCEntityStringProxy@@IEAAXXZ
?Destroy@eCFnt@@QEAAXXZ
?Destroy@eCFont@@QEAAXXZ
?Destroy@eCFrustumDatabase@@UEAAXXZ
?Destroy@eCFrustumElementItem@@QEAAXXZ
?Destroy@eCFrustumFilter@@UEAAXXZ
?Destroy@eCGenericEntityListener_PS@@UEAAXXZ
?Destroy@eCGeometryEntity@@UEAAXXZ
?Destroy@eCGfxAdmin@@UEAAXXZ
?Destroy@eCGfxAssistantAdmin@@UEAAXXZ
?Destroy@eCGfxCamera@@UEAAXXZ
?Destroy@eCGfxCameraStates@@UEAAXXZ
?Destroy@eCGfxContextAdmin@@UEAAXXZ
?Destroy@eCGfxEffect@@UEAAXXZ
?Destroy@eCGfxFog@@UEAAXXZ
?Destroy@eCGfxGaugeAdmin@@UEAAXXZ
?Destroy@eCGfxHLSLShader@@UEAAXXZ
?Destroy@eCGfxImageData@@UEAAXXZ
?Destroy@eCGfxIndexData@@UEAAXXZ
?Destroy@eCGfxLight@@UEAAXXZ
?Destroy@eCGfxMaterial@@UEAAXXZ
?Destroy@eCGfxMixerAdmin@@UEAAXXZ
?Destroy@eCGfxPixelProgram@@UEAAXXZ
?Destroy@eCGfxShader@@UEAAXXZ
?Destroy@eCGfxTextureBlock@@UEAAXXZ
?Destroy@eCGfxVertexData@@UEAAXXZ
?Destroy@eCGfxVertexDecl@@UEAAXXZ
?Destroy@eCGfxVertexProgram@@UEAAXXZ
?Destroy@eCGfxVisual@@UEAAXXZ
?Destroy@eCGfxVisualCollection@@UEAAXXZ
?Destroy@eCGizmoBase@@UEAAXXZ
?Destroy@eCGizmoTransform@@UEAAXXZ
?Destroy@eCGizmoTransformCapsule@@UEAAXXZ
?Destroy@eCGizmoTransformCapsuleCollisionShape@@UEAAXXZ
?Destroy@eCGizmoTransformOBB@@UEAAXXZ
?Destroy@eCGizmoTransformOBBCollisionShape@@UEAAXXZ
?Destroy@eCGizmoTransformSphere@@UEAAXXZ
?Destroy@eCGizmoTransformSphereCollisionShape@@UEAAXXZ
?Destroy@eCGizmoTranslateAndScale@@UEAAXXZ
?Destroy@eCGizmoTranslateAndScaleBox@@UEAAXXZ
?Destroy@eCGizmoTranslateAndScaleSphere@@UEAAXXZ
?Destroy@eCGlobalStatistics@@QEAAXXZ
?Destroy@eCGlyphOutline@@QEAAXXZ
?Destroy@eCGlyphSheet@@QEAAXXZ
?Destroy@eCGlyphSheetCollection@@QEAAXXZ
?Destroy@eCGuiDevice2@@QEAAXXZ
?Destroy@eCHemisphere_PS@@UEAAXXZ
?Destroy@eCIlluminated_PS@@UEAAXXZ
?Destroy@eCIlluminationAdmin@@UEAAXXZ
?Destroy@eCImageFilterAdmin@@UEAAXXZ
?Destroy@eCImageFilterCopy@@UEAAXXZ
?Destroy@eCInputAdmin@@UEAAXXZ
?Destroy@eCIterator@@QEAAXXZ
?Destroy@eCIteratorPrimitive@@UEAAXXZ
?Destroy@eCIteratorPrimitiveBillboard@@UEAAXXZ
?Destroy@eCIteratorPrimitiveIndexedTriangleList@@UEAAXXZ
?Destroy@eCIteratorPrimitiveLineList@@UEAAXXZ
?Destroy@eCIteratorPrimitiveTriangleList@@UEAAXXZ
?Destroy@eCIteratorReport@@QEAAXXZ
?Destroy@eCLightSet@@UEAAXXZ
?Destroy@eCLightStreaks_PS@@UEAAXXZ
?Destroy@eCLightmapBitmap@@QEAAXXZ
?Destroy@eCLightmapPreprocessor@@QEAAXXZ
?Destroy@eCMesh_PS@@UEAAXXZ
?Destroy@eCModuleAdmin@@UEAAXXZ
?Destroy@eCMoverAnimationBase@@MEAAXXZ
?Destroy@eCMoverAnimationBezier@@MEAAXXZ
?Destroy@eCMoverAnimationFile@@MEAAXXZ
?Destroy@eCMoverAnimationHermit@@MEAAXXZ
?Destroy@eCMoverAnimationKFBase@@MEAAXXZ
?Destroy@eCMoverAnimationLinear@@MEAAXXZ
?Destroy@eCMoverAnimationRotate@@MEAAXXZ
?Destroy@eCMoverAnimationSkeletal@@MEAAXXZ
?Destroy@eCMoverAnimationTCB@@MEAAXXZ
?Destroy@eCMover_PS@@MEAAXXZ
?Destroy@eCNode@@UEAAXXZ
?Destroy@eCOccluder_PS@@MEAAXXZ
?Destroy@eCPackedShadowMap@@UEAAXXZ
?Destroy@eCParticle_PS@@UEAAXXZ
?Destroy@eCPhysicObject@@UEAAXXZ
?Destroy@eCPhysicQueryReport@@QEAAXXZ
?Destroy@eCPhysicsScene@@UEAAXXZ
?Destroy@eCPhysicsScene_PS@@UEAAXXZ
?Destroy@eCPointLight_PS@@UEAAXXZ
?Destroy@eCPortalAdmin@@UEAAXXZ
?Destroy@eCPortalCell_PS@@MEAAXXZ
?Destroy@eCPortalRoom_PS@@MEAAXXZ
?Destroy@eCPrecipitation_PS@@UEAAXXZ
?Destroy@eCPrefetchAdmin@@QEAAXXZ
?Destroy@eCPrimitiveCollisionDesc@@UEAAXXZ
?Destroy@eCProcessibleElement@@UEAAXXZ
?Destroy@eCProfilerAdmin@@UEAAXXZ
?Destroy@eCPropertyProxy@@UEAAXXZ
?Destroy@eCPropertySetProxy@@MEAAXXZ
?Destroy@eCRenderContext@@QEAAXXZ
?Destroy@eCRenderContextDebug@@QEAAXXZ
?Destroy@eCRenderContextMesh@@QEAAXXZ
?Destroy@eCRenderContextSpeedTreeBB@@QEAAXXZ
?Destroy@eCRenderSystemAdmin@@UEAAXXZ
?Destroy@eCResourceCache2@@QEAAXXZ
?Destroy@eCRigidBodyBase_PS@@UEAAXXZ
?Destroy@eCRigidBody_PS@@UEAAXXZ
?Destroy@eCSceneAdmin@@UEAAXXZ
?Destroy@eCScriptProxy@@IEAAXXZ
?Destroy@eCShaderBase@@UEAAXXZ
?Destroy@eCShaderDefault@@UEAAXXZ
?Destroy@eCShaderEllementBase@@UEAAXXZ
?Destroy@eCShaderLightStreaks@@UEAAXXZ
?Destroy@eCShaderMaterialAdmin@@UEAAXXZ
?Destroy@eCShaderParticle@@UEAAXXZ
?Destroy@eCShaderSkyDome@@UEAAXXZ
?Destroy@eCShadowMapBase@@UEAAXXZ
?Destroy@eCShadowMapDirectionalLight2@@UEAAXXZ
?Destroy@eCShadowMapDirectionalLight2Ex@@UEAAXXZ
?Destroy@eCShadowMapDirectionalLight2VS@@UEAAXXZ
?Destroy@eCSkyObject@@UEAAXXZ
?Destroy@eCSkydome_PS@@UEAAXXZ
?Destroy@eCSpeedTreeAdmin@@UEAAXXZ
?Destroy@eCSpeedTreeBBMesh_PS@@UEAAXXZ
?Destroy@eCSpeedTreeCollisionDesc@@UEAAXXZ
?Destroy@eCSpeedTreeRenderBuffer@@QEAAXXZ
?Destroy@eCSpeedTreeWind_PS@@UEAAXXZ
?Destroy@eCSpeedTree_PS@@UEAAXXZ
?Destroy@eCSprite@@QEAAXXZ
?Destroy@eCSpriteEffect@@QEAAXXZ
?Destroy@eCSpriteMesh@@QEAAXXZ
?Destroy@eCStaticAmbientLight_PS@@UEAAXXZ
?Destroy@eCStaticLightPreprocessor@@QEAAXXZ
?Destroy@eCStaticLight_PS@@UEAAXXZ
?Destroy@eCStaticPointLight_PS@@UEAAXXZ
?Destroy@eCStatistic@@QEAAXXZ
?Destroy@eCStatisticScreen@@QEAAXXZ
?Destroy@eCStatisticView@@IEAAXXZ
?Destroy@eCStatisticViewList@@IEAAXXZ
?Destroy@eCStatisticViewText@@IEAAXXZ
?Destroy@eCStrip_PS@@UEAAXXZ
?Destroy@eCSubMesh@@UEAAXXZ
?Destroy@eCTemplateEntity@@UEAAXXZ
?Destroy@eCTemplateEntityProxy@@IEAAXXZ
?Destroy@eCTexCoordSrcBase@@UEAAXXZ
?Destroy@eCTexCoordSrcBumpOffset@@UEAAXXZ
?Destroy@eCTexCoordSrcColor@@UEAAXXZ
?Destroy@eCTexCoordSrcOscillator@@UEAAXXZ
?Destroy@eCTexCoordSrcReflect@@UEAAXXZ
?Destroy@eCTexCoordSrcRotator@@UEAAXXZ
?Destroy@eCTexCoordSrcScale@@UEAAXXZ
?Destroy@eCTexCoordSrcScroller@@UEAAXXZ
?Destroy@eCUnicodeConfigFile@@QEAAXXZ
?Destroy@eCUnicodeConfigFile_KeyObject@@QEAAXXZ
?Destroy@eCUnicodeConfigFile_SectionObject@@QEAAXXZ
?Destroy@eCVegetationAdmin@@UEAAXXZ
?Destroy@eCVegetationBrush_PS@@UEAAXXZ
?Destroy@eCVegetation_Grid@@UEAAXXZ
?Destroy@eCVegetation_GridNode@@UEAAXXZ
?Destroy@eCVegetation_Mesh@@UEAAXXZ
?Destroy@eCVegetation_PS@@UEAAXXZ
?Destroy@eCWeatherAdmin@@UEAAXXZ
?Destroy@eCWeatherEnvironment@@UEAAXXZ
?Destroy@eCWeatherStates@@UEAAXXZ
?Destroy@eCWeatherZone_PS@@UEAAXXZ
?Destroy@eCWindow@@MEAAXXZ
?Destroy@eCWraper_SpeedTreeRT@@QEAAXXZ
?Destroy@eCWrapper_emfx3ActorInstance@@UEAAXXZ
?Destroy@eCWrapper_emfx3SkeletalMotion@@UEAAXXZ
?Destroy@eCXMLFile@@IEAAXXZ
?DestroyAuxBuffer@eCDX9Device@@UEAA?AW4bEResult@@PEAX@Z
?DestroyBuffer@eCGfxIndexData@@IEAA?AW4bEResult@@XZ
?DestroyBuffer@eCGfxVertexData@@IEAA?AW4bEResult@@XZ
?DestroyBuffers@eCBillboardAdmin@@IEAA_NXZ
?DestroyBuffers@eCDecalAdmin@@IEAA_NXZ
?DestroyBuffers@eCLightStreaks_PS@@IEAA_NXZ
?DestroyBuffers@eCSkyObject@@QEAAXXZ
?DestroyBuffers@eCSkydome_PS@@IEAAXXZ
?DestroyCaches@eCResourceModule2@@AEAAXXZ
?DestroyChannelGroups@eCAudioModule@@IEAAXXZ
?DestroyConstantTable@eCDX9HLSLShader@@UEAAXPEAX@Z
?DestroyConstantTable@eCGfxHLSLShader@@QEAAXPEAX@Z
?DestroyDecals@eCDecal_PS@@IEAAX_N@Z
?DestroyDeclaration@eCGfxVertexDecl@@IEAA?AW4bEResult@@XZ
?DestroyDeclarationBuffer@eCGfxVertexProgram@@QEAA?AW4bEResult@@XZ
?DestroyDefaultShader@eCDecalAdmin@@IEAA_NXZ
?DestroyDepthBuffer@eCDX9Device@@UEAA?AW4bEResult@@PEAX@Z
?DestroyEffect@eCGfxEffect@@IEAA?AW4bEResult@@XZ
?DestroyEngine@eCApplication@@IEAAXXZ
?DestroyFallbacks@eCGuiDevice2@@IEAAXXZ
?DestroyGeometry@eCSpeedTreeRenderBuffer@@QEAA_NXZ
?DestroyGraphicsSubsystem@eCApplication@@IEAAXXZ
?DestroyLayers@eCGfxImageData@@IEAA?AW4bEResult@@XZ
?DestroyLightStreakPolys@eCLightStreaks_PS@@IEAAXXZ
?DestroyLocal@eCCascadeShadowMap@@IEAAXXZ
?DestroyLocal@eCColorSrcBase@@IEAAXXZ
?DestroyLocal@eCColorSrcBlend@@IEAAXXZ
?DestroyLocal@eCColorSrcCamDistance@@IEAAXXZ
?DestroyLocal@eCColorSrcCamObstacle@@IEAAXXZ
?DestroyLocal@eCColorSrcCombiner@@IEAAXXZ
?DestroyLocal@eCColorSrcConstant@@IEAAXXZ
?DestroyLocal@eCColorSrcConstantAnimation@@IEAAXXZ
?DestroyLocal@eCColorSrcConstantSwitch@@IEAAXXZ
?DestroyLocal@eCColorSrcCubeSampler@@IEAAXXZ
?DestroyLocal@eCColorSrcFresnel@@IEAAXXZ
?DestroyLocal@eCColorSrcMask@@IEAAXXZ
?DestroyLocal@eCColorSrcSampler@@IEAAXXZ
?DestroyLocal@eCColorSrcSkydomeSampler@@IEAAXXZ
?DestroyLocal@eCColorSrcVertexColor@@IEAAXXZ
?DestroyLocal@eCImageFilterBase@@IEAAXXZ
?DestroyLocal@eCImageFilterCopy@@IEAAXXZ
?DestroyLocal@eCImageFilterEffect@@IEAAXXZ
?DestroyLocal@eCImageFilterImage@@IEAAXXZ
?DestroyLocal@eCImageFilterImageEffect@@IEAAXXZ
?DestroyLocal@eCImageFilterRTBase@@IEAAXXZ
?DestroyLocal@eCImageFilterScene@@IEAAXXZ
?DestroyLocal@eCImageFilterShadowMask@@IEAAXXZ
?DestroyLocal@eCImageFilterTexture@@IEAAXXZ
?DestroyLocal@eCImageFilterTextureRandom@@IEAAXXZ
?DestroyLocal@eCShaderBase@@IEAAXXZ
?DestroyLocal@eCShaderDefault@@IEAAXXZ
?DestroyLocal@eCShaderEllementBase@@IEAAXXZ
?DestroyLocal@eCShaderLightStreaks@@IEAAXXZ
?DestroyLocal@eCShaderParticle@@IEAAXXZ
?DestroyLocal@eCShaderSkyDome@@IEAAXXZ
?DestroyLocal@eCSkyObject@@IEAAXXZ
?DestroyLocal@eCTexCoordSrcBase@@IEAAXXZ
?DestroyLocal@eCTexCoordSrcBumpOffset@@IEAAXXZ
?DestroyLocal@eCTexCoordSrcColor@@IEAAXXZ
?DestroyLocal@eCTexCoordSrcOscillator@@IEAAXXZ
?DestroyLocal@eCTexCoordSrcReflect@@IEAAXXZ
?DestroyLocal@eCTexCoordSrcRotator@@IEAAXXZ
?DestroyLocal@eCTexCoordSrcScale@@IEAAXXZ
?DestroyLocal@eCTexCoordSrcScroller@@IEAAXXZ
?DestroyModules@eCApplication@@IEAAXXZ
?DestroyOcclusionQuery@eCDX9Device@@UEAA?AW4bEResult@@QEAX@Z
?DestroyOcclusionQuery@eCGfxAssistantAdmin@@QEBA?AW4bEResult@@QEAX@Z
?DestroyPhysicObject@eCGeometryEntity@@QEAAXXZ
?DestroyPixelProgram@eCDX9Device@@UEAA?AW4bEResult@@K@Z
?DestroyPreviewShader@eCShaderBase@@QEAA_NPEAVeCShaderEllementBase@@@Z
?DestroyProgram@eCGfxPixelProgram@@IEAA?AW4bEResult@@XZ
?DestroyProgram@eCGfxVertexProgram@@IEAA?AW4bEResult@@XZ
?DestroyQuery@eCDX9Device@@IEAAXQEAX@Z
?DestroyRenderTarget@eCDepthMap@@UEAA_NXZ
?DestroyRenderTarget@eCShadowMapDirectionalLight2VS@@UEAA_NXZ
?DestroyRenderTargets@eCImageFilterScene@@MEAAXXZ
?DestroyShader@eCDX9HLSLShader@@UEAA?AW4bEResult@@XZ
?DestroyShader@eCGfxHLSLShader@@QEAA?AW4bEResult@@XZ
?DestroyShader@eCSkydome_PS@@IEAAXXZ
?DestroyShaderVersion@eCShaderBase@@MEAA_NW4eEShaderMaterialVersion@@@Z
?DestroyShadowMaps@eCCascadeShadowMap@@QEAA_NXZ
?DestroyShape@eCCollisionShape@@QEAAXXZ
?DestroySkydomeEnvCubemapCamera@eCSkydome_PS@@QEAA_NXZ
?DestroySoundSubsystem@eCApplication@@IEAAXXZ
?DestroySpecialDepthBuffer@eCGfxMixerAdmin@@QEBA?AW4bEResult@@QEAX@Z
?DestroySplashScreen@eCApplication@@SAXXZ
?DestroyTestBitmaps@eCGuiDevice2@@QEAAXXZ
?DestroyVertexDeclaration@eCDX9Device@@UEAA?AW4bEResult@@PEAX@Z
?DestroyVertexProgram@eCDX9Device@@UEAA?AW4bEResult@@K@Z
?DestroyVertexStream@eCVegetationAdmin@@QEAAXXZ
?DestroyVisual@eCLightStreaks_PS@@IEAA_NXZ
?DestroyWorkspace@eCApplication@@MEAAXXZ
?Detach@eCBodyPart_PS@@QEAAXXZ
?Detach@eCDeferredGuiBitmap2@@QEAA_NPEAVeCGuiBitmap2@@@Z
?Detach@eCDeferredGuiCursor2@@QEAA_NPEAVeCGuiCursor2@@@Z
?Detach@eCGuiDropTarget2@@AEAAXXZ
?DetachChild@eCNode@@QEAA_NPEAV1@@Z
?DetachDeferredBitmap@eCGuiBitmap2@@IEAAXXZ
?DetachDeferredCursor@eCGuiCursor2@@IEAAXXZ
?Diff@eCConfigMerger@@QEBA_NAEBVeCConfigFile@@0AEAV?$bTObjArray@USDiff@eCConfigMerger@@@@@Z
?DisableFVF@eCGfxVisual@@QEAAXXZ
?DisableOptimization@eCDX9Device@@UEAAXXZ
?DisableProcessing@eCAnimation_PS@@IEAAX_N@Z
?DisableUpdateInternalsOnWrite@eCContextBase@@QEAAXXZ
?DiscardVertexStream@eCVegetationAdmin@@QEAAXXZ
?DisconnectAllInputs@eCImageFilterBase@@QEAAXXZ
?DispatchAnalogInput@eCInputAdmin@@QEAA_NKK@Z
?DispatchKeyPressed@eCInputAdmin@@QEAA_NK@Z
?DispatchKeyReleased@eCInputAdmin@@QEAA_NK@Z
?DisplayCacheConflicts@eCVirtualFileSystem@@QEAA_NXZ
?DoAfterLoadData@eCProcessibleElement@@MEAA_NXZ
?DoAutoKill@eCAudioEmitter_PS@@IEAAXXZ
?DoAutoKill@eCDecal_PS@@IEAAXXZ
?DoAutoKill@eCParticle_PS@@IEAA_NXZ
?DoBeginRenderAlpha@eCModuleAdmin@@QEAAXXZ
?DoBeginRenderSolid@eCModuleAdmin@@QEAAXXZ
?DoClone@eCDynamicEntity@@MEBAPEAV1@XZ
?DoClone@eCNode@@MEBAPEAV1@XZ
?DoClone@eCTemplateEntity@@UEBAPEAV1@XZ
?DoDragDrop@eCGuiModule2@@QEAAKPEAVIFFGuiDataObject2@@PEAVIFFGuiDropSource2@@KPEAK@Z
?DoEndRenderAlpha@eCModuleAdmin@@QEAAXXZ
?DoEndRenderSolid@eCModuleAdmin@@QEAAXXZ
?DoHandleMessage@eCGuiModule2@@QEAA_NIIJ@Z
?DoInitializeModules@eCModuleAdmin@@QEAA?AW4bEResult@@XZ
?DoLoop@eCSplash@@QEAAHXZ
?DoModal@eCGuiDevice2@@UEAAXXZ
?DoModalFrame@eCGuiModule2@@QEAA_NXZ
?DoOnAppInitializeModules@eCModuleAdmin@@QEAA?AW4bEResult@@XZ
?DoOverwrite@eCWeatherZone_PS@@IEAAXW4eEWeatherZoneOverwrite@@AEAMAEBM@Z
?DoOverwrite@eCWeatherZone_PS@@IEAAXW4eEWeatherZoneOverwrite@@AEAVbCFloatColor@@AEBV3@@Z
?DoOverwrites@eCWeatherZone_PS@@IEAAXAEAVeCWeatherState@eCWeatherStates@@@Z
?DoPostInitializeModules@eCModuleAdmin@@QEAA?AW4bEResult@@XZ
?DoPostRender@eCModuleAdmin@@QEAAXXZ
?DoPreShutdownModules@eCModuleAdmin@@QEAA?AW4bEResult@@XZ
?DoProcessV2@eCParticle_PS@@IEAAXXZ
?DoRender@eCApplication@@IEAAX_N@Z
?DoSaveGameEntityPostRead@eCDynamicEntity@@MEAAXXZ
?DoShutdownModules@eCModuleAdmin@@QEAA?AW4bEResult@@XZ
?DoSnapshot@eCApplication@@IEAAXXZ
?Dock@eCGuiWindow2@@AEAAXAEAVbCRect@@@Z
?DockChildren@eCGuiWindow2@@AEAAXXZ
?DragEnter@eCGuiDropTarget2@@UEAA_NPEAVIFFGuiDataObject2@@KUtagPOINT@@PEAK@Z
?DragLeave@eCGuiDropTarget2@@UEAA_NXZ
?DragOver@eCGuiDropTarget2@@UEAA_NKUtagPOINT@@PEAK@Z
?Draw@eCApplication@@UEAAXPEAUHWND__@@@Z
?Draw@eCDX9Device@@UEAA?AW4bEResult@@AEBUeSGfxDrawCallDesc@eCGfxShared@@@Z
?Draw@eCDX9Sprite@@UEAA?AW4bEResult@@PEAVeCAPITexture@@PEBVbCRect@@PEBVbCVector@@2K@Z
?Draw@eCDeferredGuiBitmap2@@UEAA_NPEAVeCSprite@@PEBUtagRECT@@AEBU3@KIM@Z
?Draw@eCDeferredGuiCursor2@@UEAA_NPEAVeCSprite@@AEBUtagPOINT@@KI@Z
?Draw@eCGuiAnimImage2@@UEAA_NPEAVeCSprite@@PEBUtagRECT@@AEBU3@KIM@Z
?Draw@eCGuiBaseBitmap2@@UEAA_NPEAVeCSprite@@PEBUtagRECT@@AEBU3@KIM@Z
?Draw@eCGuiBaseCursor2@@UEAA_NPEAVeCSprite@@AEBUtagPOINT@@KI@Z
?Draw@eCGuiBitmapFont2@@IEAAXPEAVeCSprite@@PEBVbCRect@@AEBV3@@Z
?Draw@eCGuiBitmapList2@@UEAA_NPEAVeCSprite@@HAEBUtagRECT@@KIM@Z
?Draw@eCGuiCursor2@@UEAA_NPEAVeCSprite@@AEBUtagPOINT@@KI@Z
?Draw@eCGuiImage2@@UEAA_NPEAVeCSprite@@PEBUtagRECT@@AEBU3@KIM@Z
?Draw@eCGuiImageCollection2@@UEAA_NPEAVeCSprite@@HAEBUtagRECT@@KIM@Z
?Draw@eCGuiImageList2@@UEAA_NPEAVeCSprite@@HAEBUtagRECT@@KIM@Z
?Draw@eCGuiLayeredImage2@@UEAA_NPEAVeCSprite@@PEBUtagRECT@@AEBU3@KIM@Z
?Draw@eCGuiModule2@@IEAA_NPEAVIFFGuiWnd2@@@Z
?Draw@eCGuiSplitImage2@@UEAA_NPEAVeCSprite@@PEBUtagRECT@@AEBU3@KIM@Z
?Draw@eCGuiTexture2@@UEAA_NPEAVeCSprite@@PEBUtagRECT@@AEBU3@KIM@Z
?Draw@eCSprite@@QEAA_NPEAVeCGfxImageData@@MMMMMMMMKK@Z
?Draw@eCSprite@@QEAA_NPEAVeCGfxImageData@@PEAUtagRECT@@PEBVbCVector@@2KK@Z
?Draw@eCSpriteMesh@@QEAA_NXZ
?DrawBatch@eCSprite@@AEAAXXZ
?DrawBox@eCFrustumDatabase@@QEAAXAEBVbCBox@@AEBVbCMatrix@@@Z
?DrawBox@eCGfxMixerAdmin@@QEAA?AW4bEResult@@AEBVbCBox@@KAEBVbCMatrix@@_N22@Z
?DrawCircle@eCGfxMixerAdmin@@QEAA?AW4bEResult@@AEBVbCVector@@M0KAEBVbCMatrix@@_N22@Z
?DrawClippedQuad@eCSprite@@AEAA_NPEAVeCGfxImageData@@MMMMMMMMMMMMMMKK@Z
?DrawCollisionMesh@eCAnimation_PS@@IEAAXXZ
?DrawCone@eCGfxMixerAdmin@@QEAA?AW4bEResult@@AEBVbCVector@@MM0KAEBVbCMatrix@@_N22@Z
?DrawCylinder@eCGfxMixerAdmin@@QEAA?AW4bEResult@@AEBVbCVector@@MMM0KAEBVbCMatrix@@_N22@Z
?DrawGlyph@eCFixedGuiBitmapFont2@@QEAA_NPEAVeCSprite@@AEBUeSGlyph@@AEAUtagPOINT@@PEAUtagRECT@@K@Z
?DrawGlyph@eCFont@@UEAA_NPEAVeCSprite@@AEBUeSGlyph@@AEAUtagPOINT@@PEAUtagRECT@@K@Z
?DrawImage@eCGuiDevice2@@QEAAXPEAVIFFGuiBitmap2@@AEBVbCRect@@KIM@Z
?DrawImage@eCGuiDevice2@@QEAAXPEAVIFFGuiImageList2@@HAEBVbCRect@@KIM@Z
?DrawImage@eCGuiDevice2@@UEAAXPEAVIFFGuiBitmap2@@AEBVbCRect@@KI@Z
?DrawImage@eCGuiDevice2@@UEAAXPEAVIFFGuiCursor2@@AEBVbCPoint@@KI@Z
?DrawImage@eCGuiDevice2@@UEAAXPEAVIFFGuiImageList2@@HAEBVbCRect@@KI@Z
?DrawIndexedTriangleFan@eCGfxMixerAdmin@@QEBA?AW4bEResult@@AEBV?$bTValArray@UeSTexVertex@eCGfxShared@@@@AEBV?$bTValArray@G@@@Z
?DrawIndexedTriangleList@eCGfxMixerAdmin@@QEBA?AW4bEResult@@AEBV?$bTValArray@UeSTexVertex@eCGfxShared@@@@AEBV?$bTValArray@G@@@Z
?DrawIndexedTriangleList@eCGfxMixerAdmin@@QEBA?AW4bEResult@@AEBV?$bTValArray@VbCVector@@@@AEBV?$bTValArray@G@@KW4eECmpFunc@eCGfxShared@@_N@Z
?DrawIndexedTriangleList@eCGfxMixerAdmin@@QEBA?AW4bEResult@@AEBV?$bTValArray@VbCVector@@@@AEBV?$bTValArray@G@@K_N2@Z
?DrawIndexedTriangleStrip@eCGfxMixerAdmin@@QEBA?AW4bEResult@@AEBV?$bTValArray@UeSTexVertex@eCGfxShared@@@@AEBV?$bTValArray@G@@@Z
?DrawIndexedUP@eCDX9Device@@UEAA?AW4bEResult@@W4eEPrimitiveType@eCGfxShared@@IIIQEAX1I@Z
?DrawLine@eCGfxMixerAdmin@@QEBA?AW4bEResult@@AEBVbCVector@@0K_N1@Z
?DrawLineList@eCGfxMixerAdmin@@QEBA?AW4bEResult@@AEBV?$bTValArray@VbCVector@@@@KW4eECmpFunc@eCGfxShared@@_N@Z
?DrawLineList@eCGfxMixerAdmin@@QEBA?AW4bEResult@@AEBV?$bTValArray@VbCVector@@@@K_N1@Z
?DrawNodeAxesDebug@eCAnimation_PS@@IEAAXAEBVbCMatrix@@M@Z
?DrawOverlay@eCScriptRadioButton@@IEAAXXZ
?DrawPointList@eCGfxMixerAdmin@@QEBA?AW4bEResult@@AEBV?$bTValArray@VbCVector@@@@KW4eECmpFunc@eCGfxShared@@_N@Z
?DrawPointList@eCGfxMixerAdmin@@QEBA?AW4bEResult@@AEBV?$bTValArray@VbCVector@@@@K_N1@Z
?DrawQuad@eCSprite@@QEAA_NPEAVeCGfxImageData@@MMMMMMMMKK@Z
?DrawQuad@eCSprite@@QEAA_NPEAVeCGfxImageData@@PEBUtagRECT@@U3@KK@Z
?DrawRay@eCGfxMixerAdmin@@QEAA?AW4bEResult@@AEBVbCUnitedRay@@KAEBVbCMatrix@@_N2@Z
?DrawRect@eCGuiDevice2@@UEAAXAEBVbCRect@@K@Z
?DrawSkeleton@eCAnimation_PS@@IEAAXXZ
?DrawSphere@eCGfxMixerAdmin@@QEAA?AW4bEResult@@AEBVbCSphere@@KAEBVbCMatrix@@_N22@Z
?DrawTLIndexedTriangleFan@eCGfxMixerAdmin@@QEBA?AW4bEResult@@AEBV?$bTValArray@UeSTLTexDiffuseVertex@eCGfxShared@@@@AEBV?$bTValArray@G@@@Z
?DrawTLIndexedTriangleFan@eCGfxMixerAdmin@@QEBA?AW4bEResult@@AEBV?$bTValArray@UeSTLTexVertex@eCGfxShared@@@@AEBV?$bTValArray@G@@@Z
?DrawTLIndexedTriangleList@eCGfxMixerAdmin@@QEBA?AW4bEResult@@AEBV?$bTValArray@UeSTLTexDiffuseVertex@eCGfxShared@@@@AEBV?$bTValArray@G@@@Z
?DrawTLIndexedTriangleList@eCGfxMixerAdmin@@QEBA?AW4bEResult@@AEBV?$bTValArray@UeSTLTexVertex@eCGfxShared@@@@AEBV?$bTValArray@G@@@Z
?DrawTLIndexedTriangleStrip@eCGfxMixerAdmin@@QEBA?AW4bEResult@@AEBV?$bTValArray@UeSTLTexDiffuseVertex@eCGfxShared@@@@AEBV?$bTValArray@G@@@Z
?DrawTLIndexedTriangleStrip@eCGfxMixerAdmin@@QEBA?AW4bEResult@@AEBV?$bTValArray@UeSTLTexVertex@eCGfxShared@@@@AEBV?$bTValArray@G@@@Z
?DrawTLLineList@eCGfxMixerAdmin@@QEBA?AW4bEResult@@AEBV?$bTValArray@UeSTLColVertex@eCGfxShared@@@@W4eECmpFunc@eCGfxShared@@@Z
?DrawTLLineList@eCGfxMixerAdmin@@QEBA?AW4bEResult@@AEBV?$bTValArray@UeSTLColVertex@eCGfxShared@@@@_N@Z
?DrawTLLineList@eCGfxMixerAdmin@@QEBA?AW4bEResult@@AEBV?$bTValArray@VbCVector4@@@@KW4eECmpFunc@eCGfxShared@@@Z
?DrawTLLineList@eCGfxMixerAdmin@@QEBA?AW4bEResult@@AEBV?$bTValArray@VbCVector4@@@@K_N@Z
?DrawTLTriangleFan@eCGfxMixerAdmin@@QEBA?AW4bEResult@@AEBV?$bTValArray@UeSTLTexDiffuseVertex@eCGfxShared@@@@@Z
?DrawTLTriangleFan@eCGfxMixerAdmin@@QEBA?AW4bEResult@@AEBV?$bTValArray@UeSTLTexVertex@eCGfxShared@@@@@Z
?DrawTLTriangleList@eCGfxMixerAdmin@@QEBA?AW4bEResult@@AEBV?$bTValArray@UeSTLTexDiffuseVertex@eCGfxShared@@@@@Z
?DrawTLTriangleList@eCGfxMixerAdmin@@QEBA?AW4bEResult@@AEBV?$bTValArray@UeSTLTexVertex@eCGfxShared@@@@_N@Z
?DrawTLTriangleStrip@eCGfxMixerAdmin@@QEBA?AW4bEResult@@AEBV?$bTValArray@UeSTLTexDiffuseVertex@eCGfxShared@@@@@Z
?DrawTLTriangleStrip@eCGfxMixerAdmin@@QEBA?AW4bEResult@@AEBV?$bTValArray@UeSTLTexVertex@eCGfxShared@@@@@Z
?DrawTextA@eCDX9Device@@UEAA?AW4bEResult@@QEBDKAEBVbCRect@@@Z
?DrawTextA@eCDX9Font@@UEAA?AW4bEResult@@VbCUnicodeString@@PEAVbCRect@@KK@Z
?DrawTextA@eCDX9Sprite@@UEAA?AW4bEResult@@PEAVeCAPIFont@@PEBDHPEAVbCRect@@KK@Z
?DrawTextA@eCDX9Sprite@@UEAA?AW4bEResult@@PEAVeCAPIFont@@PEB_WHPEAVbCRect@@KK@Z
?DrawTextA@eCDeferredGuiFont2@@UEAA_NPEAVeCSprite@@PEBDHPEAUtagRECT@@IKKP6AX0PEB_WHPEAUtagPOINT@@PEAX@Z5@Z
?DrawTextA@eCFixedGuiBitmapFont2@@UEAA_NPEAVeCSprite@@PEBDHPEAUtagRECT@@IKKP6AX0PEB_WHPEAUtagPOINT@@PEAX@Z5@Z
?DrawTextA@eCFont@@QEAAHPEAVeCSprite@@PEBDHPEAUtagRECT@@KKKP6AX0PEB_WHPEAUtagPOINT@@PEAX@Z5@Z
?DrawTextA@eCGfxAssistantAdmin@@QEBA?AW4bEResult@@AEBVbCString@@KAEBVbCRect@@@Z
?DrawTextA@eCGuiBaseFont2@@UEAA_NPEAVeCSprite@@PEBDHPEAUtagRECT@@IKKP6AX0PEB_WHPEAUtagPOINT@@PEAX@Z5@Z
?DrawTextA@eCGuiDevice2@@QEAAXPEAVIFFGuiFont2@@PEBDHPEAUtagRECT@@KKIIP6AXPEAVeCSprite@@PEB_WHPEAUtagPOINT@@PEAX@Z6@Z
?DrawTextA@eCGuiDevice2@@UEAAXPEAVIFFGuiFont2@@PEBDHPEAUtagRECT@@KII@Z
?DrawTextA@eCGuiDevice2@@UEAAXPEAVIFFGuiFont2@@PEBDHPEAUtagRECT@@KKII@Z
?DrawTextA@eCGuiSystemFont2@@UEAA_NPEAVeCSprite@@PEBDHPEAUtagRECT@@IKKP6AX0PEB_WHPEAUtagPOINT@@PEAX@Z5@Z
?DrawTextA@eCTextRenderer@@SAHPEAVeIGlyphProvider@@PEAVeCSprite@@PEBDHPEAUtagRECT@@KKKP6AX1PEB_WHPEAUtagPOINT@@PEAX@Z6@Z
?DrawTextViaSpriteList@eCDX9Device@@UEAAHPEAVeCAPIFont@@AEBVbCString@@HPEBVbCRect@@KK@Z
?DrawTextViaSpriteList@eCDX9Device@@UEAAHPEAVeCAPIFont@@AEBVbCUnicodeString@@HPEBVbCRect@@KK@Z
?DrawTextW@eCDeferredGuiFont2@@UEAA_NPEAVeCSprite@@PEB_WHPEAUtagRECT@@IKKP6AX01HPEAUtagPOINT@@PEAX@Z4@Z
?DrawTextW@eCFixedGuiBitmapFont2@@UEAA_NPEAVeCSprite@@PEB_WHPEAUtagRECT@@IKKP6AX01HPEAUtagPOINT@@PEAX@Z4@Z
?DrawTextW@eCFont@@QEAAHPEAVeCSprite@@PEB_WHPEAUtagRECT@@KKKP6AX01HPEAUtagPOINT@@PEAX@Z4@Z
?DrawTextW@eCGuiBaseFont2@@UEAA_NPEAVeCSprite@@PEB_WHPEAUtagRECT@@IKKP6AX01HPEAUtagPOINT@@PEAX@Z4@Z
?DrawTextW@eCGuiDevice2@@QEAAXPEAVIFFGuiFont2@@PEB_WHPEAUtagRECT@@KKIIP6AXPEAVeCSprite@@1HPEAUtagPOINT@@PEAX@Z5@Z
?DrawTextW@eCGuiDevice2@@UEAAXPEAVIFFGuiFont2@@PEB_WHPEAUtagRECT@@KII@Z
?DrawTextW@eCGuiDevice2@@UEAAXPEAVIFFGuiFont2@@PEB_WHPEAUtagRECT@@KKII@Z
?DrawTextW@eCGuiSystemFont2@@UEAA_NPEAVeCSprite@@PEB_WHPEAUtagRECT@@IKKP6AX01HPEAUtagPOINT@@PEAX@Z4@Z
?DrawTextW@eCTextRenderer@@SAHPEAVeIGlyphProvider@@PEAVeCSprite@@PEB_WHPEAUtagRECT@@KKKP6AX12HPEAUtagPOINT@@PEAX@Z5@Z
?DrawTo@eCApplication@@QEAAXPEAUHWND__@@@Z
?DrawTo@eCApplication@@QEAAXPEAUHWND__@@AEBVeCCameraBase@@@Z
?DrawTorus@eCGfxMixerAdmin@@QEAA?AW4bEResult@@AEBVbCVector@@MM0KAEBVbCMatrix@@_N22@Z
?DrawTriangleFan@eCGfxMixerAdmin@@QEBA?AW4bEResult@@AEBV?$bTValArray@UeSTexVertex@eCGfxShared@@@@@Z
?DrawTriangleList@eCGfxMixerAdmin@@QEBA?AW4bEResult@@AEBV?$bTValArray@UeSTexVertex@eCGfxShared@@@@@Z
?DrawTriangleList@eCGfxMixerAdmin@@QEBA?AW4bEResult@@AEBV?$bTValArray@VbCVector@@@@KW4eECmpFunc@eCGfxShared@@_N@Z
?DrawTriangleList@eCGfxMixerAdmin@@QEBA?AW4bEResult@@AEBV?$bTValArray@VbCVector@@@@K_N1@Z
?DrawTriangleStrip@eCGfxMixerAdmin@@QEBA?AW4bEResult@@AEBV?$bTValArray@UeSTexVertex@eCGfxShared@@@@@Z
?DrawUP@eCDX9Device@@UEAA?AW4bEResult@@W4eEPrimitiveType@eCGfxShared@@IQEAXI@Z
?Drop@eCGuiDropTarget2@@UEAA_NPEAVIFFGuiDataObject2@@KUtagPOINT@@PEAK@Z
?Dump@eCConfigMerger@@QEBAXAEBV?$bTObjArray@USDiff@eCConfigMerger@@@@@Z
?Dump@eCParticle_PS@@IEBAXXZ
?Dump@eCResourceCache2@@AEAAXAEAVeCArchiveFile@@@Z
?Dump@eCResourceCache2@@AEAAXH@Z
?DumpCache@eCResourceCache2@@AEAAXH@Z
?DumpCaches@eCResourceModule2@@AEAAXXZ
?DumpCaches@eCResourceModule2@@QEAAXAEAVeCArchiveFile@@@Z
?DumpConfiguration@eCAudioSystem@@IEAAXXZ
?DumpHash@eCResourceCache2@@AEAAXH@Z
?DumpPhysicsGroups@eCPhysicsScene@@QEAAXXZ
?DumpQueue@eCResourceCache2@@AEAAXH@Z
?DumpStates@eCResourceCache2@@AEAAXH@Z
?DumpStatisticsByItem@eCGfxGaugeAdmin@@QEBAXP6A_NPEADPEAUeSGfxMemoryData@eCGfxShared@@@Z@Z
?DumpStatisticsByItem@eCGfxGaugeAdmin@@QEBAXP6A_NPEBDPEBUbSAllocationItem@@@Z@Z
?DumpStatisticsBySubSystem@eCGfxGaugeAdmin@@QEBAXP6A_NPEBDPEBUbSAllocationItem@@@Z@Z
?Edit@eCGuiWindow2@@QEAAX_N@Z
?EmitParticles@eCParticle_PS@@IEAAHMMH@Z
?Enable@eCContextBase@@QEAAX_N@Z
?Enable@eCEngineComponentBase@@QEAAX_N@Z
?Enable@eCEntity@@UEAAX_N@Z
?Enable@eCGeometryEntity@@UEAAX_N@Z
?Enable@eCMessageHandler@@QEAAX_N@Z
?Enable@eCVegetationBrush_PS@@QEAAX_N@Z
?EnableClassProcessing@eCAudioEmitter_PS@@UEAAX_N@Z
?EnableClassProcessing@eCDecal_PS@@UEAAX_N@Z
?EnableClassProcessing@eCEntityPropertySet@@UEAAX_N@Z
?EnableClassProcessing@eCMover_PS@@UEAAX_N@Z
?EnableClassProcessing@eCParticle_PS@@UEAAX_N@Z
?EnableClassProcessing@eCPointLight_PS@@UEAAX_N@Z
?EnableClassProcessing@eCPrecipitation_PS@@UEAAX_N@Z
?EnableClassProcessing@eCStrip_PS@@UEAAX_N@Z
?EnableClipping@eCDX9Device@@UEAA?AW4bEResult@@_N@Z
?EnableClipping@eCGfxMixerAdmin@@QEBA?AW4bEResult@@_N@Z
?EnableCollision@eCGeometryEntity@@QEAAX_N@Z
?EnableCollisionDetection@eCPhysicObjectStateBuffer@@QEAAX_N@Z
?EnableCollisionResponse@eCPhysicObjectStateBuffer@@QEAAX_N@Z
?EnableContextFilter@eCIterator@@QEAAX_NP6A_NPEAVeCContextBase@@AEAV1@@Z@Z
?EnableDepthBias@eCShaderMaterialAdmin@@QEAAX_N@Z
?EnableDrawScale@eCGuiDevice2@@QEAA_N_N@Z
?EnableDrawScale@eCGuiModule2@@QEAAX_N@Z
?EnableEditorSimulation@eCPhysicsScene@@QEAAXAEAVeCGeometryEntity@@@Z
?EnableEditorSimulation@eCPhysicsScene@@QEAAXV?$bTPtrArray@PEAVeCGeometryEntity@@@@@Z
?EnableEditorSimulation@eCPhysicsScene@@QEAAX_N@Z
?EnableEntityFilter@eCIterator@@QEAAX_NP6A_NPEAVeCEntity@@AEAV1@@Z@Z
?EnableErrorHandling@eCShaderMaterialAdmin@@QEAAX_N@Z
?EnableFVF@eCGfxVisual@@QEAAXK@Z
?EnableFallback@eCShaderMaterialAdmin@@QEAAX_N@Z
?EnableGizmoForEntity@eCGizmoBase@@SAX_N@Z
?EnableGizmoForPropertySet@eCGizmoBase@@SAXW4eEPropertySetType@@_N@Z
?EnableGizmoForPropertySets@eCGizmoBase@@SAX_N@Z
?EnableInput@eCGuiModule2@@QEAAX_N@Z
?EnableLightmapPacking@eCLightmapPreprocessor@@QEAAX_N@Z
?EnableListenerAutoUpdate@eCAudioModule@@QEAAX_N@Z
?EnableMaterialFilter@eCIterator@@QEAAX_NP6A_NPEAVbCObjectRefBase@@PEAVeCResourceEntity@@AEAV1@@Z@Z
?EnableMouseScale@eCGuiModule2@@QEAAX_N@Z
?EnableMovementControlByAI@eCRigidBody_PS@@UEAAX_N00@Z
?EnableOcclusionAutoUpdate@eCAudioModule@@QEAAX_N@Z
?EnableOptimization@eCDX9Device@@UEAAXXZ
?EnablePicking@eCEntity@@UEAAX_N0@Z
?EnablePrePacking@eCLightmapPreprocessor@@QEAAX_N@Z
?EnableProcessing@eCEntityAdmin@@QEAAX_N@Z
?EnablePropertysetFilter@eCIterator@@QEAAX_NP6A_NPEAVeCEntityPropertySet@@AEAV1@@Z@Z
?EnableRadiosity@eCLightmapPreprocessor@@QEAAX_N@Z
?EnableRenderDebug@eCPhysicsScene@@QEAAX_N@Z
?EnableRenderOccluder@eCPortalAdmin@@QEAAX_N@Z
?EnableRenderPortals@eCPortalAdmin@@QEAAX_N@Z
?EnableRenderStaticLights@eCIlluminationAdmin@@QEAAX_N@Z
?EnableRendering@eCEntity@@QEAAX_N@Z
?EnableRendering@eCEntityPropertySet@@QEAAX_N@Z
?EnableRenderstateFilter@eCIterator@@QEAAX_NP6A_NPEAVeCFrustumElementItem@@AEAV1@@Z@Z
?EnableScissor@eCDX9Device@@UEAA?AW4bEResult@@_N@Z
?EnableScissor@eCGfxMixerAdmin@@QEBA?AW4bEResult@@_N@Z
?EnableShadows@eCLightmapPreprocessor@@QEAAX_N@Z
?EnableShapeCollision@eCPhysicObjectStateBuffer@@QEAAXW4eEShapeGroup@@_NH@Z
?EnableShapeGroupCollision@eCCollisionShape_PS@@QEAAXW4eEShapeGroup@@_NH@Z
?EnableShapeGroupCollisionInternal@eCCollisionShape_PS@@MEAAXW4eEShapeGroup@@_NH@Z
?EnableSkeletonCollision@eCAnimation_PS@@QEAAX_N@Z
?EnableSkeletonCollisionWith@eCAnimation_PS@@QEAAXPEAVeCGeometryEntity@@_N@Z
?EnableStream@eCDX9Primitive@@UEAAXK_N@Z
?EnableStream@eCGfxVisual@@QEAAXK_N@Z
?Encode@eCLameMp3Codec@@UEAA_NPEBXKKHAEAVeCResourceOutputStream2@@@Z
?End@eCDX9Sprite@@UEAA?AW4bEResult@@XZ
?End@eCSprite@@QEAAXXZ
?End@eCSpriteEffect@@QEAAXXZ
?EndBatch@eCGfxVisualCollection@@QEAA?AW4bEResult@@XZ
?EndEffectApplication@eCGfxEffect@@QEAA?AW4bEResult@@XZ
?EndEffectTechnique@eCImageFilterEffect@@MEAAXXZ
?EndFrame@eCGuiDevice2@@UEAAXXZ
?EndIterator@eCNode@@SA?AVeCIterator@1@XZ
?EndMaterial@eCShaderMaterialAdmin@@QEAA_NXZ
?EndModal@eCGuiWindow2@@QEAAXH@Z
?EndOcclusionTest@eCDX9Device@@UEAA?AW4bEResult@@QEAX@Z
?EndOcclusionTest@eCGfxAssistantAdmin@@QEBA?AW4bEResult@@QEAX@Z
?EndRadiosityPass@eCShaderMaterialAdmin@@QEAA_NXZ
?EndRenderStateBlock@eCDX9Device@@UEAAXXZ
?EndRenderStateBlock@eCGfxMixerAdmin@@QEAAXXZ
?EndScene@eCDX9Device@@UEAA?AW4bEResult@@XZ
?EndScene@eCGfxMixerAdmin@@QEBA?AW4bEResult@@XZ
?EndSpriteList@eCDX9Device@@UEAA?AW4bEResult@@XZ
?EndTechnique@eCDX9Effect@@UEAA?AW4bEResult@@XZ
?EndZPass@eCShaderMaterialAdmin@@QEAA_NXZ
?EngineMessageProc@eCEngineComponentBase@@UEAAXAEAUeSEngineMessage@@@Z
?EnsureFont@eCGuiSystemFont2@@IEAA_NXZ
?EnsureImageLists@eCGuiListCtrl2@@IEAA_NXZ
?EnsureMaterial@eCMotionActorResource2@@QEBAPEAVeCMaterialResource2@@KG@Z
?EnsureTexture@eCGuiBitmapFont2@@IEBA_NXZ
?EnsureTexture@eCGuiTexture2@@IEBA_NXZ
?EnterProcessingRange@eCAudioEmitter_PS@@UEAAXXZ
?EnterProcessingRange@eCDecal_PS@@UEAAXXZ
?EnterProcessingRange@eCDynamicEntity@@MEAAXXZ
?EnterProcessingRange@eCEntity@@MEAAXXZ
?EnterProcessingRange@eCEntityPropertySet@@UEAAXXZ
?EnterProcessingRange@eCGeometryEntity@@MEAAXXZ
?EnterProcessingRange@eCMover_PS@@UEAAXXZ
?EnterProcessingRange@eCParticle_PS@@UEAAXXZ
?EnterProcessingRange@eCPointLight_PS@@UEAAXXZ
?EnterProcessingRange@eCPrecipitation_PS@@UEAAXXZ
?EnterProcessingRange@eCStrip_PS@@UEAAXXZ
?EntityAdminKillsEntity@eCPhysicsScene@@QEAAXPEAVeCGeometryEntity@@@Z
?EnumContext@eCGfxAdmin@@QEBA?AW4bEResult@@KAEAUeSGfxContextDesc@eCGfxShared@@@Z
?EnumEntities@eCContextBase@@UEBA_NP6A_NPEAVeCEntity@@PEAX@Z1@Z
?Execute@eCCameraBase@@QEAAXPEAUeSRenderTargetDesc@eCFrustumDatabase@@@Z
?Execute@eCDX9HLSLShader@@UEAA?AW4bEResult@@XZ
?Execute@eCDX9Primitive@@UEAA_NXZ
?Execute@eCFrustumDatabase@@QEAAXPEAUeSRenderTargetDesc@1@@Z
?Execute@eCGfxCamera@@QEAA?AW4bEResult@@XZ
?Execute@eCGfxCameraStates@@QEAA?AW4bEResult@@XZ
?Execute@eCGfxEffect@@QEAA?AW4bEResult@@XZ
?Execute@eCGfxFog@@QEAA?AW4bEResult@@XZ
?Execute@eCGfxHLSLShader@@QEAA?AW4bEResult@@XZ
?Execute@eCGfxImageData@@QEAA?AW4bEResult@@XZ
?Execute@eCGfxLight@@QEAA?AW4bEResult@@XZ
?Execute@eCGfxMaterial@@QEAA?AW4bEResult@@XZ
?Execute@eCGfxPixelProgram@@QEAA?AW4bEResult@@XZ
?Execute@eCGfxShader@@QEAA?AW4bEResult@@XZ
?Execute@eCGfxTextureBlock@@QEAA?AW4bEResult@@XZ
?Execute@eCGfxVertexProgram@@QEAA?AW4bEResult@@XZ
?Execute@eCGfxVisual@@QEAA?AW4bEResult@@XZ
?Execute@eCImageEffect@@QEAA_NXZ
?Execute@eCPhysicObjectStateBuffer@@QEAAXXZ
?Execute@eCPropertyProxy@@QEAA_NXZ
?Execute@eCRenderSystemAdmin@@QEAAXAEAVeCFrustumDatabase@@PEAUeSRenderTargetDesc@2@@Z
?ExecuteBuffers@eCPhysicObject@@SAXXZ
?ExecuteEffect@eCImageFilterEffect@@MEAAXXZ
?ExecuteEffectPass@eCImageFilterEffect@@MEAA_NH@Z
?ExecuteGfxCamera@eCCameraBase@@QEAAXXZ
?ExecuteJobs@eCImageFilterBase@@SA_NAEAV?$bTValArray@UeSImageFilterJob@eCImageFilterBase@@@@@Z
?ExecutePass@eCShaderBase@@UEAA_NH@Z
?ExecutePreviewShader@eCShaderBase@@UEAA_NPEAVeCShaderEllementBase@@@Z
?ExecutePreviewShader@eCShaderDefault@@UEAA_NPEAVeCShaderEllementBase@@@Z
?ExecuteRadiosityPass@eCFrustumDatabase@@QEAAXH@Z
?ExecuteRadiosityPass@eCShaderBase@@UEAA_NW4eERadiosityLightmapType@@@Z
?ExecuteRenderInstances@eCMeshResource2@@QEAAXK@Z
?ExecuteShaderConstants@eCShaderBase@@UEAAXPEAVeCShaderPoolEllement@@0@Z
?ExecuteShaderConstants@eCShaderMaterialAdmin@@QEAAX_N@Z
?ExecuteShaderSamplers@eCShaderMaterialAdmin@@QEAAXXZ
?ExecuteShadowMap@eCFrustumDatabase@@QEAAXPEAVeCShadowMapBase@@@Z
?ExecuteSpecialPass@eCShaderBase@@UEAA_N_N@Z
?ExecuteVisual@eCImageFilterEffect@@MEAA_NXZ
?Exists@eCArchiveFile@@QEBA_NXZ
?Exists@eCResource2@@QEBA_NXZ
?ExistsFile@eCPhysicalFileSystem@@QEAA_NAEBVbCString@@@Z
?ExistsFile@eCVirtualFileSystem@@QEAA_NAEBVbCString@@@Z
?ExistsID@eCLocAdmin2@@QEBA_NAEBVbCString@@@Z
?ExistsID@eCLocString@@QEBA_NXZ
?ExistsID@eCLocStringEx@@QEBA_NXZ
?ExistsLanguage@eCLocAdmin2@@QEBA_NAEBVbCString@@@Z
?ExitProcessingRange@eCAudioEmitter_PS@@UEAAXXZ
?ExitProcessingRange@eCDecal_PS@@UEAAXXZ
?ExitProcessingRange@eCDynamicEntity@@MEAAXXZ
?ExitProcessingRange@eCEntity@@MEAAXXZ
?ExitProcessingRange@eCEntityPropertySet@@UEAAXXZ
?ExitProcessingRange@eCGeometryEntity@@MEAAXXZ
?ExitProcessingRange@eCMover_PS@@UEAAXXZ
?ExitProcessingRange@eCParticle_PS@@UEAAXXZ
?ExitProcessingRange@eCPointLight_PS@@UEAAXXZ
?ExitProcessingRange@eCPrecipitation_PS@@UEAAXXZ
?ExitProcessingRange@eCStrip_PS@@UEAAXXZ
?ExportFile@eCDocArchive@@AEAA_NPEAVeCDocObject@@@Z
?ExportRaw@eCDocArchive@@QEAA_NXZ
?Extract@eCFrustumDatabase@@QEAAXXZ
?Extract@eCRenderSystemAdmin@@QEAAXAEAVeCFrustumDatabase@@@Z
?ExtractFromEntities@eCFrustumDatabase@@QEAAXPEAVeCGeometryEntity@@W4eECullStatus@eCFrustumFilter@@@Z
?ExtractFromEntity@eCFrustumDatabase@@QEAA_NPEAVeCGeometryEntity@@W4eECullStatus@eCFrustumFilter@@@Z
?ExtractFromFrustum@eCFrustumDatabase@@QEAAXXZ
?ExtractFromPortalRoom@eCFrustumDatabase@@QEAAXPEAVeCPortalRoom_PS@@AEAVeCBeamTree@@@Z
?ExtractFromPortalRooms@eCFrustumDatabase@@QEAAXPEAVeCPortalRoom_PS@@AEAVeCBeamTree@@_N0@Z
?ExtractShadowMap@eCFrustumDatabase@@QEAAXPEAVeCShadowMapBase@@@Z
?FModAllocMemory@eCAudioSystem@@KAPEAXIIPEBD@Z
?FModFreeMemory@eCAudioSystem@@KAXPEAXIPEBD@Z
?FModReallocMemory@eCAudioSystem@@KAPEAXPEAXIIPEBD@Z
?FetchResults@eCPhysicsScene@@AEAAXXZ
?FetchResultsOnDemand@eCPhysicsScene@@AEAAXXZ
?FillBBVertexIndexBuffers@eCSpeedTreeBBMesh_PS@@IEAA_NAEBV?$bTValArray@PEAVeCGeometryEntity@@@@AEBV?$bTValMap@VbCString@@K@@PEAVeCGfxVertexData@@PEAVeCGfxIndexData@@@Z
?FillBitmap@eCLightmapPreprocessor@@IEAAXAEAVeCLightmapBitmap@@HPEAKKK@Z
?FillBitmapEdges@eCLightmapBitmap@@QEAAXK@Z
?FillBitmaps@eCLightmapPreprocessor@@IEAAXAEAUeSLightmapImage@1@@Z
?FillBlendingRenderStates@eCShaderBase@@QEBAXAEAUeSShaderRenderStates@@_NM@Z
?FillBuffers@eCAnimation_HardRenderActor2@@IEAAHPEAUeSHardVertex@1@PEAKPEAVActor@EMotionFX@@G@Z
?FillDebug@eCLightmapBitmap@@QEAAXXZ
?FillGBuffer@eCLightmapPreprocessor@@IEAA_NAEAUeSLightmapImage@1@AEAVbCMemoryStream@@@Z
?FillImageFromFile@eCGfxAssistantAdmin@@QEBA?AW4bEResult@@AEAVeCGfxImageData@@AEAUeSGfxLayersDesc@eCGfxShared@@AEBVbCString@@E@Z
?FillImageFromFile@eCGfxAssistantAdmin@@QEBA?AW4bEResult@@AEAVeCGfxImageData@@AEBVbCString@@E@Z
?FillImageFromFile@eCGfxImageData@@IEAA?AW4bEResult@@AEAUeSGfxLayersDesc@eCGfxShared@@QEADE@Z
?FillImageFromMemory@eCGfxAssistantAdmin@@QEBA?AW4bEResult@@AEAVeCGfxImageData@@AEAUeSGfxLayersDesc@eCGfxShared@@QEAXIE@Z
?FillImageFromMemory@eCGfxAssistantAdmin@@QEBA?AW4bEResult@@AEAVeCGfxImageData@@QEAXIE@Z
?FillImageFromMemory@eCGfxImageData@@IEAA?AW4bEResult@@AEAUeSGfxLayersDesc@eCGfxShared@@PEAXIE@Z
?FillIndexBuffers@eCSkyObject@@IEAA_NXZ
?FillLeafCardVertexBuffer@eCSpeedTreeRenderBuffer@@IEAA_NAEAUSGeometry@CSpeedTreeRT@@PEAUeSLeafCardVertex@1@GPEAMI@Z
?FillLeafMeshVertexBuffer@eCSpeedTreeRenderBuffer@@IEAA_NAEAUSGeometry@CSpeedTreeRT@@PEAUeSLeafMeshVertex@1@GPEAMI@Z
?FillRenderOpActor@eCRenderContextAnimation2@@IEAAXAEAVeCFrustumDatabase@@MGPEAVeCWrapper_emfx3ActorInstance@@GK@Z
?FillResourceSizeAndLevelCount@eCGfxImageData@@SAXAEAUeSGfxLayersDesc@eCGfxShared@@H@Z
?FillVertexBuffer@eCSkyObject@@IEAA_NXZ
?FillVertexBufferMorph@eCAnimation_HardRenderActor2@@IEAA_NPEAUeSHardVertexMorph@1@PEAVActor@EMotionFX@@GH@Z
?FillViewFrustum@eCFrustumFilter@@IEAAXAEBVbCMatrix@@@Z
?FilterDownByFrequ@eCLightmapBitmap@@QEAA_NXZ
?FilterEntityCullCallback@eCFrustumDatabase@@IEAA_NPEAVeCFrustumFilter@@PEAVeCGeometryEntity@@@Z
?FilterItem@eCStatisticList@@UEBA_NXZ
?FinalGatherAmbient@eCLightmapPreprocessor@@QEAA?AVbCVector4@@AEBVbCVector@@AEAV?$bTSphericalHarmonics3@VbCVector4@@@@@Z
?FindAllMotions@eCAnimation2Admin@@QEBAHAEBVbCString@@AEAV?$bTValArray@PEAVeCMotionResource2@@@@@Z
?FindDirectories@eCVirtualFileSystem@@QEAA_NAEBVbCString@@AEAV?$bTObjArray@VbCString@@@@@Z
?FindFiles@eCArchiveManager@@QEAA_NAEBVbCString@@AEAV?$bTObjArray@VeCArchiveFile@@@@_N@Z
?FindFiles@eCVirtualFileSystem@@QEAA_NAEBVbCString@@0AEAV?$bTObjArray@VbCString@@@@@Z
?FindFiles@eCVirtualFileSystem@@QEAA_NAEBVbCString@@AEAV?$bTObjArray@VbCString@@@@@Z
?FindFilesWithExt@eCArchiveManager@@QEAA_NAEBVbCString@@0AEAV?$bTObjArray@VeCArchiveFile@@@@_N@Z
?FindFilesWithExt@eCVirtualFileSystem@@QEAA_NAEBVbCString@@0AEAV?$bTObjArray@VbCString@@@@@Z
?FindFirstMotionIndex@eCAnimation2Admin@@QEBAHAEBVbCString@@@Z
?FindFreeCell@eCPackedShadowMap@@IEAAPEAUeSQuadTreeNode@1@PEAU21@E@Z
?FindHead@eCProcessor@@QEBAPEAVeCProcessible@@H@Z
?FindImageCollection@eCGuiDevice2@@QEBAPEAVeCGuiImageCollection2@@PEAVeCGuiImageList2@@@Z
?FindImageIndex@eCGuiImageList2@@QEBAHPEAVeCGuiImage2@@@Z
?FindLanguage@eCLocAdmin2@@QEBA?AVbCString@@H@Z
?FindLanguageIndex@eCLocAdmin2@@QEBAHAEBVbCString@@@Z
?FindLayerIndex@eCGuiImageCollection2@@QEBAHPEAVeCGuiImageList2@@@Z
?FindMeshesOfInterest@eCAOMeshBase@eCAmbientOcclusionPreprocessor@@UEAAXPEAV12@PEAVeCAOMeshGroup@2@G@Z
?FindMeshesOfInterest@eCAOMeshLoD@eCAmbientOcclusionPreprocessor@@UEAAXPEAVeCAOMeshBase@2@PEAVeCAOMeshGroup@2@G@Z
?FindModule@eCModuleAdmin@@QEBAPEAVeCEngineComponentBase@@AEBVbCGuid@@@Z
?FindModule@eCModuleAdmin@@QEBAPEAVeCEngineComponentBase@@AEBVbCString@@@Z
?FindMotion@eCAnimation2Admin@@QEBAPEAVeCMotionResource2@@AEBVbCString@@@Z
?FindMotionIndex@eCAnimation2Admin@@QEBAHAEBVbCString@@@Z
?FindMotionVariation@eCAnimation2Admin@@QEBAPEAVeCMotionResource2@@AEBVbCString@@H@Z
?FindNextCfgEntry@eCConfigAdmin@@QEAA?AVbCString@@AEBV2@@Z
?FindNextMotionIndex@eCAnimation2Admin@@QEBAHHAEBVbCString@@@Z
?FindNextScript@eCScriptFunctionMap@@QEAA?AVbCString@@AEBV2@0@Z
?FindPlace@eCLightmapBatcher@@QEAA_NJJAEAJ0PEBUeSHorizonRow@1@PEAH@Z
?FindPortalRoom@eCPortalAdmin@@QEAAPEAVeCPortalRoom_PS@@AEBVbCVector@@@Z
?FindQuality@eCImageResource2@@CA_NAEBVbCString@@AEAUSFolderQuality@1@@Z
?FindResourceA@eCResourceCache2@@AEBAPEAVeCResource2@@AEBVbCString@@@Z
?FindStaticLights@eCIlluminationAdmin@@QEAAXAEAV?$bTValArray@PEAVeCStaticLight_PS@@@@AEBVbCBox@@PEAVeCPortalRoom_PS@@@Z
?FindWightedStaticLights@eCIlluminationAdmin@@QEAAHPEAUeSWightedStaticLight@1@KAEBVbCBox@@PEAVeCPortalRoom_PS@@@Z
?FindWorldPosAndNormal@eCVegetationBrush_PS@@IEAAXAEAV?$bTValArray@UeSBrushEntry@eCVegetationBrush_PS@@@@@Z
?Finit@eCDX9Instance@@UEAA?AW4bEResult@@XZ
?Flush@eCDX9Sprite@@UEAA?AW4bEResult@@XZ
?Flush@eCResourceCache2@@QEAAXXZ
?Flush@eCSprite@@QEAAXXZ
?FlushBytes@eCResourceCache2@@AEAAII@Z
?FlushCaches@eCResourceModule2@@QEAAXXZ
?FlushResource@eCResourceCache2@@AEAAIPEAVeCResource2@@@Z
?FlushResults@eCStaticLightPreprocessor@@QEAAX_N@Z
?FlushSpriteList@eCDX9Device@@UEAA?AW4bEResult@@XZ
?Focus@eCGuiWindow2@@QEAA_NXZ
?ForgetPath@eCVirtualFileSystem@@QEAAXAEBVbCString@@@Z
?FormatTotalNumQueuedBytes@eCResourceModule2@@QEBA?AVbCString@@XZ
?Free@eCLightmapBitmap@@QEAAXXZ
?FreeAnalysis@eCGuiDevice2@@UEAAXPEAX@Z
?FreeEmpty@eCLightmapBitmap@@QEAAXK@Z
?FreeRenderTarget@eCImageFilterAdmin@@QEAAXPEAVeCGfxImageData@@@Z
?FreeResources@eCSplash@@AEAAXXZ
?FreeShadowMapImage@eCIlluminationAdmin@@QEAAXPEAVeCGfxImageData@@@Z
?GenerateCubeMapMipMaps@eCDX9CubeMap@@UEAA?AW4bEResult@@IW4eECopyFilter@eCGfxShared@@@Z
?GenerateEventArgs@eCGuiWindow2@@UEAAPEAVeCScriptEventArgs@@XZ
?GenerateEventArgs@eCScriptEdit@@UEAAPEAVeCScriptEventArgs@@XZ
?GenerateEventArgs@eCScriptListCtrl@@UEAAPEAVeCScriptEventArgs@@XZ
?GenerateEventArgs@eCScriptProgressbar@@UEAAPEAVeCScriptEventArgs@@XZ
?GenerateEventArgs@eCScriptRadioButton@@UEAAPEAVeCScriptEventArgs@@XZ
?GenerateEventArgs@eCScriptStatic@@UEAAPEAVeCScriptEventArgs@@XZ
?GenerateEventArgs@eCScriptTrackbar@@UEAAPEAVeCScriptEventArgs@@XZ
?GenerateID@eCLocString@@IEAA_NAEBVbCString@@@Z
?GenerateID@eCLocString@@QEAA_NXZ
?GenerateID@eCLocStringEx@@IEAA_NAEBVbCString@@@Z
?GenerateID@eCLocStringEx@@IEAA_NXZ
?GenerateImages@eCGuiImageList2@@QEAAXAEBUtagPOINT@@@Z
?GenerateLODMesh@eCDX9Device@@UEAA?AW4bEResult@@PEAVeCAPIVertexData@@PEAVeCAPIIndexData@@AEBUeSGfxAttributeWeigths@eCGfxShared@@PEBV?$bTValArray@M@@KPEAPEAV3@PEAPEAV4@_N@Z
?GenerateLODMesh@eCGfxAssistantAdmin@@QEBA?AW4bEResult@@AEAVeCGfxVertexData@@AEAVeCGfxIndexData@@AEBUeSGfxAttributeWeigths@eCGfxShared@@PEBV?$bTValArray@M@@K01_N@Z
?GenerateMipMaps@eCGfxAssistantAdmin@@QEBA?AW4bEResult@@AEAVeCGfxImageData@@IW4eECopyFilter@eCGfxShared@@@Z
?GenerateMipMaps@eCGfxImageData@@IEAA?AW4bEResult@@IW4eECopyFilter@eCGfxShared@@@Z
?GenerateTextureMipMaps@eCDX9Texture@@UEAA?AW4bEResult@@IW4eECopyFilter@eCGfxShared@@@Z
?GenerateVolumeMipMaps@eCDX9Volume@@UEAA?AW4bEResult@@IW4eECopyFilter@eCGfxShared@@@Z
?Get3DPanLevel@eCAudioChannel@@QEBA?AW4eEAudioResult@@AEAM@Z
?GetAPIType@eCGfxAdmin@@QEBA?AW4eEAPIType@eCGfxShared@@XZ
?GetAcceleration@eCParticle_PS@@QEBAAEBVbCVector@@XZ
?GetAccessToAssistant@eCGfxAdmin@@QEAAAEAVeCGfxAssistantAdmin@@XZ
?GetAccessToContext@eCGfxAdmin@@QEAAAEAVeCGfxContextAdmin@@XZ
?GetAccessToEntityAdmin@eCSceneAdmin@@QEAAAEAVeCEntityAdmin@@XZ
?GetAccessToGauge@eCGfxAdmin@@QEAAAEAVeCGfxGaugeAdmin@@XZ
?GetAccessToMixer@eCGfxAdmin@@QEAAAEAVeCGfxMixerAdmin@@XZ
?GetAccessToPropertySet@eCPropertySetProxy@@QEAAPEAVeCEntityPropertySet@@XZ
?GetActionKey@eCInputAdmin@@QEBAKW4eEScanCode@@@Z
?GetActiveCamera@eCGfxMixerAdmin@@QEBA?AW4bEResult@@AEAPEAVeCGfxCamera@@@Z
?GetActiveCameraStates@eCGfxMixerAdmin@@QEBA?AW4bEResult@@AEAPEAVeCGfxCameraStates@@@Z
?GetActiveEffect@eCGfxMixerAdmin@@QEBA?AW4bEResult@@AEAPEAVeCGfxEffect@@@Z
?GetActiveEffect@eCImageFilterAdmin@@QEBAPEAVeCImageEffect@@XZ
?GetActiveFog@eCGfxMixerAdmin@@QEBA?AW4bEResult@@AEAPEAVeCGfxFog@@@Z
?GetActiveImageData@eCGfxMixerAdmin@@QEBA?AW4bEResult@@KAEAPEAVeCGfxImageData@@@Z
?GetActiveLight@eCGfxMixerAdmin@@QEBA?AW4bEResult@@AEAPEAVeCGfxLight@@@Z
?GetActiveMaterial@eCGfxMixerAdmin@@QEBA?AW4bEResult@@AEAPEAVeCGfxMaterial@@@Z
?GetActiveOverlayEffect@eCImageFilterAdmin@@QEBAPEAVeCImageEffect@@XZ
?GetActivePixelProgram@eCGfxMixerAdmin@@QEBA?AW4bEResult@@AEAPEAVeCGfxPixelProgram@@@Z
?GetActiveShader@eCGfxMixerAdmin@@QEBA?AW4bEResult@@AEAPEAVeCGfxShader@@@Z
?GetActiveShaderPool@eCShaderMaterialAdmin@@QEBA?AW4eEShaderPool@1@XZ
?GetActiveStatistic@eCStatisticScreen@@QEBAPEAVeCStatistic@@XZ
?GetActiveTextureBlock@eCGfxMixerAdmin@@QEBA?AW4bEResult@@KAEAPEAVeCGfxTextureBlock@@@Z
?GetActiveVertexProgram@eCGfxMixerAdmin@@QEBA?AW4bEResult@@AEAPEAVeCGfxVertexProgram@@@Z
?GetActiveView@eCStatisticScreen@@QEBAPEAVeCStatisticView@@XZ
?GetActor@eCMotionActorResource2@@QEBAPEAVActor@EMotionFX@@XZ
?GetActor@eCPhysicObject@@QEAAAEAVNxActor@@XZ
?GetActor@eCPhysicObject@@QEBAAEBVNxActor@@XZ
?GetActorFactory@eCAnimation2Admin@@QEAAPEAVeCAnimationActorFactory@@XZ
?GetActorName@eCWrapper_emfx3ActorInstance@@QEBAAEBVbCString@@XZ
?GetActorWrapper@eCAnimation_PS@@QEAAPEAVeCWrapper_emfx3ActorInstance@@XZ
?GetActorWrapper@eCAnimation_PS@@QEBAPEBVeCWrapper_emfx3ActorInstance@@XZ
?GetActorWrapper@eCBodyPart_PS@@QEAAAEAVeCWrapper_emfx3ActorInstance@@XZ
?GetActorWrapper@eCBodyPart_PS@@QEBAAEBVeCWrapper_emfx3ActorInstance@@XZ
?GetAdaptScale@eCCollisionShape@@QEBAAEBMXZ
?GetAdaptToAABB@eCCollisionShape@@QEBAAEB_NXZ
?GetAdapterCount@eCDX9Instance@@UEAA?AW4bEResult@@PEAK@Z
?GetAdapterDesc@eCDX9Instance@@UEAA?AW4bEResult@@KPEAUeSGfxAdapterDesc@eCGfxShared@@@Z
?GetAddVelocityFromOwnerFactor@eCParticle_PS@@QEBAAEBMXZ
?GetAdditionalSortID@eCShaderBase@@UEBAEXZ
?GetAdditionalSortID@eCShaderDefault@@UEBAEXZ
?GetAddress@eCEntityProxy@@UEBA?AVbCString@@XZ
?GetAddress@eCEntityStringProxy@@QEBA?AVbCString@@XZ
?GetAddress@eCPropertyProxy@@UEBA?AVbCString@@XZ
?GetAddress@eCPropertySetProxy@@UEBA?AVbCString@@XZ
?GetAddress@eCTemplateEntityProxy@@QEBA?AVbCString@@XZ
?GetAirAbsorptionHF@eCAudioReverbPreset@@QEBAAEBMXZ
?GetAlignRotation@eCVegetationBrush_PS@@QEBAAEB_NXZ
?GetAllStrings@eCLocAdmin2@@QEAA_NAEBVbCUnicodeString@@AEBVbCString@@AEAV?$bTObjArray@VbCUnicodeString@@@@@Z
?GetAlpha@eCColorSrcConstant@@QEBAAEBMXZ
?GetAlpha@eCDecal@@QEBAMXZ
?GetAlphaBlending@eCDX9Device@@UEAA?AW4bEResult@@PEA_N@Z
?GetAlphaCalc@eCGfxTextureBlock@@QEBA?AW4bEResult@@AEAW4eETexOperation@eCGfxShared@@AEAW4eETexArgument@4@1@Z
?GetAlphaDisolve@eCVegetation_Grid@@QEBAAEBVbCVector2@@XZ
?GetAlphaElement@eCFrustumDatabase@@QEBAAEBVeCRenderOp2@@H@Z
?GetAlphaElementCount@eCFrustumDatabase@@QEBAHXZ
?GetAlphaMaterialCollision@eCIterator@@QEBA?AW4eAlphaMaterialCollision@eIterator@@XZ
?GetAlphaReference@eCParticle_PS@@QEBAAEBEXZ
?GetAlphaTest@eCParticle_PS@@QEBAAEB_NXZ
?GetAlphaTesting@eCGfxMaterial@@QEBA?AW4bEResult@@AEAW4eEAlphaTest@eCGfxShared@@AEAUeSGfxAlphaTestData@4@@Z
?GetAlphaWriting@eCDX9Device@@UEAA?AW4bEResult@@PEA_N@Z
?GetAmbientBackLightColor@eCWeatherStates@@QEAAAEAVeCColorScale@@XZ
?GetAmbientBackLightColor@eCWeatherStates@@QEBAAEBVeCColorScale@@XZ
?GetAmbientBackLightColor@eCWeatherZone_PS@@QEBAAEBVbCFloatColor@@XZ
?GetAmbientBackLightOverwrite@eCWeatherZone_PS@@QEBAAEBV?$bTPropertyContainer@W4eEWeatherZoneOverwrite@@@@XZ
?GetAmbientGeneralColor@eCWeatherStates@@QEAAAEAVeCColorScale@@XZ
?GetAmbientGeneralColor@eCWeatherStates@@QEBAAEBVeCColorScale@@XZ
?GetAmbientGeneralColor@eCWeatherZone_PS@@QEBAAEBVbCFloatColor@@XZ
?GetAmbientGeneralOverwrite@eCWeatherZone_PS@@QEBAAEBV?$bTPropertyContainer@W4eEWeatherZoneOverwrite@@@@XZ
?GetAmbientIndoorColor@eCWeatherStates@@QEAAAEAVeCColorScale@@XZ
?GetAmbientIndoorColor@eCWeatherStates@@QEBAAEBVeCColorScale@@XZ
?GetAmbientIntensity@eCWeatherStates@@QEAAAEAVeCFloatScale@@XZ
?GetAmbientIntensity@eCWeatherStates@@QEBAAEBVeCFloatScale@@XZ
?GetAmbientIntensity@eCWeatherZone_PS@@QEBAAEBMXZ
?GetAmbientIntensityOverwrite@eCWeatherZone_PS@@QEBAAEBV?$bTPropertyContainer@W4eEWeatherZoneOverwrite@@@@XZ
?GetAmbientLighting@eCGfxLight@@QEBA?AW4bEResult@@AEAK@Z
?GetAmbientMaterialSrc@eCGfxMaterial@@QEBA?AW4bEResult@@AEAW4eEMaterialColorSrc@eCGfxShared@@@Z
?GetAmbientReflection@eCGfxMaterial@@QEBA?AW4bEResult@@AEAVbCFloatAlphaColor@@@Z
?GetAmplitude@eCTexCoordSrcOscillator@@QEBAAEBVbCVector2@@XZ
?GetAmplitude@eCTexCoordSrcRotator@@QEBAAEBVbCEulerAngles@@XZ
?GetAnchorBottom@eCGuiWindow2@@QEBAAEB_NXZ
?GetAnchorLeft@eCGuiWindow2@@QEBAAEB_NXZ
?GetAnchorMode@eCGuiWindow2@@QEBA?AV?$bTPropertyContainer@W4eEAnchorMode@@@@XZ
?GetAnchorRight@eCGuiWindow2@@QEBAAEB_NXZ
?GetAnchorTop@eCGuiWindow2@@QEBAAEB_NXZ
?GetAngle@eCTexCoordSrcRotator@@QEBAAEBVbCEulerAngles@@XZ
?GetAngularDamping@eCRigidBody_PS@@QEBAAEBMXZ
?GetAngularMomentum@eCRigidBodyBase_PS@@UEBA?AVbCVector@@XZ
?GetAngularMomentum@eCRigidBody_PS@@UEBA?AVbCVector@@XZ
?GetAngularVelocity@eCRigidBodyBase_PS@@UEBA?AVbCVector@@XZ
?GetAngularVelocity@eCRigidBody_PS@@UEBA?AVbCVector@@XZ
?GetAniExtroBlending@eCAnimation2Admin@@QEBAMAEAVbCString@@@Z
?GetAniIntroBlending@eCAnimation2Admin@@QEBAMAEAVbCString@@@Z
?GetAnimation@eCMover_PS@@QEBAPEAVeCMoverAnimationBase@@AEBVbCString@@@Z
?GetAnimationAt@eCMover_PS@@QEBAPEAVeCMoverAnimationBase@@H@Z
?GetAnimationCount@eCMover_PS@@QEBAHXZ
?GetAnimationFileName@eCMoverAnimationFile@@QEBAAEBVbCString@@XZ
?GetAnimationFileName@eCMoverAnimationSkeletal@@QEBAAEBVbCString@@XZ
?GetAnimationIndex@eCMover_PS@@QEBAHAEBVbCString@@@Z
?GetAnimationIndex@eCMover_PS@@QEBAHPEAVeCMoverAnimationBase@@@Z
?GetAnimationLength@eCColorSrcConstantAnimation@@QEBAAEBMXZ
?GetAnimationPS@eCActorAttachment@@QEBAPEAVeCAnimation_PS@@XZ
?GetAnimationRenderHook@eCMotionActorResource2@@QEBAPEAVeCAnimation_HardRenderActor2@@XZ
?GetAnimationSpeed@eCColorSrcSampler@@QEBAAEBMXZ
?GetAppState@eCApplication@@QEBAKXZ
?GetAppStateTimeStamp@eCApplication@@QEBAKXZ
?GetApplicationFileName@eCApplication@@QEAA?AVbCString@@XZ
?GetApplicationVersionString@eCApplication@@QEAA?AVbCString@@XZ
?GetArea@eCPortal@@QEBAMXZ
?GetAreaBox@eCArea_StringProperty_PS@@QEBAAEBVbCRange3@@XZ
?GetAreaStringPropertyPSList@eCAreaAdmin@@QEAAAEBV?$bTValArray@PEAVeCArea_StringProperty_PS@@@@XZ
?GetAspectRatio@eCCameraBase@@QEBAAEBMXZ
?GetAspectRatio@eCColorSrcCamObstacle@@QEBAAEBMXZ
?GetAttachedCameraStates@eCGfxCamera@@QEBA?AW4bEResult@@AEAPEAVeCGfxCameraStates@@@Z
?GetAttachedFirstEffect@eCGfxShader@@QEBA?AW4bEResult@@AEAPEAVeCGfxEffect@@@Z
?GetAttachedImageData@eCGfxTextureBlock@@QEBA?AW4bEResult@@AEAPEAVeCGfxImageData@@@Z
?GetAttachedIndexData@eCGfxVisual@@QEBA?AW4bEResult@@AEAPEAVeCGfxIndexData@@@Z
?GetAttachedMasterCamera@eCGfxMixerAdmin@@QEBA?AW4bEResult@@AEAPEAVeCGfxCamera@@@Z
?GetAttachedMasterCameraStates@eCGfxMixerAdmin@@QEBA?AW4bEResult@@AEAPEAVeCGfxCameraStates@@@Z
?GetAttachedMasterEffect@eCGfxMixerAdmin@@QEBA?AW4bEResult@@AEAPEAVeCGfxEffect@@@Z
?GetAttachedMasterFog@eCGfxMixerAdmin@@QEBA?AW4bEResult@@AEAPEAVeCGfxFog@@@Z
?GetAttachedMasterImageData@eCGfxMixerAdmin@@QEBA?AW4bEResult@@KAEAPEAVeCGfxImageData@@@Z
?GetAttachedMasterLight@eCGfxMixerAdmin@@QEBA?AW4bEResult@@AEAPEAVeCGfxLight@@@Z
?GetAttachedMasterMaterial@eCGfxMixerAdmin@@QEBA?AW4bEResult@@AEAPEAVeCGfxMaterial@@@Z
?GetAttachedMasterPixelProgram@eCGfxMixerAdmin@@QEBA?AW4bEResult@@AEAPEAVeCGfxPixelProgram@@@Z
?GetAttachedMasterShader@eCGfxMixerAdmin@@QEBA?AW4bEResult@@AEAPEAVeCGfxShader@@@Z
?GetAttachedMasterTextureBlock@eCGfxMixerAdmin@@QEBA?AW4bEResult@@KAEAPEAVeCGfxTextureBlock@@@Z
?GetAttachedMasterVertexProgram@eCGfxMixerAdmin@@QEBA?AW4bEResult@@AEAPEAVeCGfxVertexProgram@@@Z
?GetAttachedMaterial@eCGfxShader@@QEBA?AW4bEResult@@AEAPEAVeCGfxMaterial@@@Z
?GetAttachedPixelProgram@eCGfxShader@@QEBA?AW4bEResult@@AEAPEAVeCGfxPixelProgram@@@Z
?GetAttachedSecondEffect@eCGfxShader@@QEBA?AW4bEResult@@AEAPEAVeCGfxEffect@@@Z
?GetAttachedShader@eCGfxVisual@@QEBA?AW4bEResult@@AEAPEAVeCGfxShader@@@Z
?GetAttachedTextureBlock@eCGfxMaterial@@QEBA?AW4bEResult@@KAEAPEAVeCGfxTextureBlock@@@Z
?GetAttachedVertexData@eCGfxVisual@@QEBA?AW4bEResult@@KAEAPEAVeCGfxVertexData@@@Z
?GetAttachedVertexDecl@eCGfxVisual@@QEBA?AW4bEResult@@AEAPEAVeCGfxVertexDecl@@@Z
?GetAttachedVertexProgram@eCGfxShader@@QEBA?AW4bEResult@@AEAPEAVeCGfxVertexProgram@@@Z
?GetAttenuations@eCPointLight_PS@@QEAAXAEAM00@Z
?GetAttributes@eCArchiveFile@@QEBAKXZ
?GetAttributesFromNode@eCConfigAdmin@@QEAA_NAEAV?$bTObjArray@UeSCfgKeyValuePair@@@@AEBVbCString@@@Z
?GetAudibility@eCAudioChannel@@QEBAMXZ
?GetAudioListenerSpace@eCCameraBase@@QEBAAEBVbCMatrix@@XZ
?GetAudioReverbSpace@eCCameraBase@@QEBAAEBVbCMatrix@@XZ
?GetAuto@eCGuiButton2@@QEBA_NXZ
?GetAuto@eCGuiRadioButton2@@QEBA_NXZ
?GetAutoFocus@eCGuiWindow2@@QEBAAEB_NXZ
?GetAutoKeyFrameAnimation@eCMover_PS@@QEBAHXZ
?GetAutoKeyFrameTime@eCMover_PS@@QEBAMXZ
?GetAutoKeyFraming@eCMover_PS@@QEBA?AW4eEAnimationUpdate@@XZ
?GetAutoReset@eCAudioEmitter_PS@@QEBAAEB_NXZ
?GetAutoReset@eCParticle_PS@@QEBAAEB_NXZ
?GetAutoSize@eCGuiWindow2@@QEBAAEB_NXZ
?GetAutoTics@eCGuiTrackBar2@@QEBA_NXZ
?GetAutomaticSpawning@eCParticle_PS@@QEBAAEB_NXZ
?GetAuxBuffer@eCDX9Device@@UEAA?AW4bEResult@@PEAXPEAPEAXPEAK@Z
?GetAuxBuffer@eCGfxAssistantAdmin@@QEBA?AW4bEResult@@W4eEAuxBufferType@eCGfxShared@@PEAPEAXAEAK@Z
?GetAverageFrameTime@eCTimer@@QEBAMXZ
?GetAvgCollisionPosition@eCContactIterator@@QEAAAEAVbCVector@@XZ
?GetAxis@eCMoverAnimationRotate@@QEBAAEBVbCEulerAngles@@XZ
?GetAziElev@eCGeometryEntity@@QEBAXAEBVbCVector@@AEAM1@Z
?GetBHWindAngle@eCSpeedTreeWind_PS@@QEBAAEBVbCVector2@@XZ
?GetBHWindSpeed@eCSpeedTreeWind_PS@@QEBAAEBVbCVector2@@XZ
?GetBRDFLightingType@eCShaderDefault@@QEBAAEBV?$bTPropertyContainer@W4eEShaderMaterialBRDFType@@@@XZ
?GetBVWindAngle@eCSpeedTreeWind_PS@@QEBAAEBVbCVector2@@XZ
?GetBVWindSpeed@eCSpeedTreeWind_PS@@QEBAAEBVbCVector2@@XZ
?GetBackBuffer@eCDX9Device@@UEAA?AW4bEResult@@PEAPEAX0@Z
?GetBackBuffer@eCGfxMixerAdmin@@QEBA?AW4bEResult@@AEAPEAX0@Z
?GetBackLight@eCHemisphere_PS@@QEBAAEBVbCFloatColor@@XZ
?GetBackLightAxisDirectionOffset@eCHemisphere_PS@@QEBAAEBVbCEulerAngles@@XZ
?GetBackfaceThreshold@eCDecal_PS@@QEBAAEBMXZ
?GetBackgroundBlendMode@eCGuiLayeredImage2@@QEBAAEBV?$bTPropertyContainer@W4eEImageLayerBlend@@@@XZ
?GetBackgroundImage@eCGuiLayeredImage2@@IEBA?AVbCString@@XZ
?GetBaseMatrix@eCMover_PS@@QEBAAEBVbCMatrix@@XZ
?GetBeamTree@eCFrustumFilter@@QEAAAEAVeCBeamTree@@XZ
?GetBeamTree@eCFrustumFilter@@QEBAAEBVeCBeamTree@@XZ
?GetBias@eCColorSrcCamDistance@@QEBAAEBMXZ
?GetBias@eCColorSrcFresnel@@QEBAAEBMXZ
?GetBillboard@eCIteratorPrimitiveBillboard@@QEAAAEAVeCBillboard@@XZ
?GetBillboard@eCIteratorPrimitiveBillboard@@QEBAAEBVeCBillboard@@XZ
?GetBillboardCount@eCBillboard@@QEBAHXZ
?GetBillboardCount@eCBillboard_PS@@QEBAAEBHXZ
?GetBillboardCount@eCSkyObject@@QEBAHXZ
?GetBillboardFadeValues@eCWraper_SpeedTreeRT@@QEAAXAEAM0@Z
?GetBillboardGeometry@eCWraper_SpeedTreeRT@@QEAAXAEAUSGeometry@CSpeedTreeRT@@@Z
?GetBillboardRenderCount@eCSkyObject@@QEBAKXZ
?GetBillboards@eCSkyObject@@QEBAAEBV?$bTValArray@UeSSkyObjectBillboard@eCSkyObject@@@@XZ
?GetBinPath@eCVirtualFileSystem@@QEAA?AVbCString@@XZ
?GetBitmap@eCDeferredGuiBitmap2@@QEBAPEAVeCGuiBitmap2@@XZ
?GetBitmap@eCGuiBitmapProxy2@@QEBAPEAVeCDeferredGuiBitmap2@@XZ
?GetBitmap@eCLightmapBitmap@@QEAAPEAKH@Z
?GetBitmap@eCLightmapBitmap@@QEBAPEBKH@Z
?GetBitmapCache@eCGuiBitmap2@@QEBAPEAVeCGuiBitmapCache2@@XZ
?GetBitmapCache@eCGuiImageCollection2@@QEBAPEAVeCGuiBitmapCache2@@XZ
?GetBitmapListName@eCGuiBitmapList2@@QEBAAEBVbCString@@XZ
?GetBitmapNameA@eCDeferredGuiBitmap2@@UEBA?AVbCString@@XZ
?GetBitmapNameA@eCGuiBaseBitmap2@@UEBA?AVbCString@@XZ
?GetBitmapNameA@eCGuiBitmap2@@UEBA?AVbCString@@XZ
?GetBitmapNameA@eCGuiImage2@@UEBA?AVbCString@@XZ
?GetBitmapNameA@eCGuiTexture2@@UEBA?AVbCString@@XZ
?GetBitmapNameW@eCDeferredGuiBitmap2@@UEBA?AVbCUnicodeString@@XZ
?GetBitmapNameW@eCGuiBaseBitmap2@@UEBA?AVbCUnicodeString@@XZ
?GetBitmapNameW@eCGuiBitmap2@@UEBA?AVbCUnicodeString@@XZ
?GetBitmapNameW@eCGuiImage2@@UEBA?AVbCUnicodeString@@XZ
?GetBitmapNameW@eCGuiTexture2@@UEBA?AVbCUnicodeString@@XZ
?GetBitmapRect@eCDeferredGuiBitmap2@@UEBA_NAEAUtagRECT@@@Z
?GetBitmapRect@eCGuiBaseBitmap2@@UEBA_NAEAUtagRECT@@@Z
?GetBitmapRect@eCGuiImage2@@UEBA_NAEAUtagRECT@@@Z
?GetBitmapRect@eCGuiTexture2@@UEBA_NAEAUtagRECT@@@Z
?GetBitmapSize@eCLightmapBitmap@@QEBAKXZ
?GetBitmaps@eCGuiBitmapList2@@QEBAAEBV?$bTObjArray@VeCGuiBitmapProxy2@@@@XZ
?GetBlendAdditive@eCMoverAnimationBase@@QEBAAEB_NXZ
?GetBlendBetweenSubdivisions@eCParticle_PS@@QEBAAEB_NXZ
?GetBlendFactor@eCWeatherStates@@QEBAMXZ
?GetBlendFactor@eCWeatherZone_PS@@QEBAMAEBVbCVector@@@Z
?GetBlendMode@eCBillboard_PS@@QEBAAEBV?$bTPropertyContainer@W4eEShaderMaterialBlendMode@@@@XZ
?GetBlendMode@eCGuiImage2@@QEBAAEBV?$bTPropertyContainer@W4eEImageBlend@@@@XZ
?GetBlendMode@eCShaderBase@@QEBAAEBV?$bTPropertyContainer@W4eEShaderMaterialBlendMode@@@@XZ
?GetBlendSrc@eCColorSrcBlend@@QEAAAEAVeCColorSrcProxy@@XZ
?GetBlendTime@eCMoverAnimationBase@@QEBAAEBMXZ
?GetBlending@eCGfxMaterial@@QEBA?AW4bEResult@@AEAW4eEBlending@eCGfxShared@@0@Z
?GetBloomIntensity@eCWeatherAdmin@@QEBAMXZ
?GetBloomIntensity@eCWeatherStates@@QEAAAEAVeCFloatScale@@XZ
?GetBloomIntensity@eCWeatherStates@@QEBAAEBVeCFloatScale@@XZ
?GetBloomOffset@eCWeatherAdmin@@QEBAMXZ
?GetBloomOffset@eCWeatherStates@@QEAAAEAVeCFloatScale@@XZ
?GetBloomOffset@eCWeatherStates@@QEBAAEBVeCFloatScale@@XZ
?GetBloomThreshold@eCWeatherAdmin@@QEBAMXZ
?GetBloomThreshold@eCWeatherStates@@QEAAAEAVeCFloatScale@@XZ
?GetBloomThreshold@eCWeatherStates@@QEBAAEBVeCFloatScale@@XZ
?GetBodyFlag@eCRigidBody_PS@@QEBAAEBV?$bTPropertyContainer@W4eERigidbody_Flag@@@@XZ
?GetBodyPart@eCAnimation_PS@@QEAAPEAVeCBodyPart_PS@@H@Z
?GetBodyPartActorWrapper@eCAnimation_PS@@QEAAPEAVeCWrapper_emfx3ActorInstance@@H@Z
?GetBone@eCContactIterator@@QEAAAEBVbCString@@XZ
?GetBoneIndex@eCContactIterator@@QEAA?BHXZ
?GetBoneMatrix@eCAnimation_PS@@QEAA_NAEBVbCString@@AEAVbCMatrix@@@Z
?GetBoneMatrix@eCAnimation_PS@@QEAA_NHAEAVbCMatrix@@@Z
?GetBoneName@eCWrapper_emfx3ActorInstance@@QEBA?AVbCString@@H@Z
?GetBoneOrientation@eCPhysicObject@@QEAA?AVbCQuaternion@@KM@Z
?GetBonePosition@eCPhysicObject@@QEAA?AVbCVector@@KM@Z
?GetBool@eCConfigFile@@QEBA_NAEBVbCString@@0@Z
?GetBool@eCConfigFile@@QEBA_NAEBVbCString@@0_N@Z
?GetBool@eCUnicodeConfigFile@@QEBA_NAEBVbCUnicodeString@@0@Z
?GetBool@eCUnicodeConfigFile@@QEBA_NAEBVbCUnicodeString@@0_N@Z
?GetBoolArray@eCDX9Effect@@UEAA?AW4bEResult@@QEAX0I@Z
?GetBorder@eCGuiWindow2@@QEBA_NXZ
?GetBorderExtent@eCGuiWindow2@@QEBA?AVbCRect@@XZ
?GetBounceTreshold@eCPhysicsScene_PS@@QEBAAEBMXZ
?GetBoundary@eCAnimation_PS@@UEAAXAEAVbCBox@@_N@Z
?GetBoundary@eCArea_StringProperty_PS@@MEAAXAEAVbCBox@@_N@Z
?GetBoundary@eCAudioEmitter_PS@@MEAAXAEAVbCBox@@_N@Z
?GetBoundary@eCBillboard_PS@@UEAAXAEAVbCBox@@_N@Z
?GetBoundary@eCBodyPart_PS@@QEAAXAEAVbCBox@@@Z
?GetBoundary@eCCollisionMeshResource2@@QEBAAEBVbCBox@@XZ
?GetBoundary@eCCollisionShape_PS@@UEAAXAEAVbCBox@@_N@Z
?GetBoundary@eCDecal_PS@@UEAAXAEAVbCBox@@_N@Z
?GetBoundary@eCDirectionalLight_PS@@MEAAXAEAVbCBox@@_N@Z
?GetBoundary@eCEditorEntityPropertySet@@UEAAXAEAVbCBox@@_N@Z
?GetBoundary@eCEntityPropertySet@@UEAAXAEAVbCBox@@_N@Z
?GetBoundary@eCHemisphere_PS@@MEAAXAEAVbCBox@@_N@Z
?GetBoundary@eCLightStreaks_PS@@UEAAXAEAVbCBox@@_N@Z
?GetBoundary@eCMeshResource2@@QEBAAEBVbCBox@@XZ
?GetBoundary@eCMesh_PS@@UEAAXAEAVbCBox@@_N@Z
?GetBoundary@eCMotionActorResource2@@QEBAAEBVbCBox@@XZ
?GetBoundary@eCMoverAnimationBase@@UEAAXAEAVbCBox@@@Z
?GetBoundary@eCMoverAnimationKFBase@@UEAAXAEAVbCBox@@@Z
?GetBoundary@eCMoverAnimationRotate@@UEAAXAEAVbCBox@@@Z
?GetBoundary@eCMover_PS@@UEAAXAEAVbCBox@@_N@Z
?GetBoundary@eCOccluder_PS@@UEAAXAEAVbCBox@@_N@Z
?GetBoundary@eCParticle_PS@@UEAAXAEAVbCBox@@_N@Z
?GetBoundary@eCPointLight_PS@@MEAAXAEAVbCBox@@_N@Z
?GetBoundary@eCPortalRoom_PS@@UEAAXAEAVbCBox@@_N@Z
?GetBoundary@eCPrecipitation_PS@@MEAAXAEAVbCBox@@_N@Z
?GetBoundary@eCRigidBody_PS@@UEAAXAEAVbCBox@@_N@Z
?GetBoundary@eCSkydome_PS@@MEAAXAEAVbCBox@@_N@Z
?GetBoundary@eCSpeedTreeBBMesh_PS@@UEAAXAEAVbCBox@@_N@Z
?GetBoundary@eCSpeedTreeResource2@@QEBAAEBVbCBox@@XZ
?GetBoundary@eCSpeedTreeWind_PS@@UEAAXAEAVbCBox@@_N@Z
?GetBoundary@eCSpeedTree_PS@@UEAAXAEAVbCBox@@_N@Z
?GetBoundary@eCStaticAmbientLight_PS@@MEAAXAEAVbCBox@@_N@Z
?GetBoundary@eCStaticPointLight_PS@@MEAAXAEAVbCBox@@_N@Z
?GetBoundary@eCStrip_PS@@UEAAXAEAVbCBox@@_N@Z
?GetBoundary@eCVegetationBrush_PS@@MEAAXAEAVbCBox@@_N@Z
?GetBoundary@eCVegetation_PS@@MEAAXAEAVbCBox@@_N@Z
?GetBoundary@eCWeatherZone_PS@@MEAAXAEAVbCBox@@_N@Z
?GetBoundary@eCWraper_SpeedTreeRT@@QEAAXAEAVbCBox@@@Z
?GetBoundary@eCWrapper_emfx3ActorInstance@@QEBA_NAEAVbCBox@@@Z
?GetBoundingBox@eCAOTreeNode@eCAmbientOcclusionPreprocessor@@QEBAAEBVbCBox@@XZ
?GetBoundingBox@eCVegetation_Grid@@QEBAAEBVbCBox@@XZ
?GetBoundingBox@eCVegetation_GridNode@@QEBAAEBVbCBox@@XZ
?GetBoundingRect@eCGlyphOutline@@QEBA?AUtagRECT@@XZ
?GetBoundingSphere@eCStaticAmbientLight_PS@@UEBAXAEAVbCSphere@@@Z
?GetBoundingSphere@eCStaticLight_PS@@UEBAXAEAVbCSphere@@@Z
?GetBoundingSphere@eCStaticPointLight_PS@@UEBAXAEAVbCSphere@@@Z
?GetBox@eCCollisionShape@@QEAAAEAVbCOrientedBox@@XZ
?GetBox@eCCollisionShape@@QEBAAEBVbCOrientedBox@@XZ
?GetBoxBlendFactor@eCWeatherZone_PS@@IEBAMAEBVbCVector@@@Z
?GetBoxShape@eCAudioEmitter_PS@@QEBAAEBVbCBox@@XZ
?GetBranchExponent@eCSpeedTreeWind_PS@@QEBAAEBMXZ
?GetBranchFrondVertexDecl@eCSpeedTreeAdmin@@QEAAPEAVeCGfxVertexDecl@@XZ
?GetBuffer@eCPhysicObject@@QEAAAEAVeCPhysicObjectStateBuffer@@XZ
?GetBuffer@eCPhysicObject@@QEBAAEBVeCPhysicObjectStateBuffer@@XZ
?GetBuffer@eCPhysicObjectStateBuffer@@SAAEAV1@AEAVeCGeometryEntity@@@Z
?GetBuffer@eCResourceInputStream2@@QEAAPEBXXZ
?GetBufferDescription@eCGfxIndexData@@QEBA?AW4bEResult@@AEAUeSGfxIndexBufDesc@eCGfxShared@@@Z
?GetBufferDescription@eCGfxVertexData@@QEBA?AW4bEResult@@AEAUeSGfxVertexBufDesc@eCGfxShared@@@Z
?GetBurnedOverlayMaterial@eCShaderBase@@QEBAPEAVeCMaterialResource2@@XZ
?GetBurnedOverlayMaterialName@eCShaderBase@@QEBA?AVbCString@@XZ
?GetButton@eCGuiButton2@@IEBAPEAVCFXButton@@XZ
?GetCCDMotionTreshold@eCRigidBody_PS@@QEBAAEBMXZ
?GetCPUUsage@eCAudioSystem@@QEBA?AW4eEAudioResult@@AEAM000@Z
?GetCacheFrame@eCResource2@@QEBAIXZ
?GetCacheInRange@eCGeometryEntity@@QEBAMXZ
?GetCacheRange@eCVegetation_Grid@@QEBAMXZ
?GetCacheType@eCGuiBitmap2@@QEBA?AW4eEGuiCache@@XZ
?GetCacheType@eCGuiCursor2@@QEBA?AW4eEGuiCache@@XZ
?GetCacheType@eCGuiImageCollection2@@QEBA?AW4eEGuiCache@@XZ
?GetCachedRenderState@eCDX9Device@@QEAAJW4_D3DRENDERSTATETYPE@@PEAK@Z
?GetCachedRenderStates@eCDX9Device@@QEAAXXZ
?GetCachedSamplerStates@eCDX9Device@@QEAAXXZ
?GetCachedStates@eCDX9Device@@QEAAXXZ
?GetCallback@eCGenericEntityListener_PS@@QEBAP6AXPEAVeCEntity@@W4eEEvent@eSEntityListenerEvent@@PEAX2@ZXZ
?GetCamera@eCFrustumDatabase@@QEBAPEAVeCCameraBase@@XZ
?GetCamera@eCFrustumFilter@@QEAAPEAVeCCameraBase@@XZ
?GetCamera@eCFrustumFilter@@QEBAPEBVeCCameraBase@@XZ
?GetCamera@eCIterator@@QEBAPEAVeCCameraBase@@XZ
?GetCameraZProj@eCFrustumFilter@@QEBAAEBVbCVector4@@XZ
?GetCaps@eCFrustumDatabase@@QEAAAEAUeSCaps@1@XZ
?GetCaps@eCFrustumDatabase@@QEBAAEBUeSCaps@1@XZ
?GetCapsule@eCCollisionShape@@QEAAAEAVbCCapsule@@XZ
?GetCapsule@eCCollisionShape@@QEBAAEBVbCCapsule@@XZ
?GetCaption@eCGuiFrame2@@QEBA_NXZ
?GetCascadeShadowMap@eCIlluminationAdmin@@QEBAPEAVeCCascadeShadowMap@@XZ
?GetCascadeShadowMap@eCImageFilterShadowMask@@QEBAPEAVeCCascadeShadowMap@@XZ
?GetCastDirLightShadows@eCIlluminated_PS@@QEBAAEB_NXZ
?GetCastDirLightShadowsOverwrite@eCIlluminated_PS@@QEBAAEBV?$bTPropertyContainer@W4eEBoolOverwrite@@@@XZ
?GetCastDynamicShadows@eCStaticPointLight_PS@@QEBAAEB_NXZ
?GetCastPntLightShadows@eCIlluminated_PS@@QEBAAEB_NXZ
?GetCastPntLightShadowsOverwrite@eCIlluminated_PS@@QEBAAEBV?$bTPropertyContainer@W4eEBoolOverwrite@@@@XZ
?GetCastShadows@eCPointLight_PS@@QEBAAEB_NXZ
?GetCastShadows@eCStaticAmbientLight_PS@@QEBAAEB_NXZ
?GetCastShadows@eCStaticPointLight_PS@@QEBAAEB_NXZ
?GetCastStaticShadows@eCIlluminated_PS@@QEBAAEB_NXZ
?GetCastStaticShadowsOverwrite@eCIlluminated_PS@@QEBAAEBV?$bTPropertyContainer@W4eEBoolOverwrite@@@@XZ
?GetCell@eCPortal@@QEBAPEAVeCPortalCell_PS@@XZ
?GetCellCount@eCVegetation_Grid@@QEBAHXZ
?GetCellProxy@eCPortal@@QEBAAEBVeCEntityProxy@@XZ
?GetCells@eCPackedShadowMap@@QEBAAEBV?$bTValArray@UeSShadowMapCell@eCPackedShadowMap@@@@XZ
?GetCenter@eCBillboard_PS@@QEBAAEBVbCVector2@@XZ
?GetCenter@eCCollisionShape@@QEAAAEAVbCVector@@XZ
?GetCenter@eCCollisionShape@@QEBAAEBVbCVector@@XZ
?GetCenterOfGravity@eCRigidBodyBase_PS@@UEBA?AVbCVector@@XZ
?GetCenterOfGravity@eCRigidBody_PS@@UEBA?AVbCVector@@XZ
?GetCenterOfMass@eCRigidBody_PS@@QEBAAEBVbCVector@@XZ
?GetCenterVariation@eCBillboard_PS@@QEBAAEBVbCVector2@@XZ
?GetChannelCounts@eCAudioSystem@@QEBA?AW4eEAudioResult@@AEAH00@Z
?GetChannelGroup@eCAudioModule@@QEBAPEAVeCAudioChannelGroup@@W4eEAudioChannelGroup@@@Z
?GetChannelGroupPriority@eCAudioModule@@QEBAEW4eEAudioChannelGroup@@@Z
?GetCharRectA@eCFixedGuiBitmapFont2@@QEBA_NDAEAUtagRECT@@UtagPOINT@@@Z
?GetCharRectW@eCFixedGuiBitmapFont2@@QEBA_N_WAEAUtagRECT@@UtagPOINT@@@Z
?GetCharSet@eCGuiSystemFont2@@QEBAEXZ
?GetCharSet@eCGuiSystemFontDesc2@@QEBAEXZ
?GetCharSize@eCFixedGuiBitmapFont2@@QEBAAEBVbCPoint@@XZ
?GetCheckState@eCGuiButton2@@QEBA?AV?$bTPropertyContainer@W4eECheckState@@@@XZ
?GetCheckSum@eCLightSet@@QEBAKXZ
?GetChecked@eCButtonEventArgs@@QEBA_NXZ
?GetChildByActor@eCAnimation_PS@@QEAAPEAV1@PEAVNxActor@@@Z
?GetChildIterator@eCNode@@QEBA?AVeCIterator@1@XZ
?GetCircleBlendFactor@eCWeatherZone_PS@@IEBAMAEBVbCVector@@@Z
?GetClassCompiledExt@eCCollisionMeshResource2@@SA?AVbCString@@XZ
?GetClassCompiledExt@eCImageResource2@@SA?AVbCString@@XZ
?GetClassCompiledExt@eCMaterialResource2@@SA?AVbCString@@XZ
?GetClassCompiledExt@eCMeshResource2@@SA?AVbCString@@XZ
?GetClassCompiledExt@eCMotionActorResource2@@SA?AVbCString@@XZ
?GetClassCompiledExt@eCMotionResource2@@SA?AVbCString@@XZ
?GetClassCompiledExt@eCSoundResource2@@SA?AVbCString@@XZ
?GetClassCompiledExt@eCSpeedTreeResource2@@SA?AVbCString@@XZ
?GetClassDataRevision@eCCollisionMeshResource2@@SAKXZ
?GetClassDataRevision@eCImageResource2@@SAKXZ
?GetClassDataRevision@eCMaterialResource2@@SAKXZ
?GetClassDataRevision@eCMeshResource2@@SAKXZ
?GetClassDataRevision@eCMotionActorResource2@@SAKXZ
?GetClassDataRevision@eCMotionResource2@@SAKXZ
?GetClassDataRevision@eCSoundResource2@@SAKXZ
?GetClassDataRevision@eCSpeedTreeResource2@@SAKXZ
?GetClassRawExt@eCAudioReverbPreset@@SA?AVbCString@@XZ
?GetClassRawExt@eCAudioRollOffPreset@@SA?AVbCString@@XZ
?GetClassRawExt@eCGuiCursor2@@SA?AVbCString@@XZ
?GetClassRawExt@eCGuiFont2@@SA?AVbCString@@XZ
?GetClassRawExt@eCGuiFrame2@@SA?AVbCString@@XZ
?GetClassRawExt@eCGuiImageCollection2@@SA?AVbCString@@XZ
?GetClassRawExt@eCGuiResource2@@SA?AVbCString@@XZ
?GetClassRawExt@eCGuiWindow2@@SA?AVbCString@@XZ
?GetClassRawExt@eCImageEffect@@SA?AVbCString@@XZ
?GetClassRawPath@eCAudioReverbPreset@@SA?AVbCString@@XZ
?GetClassRawPath@eCAudioRollOffPreset@@SA?AVbCString@@XZ
?GetClassRawPath@eCGuiCursor2@@SA?AVbCString@@XZ
?GetClassRawPath@eCGuiFont2@@SA?AVbCString@@XZ
?GetClassRawPath@eCGuiFrame2@@SA?AVbCString@@XZ
?GetClassRawPath@eCGuiImageCollection2@@SA?AVbCString@@XZ
?GetClassRawPath@eCGuiResource2@@SA?AVbCString@@XZ
?GetClassRawPath@eCGuiWindow2@@SA?AVbCString@@XZ
?GetClassRawPath@eCImageEffect@@SA?AVbCString@@XZ
?GetClearColor@eCImageFilterShadowMask@@QEBAAEBKXZ
?GetClientHeight@eCWindow@@QEBAHXZ
?GetClientRect@eCGuiWindow2@@QEBA_NAEAVbCRect@@@Z
?GetClientWidth@eCWindow@@QEBAHXZ
?GetClipDepth@eCCameraBase@@QEBAAEBVbCVector2@@XZ
?GetClipPlane@eCGfxMixerAdmin@@QEBA?AW4bEResult@@KAEA_N@Z
?GetClipPlaneData@eCDX9Device@@UEAA?AW4bEResult@@KAEAUeSGfxPlaneData@eCGfxShared@@@Z
?GetClipPlaneData@eCGfxMixerAdmin@@QEBA?AW4bEResult@@KAEAUeSGfxPlaneData@eCGfxShared@@@Z
?GetClipPrecision@eCGuiSystemFont2@@QEBAEXZ
?GetClipPrecision@eCGuiSystemFontDesc2@@QEBAEXZ
?GetClipProjection@eCCameraBase@@QEBAAEBVbCVector2@@XZ
?GetClippingEnables@eCDX9Device@@UEAA?AW4bEResult@@AEA_N@Z
?GetClippingEnables@eCGfxMixerAdmin@@QEBA?AW4bEResult@@AEA_N@Z
?GetCloudColor@eCShaderSkyDome@@QEBAAEBVbCFloatAlphaColor@@XZ
?GetCloudColor@eCSkydome_PS@@QEBAAEBVbCFloatColor@@XZ
?GetCloudColor@eCWeatherStates@@QEAAAEAVeCColorScale@@XZ
?GetCloudColor@eCWeatherStates@@QEBAAEBVeCColorScale@@XZ
?GetCloudColor@eCWeatherZone_PS@@QEBAAEBVbCFloatColor@@XZ
?GetCloudColorOverwrite@eCWeatherZone_PS@@QEBAAEBV?$bTPropertyContainer@W4eEWeatherZoneOverwrite@@@@XZ
?GetCloudDirection@eCSkydome_PS@@QEBAAEBVbCVector2@@XZ
?GetCloudSize1@eCSkydome_PS@@QEBAAEBMXZ
?GetCloudSize2@eCSkydome_PS@@QEBAAEBMXZ
?GetCloudTexture1@eCSkydome_PS@@QEBAAEBVbCImageResourceString@@XZ
?GetCloudTexture2@eCSkydome_PS@@QEBAAEBVbCImageResourceString@@XZ
?GetCloudThickness@eCSkydome_PS@@QEBAAEBMXZ
?GetCloudThickness@eCWeatherStates@@QEAAAEAVeCFloatScale@@XZ
?GetCloudThickness@eCWeatherStates@@QEBAAEBVeCFloatScale@@XZ
?GetCloudThickness@eCWeatherZone_PS@@QEBAAEBMXZ
?GetCloudThicknessrOverwrite@eCWeatherZone_PS@@QEBAAEBV?$bTPropertyContainer@W4eEWeatherZoneOverwrite@@@@XZ
?GetCollideWithCharacters@eCParticle_PS@@QEBAAEB_NXZ
?GetCollideWithDynamic@eCParticle_PS@@QEBAAEB_NXZ
?GetCollideWithStatic@eCParticle_PS@@QEBAAEB_NXZ
?GetCollideWithTransparent@eCParticle_PS@@QEBAAEB_NXZ
?GetCollisionDescType@eCAnimationCollisionDesc@@UEAA?AW4eECollisionDescType@eCCollisionDesc@@XZ
?GetCollisionDescType@eCCollisionDesc@@UEAA?AW4eECollisionDescType@1@XZ
?GetCollisionDescType@eCCollisionDescMesh@@UEAA?AW4eECollisionDescType@eCCollisionDesc@@XZ
?GetCollisionDescType@eCPrimitiveCollisionDesc@@UEAA?AW4eECollisionDescType@eCCollisionDesc@@XZ
?GetCollisionDescType@eCSpeedTreeCollisionDesc@@UEAA?AW4eECollisionDescType@eCCollisionDesc@@XZ
?GetCollisionEntity@eCIteratorReport@@QEAAPEAVeCEntity@@XZ
?GetCollisionEntity@eCIteratorReport@@QEBAPEBVeCEntity@@XZ
?GetCollisionGroupEnumByString@eCPhysicsScene_PS@@QEBA?AW4eECollisionGroup@@VbCString@@@Z
?GetCollisionGroupNotifications@eCPhysicsScene@@QEBA?AVeCCollisionPairNotification@@W4eECollisionGroup@@0@Z
?GetCollisionGroupNotifications@eCPhysicsScene_PS@@QEBA?AVeCCollisionPairNotification@@W4eECollisionGroup@@0@Z
?GetCollisionGroupStringByEnum@eCPhysicsScene_PS@@QEBA?AVbCString@@W4eECollisionGroup@@@Z
?GetCollisionGroupsCanCollide@eCPhysicsScene@@QEBA_NW4eECollisionGroup@@0@Z
?GetCollisionGroupsNotifyFlags@eCPhysicsScene@@QEBAKW4eECollisionGroup@@0@Z
?GetCollisionMesh@eCResource2@@SAPEAVeCCollisionMeshResource2@@AEBVbCString@@@Z
?GetCollisionPSReport@eCIteratorReport@@QEAAPEAVeCCollisionDesc@@XZ
?GetCollisionPSReport@eCIteratorReport@@QEBAPEBVeCCollisionDesc@@XZ
?GetCollisionPropertySet@eCIteratorReport@@QEBAPEBVbCObjectRefBase@@XZ
?GetCollisionShapeCount@eCWraper_SpeedTreeRT@@QEBAHXZ
?GetCollisionType@eCContactIterator@@QEAA?AW4eEPropertySetType@@XZ
?GetColor@SItem@eCColorScale@@QEBA?AVbCFloatAlphaColor@@XZ
?GetColor@eCColorSrcConstant@@QEBAAEBVbCFloatColor@@XZ
?GetColor@eCDirectionalLight_PS@@QEBAAEBVbCFloatColor@@XZ
?GetColor@eCIteratorPrimitiveLineList@@QEBAKXZ
?GetColor@eCIteratorPrimitiveTriangleList@@QEBAKXZ
?GetColor@eCPointLight_PS@@QEBAAEBVbCFloatColor@@XZ
?GetColor@eCStaticAmbientLight_PS@@QEBAAEBVbCFloatColor@@XZ
?GetColor@eCStaticPointLight_PS@@QEBAAEBVbCFloatColor@@XZ
?GetColorCalc@eCGfxTextureBlock@@QEBA?AW4bEResult@@AEAW4eETexOperation@eCGfxShared@@AEAW4eETexArgument@4@1@Z
?GetColorComponent@eCColorSrcProxy@@QEBA?AW4eEShaderColorSrcComponent@@XZ
?GetColorFactor@eCGfxMaterial@@QEBA?AW4bEResult@@AEAK@Z
?GetColorFormat@eCImageFilterRTBase@@QEBAAEBV?$bTPropertyContainer@W4eEColorFormat@eCGfxShared@@@@XZ
?GetColorFunction@eCVegetationBrush_PS@@QEBAAEBV?$bTPropertyContainer@W4eEVegetationBrushColorFunction@@@@XZ
?GetColorModifier@eCColorSrcProxy@@QEBA?AW4eEShaderColorModifier@@XZ
?GetColorNoise@eCVegetationBrush_PS@@QEBAPEBVbCNoise@@XZ
?GetColorNoiseModify@eCVegetationBrush_PS@@QEBAAEBVbCVector2@@XZ
?GetColorNoiseOctaves@eCVegetationBrush_PS@@QEBAAEBHXZ
?GetColorNoiseScale@eCVegetationBrush_PS@@QEBAAEBMXZ
?GetColorNoiseTurbulence@eCVegetationBrush_PS@@QEBAAEBV?$bTPropertyContainer@W4bENoiseTurbulence@@@@XZ
?GetColorPepper@eCVegetationBrush_PS@@QEBAAEBVbCFloatColor@@XZ
?GetColorSalt@eCVegetationBrush_PS@@QEBAAEBVbCFloatColor@@XZ
?GetColorScaleRepeats@eCParticle_PS@@QEBAAEBMXZ
?GetColorSrc1@eCColorSrcBlend@@QEAAAEAVeCColorSrcProxy@@XZ
?GetColorSrc1@eCColorSrcCombiner@@QEAAAEAVeCColorSrcProxy@@XZ
?GetColorSrc2@eCColorSrcBlend@@QEAAAEAVeCColorSrcProxy@@XZ
?GetColorSrc2@eCColorSrcCombiner@@QEAAAEAVeCColorSrcProxy@@XZ
?GetColorSrcAbsorbation@eCShaderSkyDome@@QEAAAEAVeCColorSrcProxy@@XZ
?GetColorSrcClouds@eCShaderSkyDome@@QEAAAEAVeCColorSrcProxy@@XZ
?GetColorSrcDiffuse@eCShaderDefault@@QEAAAEAVeCColorSrcProxy@@XZ
?GetColorSrcDiffuse@eCShaderLightStreaks@@QEAAAEAVeCColorSrcProxy@@XZ
?GetColorSrcDiffuse@eCShaderParticle@@QEAAAEAVeCColorSrcProxy@@XZ
?GetColorSrcDistortion@eCShaderDefault@@QEAAAEAVeCColorSrcProxy@@XZ
?GetColorSrcLightEmission@eCShaderDefault@@QEAAAEAVeCColorSrcProxy@@XZ
?GetColorSrcNormal@eCShaderDefault@@QEAAAEAVeCColorSrcProxy@@XZ
?GetColorSrcOpacity@eCShaderDefault@@QEAAAEAVeCColorSrcProxy@@XZ
?GetColorSrcRefract@eCShaderParticle@@QEAAAEAVeCColorSrcProxy@@XZ
?GetColorSrcSelfIllumination@eCShaderDefault@@QEAAAEAVeCColorSrcProxy@@XZ
?GetColorSrcSpecular@eCShaderDefault@@QEAAAEAVeCColorSrcProxy@@XZ
?GetColorSrcSpecularPower@eCShaderDefault@@QEAAAEAVeCColorSrcProxy@@XZ
?GetColorWriting@eCDX9Device@@UEAA?AW4bEResult@@PEA_N@Z
?GetColors@eCColorSrcConstantSwitch@@QEBAAEBV?$bTValArray@VbCFloatAlphaColor@@@@XZ
?GetColumn@eCLocStringEx@@QEBA?AVbCString@@XZ
?GetCombinerType@eCColorSrcCombiner@@QEBAAEBV?$bTPropertyContainer@W4eEColorSrcCombinerType@@@@XZ
?GetCommandLineA@eCApplication@@QEBAAEBVbCString@@XZ
?GetComment@eCConfigFile_KeyObject@@QEBAAEBVbCString@@XZ
?GetComment@eCUnicodeConfigFile_KeyObject@@QEBAAEBVbCUnicodeString@@XZ
?GetCommonPhysicPath@eCApplication@@UEBA?AVbCString@@XZ
?GetCompiledAnimationPath@eCApplication@@UEBA?AVbCString@@XZ
?GetCompiledExt@eCCollisionMeshResource2@@UEBA?AVbCString@@XZ
?GetCompiledExt@eCImageResource2@@UEBA?AVbCString@@XZ
?GetCompiledExt@eCMaterialResource2@@UEBA?AVbCString@@XZ
?GetCompiledExt@eCMeshResource2@@UEBA?AVbCString@@XZ
?GetCompiledExt@eCMotionActorResource2@@UEBA?AVbCString@@XZ
?GetCompiledExt@eCMotionResource2@@UEBA?AVbCString@@XZ
?GetCompiledExt@eCResource2@@UEBA?AVbCString@@XZ
?GetCompiledExt@eCSoundResource2@@UEBA?AVbCString@@XZ
?GetCompiledExt@eCSpeedTreeResource2@@UEBA?AVbCString@@XZ
?GetCompiledImagePath@eCApplication@@UEBA?AVbCString@@XZ
?GetCompiledMeshPath@eCApplication@@UEBA?AVbCString@@XZ
?GetCompiledPhysicPath@eCApplication@@UEBA?AVbCString@@XZ
?GetCompiledSoundPath@eCApplication@@UEBA?AVbCString@@XZ
?GetCompressedNormalMap@eCShaderDefault@@QEBAAEB_NXZ
?GetCone@eCAudioChannel@@QEBA?AW4eEAudioResult@@AEAM00@Z
?GetCone@eCAudioSound@@QEBA?AW4eEAudioResult@@AEAM00@Z
?GetConeOrientation@eCAudioChannel@@QEBA?AW4eEAudioResult@@AEAVbCVector@@@Z
?GetConsole2@eCApplication@@QEAAAEAVeCConsole2@@XZ
?GetConstantCount@eCDX9HLSLShader@@UEAA?AW4bEResult@@PEAXAEAI@Z
?GetConstantCount@eCGfxHLSLShader@@QEAA?AW4bEResult@@PEAXAEAI@Z
?GetConstantDescription@eCDX9HLSLShader@@UEBA?AW4bEResult@@PEAXQEAXIAEAUeSGfxHLSLConstantDesc@eCGfxShared@@_N@Z
?GetConstantDescription@eCGfxHLSLShader@@QEBA?AW4bEResult@@PEAXQEAXIAEAUeSGfxHLSLConstantDesc@eCGfxShared@@_N@Z
?GetContext@eCGeometryEntity@@QEAAPEAVeCContextBase@@XZ
?GetContext@eCGeometryEntity@@QEBAPEBVeCContextBase@@XZ
?GetContextBox@eCContextBase@@QEBAAEBVbCBox@@XZ
?GetContextCount@eCGfxAdmin@@QEBA?AW4bEResult@@AEAK@Z
?GetContextDescription@eCGfxContextAdmin@@QEBA?AW4bEResult@@AEAUeSGfxContextDesc@eCGfxShared@@@Z
?GetControlText@eCScriptEventArgs@@QEBAAEBVbCUnicodeString@@XZ
?GetConvexMesh@eCCollisionMeshResource2@@QEBAPEAVNxConvexMesh@@H@Z
?GetCoordinateSystem@eCParticle_PS@@QEBAAEBV?$bTPropertyContainer@W4eECoordinateSystem@@@@XZ
?GetCount@eCVertexBufferArray@@QEBAKXZ
?GetCreateOnDynamicEntities@eCDecal_PS@@QEBAAEB_NXZ
?GetCreator@eCDynamicEntity@@UEBAPEBVeCTemplateEntity@@XZ
?GetCreator@eCEntity@@UEBAPEBVeCTemplateEntity@@XZ
?GetCreatorID@eCDynamicEntity@@QEBAAEBVbCPropertyID@@XZ
?GetCriticalSection@eCPhysicsScene@@QEAAAEAVbCCriticalSection@@XZ
?GetCullingMode@eCGfxVisual@@QEBA?AW4bEResult@@AEAW4eECullingMode@eCGfxShared@@@Z
?GetCurrentBlendFactor@eCWeatherEnvironment@@QEBAMXZ
?GetCurrentCamera@eCApplication@@QEAAAEAVeCCameraBase@@XZ
?GetCurrentDayTime@eCWeatherAdmin@@QEBAMXZ
?GetCurrentFOV@eCApplication@@QEAAMXZ
?GetCurrentLoDValues@eCWraper_SpeedTreeRT@@QEBAAEBUSLodValues@CSpeedTreeRT@@XZ
?GetCurrentMode@eCWeatherAdmin@@QEBA?AW4eEWeatherAdminMode@@XZ
?GetCurrentPassNumber@eCGfxEffect@@QEBA?AW4bEResult@@AEAI@Z
?GetCurrentRoot@eCProfilerAdmin@@QEAAPEBVbCProfileNode@@XZ
?GetCurrentShaderVersion@eCShaderMaterialAdmin@@QEBA?AW4eEShaderMaterialVersion@@XZ
?GetCurrentState@eCWeatherStates@@QEBAAEBVeCWeatherState@1@XZ
?GetCurrentStates@eCWeatherAdmin@@QEBAAEBVeCWeatherState@eCWeatherStates@@XZ
?GetCurrentTechnique@eCGfxEffect@@QEBA?AW4bEResult@@AEAPEAX@Z
?GetCurrentTextureTile@eCPrecipitation_PS@@QEBAAEBHXZ
?GetCurrentTextureTile@eCWeatherStates@@QEBAAEBHXZ
?GetCurrentTimeStamp@eCFrustumDatabase@@QEBAKXZ
?GetCurrentVegetationPS@eCVegetationBrush_PS@@QEBAPEAVeCVegetation_PS@@XZ
?GetCurrentVsync@eCApplication@@QEAA_NXZ
?GetCurrentWeatherStates@eCWeatherEnvironment@@QEAA_NAEAVeCWeatherState@eCWeatherStates@@@Z
?GetCursor@eCDeferredGuiCursor2@@QEBAPEAVeCGuiCursor2@@XZ
?GetCursor@eCGuiCursorProxy2@@QEBAPEAVeCDeferredGuiCursor2@@XZ
?GetCursor@eCGuiWindow2@@QEBA?AVbCString@@XZ
?GetCursorCache@eCGuiCursor2@@QEBAPEAVeCGuiCursorCache2@@XZ
?GetCursorName@eCGuiCursor2@@QEBAAEBVbCString@@XZ
?GetCursorNameA@eCDeferredGuiCursor2@@UEBA?AVbCString@@XZ
?GetCursorNameA@eCGuiBaseCursor2@@UEBA?AVbCString@@XZ
?GetCursorNameA@eCGuiCursor2@@UEBA?AVbCString@@XZ
?GetCursorNameW@eCDeferredGuiCursor2@@UEBA?AVbCUnicodeString@@XZ
?GetCursorNameW@eCGuiBaseCursor2@@UEBA?AVbCUnicodeString@@XZ
?GetCursorNameW@eCGuiCursor2@@UEBA?AVbCUnicodeString@@XZ
?GetCursorRect@eCDeferredGuiCursor2@@UEBA_NAEAUtagRECT@@@Z
?GetCursorRect@eCGuiBaseCursor2@@UEBA_NAEAUtagRECT@@@Z
?GetCursorRect@eCGuiCursor2@@UEBA_NAEAUtagRECT@@@Z
?GetCursorSize@eCGuiCursor2@@QEBAAEBV?$bTPropertyContainer@W4eEGuiCursorSize@@@@XZ
?GetDC@eCFnt@@QEBAAEBUstbtt_fontinfo@@XZ
?GetDC@eCFont@@AEAAAEBUstbtt_fontinfo@@XZ
?GetDampingFactor@eCParticle_PS@@QEBAAEBVbCRange3@@XZ
?GetData@eCGlyphOutline@@QEAAPEAEXZ
?GetData@eCGlyphOutline@@QEBAPEBEXZ
?GetDataChangedTimeStamp@eCEntity@@QEBAAEBVbCDateTime@@XZ
?GetDataFileExt@eCProcessibleElement@@UEBA?AVbCString@@XZ
?GetDataFilePath@eCProcessibleElement@@QEBA?AVbCString@@XZ
?GetDataOffset@eCResourceInputStream2@@QEBAKXZ
?GetDataRevision@eCCollisionMeshResource2@@MEBAKXZ
?GetDataRevision@eCImageResource2@@MEBAKXZ
?GetDataRevision@eCMaterialResource2@@MEBAKXZ
?GetDataRevision@eCMeshResource2@@MEBAKXZ
?GetDataRevision@eCMotionActorResource2@@MEBAKXZ
?GetDataRevision@eCMotionResource2@@MEBAKXZ
?GetDataRevision@eCResource2@@MEBAKXZ
?GetDataRevision@eCResourceInputStream2@@QEBAKXZ
?GetDataRevision@eCSoundResource2@@MEBAKXZ
?GetDataRevision@eCSpeedTreeResource2@@MEBAKXZ
?GetDataSize@eCResourceInputStream2@@QEBAKXZ
?GetDebugMode@eCAnimation_PS@@QEAA_NXZ
?GetDebugOutputObjects@eCFrustumDatabase@@QEAAAEAV?$bTValArray@VeCRenderOp2@@@@XZ
?GetDebugOutputObjects@eCFrustumDatabase@@QEBAAEBV?$bTValArray@VeCRenderOp2@@@@XZ
?GetDecayDuration@eCPointLight_PS@@QEBAAEBMXZ
?GetDecayHFRatio@eCAudioReverbPreset@@QEBAAEBMXZ
?GetDecayLFRatio@eCAudioReverbPreset@@QEBAAEBMXZ
?GetDecayState@eCEntityPropertySet@@UEBA?AW4eEDecayState@@XZ
?GetDecayTime@eCAudioReverbPreset@@QEBAAEBMXZ
?GetDeclaration@eCGfxVertexDecl@@QEBA?AW4bEResult@@PEAUeSGfxDclElement@eCGfxShared@@AEAI@Z
?GetDeclarationBuffer@eCGfxVertexProgram@@QEBA?AW4bEResult@@PEAPEAXAEAK@Z
?GetDeclarations@eCColorSrcBlend@@UEAA_NAEAV?$bTObjArray@UeSShaderMaterialDeclaration@@@@AEAH_N@Z
?GetDeclarations@eCColorSrcCamDistance@@UEAA_NAEAV?$bTObjArray@UeSShaderMaterialDeclaration@@@@AEAH_N@Z
?GetDeclarations@eCColorSrcCamObstacle@@UEAA_NAEAV?$bTObjArray@UeSShaderMaterialDeclaration@@@@AEAH_N@Z
?GetDeclarations@eCColorSrcCombiner@@UEAA_NAEAV?$bTObjArray@UeSShaderMaterialDeclaration@@@@AEAH_N@Z
?GetDeclarations@eCColorSrcConstant@@UEAA_NAEAV?$bTObjArray@UeSShaderMaterialDeclaration@@@@AEAH_N@Z
?GetDeclarations@eCColorSrcConstantAnimation@@UEAA_NAEAV?$bTObjArray@UeSShaderMaterialDeclaration@@@@AEAH_N@Z
?GetDeclarations@eCColorSrcConstantSwitch@@UEAA_NAEAV?$bTObjArray@UeSShaderMaterialDeclaration@@@@AEAH_N@Z
?GetDeclarations@eCColorSrcCubeSampler@@UEAA_NAEAV?$bTObjArray@UeSShaderMaterialDeclaration@@@@AEAH_N@Z
?GetDeclarations@eCColorSrcFresnel@@UEAA_NAEAV?$bTObjArray@UeSShaderMaterialDeclaration@@@@AEAH_N@Z
?GetDeclarations@eCColorSrcMask@@UEAA_NAEAV?$bTObjArray@UeSShaderMaterialDeclaration@@@@AEAH_N@Z
?GetDeclarations@eCColorSrcSampler@@UEAA_NAEAV?$bTObjArray@UeSShaderMaterialDeclaration@@@@AEAH_N@Z
?GetDeclarations@eCColorSrcSkydomeSampler@@UEAA_NAEAV?$bTObjArray@UeSShaderMaterialDeclaration@@@@AEAH_N@Z
?GetDeclarations@eCColorSrcVertexColor@@UEAA_NAEAV?$bTObjArray@UeSShaderMaterialDeclaration@@@@AEAH_N@Z
?GetDeclarations@eCShaderBase@@UEAA_NAEAV?$bTObjArray@UeSShaderMaterialDeclaration@@@@AEAH_N@Z
?GetDeclarations@eCShaderDefault@@UEAA_NAEAV?$bTObjArray@UeSShaderMaterialDeclaration@@@@AEAH_N@Z
?GetDeclarations@eCShaderEllementBase@@UEAA_NAEAV?$bTObjArray@UeSShaderMaterialDeclaration@@@@AEAH_N@Z
?GetDeclarations@eCShaderLightStreaks@@UEAA_NAEAV?$bTObjArray@UeSShaderMaterialDeclaration@@@@AEAH_N@Z
?GetDeclarations@eCShaderParticle@@UEAA_NAEAV?$bTObjArray@UeSShaderMaterialDeclaration@@@@AEAH_N@Z
?GetDeclarations@eCShaderSkyDome@@UEAA_NAEAV?$bTObjArray@UeSShaderMaterialDeclaration@@@@AEAH_N@Z
?GetDeclarations@eCTexCoordSrcBumpOffset@@UEAA_NAEAV?$bTObjArray@UeSShaderMaterialDeclaration@@@@AEAH_N@Z
?GetDeclarations@eCTexCoordSrcColor@@UEAA_NAEAV?$bTObjArray@UeSShaderMaterialDeclaration@@@@AEAH_N@Z
?GetDeclarations@eCTexCoordSrcOscillator@@UEAA_NAEAV?$bTObjArray@UeSShaderMaterialDeclaration@@@@AEAH_N@Z
?GetDeclarations@eCTexCoordSrcProxy@@QEAA_NAEAV?$bTObjArray@UeSShaderMaterialDeclaration@@@@AEAH_N@Z
?GetDeclarations@eCTexCoordSrcRotator@@UEAA_NAEAV?$bTObjArray@UeSShaderMaterialDeclaration@@@@AEAH_N@Z
?GetDeclarations@eCTexCoordSrcScale@@UEAA_NAEAV?$bTObjArray@UeSShaderMaterialDeclaration@@@@AEAH_N@Z
?GetDeclarations@eCTexCoordSrcScroller@@UEAA_NAEAV?$bTObjArray@UeSShaderMaterialDeclaration@@@@AEAH_N@Z
?GetDefaultAnimation@eCMover_PS@@QEBAAEBVbCString@@XZ
?GetDefaultCacheInRange@eCPrefetchAdmin@@QEBAMXZ
?GetDefaultMaterial@eCBillboardAdmin@@QEAAPEAVeCMaterialResource2@@XZ
?GetDefaultPad@eCInputX360@@QEBA?AW4PadNumber@1@XZ
?GetDefaultSkinWidth@eCPhysicsScene_PS@@QEBAAEBMXZ
?GetDefaultSleepAngVeloSquared@eCPhysicsScene_PS@@QEBAAEBMXZ
?GetDefaultSleepLinVeloSquared@eCPhysicsScene_PS@@QEBAAEBMXZ
?GetDefaultViewRange@eCVegetationAdmin@@QEBAMXZ
?GetDefaults@eCAudioSound@@QEBA?AW4eEAudioResult@@AEAM00AEAE@Z
?GetDefaults@eCAudioSound@@QEBA?AW4eEAudioResult@@PEAM00PEAE@Z
?GetDeferredBitmap@eCGuiBitmap2@@QEBAPEAVeCDeferredGuiBitmap2@@XZ
?GetDeferredCursor@eCGuiCursor2@@QEBAPEAVeCDeferredGuiCursor2@@XZ
?GetDeferredFont@eCGuiFont2@@QEBAPEAVeCDeferredGuiFont2@@XZ
?GetDelay@eCAudioChannel@@QEBA?AW4eEAudioResult@@AEA_K0@Z
?GetDeletedTemplateListFile@eCSceneAdmin@@QEBA?AVbCString@@XZ
?GetDensity@eCAudioReverbPreset@@QEBAAEBMXZ
?GetDensity@eCVegetationAdmin@@QEBAHXZ
?GetDensity@eCVegetationBrush_PS@@QEBAAEBMXZ
?GetDependencies@eCAnimation_HardRenderActor2@@QEAAXAEAV?$bTObjArray@VbCString@@@@0AEAV?$bTObjArray@VeCTemplateEntityProxy@@@@@Z
?GetDependencies@eCAnimation_PS@@UEAAXAEAV?$bTObjArray@VbCString@@@@0AEAV?$bTObjArray@VeCTemplateEntityProxy@@@@@Z
?GetDependencies@eCAudioEmitter_PS@@UEAAXAEAV?$bTObjArray@VbCString@@@@0AEAV?$bTObjArray@VeCTemplateEntityProxy@@@@@Z
?GetDependencies@eCBillboard_PS@@UEAAXAEAV?$bTObjArray@VbCString@@@@0AEAV?$bTObjArray@VeCTemplateEntityProxy@@@@@Z
?GetDependencies@eCBodyPart_PS@@UEAAXAEAV?$bTObjArray@VbCString@@@@0AEAV?$bTObjArray@VeCTemplateEntityProxy@@@@@Z
?GetDependencies@eCCollisionShape@@QEAAXAEAV?$bTObjArray@VbCString@@@@0AEAV?$bTObjArray@VeCTemplateEntityProxy@@@@@Z
?GetDependencies@eCCollisionShape_PS@@UEAAXAEAV?$bTObjArray@VbCString@@@@0AEAV?$bTObjArray@VeCTemplateEntityProxy@@@@@Z
?GetDependencies@eCColorSrcCubeSampler@@UEAAXAEAV?$bTObjArray@VbCString@@@@0AEAV?$bTObjArray@VeCTemplateEntityProxy@@@@@Z
?GetDependencies@eCColorSrcSampler@@UEAAXAEAV?$bTObjArray@VbCString@@@@0AEAV?$bTObjArray@VeCTemplateEntityProxy@@@@@Z
?GetDependencies@eCDecal_PS@@UEAAXAEAV?$bTObjArray@VbCString@@@@0AEAV?$bTObjArray@VeCTemplateEntityProxy@@@@@Z
?GetDependencies@eCEntityPropertySet@@UEAAXAEAV?$bTObjArray@VbCString@@@@0AEAV?$bTObjArray@VeCTemplateEntityProxy@@@@@Z
?GetDependencies@eCMaterialResource2@@UEAAXAEAV?$bTObjArray@VbCString@@@@0AEAV?$bTObjArray@VeCTemplateEntityProxy@@@@@Z
?GetDependencies@eCMeshResource2@@UEAAXAEAV?$bTObjArray@VbCString@@@@0AEAV?$bTObjArray@VeCTemplateEntityProxy@@@@@Z
?GetDependencies@eCMesh_PS@@UEAAXAEAV?$bTObjArray@VbCString@@@@0AEAV?$bTObjArray@VeCTemplateEntityProxy@@@@@Z
?GetDependencies@eCMotionActorResource2@@UEAAXAEAV?$bTObjArray@VbCString@@@@0AEAV?$bTObjArray@VeCTemplateEntityProxy@@@@@Z
?GetDependencies@eCMotionResource2@@UEAAXAEAV?$bTObjArray@VbCString@@@@0AEAV?$bTObjArray@VeCTemplateEntityProxy@@@@@Z
?GetDependencies@eCMoverAnimationBase@@UEAAXAEAV?$bTObjArray@VbCString@@@@0AEAV?$bTObjArray@VeCTemplateEntityProxy@@@@@Z
?GetDependencies@eCMoverAnimationFile@@UEAAXAEAV?$bTObjArray@VbCString@@@@0AEAV?$bTObjArray@VeCTemplateEntityProxy@@@@@Z
?GetDependencies@eCMoverAnimationSkeletal@@UEAAXAEAV?$bTObjArray@VbCString@@@@0AEAV?$bTObjArray@VeCTemplateEntityProxy@@@@@Z
?GetDependencies@eCMover_PS@@UEAAXAEAV?$bTObjArray@VbCString@@@@0AEAV?$bTObjArray@VeCTemplateEntityProxy@@@@@Z
?GetDependencies@eCParticle_PS@@UEAAXAEAV?$bTObjArray@VbCString@@@@0AEAV?$bTObjArray@VeCTemplateEntityProxy@@@@@Z
?GetDependencies@eCPrecipitation_PS@@UEAAXAEAV?$bTObjArray@VbCString@@@@0AEAV?$bTObjArray@VeCTemplateEntityProxy@@@@@Z
?GetDependencies@eCResource2@@UEAAXAEAV?$bTObjArray@VbCString@@@@0AEAV?$bTObjArray@VeCTemplateEntityProxy@@@@@Z
?GetDependencies@eCShaderEllementBase@@UEAAXAEAV?$bTObjArray@VbCString@@@@0AEAV?$bTObjArray@VeCTemplateEntityProxy@@@@@Z
?GetDependencies@eCSkydome_PS@@UEAAXAEAV?$bTObjArray@VbCString@@@@0AEAV?$bTObjArray@VeCTemplateEntityProxy@@@@@Z
?GetDependencies@eCSpeedTreeBBMesh_PS@@UEAAXAEAV?$bTObjArray@VbCString@@@@0AEAV?$bTObjArray@VeCTemplateEntityProxy@@@@@Z
?GetDependencies@eCSpeedTreeResource2@@UEAAXAEAV?$bTObjArray@VbCString@@@@0AEAV?$bTObjArray@VeCTemplateEntityProxy@@@@@Z
?GetDependencies@eCSpeedTree_PS@@UEAAXAEAV?$bTObjArray@VbCString@@@@0AEAV?$bTObjArray@VeCTemplateEntityProxy@@@@@Z
?GetDependencies@eCStrip_PS@@UEAAXAEAV?$bTObjArray@VbCString@@@@0AEAV?$bTObjArray@VeCTemplateEntityProxy@@@@@Z
?GetDependencies@eCSubMesh@@UEAAXAEAV?$bTObjArray@VbCString@@@@0AEAV?$bTObjArray@VeCTemplateEntityProxy@@@@@Z
?GetDependencies@eCVegetation_PS@@UEAAXAEAV?$bTObjArray@VbCString@@@@0AEAV?$bTObjArray@VeCTemplateEntityProxy@@@@@Z
?GetDepth@eCCollisionShape@@QEAAMXZ
?GetDepth@eCCollisionShape@@QEBA?BMXZ
?GetDepthBias@eCCameraBase@@QEBAAEBMXZ
?GetDepthBias@eCShadowMapDirectionalLight2@@QEBAMXZ
?GetDepthBiasProjectionMatrix@eCGfxCamera@@QEBAAEBVbCMatrix@@XZ
?GetDepthSortOffset@eCParticle_PS@@QEBAAEBMXZ
?GetDepthTest@eCParticle_PS@@QEBAAEB_NXZ
?GetDepthTesting@eCGfxVisual@@QEBA?AW4bEResult@@AEAW4eECmpFunc@eCGfxShared@@@Z
?GetDepthWrite@eCGfxVisual@@QEBA?AW4bEResult@@AEAW4eEWrite@eCGfxShared@@@Z
?GetDepthWrite@eCParticle_PS@@QEBAAEB_NXZ
?GetDepthmap@eCShaderMaterialAdmin@@QEAAPEAVeCGfxImageData@@XZ
?GetDesc@eCDX9IndexData@@UEAA?AW4bEResult@@PEAUeSGfxIndexBufDesc@eCGfxShared@@@Z
?GetDesc@eCDX9VertexData@@UEAA?AW4bEResult@@PEAUeSGfxVertexBufDesc@eCGfxShared@@@Z
?GetDevice@eCGuiModule2@@SAPEAVeCGuiDevice2@@XZ
?GetDeviceContext@eCDX9Font@@UEAA?AW4bEResult@@AEAPEAUHDC__@@@Z
?GetDeviceContext@eCWindow@@QEBAPEAUHDC__@@XZ
?GetDiffuseMaterialSrc@eCGfxMaterial@@QEBA?AW4bEResult@@AEAW4eEMaterialColorSrc@eCGfxShared@@@Z
?GetDiffuseReflection@eCGfxMaterial@@QEBA?AW4bEResult@@AEAVbCFloatAlphaColor@@@Z
?GetDiffusion@eCAudioReverbPreset@@QEBAAEBMXZ
?GetDirectOcclusion@eCAudioChannel@@QEBA?AW4eEAudioResult@@AEAM@Z
?GetDirection@eCDirectionalLight_PS@@QEAAAEBVbCVector@@XZ
?GetDirection@eCPrecipitation_PS@@QEBAAEBVbCVector@@XZ
?GetDirection@eCTexCoordSrcScroller@@QEBAAEBVbCVector2@@XZ
?GetDirectionOffset@eCDecal_PS@@QEBAAEBVbCEulerAngles@@XZ
?GetDirectionOffset@eCDirectionalLight_PS@@QEBAAEBVbCEulerAngles@@XZ
?GetDirectionScale@eCPrecipitation_PS@@QEBAAEBMXZ
?GetDirectionScale@eCWeatherStates@@QEBAAEBMXZ
?GetDirectionalLightShadowMapFormat@eCShaderMaterialAdmin@@QEBA?AW4eEDepthMapFormat@@XZ
?GetDisableAmbientOcclusion@eCShaderDefault@@QEBAAEB_NXZ
?GetDisableCollision@eCCollisionShape@@QEBAAEB_NXZ
?GetDisableCollision@eCCollisionShape_PS@@QEBAAEB_NXZ
?GetDisableCollision@eCMaterialResource2@@QEBAAEB_NXZ
?GetDisableDirLightShadows@eCShaderDefault@@QEBAAEB_NXZ
?GetDisableFog@eCShaderDefault@@QEBAAEB_NXZ
?GetDisableFogging@eCParticle_PS@@QEBAAEB_NXZ
?GetDisableLighting@eCShaderDefault@@QEBAAEB_NXZ
?GetDisablePntLightShadows@eCShaderDefault@@QEBAAEB_NXZ
?GetDisableResponse@eCCollisionShape@@QEBAAEB_NXZ
?GetDisableResponse@eCCollisionShape_PS@@QEBAAEB_NXZ
?GetDisableResponse@eCMaterialResource2@@QEBAAEB_NXZ
?GetDisabled@eCGuiWindow2@@QEBA_NXZ
?GetDiskArray@?$eCAOPerTriangleMeshBase@G@eCAmbientOcclusionPreprocessor@@UEAAAEAV?$bTValArray@UeSOrientedDisk@eCAmbientOcclusionPreprocessor@@@@XZ
?GetDiskArray@?$eCAOPerTriangleMeshBase@K@eCAmbientOcclusionPreprocessor@@UEAAAEAV?$bTValArray@UeSOrientedDisk@eCAmbientOcclusionPreprocessor@@@@XZ
?GetDiskArray@eCAOPerVertexMesh@eCAmbientOcclusionPreprocessor@@UEAAAEAV?$bTValArray@UeSOrientedDisk@eCAmbientOcclusionPreprocessor@@@@XZ
?GetDispatchID@eCGuiWindow2@@QEBAKXZ
?GetDistance@eCAudioRollOffPreset@@QEBAAEBVbCRange1@@XZ
?GetDistanceTo@eCArea_StringProperty_PS@@QEAAMAEBVbCVector@@@Z
?GetDistanceToEntity2@eCGeometryEntity@@QEBAMAEBV1@@Z
?GetDistanceToEntity@eCGeometryEntity@@QEBAMAEBV1@@Z
?GetDistanceToNearPlane@eCBeamTree@@QEBAMAEBVbCBox@@@Z
?GetDistanceType@eCColorSrcCamDistance@@QEBAAEBV?$bTPropertyContainer@W4eEDistanceType@@@@XZ
?GetDizzerScale@eCImageFilterShadowMask@@QEBAAEBMXZ
?GetDlgItem@eCGuiWindow2@@QEBAPEAV1@I@Z
?GetDlgResult@eCScriptEventArgs@@QEBAHXZ
?GetDock@eCGuiWindow2@@QEBAAEBV?$bTPropertyContainer@W4eEDock@@@@XZ
?GetDocuments@eCDocArchive@@QEAAAEAV?$bTRefPropertyArray@PEAVeCDocObject@@@@XZ
?GetDocuments@eCDocArchive@@QEBAAEBV?$bTRefPropertyArray@PEAVeCDocObject@@@@XZ
?GetDoubleSided@eCShaderDefault@@QEBAAEB_NXZ
?GetDoubleSided@eCVegetation_Mesh@@QEBAAEB_NXZ
?GetDownIsLeft@eCGuiTrackBar2@@QEBA_NXZ
?GetDragAction@eCListCtrlEventArgs@@QEBA?AW4eEDragAction@@XZ
?GetDragAction@eCStaticEventArgs@@QEBA?AW4eEDragAction@@XZ
?GetDragCursor@eCGuiModule2@@QEBAPEAVIFFGuiCursor2@@XZ
?GetDrawCallDescription@eCDX9Primitive@@UEAAAEAUeSGfxDrawCallDesc@eCGfxShared@@XZ
?GetDrawCallDescription@eCDX9Primitive@@UEBAAEBUeSGfxDrawCallDesc@eCGfxShared@@XZ
?GetDrawCallDescription@eCGfxVisual@@QEBA?AW4bEResult@@AEAUeSGfxDrawCallDesc@eCGfxShared@@@Z
?GetDrawCalls@eCGfxGaugeAdmin@@SAKXZ
?GetDrawScale@eCGuiDevice2@@QEBAAEBVbCVector@@XZ
?GetDrawStyle@eCGuiSplitImage2@@QEBAAEBV?$bTPropertyContainer@W4eESplitImageStyle@@@@XZ
?GetDrawStyle@eCParticle_PS@@QEBAAEBV?$bTPropertyContainer@W4eETextureDrawStyle@@@@XZ
?GetDropResult@eCListCtrlEventArgs@@QEBA?AW4eEDropResult@@XZ
?GetDropResult@eCStaticEventArgs@@QEBA?AW4eEDropResult@@XZ
?GetDuration@eCAudioChannel@@QEBAKW4eEAudioTimeUnit@@@Z
?GetDuration@eCSoundResource2@@QEBAAEBKXZ
?GetDynFrictionScaling@eCPhysicsScene_PS@@QEBAAEBMXZ
?GetDynamicEntity@eCEntityProxy@@QEAAPEAVeCDynamicEntity@@XZ
?GetDynamicEntity@eCEntityProxy@@QEBAPEBVeCDynamicEntity@@XZ
?GetDynamicEntityContext@eCSceneAdmin@@QEBAPEAVeCEntityDynamicContext@@H@Z
?GetDynamicEntityContextCount@eCSceneAdmin@@QEBAHXZ
?GetEMFX3Actor@eCMotionActorResource2@@QEBAPEAVActor@EMotionFX@@XZ
?GetEMFX3Motion@eCMotionResource2@@QEBAPEAVMotion@EMotionFX@@XZ
?GetEMFXActor@eCMoverAnimationSkeletal@@QEBAPEBVActorInstance@EMotionFX@@XZ
?GetEMFXMotion@eCMoverAnimationFile@@QEBAPEAVSkeletalSubMotion@EMotionFX@@XZ
?GetEMFXMotion@eCMoverAnimationSkeletal@@QEBAPEAVMotion@EMotionFX@@XZ
?GetEMFXMotionInstance@eCMoverAnimationSkeletal@@QEBAPEAVMotionInstance@EMotionFX@@XZ
?GetEchoDepth@eCAudioReverbPreset@@QEBAAEBMXZ
?GetEchoTime@eCAudioReverbPreset@@QEBAAEBMXZ
?GetEdit@eCGuiEdit2@@IEBAPEAVCFXEdit@@XZ
?GetEditorBillboard@eCBillboard_PS@@QEBAAEB_NXZ
?GetEditorEntity@eCApplication@@UEBAPEBVeCEntity@@XZ
?GetEditorLayout@eCImageFilterBase@@QEAAAEAUbSEditorLayout@1@XZ
?GetEditorLayout@eCShaderEllementBase@@QEAAAEAUbSEditorLayout@1@XZ
?GetEffect@eCImageFilterEffect@@QEBAPEAVeCGfxEffect@@XZ
?GetEffect@eCPointLight_PS@@QEBAAEBV?$bTPropertyContainer@W4eEDynamicLightEffect@@@@XZ
?GetEffectBlueGamma@eCGfxMixerAdmin@@QEBA?AW4bEResult@@AEAM@Z
?GetEffectBrightness@eCGfxMixerAdmin@@QEBA?AW4bEResult@@AEAM@Z
?GetEffectColor@eCPointLight_PS@@QEBAAEBVbCFloatColor@@XZ
?GetEffectContrast@eCGfxMixerAdmin@@QEBA?AW4bEResult@@AEAM@Z
?GetEffectDescription@eCDX9Effect@@UEAA?AW4bEResult@@AEAUeSGfxEffectDesc@eCGfxShared@@@Z
?GetEffectDescription@eCGfxEffect@@QEBA?AW4bEResult@@AEAUeSGfxEffectDesc@eCGfxShared@@@Z
?GetEffectFileName@eCImageFilterEffect@@QEBA?AVbCString@@XZ
?GetEffectGreenGamma@eCGfxMixerAdmin@@QEBA?AW4bEResult@@AEAM@Z
?GetEffectInputAt@eCImageFilterEffect@@QEBAAEBUeSEffectInput@1@H@Z
?GetEffectIntensity@eCPointLight_PS@@QEBAMXZ
?GetEffectPeriod@eCPointLight_PS@@QEBAAEBMXZ
?GetEffectPhase@eCPointLight_PS@@QEBAAEBMXZ
?GetEffectProbability@eCWeatherStates@@QEBAAEBMXZ
?GetEffectRedGamma@eCGfxMixerAdmin@@QEBA?AW4bEResult@@AEAM@Z
?GetEffectStateManager@eCDX9Device@@QEAAPEAUID3DXEffectStateManager@@XZ
?GetEffectedDynamicLights@eCLightSet@@QEBAAEBV?$bTValArray@PEAVeCDynamicLight_PS@@@@XZ
?GetEffectedObjects@eCLightSet@@QEBAAEBV?$bTValArray@PEAVeCIlluminated_PS@@@@XZ
?GetEffects@eCMotionResource2@@QEBAAEBV?$bTObjArray@USEffect@eCMotionResource2@@@@XZ
?GetElementSingleline@eCGuiWindow2@@QEBA_NH@Z
?GetEllementTypeName@eCColorSrcBlend@@UEBAAEBVbCString@@XZ
?GetEllementTypeName@eCColorSrcCamDistance@@UEBAAEBVbCString@@XZ
?GetEllementTypeName@eCColorSrcCamObstacle@@UEBAAEBVbCString@@XZ
?GetEllementTypeName@eCColorSrcCombiner@@UEBAAEBVbCString@@XZ
?GetEllementTypeName@eCColorSrcConstant@@UEBAAEBVbCString@@XZ
?GetEllementTypeName@eCColorSrcConstantAnimation@@UEBAAEBVbCString@@XZ
?GetEllementTypeName@eCColorSrcConstantSwitch@@UEBAAEBVbCString@@XZ
?GetEllementTypeName@eCColorSrcCubeSampler@@UEBAAEBVbCString@@XZ
?GetEllementTypeName@eCColorSrcFresnel@@UEBAAEBVbCString@@XZ
?GetEllementTypeName@eCColorSrcMask@@UEBAAEBVbCString@@XZ
?GetEllementTypeName@eCColorSrcSampler@@UEBAAEBVbCString@@XZ
?GetEllementTypeName@eCColorSrcSkydomeSampler@@UEBAAEBVbCString@@XZ
?GetEllementTypeName@eCColorSrcVertexColor@@UEBAAEBVbCString@@XZ
?GetEllementTypeName@eCShaderDefault@@UEBAAEBVbCString@@XZ
?GetEllementTypeName@eCShaderEllementBase@@UEBAAEBVbCString@@XZ
?GetEllementTypeName@eCShaderLeafs@@UEBAAEBVbCString@@XZ
?GetEllementTypeName@eCShaderLightStreaks@@UEBAAEBVbCString@@XZ
?GetEllementTypeName@eCShaderParticle@@UEBAAEBVbCString@@XZ
?GetEllementTypeName@eCShaderSkyDome@@UEBAAEBVbCString@@XZ
?GetEllementTypeName@eCTexCoordSrcBumpOffset@@UEBAAEBVbCString@@XZ
?GetEllementTypeName@eCTexCoordSrcColor@@UEBAAEBVbCString@@XZ
?GetEllementTypeName@eCTexCoordSrcOscillator@@UEBAAEBVbCString@@XZ
?GetEllementTypeName@eCTexCoordSrcReflect@@UEBAAEBVbCString@@XZ
?GetEllementTypeName@eCTexCoordSrcRotator@@UEBAAEBVbCString@@XZ
?GetEllementTypeName@eCTexCoordSrcScale@@UEBAAEBVbCString@@XZ
?GetEllementTypeName@eCTexCoordSrcScroller@@UEBAAEBVbCString@@XZ
?GetEmission@eCGfxMaterial@@QEBA?AW4bEResult@@AEAVbCFloatAlphaColor@@@Z
?GetEmissiveMaterialSrc@eCGfxMaterial@@QEBA?AW4bEResult@@AEAW4eEMaterialColorSrc@eCGfxShared@@@Z
?GetEmitterMeshAt@eCAmbientOcclusionPreprocessor@@QEBAPEAVeCAOMeshBase@1@H@Z
?GetEmitterMeshIndex@eCAmbientOcclusionPreprocessor@@QEBAHPEAVeCAOMeshBase@1@@Z
?GetEnableAlphaZWrite@eCShaderDefault@@QEBAAEB_NXZ
?GetEnableCCD@eCCollisionShape@@QEBAAEB_NXZ
?GetEnableDecals@eCMesh_PS@@QEBAAEB_NXZ
?GetEnableDragDrop@eCGuiPictureBox2@@QEBA_NXZ
?GetEnableEditorBillboards@eCBillboardAdmin@@QEBA_NXZ
?GetEnableFading@eCShaderLightStreaks@@QEBAAEB_NXZ
?GetEnableFog@eCShaderParticle@@QEBAAEB_NXZ
?GetEnableRadiosity@eCMesh_PS@@QEBAAEB_NXZ
?GetEnableRenderDebug@eCRenderSystemAdmin@@QEBA_NXZ
?GetEnableRepositioning@eCAnimation_PS@@QEBAAEB_NXZ
?GetEnableSSAO@eCImageFilterShadowMask@@QEBAAEB_NXZ
?GetEnableSpecular@eCShaderDefault@@QEBAAEB_NXZ
?GetEnableWind@eCSpeedTree_PS@@QEBAAEB_NXZ
?GetEnabled@eCAudioEmitter_PS@@QEBAAEB_NXZ
?GetEnabled@eCDynamicLight_PS@@QEBAAEB_NXZ
?GetEnabled@eCParticle_PS@@QEBAAEB_NXZ
?GetEnabled@eCScriptEventArgs@@QEBA_NXZ
?GetEnabled@eCStrip_PS@@QEBAAEB_NXZ
?GetEnabledDepthOutput@eCImageFilterScene@@QEBAAEB_NXZ
?GetEnabledHDR@eCImageFilterScene@@QEBAAEB_NXZ
?GetEndAlpha@eCStrip_PS@@QEBAAEBMXZ
?GetEndColor@eCStrip_PS@@QEBAAEBVbCFloatColor@@XZ
?GetEndTime@eCMoverAnimationBase@@UEBAMXZ
?GetEndTime@eCMoverAnimationFile@@UEBAMXZ
?GetEndTime@eCMoverAnimationKFBase@@UEBAMXZ
?GetEndTime@eCMoverAnimationRotate@@UEBAMXZ
?GetEndTime@eCMoverAnimationSkeletal@@UEBAMXZ
?GetEngineSetup@eCApplication@@QEBAAEBUeSSetupWindow@@XZ
?GetEntities@eCPortalRoom_PS@@QEBAAEBV?$bTValArray@PEAVeCGeometryEntity@@@@XZ
?GetEntitiesByName@eCSceneAdmin@@QEAA_NAEBVbCString@@AEAV?$bTPtrArray@PEAVeCEntity@@@@@Z
?GetEntitiesByName@eCSceneAdmin@@QEBA_NAEBVbCString@@AEAV?$bTPtrArray@PEAVeCEntity@@@@@Z
?GetEntitiesByPartName@eCSceneAdmin@@QEAA_NAEBVbCString@@AEAV?$bTPtrArray@PEAVeCEntity@@@@W4eEEntityType@@@Z
?GetEntitiesCanCollide@eCPhysicsScene@@QEBA_NAEAVeCGeometryEntity@@0_N@Z
?GetEntity@eCActorAttachment@@QEAAPEAVeCEntity@@XZ
?GetEntity@eCCollisionShape@@QEBAPEAVeCEntity@@XZ
?GetEntity@eCEntityPropertySet@@UEAAPEAVeCEntity@@XZ
?GetEntity@eCEntityPropertySet@@UEBAPEBVeCEntity@@XZ
?GetEntity@eCEntityProxy@@QEAAPEAVeCEntity@@XZ
?GetEntity@eCEntityProxy@@QEBAPEBVeCEntity@@XZ
?GetEntity@eCEntityStringProxy@@QEAAPEAVeCEntity@@XZ
?GetEntity@eCEntityStringProxy@@QEBAPEBVeCEntity@@XZ
?GetEntity@eCFrustumElementItem@@QEAAPEAVeCGeometryEntity@@XZ
?GetEntity@eCPhysicObject@@QEAAAEAVeCGeometryEntity@@XZ
?GetEntity@eCPhysicObject@@QEBAAEBVeCGeometryEntity@@XZ
?GetEntity@eCRenderContext@@QEAAPEAVeCGeometryEntity@@XZ
?GetEntity@eCSceneAdmin@@QEAAPEAVeCNode@@AEBVbCPropertyID@@W4eEEntityType@@@Z
?GetEntity@eCSceneAdmin@@QEBAPEBVeCNode@@AEBVbCPropertyID@@W4eEEntityType@@@Z
?GetEntity@eCTemplateEntityProxy@@QEAAPEAVeCTemplateEntity@@XZ
?GetEntity@eCTemplateEntityProxy@@QEBAPEBVeCTemplateEntity@@XZ
?GetEntityByName@eCSceneAdmin@@QEAAPEAVeCEntity@@AEBVbCString@@@Z
?GetEntityByName@eCSceneAdmin@@QEBAPEBVeCEntity@@AEBVbCString@@@Z
?GetEntityByPartName@eCSceneAdmin@@QEAAPEAVeCEntity@@AEBVbCString@@W4eEEntityType@@H@Z
?GetEntityCountByPartName@eCSceneAdmin@@QEAAHAEBVbCString@@W4eEEntityType@@@Z
?GetEntityFlags@eCEntity@@QEAAAEAUeSEntityFlags@@XZ
?GetEntityFlags@eCEntity@@QEBAAEBUeSEntityFlags@@XZ
?GetEntityID@eCDynamicEntity@@UEBAPEAUeSEntityID@@XZ
?GetEntityID@eCEntityProxy@@QEBAAEBVbCPropertyID@@XZ
?GetEntityID@eCNode@@UEBAPEAUeSEntityID@@XZ
?GetEntityID@eCTemplateEntity@@UEBAPEAUeSEntityID@@XZ
?GetEntityID@eCTemplateEntityProxy@@QEBAAEBVbCPropertyID@@XZ
?GetEntityName@eCEntityStringProxy@@QEBAAEBVbCString@@XZ
?GetEntityPairsCanCollide@eCPhysicsScene@@QEBA_NAEAVeCGeometryEntity@@0@Z
?GetEntries@eCProfilerAdmin@@QEBAAEBV?$bTObjArray@VeCPerformanceEntry@eCProfilerAdmin@@@@XZ
?GetEntriesEx@eCProfilerAdmin@@QEBAAEBV?$bTObjArray@VeCPerformanceEntry@eCProfilerAdmin@@@@XZ
?GetEntriesFromMeshID@eCVegetation_GridNode@@QEBAPEBUeSVegetationNodeEntry@@H@Z
?GetEntry@eCVegetation_GridNode@@IEAAAEAUeSVegetationNodeEntry@@H@Z
?GetEntry@eCVegetation_GridNode@@QEBAAEBUeSVegetationNodeEntry@@H@Z
?GetEntryCount@eCVegetation_GridNode@@QEBAHXZ
?GetEntryCountFromMeshID@eCVegetation_GridNode@@QEBAKH@Z
?GetEnvDiffusion@eCAudioReverbPreset@@QEBAAEBMXZ
?GetEnvSize@eCAudioReverbPreset@@QEBAAEBMXZ
?GetEnvironment@eCAudioReverbPreset@@QEBAAEBHXZ
?GetErrorImage@eCShaderMaterialAdmin@@QEAAPEAVeCGfxImageData@@XZ
?GetEscapement@eCGuiSystemFont2@@QEBAHXZ
?GetEscapement@eCGuiSystemFontDesc2@@QEBAHXZ
?GetExposure@eCWeatherStates@@QEAAAEAVeCFloatScale@@XZ
?GetExposure@eCWeatherStates@@QEBAAEBVeCFloatScale@@XZ
?GetExpression@eCPropertyProxy@@QEBAAEBVbCString@@XZ
?GetExtends@eCSubMesh@@QEBAAEBVbCBox@@XZ
?GetExtentMultiplier@eCParticle_PS@@QEBAAEBVbCVector@@XZ
?GetExtroBlending@eCWrapper_emfx3ActorInstance@@QEBAMW4eEMotionType@eAnimShared@@@Z
?GetFPS@eCTimer@@QEBAMXZ
?GetFVFSize@eCDX9Device@@UEAA?AW4bEResult@@KPEAK@Z
?GetFVFSize@eCGfxMixerAdmin@@QEBA?AW4bEResult@@KAEAK@Z
?GetFaceInFactor@eCParticle_PS@@QEBAAEBVbCFloatAlphaColor@@XZ
?GetFaceName@eCGuiSystemFont2@@QEBA?AVbCString@@XZ
?GetFaceName@eCGuiSystemFontDesc2@@QEBA?AVbCString@@XZ
?GetFaceName@eCGuiSystemFontLanguage2@@QEBAAEBVbCString@@XZ
?GetFaceOutFactor@eCParticle_PS@@QEBAAEBVbCFloatAlphaColor@@XZ
?GetFacingDirection@eCParticle_PS@@QEBAAEBV?$bTPropertyContainer@W4eEFacingDirection@@@@XZ
?GetFadeIn@eCParticle_PS@@QEBAAEB_NXZ
?GetFadeInEndTime@eCParticle_PS@@QEBAAEBMXZ
?GetFadeInTime@eCDecal_PS@@QEBAAEBMXZ
?GetFadeOut@eCParticle_PS@@QEBAAEB_NXZ
?GetFadeOutInSec@eCStrip_PS@@QEBAAEBMXZ
?GetFadeOutStart@eCVegetation_PS@@QEBAAEBMXZ
?GetFadeOutStartTime@eCParticle_PS@@QEBAAEBMXZ
?GetFadeOutTime@eCDecal_PS@@QEBAAEBMXZ
?GetFadeOutValue@eCRenderOp2@@QEBAMXZ
?GetFadeWaveLenght@eCShaderLightStreaks@@QEBAAEBMXZ
?GetFallOff@eCAudioEmitter_PS@@QEBAAEBV?$bTPropertyContainer@W4eEAudioChannelFallOff@@@@XZ
?GetFallOff@eCAudioRollOffPreset@@QEBAAEBV?$bTPropertyContainer@W4eEAudioChannelFallOff@@@@XZ
?GetFallbackBitmap@eCGuiDevice2@@QEBAPEAVeCGuiBitmap2@@XZ
?GetFallbackCursor@eCGuiDevice2@@QEBAPEAVeCGuiCursor2@@XZ
?GetFallbackFont@eCGuiDevice2@@QEBAPEAVeCGuiFont2@@XZ
?GetFallbackMaterial@eCShaderBase@@QEBAAEBVbCImageOrMaterialResourceString@@XZ
?GetFieldOfView@eCCameraBase@@QEBAAEBMXZ
?GetFile@eCArchiveManager@@QEAA?AVeCArchiveFile@@AEBVbCString@@@Z
?GetFile@eCArchiveManager@@QEAA_NAEBVbCString@@AEAVeCArchiveFile@@@Z
?GetFileBaseName@eCArchiveFile@@QEBA?AVbCString@@XZ
?GetFileBaseName@eCArchiveFile@@QEBAXAEAVbCString@@@Z
?GetFileBaseName@eCProcessibleElement@@QEBA?AVbCString@@XZ
?GetFileDir@eCArchiveFile@@QEBA?AVbCString@@XZ
?GetFileDir@eCProcessibleElement@@UEBA?AVbCString@@XZ
?GetFileExt@eCGuiBitmapList2@@SA?AVbCString@@XZ
?GetFileExt@eCGuiCursor2@@SA?AVbCString@@XZ
?GetFileExt@eCGuiImageCollection2@@SA?AVbCString@@XZ
?GetFileExt@eCGuiImageList2@@SA?AVbCString@@XZ
?GetFileExt@eCProcessibleElement@@UEBA?AVbCString@@XZ
?GetFileExt@eCTemplateEntity@@SAAEBVbCString@@XZ
?GetFileExtension@eCArchiveFile@@QEBA?AVbCString@@XZ
?GetFileExtension@eCArchiveFile@@QEBAXAEAVbCString@@@Z
?GetFileExtension@eCResourceInputStream2@@QEBA?AVbCString@@XZ
?GetFileKey@eCDocObject@@UEBA?AVbCString@@XZ
?GetFileName@eCArchiveFile@@QEBA?AVbCString@@XZ
?GetFileName@eCArchiveFile@@QEBAXAEAVbCString@@@Z
?GetFileName@eCProcessibleElement@@QEBA?AVbCString@@XZ
?GetFileName@eCResource2@@QEBA?AVbCString@@XZ
?GetFileName@eCResourceInputStream2@@QEBA?AVbCString@@XZ
?GetFileName@eCTemplateEntity@@QEBA?BVbCString@@XZ
?GetFileNameA@eCGuiFontFile2@@QEBA?AVbCString@@XZ
?GetFilePath@eCArchiveFile@@QEBA?AVbCString@@XZ
?GetFilePath@eCArchiveFile@@QEBAXAEAVbCString@@@Z
?GetFilePath@eCConfigFile@@QEBAAEBVbCString@@XZ
?GetFilePath@eCContextBase@@QEBAAEBVbCString@@XZ
?GetFilePath@eCGuiBitmapList2@@SA?AVbCString@@XZ
?GetFilePath@eCGuiCursor2@@SA?AVbCString@@XZ
?GetFilePath@eCGuiImageCollection2@@SA?AVbCString@@XZ
?GetFilePath@eCGuiImageList2@@SA?AVbCString@@XZ
?GetFilePath@eCProcessibleElement@@QEBA?AVbCString@@XZ
?GetFilePath@eCResource2@@QEBA?AVbCString@@XZ
?GetFilePath@eCResourceInputStream2@@QEBA?AVbCString@@XZ
?GetFilePath@eCTemplateEntity@@QEBA?BVbCString@@XZ
?GetFilePath@eCUnicodeConfigFile@@QEBAAEBVbCString@@XZ
?GetFileSize@eCArchiveFile@@QEBA_KXZ
?GetFileState@eCResource2@@AEBA?AW4eEResourceFileState@@XZ
?GetFileTime@eCArchiveFile@@QEBA?AVbCDateTime@@XZ
?GetFileTime@eCResourceInputStream2@@AEBA?AUSFFFileTime@@XZ
?GetFileTitleA@eCArchiveFile@@QEBA?AVbCString@@XZ
?GetFileTitleA@eCDocObject@@UEBA?AVbCString@@XZ
?GetFileTitleA@eCResource2@@QEBA?AVbCString@@XZ
?GetFileTitleA@eCResourceInputStream2@@QEBA?AVbCString@@XZ
?GetFileType@eCProcessibleElement@@UEBA?AVbCString@@XZ
?GetFileVersion@eCApplication@@QEAAXAEAK000@Z
?GetFileVersion@eCCollisionShape@@QEBAAEBGXZ
?GetFileVersion@eCProcessibleElement@@UEBAGXZ
?GetFirstBitmapPos@eCGuiDevice2@@QEBAPEAXXZ
?GetFirstChar@eCFixedGuiBitmapFont2@@QEBAAEBGXZ
?GetFirstChild@eCGuiWindow2@@QEBAPEAV1@XZ
?GetFirstChild@eCNode@@QEAAPEAV1@XZ
?GetFirstChild@eCNode@@QEBAPEBV1@XZ
?GetFirstChild@eCStatistic@@QEBAPEAV1@XZ
?GetFirstFontPos@eCGuiDevice2@@QEBAPEAXXZ
?GetFirstIndex@eCSubMesh@@QEBAAEBKXZ
?GetFirstSibling@eCGuiWindow2@@QEBAPEAV1@XZ
?GetFirstVertex@eCSubMesh@@QEBAAEBKXZ
?GetFirstVertex@eCVertexBufferArray@@QEBAKXZ
?GetFixedLength@eCGuiTrackBar2@@QEBA_NXZ
?GetFlags@eCSoundResource2@@QEBAAEBEXZ
?GetFloat@eCConfigFile@@QEBAMAEBVbCString@@0@Z
?GetFloat@eCConfigFile@@QEBAMAEBVbCString@@0M@Z
?GetFloat@eCUnicodeConfigFile@@QEBAMAEBVbCUnicodeString@@0@Z
?GetFloat@eCUnicodeConfigFile@@QEBAMAEBVbCUnicodeString@@0M@Z
?GetFloatArray@eCDX9Effect@@UEAA?AW4bEResult@@QEAX0I@Z
?GetFntTileItem@eCGuiListCtrl2@@QEBA?AVbCString@@XZ
?GetFntTileSubItem@eCGuiListCtrl2@@QEBA?AVbCString@@XZ
?GetFocalRange@eCCameraBase@@QEBAAEBVbCVector@@XZ
?GetFocus@eCEditEventArgs@@QEBA_NXZ
?GetFog@eCFrustumDatabase@@QEAAPEAVeCGfxFog@@XZ
?GetFog@eCGfxFog@@QEBA?AW4bEResult@@AEAUeSGfxFogData@eCGfxShared@@@Z
?GetFogColor@eCWeatherStates@@QEAAAEAVeCColorScale@@XZ
?GetFogColor@eCWeatherStates@@QEBAAEBVeCColorScale@@XZ
?GetFogColor@eCWeatherZone_PS@@QEBAAEBVbCFloatColor@@XZ
?GetFogColorOverwrite@eCWeatherZone_PS@@QEBAAEBV?$bTPropertyContainer@W4eEWeatherZoneOverwrite@@@@XZ
?GetFogDensity@eCWeatherStates@@QEAAAEAVeCFloatScale@@XZ
?GetFogDensity@eCWeatherStates@@QEBAAEBVeCFloatScale@@XZ
?GetFogDensity@eCWeatherZone_PS@@QEBAAEBMXZ
?GetFogDensityOverwrite@eCWeatherZone_PS@@QEBAAEBV?$bTPropertyContainer@W4eEWeatherZoneOverwrite@@@@XZ
?GetFogEnd@eCWeatherStates@@QEAAAEAVeCFloatScale@@XZ
?GetFogEnd@eCWeatherStates@@QEBAAEBVeCFloatScale@@XZ
?GetFogEnd@eCWeatherZone_PS@@QEBAAEBMXZ
?GetFogEndrOverwrite@eCWeatherZone_PS@@QEBAAEBV?$bTPropertyContainer@W4eEWeatherZoneOverwrite@@@@XZ
?GetFogStart@eCWeatherStates@@QEAAAEAVeCFloatScale@@XZ
?GetFogStart@eCWeatherStates@@QEBAAEBVeCFloatScale@@XZ
?GetFogStart@eCWeatherZone_PS@@QEBAAEBMXZ
?GetFogStartrOverwrite@eCWeatherZone_PS@@QEBAAEBV?$bTPropertyContainer@W4eEWeatherZoneOverwrite@@@@XZ
?GetFont@eCGuiFontProxy2@@QEBAPEAVeCDeferredGuiFont2@@XZ
?GetFont@eCGuiWindow2@@QEBA?AVbCString@@H@Z
?GetFont@eCGuiWindow2@@QEBA?AVbCString@@XZ
?GetFontCache@eCGuiDevice2@@QEAAAEBVeCGuiFontCache2@@XZ
?GetFontCache@eCGuiFont2@@QEBAPEAVeCGuiFontCache2@@XZ
?GetFontColor@eCGuiWindow2@@QEBA?AVbCByteAlphaColor@@H@Z
?GetFontColorDisabled@eCGuiWindow2@@QEBA?AVbCByteAlphaColor@@XZ
?GetFontColorHot@eCGuiWindow2@@QEBA?AVbCByteAlphaColor@@XZ
?GetFontColorNormal@eCGuiWindow2@@QEBA?AVbCByteAlphaColor@@XZ
?GetFontColorPushed@eCGuiWindow2@@QEBA?AVbCByteAlphaColor@@XZ
?GetFontHeight@eCFont@@UEAAHXZ
?GetFontInfoA@eCGuiSystemFont2@@QEBA_NAEAUtagLOGFONTA@@@Z
?GetFontInfoA@eCGuiSystemFontDesc2@@QEBA_NAEAUtagLOGFONTA@@@Z
?GetFontInfoW@eCGuiSystemFont2@@QEBA_NAEAUtagLOGFONTW@@@Z
?GetFontInfoW@eCGuiSystemFontDesc2@@QEBA_NAEAUtagLOGFONTW@@@Z
?GetFontNameA@eCDeferredGuiFont2@@UEBA?AVbCString@@XZ
?GetFontNameA@eCGuiBaseFont2@@UEBA?AVbCString@@XZ
?GetFontNameA@eCGuiFont2@@UEBA?AVbCString@@XZ
?GetFontNameW@eCDeferredGuiFont2@@UEBA?AVbCUnicodeString@@XZ
?GetFontNameW@eCGuiBaseFont2@@UEBA?AVbCUnicodeString@@XZ
?GetFontNameW@eCGuiFont2@@UEBA?AVbCUnicodeString@@XZ
?GetForceLowestMipMapLevel@eCDX9Device@@UEAA_NXZ
?GetForceLowestMipMapLevel@eCGfxMixerAdmin@@QEBA?AW4bEResult@@AEA_N@Z
?GetFormat@eCAudioSound@@QEBA?AW4eEAudioResult@@PEAW4eEAudioSoundType@@PEAW4eEAudioSoundFormat@@PEAH2@Z
?GetFormat@eCDepthMap@@QEBA?AW4eEDepthMapFormat@@XZ
?GetFrameIndent@eCGuiSplitImage2@@QEBAAEBVbCRect@@XZ
?GetFrameSync@eCAnimation2Admin@@QEBAKXZ
?GetFrameTime@eCTimer@@QEBAMXZ
?GetFrameTimeInSeconds@eCTimer@@QEBAMXZ
?GetFramesPerSecond@eCGuiAnimImage2@@QEBAAEBMXZ
?GetFreePixelCount@eCLightmapBatcher@@QEBAHXZ
?GetFrequ@eCLightmapBitmap@@QEAAMHPEAVbCVector@@@Z
?GetFrequency@eCAudioChannel@@QEBA?AW4eEAudioResult@@AEAM@Z
?GetFrozenOverlayMaterial@eCShaderBase@@QEBAPEAVeCMaterialResource2@@XZ
?GetFrozenOverlayMaterialName@eCShaderBase@@QEBA?AVbCString@@XZ
?GetFrustum@eCFrustumFilter@@QEBAAEBVbCFrustum@@XZ
?GetFrustumDatabase@eCCameraBase@@QEAAAEAVeCFrustumDatabase@@XZ
?GetFrustumDatabase@eCCameraBase@@QEBAAEBVeCFrustumDatabase@@XZ
?GetFrustumDatabase@eCShadowMapBase@@QEAAAEAVeCFrustumDatabase@@XZ
?GetFrustumDatabaseCapsTemplate@eCRenderSystemAdmin@@QEAAAEAUeSCaps@eCFrustumDatabase@@XZ
?GetFrustumElementItem@eCGeometryEntity@@QEAAAEAVeCFrustumElementItem@@XZ
?GetFrustumElementItem@eCGeometryEntity@@QEBAAEBVeCFrustumElementItem@@XZ
?GetFrustumFilter@eCFrustumDatabase@@QEAAAEAVeCFrustumFilter@@XZ
?GetFullLighting@eCGfxCameraStates@@QEBA?AW4bEResult@@AEA_N@Z
?GetFullRowSelect@eCGuiListCtrl2@@QEBA_NXZ
?GetFunctionData@eCDX9HLSLShader@@UEBA?AW4bEResult@@PEAPEAXAEAK@Z
?GetFunctionData@eCGfxHLSLShader@@QEBA?AW4bEResult@@PEAPEAXAEAK@Z
?GetGameTime@eCTimer@@QEBAKXZ
?GetGammaRamp@eCDX9Device@@UEAA?AW4bEResult@@PEAUeSGfxGammaRamp@eCGfxShared@@@Z
?GetGenMipMaps@eCImageFilterTextureRandom@@QEBAAEB_NXZ
?GetGeneralAmbient@eCHemisphere_PS@@QEBAAEBVbCFloatColor@@XZ
?GetGeometryEntity@eCEntityPropertySet@@QEAAPEAVeCGeometryEntity@@XZ
?GetGeometryEntity@eCEntityPropertySet@@QEBAPEBVeCGeometryEntity@@XZ
?GetGeometryEntity@eCEntityProxy@@QEAAPEAVeCGeometryEntity@@XZ
?GetGeometryEntity@eCEntityProxy@@QEBAPEBVeCGeometryEntity@@XZ
?GetGizmoData@eCArea_StringProperty_PS@@IEAAXPEAX@Z
?GetGizmoData@eCAudioEmitter_PS@@IEAAXPEAX@Z
?GetGizmoData@eCCollisionShape_PS@@IEAAXPEAVeCCollisionShape@@PEAX@Z
?GetGizmoData@eCGeometryEntity@@QEAAXPEAX@Z
?GetGizmoForPropertySetEnabled@eCGizmoBase@@SAAEBV?$bTValArray@_N@@XZ
?GetGizmoScaling@eCArea_StringProperty_PS@@IEAAMPEAVeCCameraBase@@@Z
?GetGizmoScaling@eCAudioEmitter_PS@@IEAAMPEAVeCCameraBase@@@Z
?GetGizmoScaling@eCCollisionShape_PS@@IEBAMPEAVeCCameraBase@@@Z
?GetGizmoScaling@eCGeometryEntity@@QEAAMPEAVeCCameraBase@@@Z
?GetGizmoScaling@eCPointLight_PS@@IEAAMPEAVeCCameraBase@@@Z
?GetGizmoScaling@eCStaticAmbientLight_PS@@IEAAMPEAVeCCameraBase@@@Z
?GetGizmoScaling@eCStaticPointLight_PS@@IEAAMPEAVeCCameraBase@@@Z
?GetGizmoTrafoSpaceWorldMatrix@eCArea_StringProperty_PS@@IEAAXPEAVeCCameraBase@@AEAVbCMatrix@@@Z
?GetGizmoTrafoSpaceWorldMatrix@eCAudioEmitter_PS@@IEAAXPEAVeCCameraBase@@AEAVbCMatrix@@@Z
?GetGizmoTrafoSpaceWorldMatrix@eCCollisionShape_PS@@IEBAXPEAVeCCameraBase@@PEAVeCCollisionShape@@AEAVbCMatrix@@@Z
?GetGizmoTrafoSpaceWorldMatrix@eCGeometryEntity@@QEAAXPEAVeCCameraBase@@AEAVbCMatrix@@@Z
?GetGizmoTrafoSpaceWorldMatrix@eCPointLight_PS@@IEAAXPEAVeCCameraBase@@AEAVbCMatrix@@@Z
?GetGizmoTrafoSpaceWorldMatrix@eCStaticAmbientLight_PS@@IEAAXPEAVeCCameraBase@@AEAVbCMatrix@@@Z
?GetGizmoTrafoSpaceWorldMatrix@eCStaticPointLight_PS@@IEAAXPEAVeCCameraBase@@AEAVbCMatrix@@@Z
?GetGlobalAlpha@eCShaderBase@@UEBAMH@Z
?GetGlobalAlpha@eCShaderDefault@@UEBAMH@Z
?GetGlobalAlpha@eCShaderParticle@@UEBAMH@Z
?GetGlobalShaderConstants@eCShaderBase@@UEAAPEAVeCShaderConstantsBase@@XZ
?GetGlobalShaderConstants@eCShaderDefault@@UEAAPEAVeCShaderConstantsBase@@XZ
?GetGlobalShaderConstants@eCShaderLightStreaks@@UEAAPEAVeCShaderConstantsBase@@XZ
?GetGlobalShaderConstants@eCShaderParticle@@MEAAPEAVeCShaderConstantsBase@@XZ
?GetGlobalSizeScale@eCParticle_PS@@QEBAAEBVbCRange1@@XZ
?GetGlyphData@eCDX9Font@@UEAA?AW4bEResult@@IAEAVbCRect@@AEAVbCVector2@@AEAPEAVeCAPITexture@@AEAUeSGfxLayersDesc@eCGfxShared@@@Z
?GetGraph@eCContextBase@@QEAAPEAVeCNode@@XZ
?GetGraph@eCContextBase@@QEBAPEBVeCNode@@XZ
?GetGravityEnabled@eCRigidBodyBase_PS@@UEBA_NXZ
?GetGravityEnabled@eCRigidBody_PS@@UEBA_NXZ
?GetGravityVector@eCPhysicsScene@@QEBA?AVbCVector@@XZ
?GetGravityVector@eCPhysicsScene_PS@@QEBAAEBVbCVector@@XZ
?GetGrid@eCVegetation_PS@@QEBAPEAVeCVegetation_Grid@@XZ
?GetGridHeight@eCVegetation_Grid@@QEBAHXZ
?GetGridNodeSize@eCVegetation_PS@@QEBAAEBMXZ
?GetGridRect@eCVegetation_Grid@@QEBAAEBVbCRect@@XZ
?GetGridWidth@eCVegetation_Grid@@QEBAHXZ
?GetGroundLight@eCHemisphere_PS@@QEBAAEBVbCFloatColor@@XZ
?GetGroup@eCCollisionShape@@QEBAAEBV?$bTPropertyContainer@W4eEShapeGroup@@@@XZ
?GetGroup@eCCollisionShape_PS@@QEBAAEBV?$bTPropertyContainer@W4eECollisionGroup@@@@XZ
?GetGroupsCanCollide@eCPhysicsScene@@QEBA_NW4eEShapeGroup@@0@Z
?GetGroupsCanCollide@eCPhysicsScene_PS@@QEBA_NW4eEShapeGroup@@0@Z
?GetGuid@eCModuleAdmin@@QEBA?AVbCGuid@@PEBVeCEngineComponentBase@@@Z
?GetGustDuration@eCSpeedTreeWind_PS@@QEBAAEBVbCVector2@@XZ
?GetGustFrequency@eCSpeedTreeWind_PS@@QEBAAEBMXZ
?GetGustStrength@eCSpeedTreeWind_PS@@QEBAAEBVbCVector2@@XZ
?GetHFReference@eCAudioReverbPreset@@QEBAAEBMXZ
?GetHandle@eCArchiveFile@@QEAAPEAVIFFFileStream2@@XZ
?GetHandle@eCAudioChannel@@QEBAPEAVChannel@FMOD@@XZ
?GetHandle@eCAudioChannelGroup@@QEBAPEAVChannelGroup@FMOD@@XZ
?GetHandle@eCAudioReverb@@QEBAPEAVReverb3D@FMOD@@XZ
?GetHandle@eCAudioSound@@QEBAPEAVSound@FMOD@@XZ
?GetHandle@eCAudioSystem@@QEBAPEAVSystem@FMOD@@XZ
?GetHandle@eCDX9Device@@QEAAPEAUIDirect3DDevice9@@XZ
?GetHandle@eCDX9Font@@IEBAPEAUID3DXFont@@XZ
?GetHandle@eCWindow@@QEBAPEAUHWND__@@XZ
?GetHardLimit@eCResourceCache2@@QEBAHXZ
?GetHardwareEnvironmentDesc@eCApplication@@QEAAAEAUeSHardwareEnvironmentDesc@1@XZ
?GetHardwareInstancingVertexData@eCShaderMaterialAdmin@@QEAAPEAVeCGfxVertexData@@XZ
?GetHazeColor@eCShaderSkyDome@@QEBAAEBVbCFloatColor@@XZ
?GetHazeColor@eCWeatherStates@@QEAAAEAVeCColorScale@@XZ
?GetHazeColor@eCWeatherStates@@QEBAAEBVeCColorScale@@XZ
?GetHazeColor@eCWeatherZone_PS@@QEBAAEBVbCFloatColor@@XZ
?GetHazeColorOverwrite@eCWeatherZone_PS@@QEBAAEBV?$bTPropertyContainer@W4eEWeatherZoneOverwrite@@@@XZ
?GetHeaderImage@eCGuiListCtrl2@@QEBA?AVbCString@@HH@Z
?GetHeight@eCCollisionShape@@QEAAMXZ
?GetHeight@eCCollisionShape@@QEBA?BMXZ
?GetHeight@eCGlyphOutline@@QEBAIXZ
?GetHeight@eCGuiSystemFont2@@QEBAHXZ
?GetHeight@eCGuiSystemFontDesc2@@QEBAHXZ
?GetHeight@eCImageFilterTextureRandom@@QEBAAEBHXZ
?GetHeight@eCImageResource2@@QEBAAEBHXZ
?GetHeight@eCLightmapBitmap@@QEBAJXZ
?GetHierarchy@eCSubMesh@@QEBAAEBV?$bTSkipTree@VbCBox@@K@@XZ
?GetHighQuality@eCImageFilterShadowMask@@QEBAAEB_NXZ
?GetHighlightedOverlayMaterial@eCShaderBase@@QEBAPEAVeCMaterialResource2@@XZ
?GetHighlightedOverlayMaterialName@eCShaderBase@@QEBA?AVbCString@@XZ
?GetHitByProjectile@eCCollisionShape_PS@@QEBAAEB_NXZ
?GetHitByProjectile@eCMesh_PS@@QEBAAEB_NXZ
?GetHitSubType@eCIterator@@QEBA?AW4eEHitSubType@eIterator@@XZ
?GetHitSubType@eCIteratorReport@@QEBA?AW4eEHitSubType@eIterator@@XZ
?GetHorizontalScrollBar@eCGuiFrame2@@QEBA_NXZ
?GetHotSpot@eCGuiCursor2@@QEBAAEBVbCPoint@@XZ
?GetI16@eCConfigFile@@QEBAFAEBVbCString@@0@Z
?GetI16@eCConfigFile@@QEBAFAEBVbCString@@0F@Z
?GetI16@eCUnicodeConfigFile@@QEBAFAEBVbCUnicodeString@@0@Z
?GetI16@eCUnicodeConfigFile@@QEBAFAEBVbCUnicodeString@@0F@Z
?GetI32@eCConfigFile@@QEBAJAEBVbCString@@0@Z
?GetI32@eCConfigFile@@QEBAJAEBVbCString@@0J@Z
?GetI32@eCUnicodeConfigFile@@QEBAJAEBVbCUnicodeString@@0@Z
?GetI32@eCUnicodeConfigFile@@QEBAJAEBVbCUnicodeString@@0J@Z
?GetI8@eCConfigFile@@QEBACAEBVbCString@@0@Z
?GetI8@eCConfigFile@@QEBACAEBVbCString@@0C@Z
?GetI8@eCUnicodeConfigFile@@QEBACAEBVbCUnicodeString@@0@Z
?GetI8@eCUnicodeConfigFile@@QEBACAEBVbCUnicodeString@@0C@Z
?GetID@eCContextBase@@QEBAAEBVbCGuid@@XZ
?GetID@eCDynamicEntity@@UEBAAEBVbCPropertyID@@XZ
?GetID@eCEntity@@UEBAAEBVbCPropertyID@@XZ
?GetID@eCGuiWindow2@@QEBAGXZ
?GetID@eCLocString@@QEBA?AVbCString@@XZ
?GetID@eCLocStringEx@@QEBA?AVbCString@@XZ
?GetID@eCTemplateEntity@@UEBAAEBVbCPropertyID@@XZ
?GetIDDown@eCGuiWindow2@@QEBAGXZ
?GetIDLeft@eCGuiWindow2@@QEBAGXZ
?GetIDList@eCLocAdmin2@@QEBAXAEAV?$bTObjArray@VbCString@@@@@Z
?GetIDRight@eCGuiWindow2@@QEBAGXZ
?GetIDUp@eCGuiWindow2@@QEBAGXZ
?GetIconSize@eCGuiBitmapList2@@UEBA?AVbCPoint@@XZ
?GetIconSize@eCGuiCursor2@@QEBAAEBVbCPoint@@XZ
?GetIconSize@eCGuiImageCollection2@@UEBA?AVbCPoint@@XZ
?GetIconSize@eCGuiImageList2@@UEBA?AVbCPoint@@XZ
?GetIconSizeLarge@eCGuiListCtrl2@@QEBAAEBVbCPoint@@XZ
?GetIconSizeSmall@eCGuiListCtrl2@@QEBAAEBVbCPoint@@XZ
?GetIconSpacing@eCGuiListCtrl2@@QEBA?AVbCPoint@@XZ
?GetIgnoreEntities@eCPhysicsScene@@QEAAXAEAVeCGeometryEntity@@AEAV?$bTPtrArray@PEAVeCGeometryEntity@@@@@Z
?GetIgnoredByTraceRay@eCCollisionShape@@QEBAAEB_NXZ
?GetIgnoredByTraceRay@eCCollisionShape_PS@@QEBAAEB_NXZ
?GetIgnoredByTraceRay@eCMaterialResource2@@QEBAAEB_NXZ
?GetIlluminationAt@eCIlluminationAdmin@@QEAAXAEBVbCBox@@AEAUeSShaderMaterialIllumination@@@Z
?GetIlluminationPS@eCFrustumElementItem@@QEBAPEAVeCIlluminated_PS@@XZ
?GetImage@eCDepthMap@@UEBAPEAVeCGfxImageData@@XZ
?GetImage@eCGlyphSheet@@QEBAPEAVeCGfxImageData@@XZ
?GetImage@eCGlyphSheetCollection@@QEAAPEAVeCGfxImageData@@I@Z
?GetImage@eCGuiImageList2@@QEBAPEAVeCGuiImage2@@H@Z
?GetImage@eCGuiWindow2@@QEBA?AVbCString@@HH@Z
?GetImage@eCImageFilterImage@@QEBAPEAVeCImageResource2@@XZ
?GetImage@eCResource2@@SAPEAVeCImageResource2@@AEBVbCString@@@Z
?GetImage@eCShadowMapDirectionalLight2VS@@UEBAPEAVeCGfxImageData@@XZ
?GetImage@eSOutput@eCImageFilterBase@@QEBAPEAVeCGfxImageData@@XZ
?GetImageCollectionName@eCGuiImageCollection2@@QEBAAEBVbCString@@XZ
?GetImageCollectionNameA@eCGuiImageCollection2@@QEBA?AVbCString@@XZ
?GetImageCollectionNameW@eCGuiImageCollection2@@QEBA?AVbCUnicodeString@@XZ
?GetImageCount@eCGuiBitmapList2@@UEBAHXZ
?GetImageCount@eCGuiImageCollection2@@UEBAHXZ
?GetImageCount@eCGuiImageList2@@UEBAHXZ
?GetImageData@eCImageResource2@@QEBAPEAVeCGfxImageData@@XZ
?GetImageEffect@eCImageFilterImageEffect@@QEBAPEAVeCImageEffect@@XZ
?GetImageEffectMap@eCImageFilterAdmin@@QEAAAEAV?$eTDocObjectMap@VeCImageEffect@@@@XZ
?GetImageEffectName@eCImageFilterImageEffect@@QEBAAEBVbCString@@XZ
?GetImageFileName@eCImageFilterImage@@QEBA?AVbCString@@XZ
?GetImageFilePath@eCColorSrcCubeSampler@@QEBAAEBVbCImageResourceString@@XZ
?GetImageFilePath@eCColorSrcSampler@@QEBAAEBVbCImageResourceString@@XZ
?GetImageFilter@eCImageEffect@@QEBAAEBV?$bTRefPropertyArray@PEAVeCImageFilterBase@@@@XZ
?GetImageInfo@eCGuiBitmapList2@@UEBA_NHPEAUtagUI_IMAGEINFO@@@Z
?GetImageInfo@eCGuiImageCollection2@@UEBA_NHPEAUtagUI_IMAGEINFO@@@Z
?GetImageInfo@eCGuiImageList2@@UEBA_NHPEAUtagUI_IMAGEINFO@@@Z
?GetImageInfoFromFile@eCDX9Device@@UEAA?AW4bEResult@@AEBVbCString@@AEAUeSImageInfo@eCAPIDevice@@@Z
?GetImageInfoFromMemory@eCDX9Device@@UEAA?AW4bEResult@@PEBXIAEAUeSGfxImageInfo@eCGfxShared@@@Z
?GetImageInfoFromMemory@eCGfxAssistantAdmin@@QEAA?AW4bEResult@@PEBXIAEAUeSGfxImageInfo@eCGfxShared@@@Z
?GetImageListNameA@eCGuiBitmapList2@@QEBA?AVbCString@@XZ
?GetImageListNameA@eCGuiImageList2@@QEBA?AVbCString@@XZ
?GetImageListNameW@eCGuiBitmapList2@@QEBA?AVbCUnicodeString@@XZ
?GetImageListNameW@eCGuiImageList2@@QEBA?AVbCUnicodeString@@XZ
?GetImageName@eCGuiImage2@@QEBAAEBVbCString@@XZ
?GetImageOrMaterial@eCBillboard_PS@@QEBAAEBVbCImageOrMaterialResourceString@@XZ
?GetImageOrMaterial@eCDecal_PS@@QEBAAEBVbCImageOrMaterialResourceString@@XZ
?GetImageRect@eCGuiBitmapList2@@UEBA_NHAEAUtagRECT@@@Z
?GetImageRect@eCGuiImageCollection2@@UEBA_NHAEAUtagRECT@@@Z
?GetImageRect@eCGuiImageList2@@UEBA_NHAEAUtagRECT@@@Z
?GetImageResource@eCColorSrcSampler@@QEBAPEAVeCImageResource2@@XZ
?GetImageSize@eCGuiBitmapList2@@QEBAAEBVbCPoint@@XZ
?GetImageSize@eCGuiImageCollection2@@QEBAAEBVbCPoint@@XZ
?GetImageSize@eCGuiImageList2@@QEBAAEBVbCPoint@@XZ
?GetImageStyle@eCGuiWindow2@@QEBA?AV?$bTPropertyContainer@W4eEImageStyle@@@@H@Z
?GetImgBackground@eCGuiEdit2@@QEBA?AVbCString@@XZ
?GetImgBackground@eCGuiFrame2@@QEBA?AVbCString@@XZ
?GetImgBackground@eCGuiStatic2@@QEBA?AVbCString@@XZ
?GetImgBackground@eCGuiToolTipCtrl2@@QEBA?AVbCString@@XZ
?GetImgBackground@eCListCtrlEventArgs@@QEBA?AVbCString@@XZ
?GetImgBackground@eCStaticEventArgs@@QEBA?AVbCString@@XZ
?GetImgBoxChecked@eCGuiCheckBox2@@QEBA?AVbCString@@XZ
?GetImgBoxIndeterminate@eCGuiCheckBox2@@QEBA?AVbCString@@XZ
?GetImgBoxUnchecked@eCGuiCheckBox2@@QEBA?AVbCString@@XZ
?GetImgCaption@eCGuiFrame2@@QEBA?AVbCString@@XZ
?GetImgCheckRadioDisabled@eCGuiRadioButton2@@QEBA?AVbCString@@XZ
?GetImgCheckRadioHot@eCGuiRadioButton2@@QEBA?AVbCString@@XZ
?GetImgCheckRadioNormal@eCGuiRadioButton2@@QEBA?AVbCString@@XZ
?GetImgCheckRadioPushed@eCGuiRadioButton2@@QEBA?AVbCString@@XZ
?GetImgClientArea@eCGuiFrame2@@QEBA?AVbCString@@XZ
?GetImgClose@eCGuiFrame2@@QEBA?AVbCString@@XZ
?GetImgHeaderDivider@eCGuiListCtrl2@@QEBA?AVbCString@@XZ
?GetImgHeaderItem@eCGuiListCtrl2@@QEBA?AVbCString@@XZ
?GetImgHorzArrowLeft@eCGuiScrollBar2@@QEBA?AVbCString@@XZ
?GetImgHorzArrowRight@eCGuiScrollBar2@@QEBA?AVbCString@@XZ
?GetImgHorzBar@eCGuiProgressBar2@@QEBA?AVbCString@@XZ
?GetImgHorzBarLight@eCGuiProgressBar2@@QEBA?AVbCString@@XZ
?GetImgHorzChannel@eCGuiTrackBar2@@QEBA?AVbCString@@XZ
?GetImgHorzOverlay@eCGuiProgressBar2@@QEBA?AVbCString@@XZ
?GetImgHorzScrollBarLeft@eCGuiFrame2@@QEBA?AVbCString@@XZ
?GetImgHorzScrollBarRight@eCGuiFrame2@@QEBA?AVbCString@@XZ
?GetImgHorzScrollBarThumb@eCGuiFrame2@@QEBA?AVbCString@@XZ
?GetImgHorzScrollBarTrack@eCGuiFrame2@@QEBA?AVbCString@@XZ
?GetImgHorzSelRange@eCGuiTrackBar2@@QEBA?AVbCString@@XZ
?GetImgHorzThumb@eCGuiScrollBar2@@QEBA?AVbCString@@XZ
?GetImgHorzThumb@eCGuiTrackBar2@@QEBA?AVbCString@@XZ
?GetImgHorzTic@eCGuiTrackBar2@@QEBA?AVbCString@@XZ
?GetImgHorzTrack@eCGuiProgressBar2@@QEBA?AVbCString@@XZ
?GetImgHorzTrack@eCGuiScrollBar2@@QEBA?AVbCString@@XZ
?GetImgHorzTrackHot@eCGuiScrollBar2@@QEBA?AVbCString@@XZ
?GetImgHot@eCGuiListCtrl2@@QEBA?AVbCString@@XZ
?GetImgIcon@eCGuiFrame2@@QEBA?AVbCString@@XZ
?GetImgIconItem@eCGuiListCtrl2@@QEBA?AVbCString@@XZ
?GetImgImage@eCGuiCursor2@@QEBA?AVbCString@@XZ
?GetImgListItem@eCGuiListCtrl2@@QEBA?AVbCString@@XZ
?GetImgMaximize@eCGuiFrame2@@QEBA?AVbCString@@XZ
?GetImgMinimize@eCGuiFrame2@@QEBA?AVbCString@@XZ
?GetImgOverlay@eCButtonEventArgs@@QEBA?AVbCString@@XZ
?GetImgOverlay@eCGuiCursor2@@QEBA?AVbCString@@XZ
?GetImgOverlay@eCGuiPictureBox2@@QEBAAEBVeCGuiBitmapProxy2@@XZ
?GetImgOverlay@eCScriptRadioButton@@QEBAAEBVeCGuiBitmapProxy2@@XZ
?GetImgPicture@eCGuiPictureBox2@@QEBA?AVbCString@@XZ
?GetImgPushFaceDisabled@eCButtonEventArgs@@QEBA?AVbCString@@XZ
?GetImgPushFaceDisabled@eCGuiButton2@@QEBA?AVbCString@@XZ
?GetImgPushFaceHot@eCButtonEventArgs@@QEBA?AVbCString@@XZ
?GetImgPushFaceHot@eCGuiButton2@@QEBA?AVbCString@@XZ
?GetImgPushFaceNormal@eCButtonEventArgs@@QEBA?AVbCString@@XZ
?GetImgPushFaceNormal@eCGuiButton2@@QEBA?AVbCString@@XZ
?GetImgPushFacePushed@eCButtonEventArgs@@QEBA?AVbCString@@XZ
?GetImgPushFacePushed@eCGuiButton2@@QEBA?AVbCString@@XZ
?GetImgReportColumn@eCGuiListCtrl2@@QEBA?AVbCString@@XZ
?GetImgReportItem@eCGuiListCtrl2@@QEBA?AVbCString@@XZ
?GetImgReportSubItem@eCGuiListCtrl2@@QEBA?AVbCString@@XZ
?GetImgRestore@eCGuiFrame2@@QEBA?AVbCString@@XZ
?GetImgSelection@eCGuiEdit2@@QEBA?AVbCString@@XZ
?GetImgSizeGrip@eCGuiFrame2@@QEBA?AVbCString@@XZ
?GetImgSmallIconItem@eCGuiListCtrl2@@QEBA?AVbCString@@XZ
?GetImgTileItem@eCGuiListCtrl2@@QEBA?AVbCString@@XZ
?GetImgTileSubItem@eCGuiListCtrl2@@QEBA?AVbCString@@XZ
?GetImgUncheckRadioDisabled@eCGuiRadioButton2@@QEBA?AVbCString@@XZ
?GetImgUncheckRadioHot@eCGuiRadioButton2@@QEBA?AVbCString@@XZ
?GetImgUncheckRadioNormal@eCGuiRadioButton2@@QEBA?AVbCString@@XZ
?GetImgUncheckRadioPushed@eCGuiRadioButton2@@QEBA?AVbCString@@XZ
?GetImgVertArrowDown@eCGuiScrollBar2@@QEBA?AVbCString@@XZ
?GetImgVertArrowUp@eCGuiScrollBar2@@QEBA?AVbCString@@XZ
?GetImgVertBar@eCGuiProgressBar2@@QEBA?AVbCString@@XZ
?GetImgVertBarLight@eCGuiProgressBar2@@QEBA?AVbCString@@XZ
?GetImgVertChannel@eCGuiTrackBar2@@QEBA?AVbCString@@XZ
?GetImgVertOverlay@eCGuiProgressBar2@@QEBA?AVbCString@@XZ
?GetImgVertScrollBarDown@eCGuiFrame2@@QEBA?AVbCString@@XZ
?GetImgVertScrollBarThumb@eCGuiFrame2@@QEBA?AVbCString@@XZ
?GetImgVertScrollBarTrack@eCGuiFrame2@@QEBA?AVbCString@@XZ
?GetImgVertScrollBarUp@eCGuiFrame2@@QEBA?AVbCString@@XZ
?GetImgVertSelRange@eCGuiTrackBar2@@QEBA?AVbCString@@XZ
?GetImgVertThumb@eCGuiScrollBar2@@QEBA?AVbCString@@XZ
?GetImgVertThumb@eCGuiTrackBar2@@QEBA?AVbCString@@XZ
?GetImgVertTic@eCGuiTrackBar2@@QEBA?AVbCString@@XZ
?GetImgVertTrack@eCGuiProgressBar2@@QEBA?AVbCString@@XZ
?GetImgVertTrack@eCGuiScrollBar2@@QEBA?AVbCString@@XZ
?GetImgVertTrackHot@eCGuiScrollBar2@@QEBA?AVbCString@@XZ
?GetImmBoolArray@eCGfxEffect@@QEBA?AW4bEResult@@QEAX0I@Z
?GetImmFloatArray@eCGfxEffect@@QEBA?AW4bEResult@@QEAX0I@Z
?GetImmIntArray@eCGfxEffect@@QEBA?AW4bEResult@@QEAX0I@Z
?GetImmMatrixArray@eCGfxEffect@@QEBA?AW4bEResult@@QEAX0I@Z
?GetImmMatrixTransposeArray@eCGfxEffect@@QEBA?AW4bEResult@@QEAX0I@Z
?GetImmParameter@eCGfxEffect@@QEBA?AW4bEResult@@QEAX0I@Z
?GetImmVectorArray@eCGfxEffect@@QEBA?AW4bEResult@@QEAX0I@Z
?GetImmediateMode@eCResourceModule2@@QEBA_NXZ
?GetImplementation@eCColorSrcBase@@UEAA_NAEAV?$bTObjArray@UeSShaderMaterialDeclaration@@@@AEAVbCString@@_N@Z
?GetImplementation@eCColorSrcBlend@@UEAA_NAEAV?$bTObjArray@UeSShaderMaterialDeclaration@@@@AEAVbCString@@_N@Z
?GetImplementation@eCColorSrcCamDistance@@UEAA_NAEAV?$bTObjArray@UeSShaderMaterialDeclaration@@@@AEAVbCString@@_N@Z
?GetImplementation@eCColorSrcCamObstacle@@UEAA_NAEAV?$bTObjArray@UeSShaderMaterialDeclaration@@@@AEAVbCString@@_N@Z
?GetImplementation@eCColorSrcCombiner@@UEAA_NAEAV?$bTObjArray@UeSShaderMaterialDeclaration@@@@AEAVbCString@@_N@Z
?GetImplementation@eCColorSrcConstant@@UEAA_NAEAV?$bTObjArray@UeSShaderMaterialDeclaration@@@@AEAVbCString@@_N@Z
?GetImplementation@eCColorSrcConstantAnimation@@UEAA_NAEAV?$bTObjArray@UeSShaderMaterialDeclaration@@@@AEAVbCString@@_N@Z
?GetImplementation@eCColorSrcConstantSwitch@@UEAA_NAEAV?$bTObjArray@UeSShaderMaterialDeclaration@@@@AEAVbCString@@_N@Z
?GetImplementation@eCColorSrcCubeSampler@@UEAA_NAEAV?$bTObjArray@UeSShaderMaterialDeclaration@@@@AEAVbCString@@_N@Z
?GetImplementation@eCColorSrcFresnel@@UEAA_NAEAV?$bTObjArray@UeSShaderMaterialDeclaration@@@@AEAVbCString@@_N@Z
?GetImplementation@eCColorSrcMask@@UEAA_NAEAV?$bTObjArray@UeSShaderMaterialDeclaration@@@@AEAVbCString@@_N@Z
?GetImplementation@eCColorSrcProxy@@QEAA_NAEAV?$bTObjArray@UeSShaderMaterialDeclaration@@@@AEAVbCString@@_N@Z
?GetImplementation@eCColorSrcSampler@@UEAA_NAEAV?$bTObjArray@UeSShaderMaterialDeclaration@@@@AEAVbCString@@_N@Z
?GetImplementation@eCColorSrcSkydomeSampler@@UEAA_NAEAV?$bTObjArray@UeSShaderMaterialDeclaration@@@@AEAVbCString@@_N@Z
?GetImplementation@eCColorSrcVertexColor@@UEAA_NAEAV?$bTObjArray@UeSShaderMaterialDeclaration@@@@AEAVbCString@@_N@Z
?GetInZoneScript@eCWeatherZone_PS@@QEBAAEBVeCScriptProxyScript@@XZ
?GetIncimentalLightmapFile@eCLightmapPreprocessor@@IEAA?AVeCArchiveFile@@AEAUeSLightmap@1@_N@Z
?GetIndexCount@eCSubMesh@@QEBAAEBKXZ
?GetIndexData@eCGfxIndexData@@IEAA?AW4bEResult@@AEAPEAVeCAPIIndexData@@@Z
?GetIndexData@eCMeshResource2@@QEBA?AV?$eTIndexBufferArray@K@@_N@Z
?GetIndexList@eCIteratorPrimitiveIndexedTriangleList@@QEAAAEAV?$bTValArray@G@@XZ
?GetIndexList@eCIteratorPrimitiveIndexedTriangleList@@QEBAAEBV?$bTValArray@G@@XZ
?GetIndexMap@eCPSMap@@AEAAPEAUeSPSIndexMap@@AEBUSHash@1@AEBV?$bTValArray@PEAVeCEntityPropertySet@@@@AEBVbCString@@@Z
?GetIndexMap@eCPSMap@@QEAAPEAUeSPSIndexMap@@AEBV?$bTValArray@PEAVeCEntityPropertySet@@@@AEBVbCString@@@Z
?GetIndexedBoundary@eCCollisionMeshResource2@@QEBAXAEAVbCBox@@G@Z
?GetIndexedMaterial@eCCollisionMeshResource2@@QEBA_NAEAUeSPhysicMaterialInfos@@G@Z
?GetIndices@eCDecal@@QEBAAEBV?$bTValArray@G@@XZ
?GetIndoorAmbientColor@eCHemisphere_PS@@QEBAAEBVbCFloatColor@@XZ
?GetInfluenceGlobalAmbientOcclusion@eCSpeedTree_PS@@QEBAAEB_NXZ
?GetInitialAge@eCParticle_PS@@QEBAAEBVbCRange1@@XZ
?GetInitialBoundary@eCMotionActorResource2@@QEBAXAEAVbCBox@@@Z
?GetInitialDelay@eCParticle_PS@@QEBAAEBVbCRange1@@XZ
?GetInnerConeScale@eCLightStreaks_PS@@QEBAAEBMXZ
?GetInnerExtends@eCWeatherZone_PS@@QEBAAEBVbCVector@@XZ
?GetInnerLenghtScale@eCLightStreaks_PS@@QEBAAEBMXZ
?GetInnerRadius@eCWeatherZone_PS@@QEBAAEBMXZ
?GetInputAt@eCImageFilterBase@@UEBA_NHAEAUeSInput@1@@Z
?GetInputAt@eCImageFilterCopy@@UEBA_NHAEAUeSInput@eCImageFilterBase@@@Z
?GetInputAt@eCImageFilterEffect@@UEBA_NHAEAUeSInput@eCImageFilterBase@@@Z
?GetInputCount@eCImageFilterBase@@UEBAHXZ
?GetInputCount@eCImageFilterCopy@@UEBAHXZ
?GetInputCount@eCImageFilterEffect@@UEBAHXZ
?GetInputSizeIndex@eCImageFilterRTBase@@QEBAAEBJXZ
?GetInputSizeScale@eCImageFilterRTBase@@QEBAAEBVbCVector2@@XZ
?GetInputX360@eCInputAdmin@@QEBAPEAVeCInputX360@@XZ
?GetInsertType@eCEntity@@QEBA?AW4eEInsertType@1@XZ
?GetInstance@?$eTShaderEllementProxy@VeCColorSrcBase@@@@QEBAPEAVeCColorSrcBase@@XZ
?GetInstance@?$eTShaderEllementProxy@VeCTexCoordSrcBase@@@@QEBAPEAVeCTexCoordSrcBase@@XZ
?GetInstance@eCApplication@@SAAEAV1@XZ
?GetInstance@eCArchiveManager@@SAAEAV1@XZ
?GetInstance@eCAudioModule@@SAAEAV1@XZ
?GetInstance@eCBenchmark@@SAAEAV1@XZ
?GetInstance@eCConfigAdmin@@SAAEAV1@XZ
?GetInstance@eCDebugModule@@SAAEAV1@XZ
?GetInstance@eCFileChangeListener@@SAAEAV1@XZ
?GetInstance@eCGfxMixerAdmin@@SAPEAV1@XZ
?GetInstance@eCGizmoBase@@SAPEAV1@W4eEGizmoType@@@Z
?GetInstance@eCGuiModule2@@SAAEAV1@XZ
?GetInstance@eCLocAdmin2@@SAAEAV1@XZ
?GetInstance@eCModuleAdmin@@SAAEAV1@XZ
?GetInstance@eCPSMap@@SAAEAV1@XZ
?GetInstance@eCParticleModule@@SAAEAV1@XZ
?GetInstance@eCPhysicalFileSystem@@SAAEAV1@XZ
?GetInstance@eCPhysicsScene@@SAAEAV1@XZ
?GetInstance@eCPortalAdmin@@SAAEAV1@XZ
?GetInstance@eCProcessor@@SAAEAV1@XZ
?GetInstance@eCResourceModule2@@SAAEAV1@XZ
?GetInstance@eCScriptFunctionMap@@SAAEAV1@XZ
?GetInstance@eCShaderMaterialAdmin@@SAPEAV1@XZ
?GetInstance@eCTimer@@SAAEAV1@XZ
?GetInstance@eCVirtualFileSystem@@SAAEAV1@XZ
?GetInstance@eCWindow@@QEBAPEAUHINSTANCE__@@XZ
?GetInstance@eCWrapper_emfx3ActorInstance@@QEAAPEAVActorInstance@EMotionFX@@XZ
?GetInstance@eCWrapper_emfx3ActorInstance@@QEBAPEBVActorInstance@EMotionFX@@XZ
?GetInstance@eSAnimationOptions@@SAAEAU1@XZ
?GetInstance@eSAudioOptions@@SAAEAU1@XZ
?GetInstance@eSDebugOptions@@SAAEAU1@XZ
?GetInstance@eSFPUOptions@@SAAEAU1@XZ
?GetInstance@eSGraphicsOptions@@SAAEAU1@XZ
?GetInstance@eSKeyboardOptions@@SAAEAU1@XZ
?GetInstance@eSLanguageOptions@@SAAEAU1@XZ
?GetInstance@eSMouseOptions@@SAAEAU1@XZ
?GetInstance@eSPhysicsOptions@@SAAEAU1@XZ
?GetInstance@eSProfilerOptions@@SAAEAU1@XZ
?GetInstance@eSRenderOptions@@SAAEAU1@XZ
?GetInstance@eSSceneOptions@@SAAEAU1@XZ
?GetInstance@eSTimerOptions@@SAAEAU1@XZ
?GetInstance@eSVegetationOptions@@SAAEAU1@XZ
?GetInstance@eSWindowOptions@@SAAEAU1@XZ
?GetInstanceImmediate@eCSpeedTree_PS@@QEBAPEAVeCWraper_SpeedTreeRT@@XZ
?GetInstanced@eCParticle_PS@@QEBAAEB_NXZ
?GetInstancing@eCShaderMaterialAdmin@@QEBA?AW4eEShaderMaterialInstancing@@XZ
?GetInt@eCConfigFile@@QEBAHAEBVbCString@@0@Z
?GetInt@eCConfigFile@@QEBAHAEBVbCString@@0H@Z
?GetInt@eCUnicodeConfigFile@@QEBAHAEBVbCUnicodeString@@0@Z
?GetInt@eCUnicodeConfigFile@@QEBAHAEBVbCUnicodeString@@0H@Z
?GetIntArray@eCDX9Effect@@UEAA?AW4bEResult@@QEAX0I@Z
?GetIntensity@eCDirectionalLight_PS@@QEBAAEBMXZ
?GetIntensity@eCHemisphere_PS@@QEBAAEBMXZ
?GetIntensity@eCPointLight_PS@@QEBAAEBMXZ
?GetIntensity@eCStaticAmbientLight_PS@@QEBAAEBMXZ
?GetIntensity@eCStaticPointLight_PS@@QEBAAEBMXZ
?GetInternalOptimization@eCGfxContextAdmin@@QEBA?AW4bEResult@@AEAW4eEITLOptimization@eCGfxShared@@@Z
?GetIntersectionCount@eCAnimationCollisionDesc@@UEBAKXZ
?GetIntersectionCount@eCCollisionDescMesh@@UEBAKXZ
?GetIntersectionCount@eCPrimitiveCollisionDesc@@UEBAKXZ
?GetIntersectionCount@eCSpeedTreeCollisionDesc@@UEBAKXZ
?GetIntersectionDistance@eCAnimationCollisionDesc@@UEBAMH@Z
?GetIntersectionDistance@eCCollisionDescMesh@@UEBAMH@Z
?GetIntersectionDistance@eCPrimitiveCollisionDesc@@UEBAMH@Z
?GetIntersectionDistance@eCSpeedTreeCollisionDesc@@UEBAMH@Z
?GetIntersectionDistances@eCPrimitiveCollisionDesc@@QEAAAEAV?$bTValArray@M@@XZ
?GetIntersectionDistances@eCPrimitiveCollisionDesc@@QEBAAEBV?$bTValArray@M@@XZ
?GetIntersectionMaterial@eCAnimationCollisionDesc@@UEBAPEAVeCMaterialResource2@@H@Z
?GetIntersectionMaterial@eCCollisionDescMesh@@UEBAPEAVeCMaterialResource2@@H@Z
?GetIntersectionMaterial@eCPrimitiveCollisionDesc@@UEBAPEAVeCMaterialResource2@@H@Z
?GetIntersectionMaterial@eCSpeedTreeCollisionDesc@@UEBAPEAVeCMaterialResource2@@H@Z
?GetIntroBlending@eCWrapper_emfx3ActorInstance@@QEBAMW4eEMotionType@eAnimShared@@@Z
?GetInverseViewMatrix@eCGfxCamera@@QEBAAEBVbCMatrix@@XZ
?GetIsCachedIn@eCCollisionShape@@QEBA_NXZ
?GetIsClimbable@eCCollisionShape_PS@@QEBAAEB_NXZ
?GetIsConvex@eCCollisionMeshResource2@@QEBAAEB_NXZ
?GetIsGameRelevant@eCTemplateEntity@@QEBA_NXZ
?GetIsLazyGenerated@eCCollisionShape@@QEBAAEB_NXZ
?GetIsPersistable@eCProcessibleElement@@QEBAAEB_NXZ
?GetIsPhysicsEnabled@eCPhysicsScene@@QEBAAEB_NXZ
?GetIsPhysicsEnabled@eCPhysicsScene_PS@@QEBAAEB_NXZ
?GetIsSleeping@eCRigidBodyBase_PS@@UEBA_NXZ
?GetIsSleeping@eCRigidBody_PS@@UEBA_NXZ
?GetIsSleepingToggled@eCRigidBody_PS@@IEBA_NXZ
?GetIsUnique@eCCollisionShape_PS@@QEBAAEB_NXZ
?GetItalic@eCGuiSystemFont2@@QEBA_NXZ
?GetItalic@eCGuiSystemFontDesc2@@QEBA_NXZ
?GetItem@eCColorScale@@QEBAAEBUSItem@1@H@Z
?GetItem@eCColorScale@@QEBA_NHAEAMAEAVbCFloatAlphaColor@@@Z
?GetItem@eCFloatScale@@QEBAAEBUSItem@1@H@Z
?GetItem@eCFloatScale@@QEBA_NHAEAM0@Z
?GetItem@eCGuiListCtrl2@@QEBA_NAEAUtagUI_LVITEMW@@@Z
?GetItem@eCVectorScale@@QEBAAEBUSItem@1@H@Z
?GetItem@eCVectorScale@@QEBA_NHAEAMAEAVbCVector@@@Z
?GetItemAt@eCStatisticText@@QEBAAEBUeSStatisticTextItem@@H@Z
?GetItemCount@eCColorScale@@QEBAHXZ
?GetItemCount@eCFloatScale@@QEBAHXZ
?GetItemCount@eCGuiListCtrl2@@QEBAHXZ
?GetItemCount@eCListCtrlEventArgs@@QEBAHXZ
?GetItemCount@eCStatisticText@@QEBAHXZ
?GetItemCount@eCVectorScale@@QEBAHXZ
?GetItemData@eCListCtrlEventArgs@@QEBAPEAXXZ
?GetItemData@eCStatisticList@@UEBA_JH@Z
?GetItemIndex@eCColorScale@@QEBAHAEBUSItem@1@@Z
?GetItemIndex@eCFloatScale@@QEBAHAEBUSItem@1@@Z
?GetItemIndex@eCListCtrlEventArgs@@QEBAHXZ
?GetItemIndex@eCVectorScale@@QEBAHAEBUSItem@1@@Z
?GetItemSpacing@eCGuiListCtrl2@@QEBA?AVbCPoint@@XZ
?GetItemText@eCGuiListCtrl2@@QEBA_NHAEAVbCUnicodeString@@@Z
?GetIteratorReportAtIndex@eCIterator@@QEBAAEBVeCIteratorReport@@H@Z
?GetIteratorReportCount@eCIterator@@QEBAHXZ
?GetJitterPower@eCPrecipitation_PS@@QEBAAEBMXZ
?GetJitterPower@eCWeatherStates@@QEBAAEBMXZ
?GetJitterSpeed@eCPrecipitation_PS@@QEBAAEBMXZ
?GetJitterSpeed@eCWeatherStates@@QEBAAEBMXZ
?GetKey@eCConfigFile_KeyObject@@QEBAAEBVbCString@@XZ
?GetKey@eCUnicodeConfigFile_KeyObject@@QEBAAEBVbCUnicodeString@@XZ
?GetKeyCode@eCListCtrlEventArgs@@QEBAHXZ
?GetKeyCount@eCConfigFile_SectionObject@@QEBAHXZ
?GetKeyCount@eCUnicodeConfigFile_SectionObject@@QEBAHXZ
?GetKeyIndex@eCConfigFile_SectionObject@@IEBAHAEBVbCString@@@Z
?GetKeyIndex@eCUnicodeConfigFile_SectionObject@@IEBAHAEBVbCUnicodeString@@@Z
?GetKeyObject@eCConfigFile_SectionObject@@QEBAPEBVeCConfigFile_KeyObject@@H@Z
?GetKeyObject@eCUnicodeConfigFile_SectionObject@@QEBAPEBVeCUnicodeConfigFile_KeyObject@@H@Z
?GetKeyboardDisabled@eCGuiWindow2@@QEBAAEB_NXZ
?GetKeysFromNode@eCConfigAdmin@@QEAA_NAEAV?$bTObjArray@VbCString@@@@AEBVbCString@@@Z
?GetLFReference@eCAudioReverbPreset@@QEBAAEBMXZ
?GetLRockWindAngle@eCSpeedTreeWind_PS@@QEBAAEBVbCVector2@@XZ
?GetLRockWindSpeed@eCSpeedTreeWind_PS@@QEBAAEBVbCVector2@@XZ
?GetLRustleWindAngle@eCSpeedTreeWind_PS@@QEBAAEBVbCVector2@@XZ
?GetLRustleWindSpeed@eCSpeedTreeWind_PS@@QEBAAEBVbCVector2@@XZ
?GetLabelID@eCGuiScrollBar2@@QEBAAEBGXZ
?GetLabelID@eCGuiTrackBar2@@QEBAAEBGXZ
?GetLabelMargin@eCGuiListCtrl2@@QEBA?AVbCRect@@XZ
?GetLanguage@eCGuiSystemFontLanguage2@@QEBAAEBVbCString@@XZ
?GetLanguageCount@eCLocAdmin2@@QEBAHXZ
?GetLanguages@eCGuiSystemFont2@@QEBAAEBV?$bTObjArray@VeCGuiSystemFontLanguage2@@@@XZ
?GetLastAmbientWasLoop@eCAnimation_PS@@QEBA_NXZ
?GetLastAnimationVariation@eCAnimation_PS@@QEBAHXZ
?GetLastChar@eCFixedGuiBitmapFont2@@QEBAAEBGXZ
?GetLastChild@eCGuiWindow2@@QEBAPEAV1@XZ
?GetLastChild@eCNode@@QEAAPEAV1@XZ
?GetLastChild@eCNode@@QEBAPEBV1@XZ
?GetLastFrameTime@eCTimer@@QEBAMXZ
?GetLastFrameTimeInSeconds@eCTimer@@QEBAMXZ
?GetLastHelperIndex@eCGizmoBase@@SAHXZ
?GetLastPosition@eCCollisionShape@@QEAAAEAVbCVector@@XZ
?GetLastPosition@eCCollisionShape@@QEBAAEBVbCVector@@XZ
?GetLastRenderedAlphaObjects@eCFrustumDatabase@@QEAAAEAV?$bTValArray@VeCRenderOp2@@@@XZ
?GetLastRenderedSolidObjects@eCFrustumDatabase@@QEAAAEAV?$bTValArray@VeCRenderOp2@@@@XZ
?GetLastSibling@eCGuiWindow2@@QEBAPEAV1@XZ
?GetLastSnapshotName@eCApplication@@QEBAAEBVbCString@@XZ
?GetLayer@eCGuiImageCollection2@@QEBAPEAVeCGuiImageList2@@H@Z
?GetLayerCount@eCGuiImageCollection2@@QEBAHXZ
?GetLayers@eCImageFilterTextureRandom@@QEBAAEBHXZ
?GetLayersDescription@eCGfxImageData@@QEAA?AW4bEResult@@AEAUeSGfxLayersDesc@eCGfxShared@@@Z
?GetLayoutState@eCGuiWindow2@@QEBA?AW4eELayoutState@@XZ
?GetLeafBackDiffuseColor@eCShaderLeafs@@QEBA?AVbCFloatColor@@XZ
?GetLeafBackViewFactor@eCShaderLeafs@@QEBAMXZ
?GetLeafCardVertexDecl@eCSpeedTreeAdmin@@QEAAPEAVeCGfxVertexDecl@@XZ
?GetLeafExponent@eCSpeedTreeWind_PS@@QEBAAEBMXZ
?GetLeafIndices@eCAOTreeNode@eCAmbientOcclusionPreprocessor@@QEBAAEBV?$bTValArray@H@@XZ
?GetLeafMeshVertexDecl@eCSpeedTreeAdmin@@QEAAPEAVeCGfxVertexDecl@@XZ
?GetLeafRockAndRustleScaler@eCWraper_SpeedTreeRT@@QEBAAEBVbCVector2@@XZ
?GetLength@eCAudioSound@@QEBAKW4eEAudioTimeUnit@@@Z
?GetLength@eCMoverAnimationRotate@@QEBAAEBMXZ
?GetLevel@eCNode@@QEBAHXZ
?GetLevelOfDetailRange0@eCMesh_PS@@QEBAMXZ
?GetLevelOfDetailRange1@eCMesh_PS@@QEBAMXZ
?GetLevelOfDetailRange2@eCMesh_PS@@QEBAMXZ
?GetLifeTime@eCDecal_PS@@QEBAAEBMXZ
?GetLifetime@eCParticle_PS@@QEBAAEBVbCRange1@@XZ
?GetLightConeAngle@eCShadowMapSpotLight@@QEBAMXZ
?GetLightData@eCShadowMapDirectionalLight2@@QEBAXAEAVbCMatrix@@AEAVbCBox@@@Z
?GetLightDiffuseColor@eCWeatherStates@@QEAAAEAVeCColorScale@@XZ
?GetLightDiffuseColor@eCWeatherStates@@QEBAAEBVeCColorScale@@XZ
?GetLightDiffuseColor@eCWeatherZone_PS@@QEBAAEBVbCFloatColor@@XZ
?GetLightDiffuseOverwrite@eCWeatherZone_PS@@QEBAAEBV?$bTPropertyContainer@W4eEWeatherZoneOverwrite@@@@XZ
?GetLightDirection@eCCascadeShadowMap@@QEBAAEBVbCVector@@XZ
?GetLightIntensity@eCWeatherStates@@QEAAAEAVeCFloatScale@@XZ
?GetLightIntensity@eCWeatherStates@@QEBAAEBVeCFloatScale@@XZ
?GetLightIntensity@eCWeatherZone_PS@@QEBAAEBMXZ
?GetLightIntensityOverwrite@eCWeatherZone_PS@@QEBAAEBV?$bTPropertyContainer@W4eEWeatherZoneOverwrite@@@@XZ
?GetLightPos@eCShadowMapPointLight@@QEBAAEBVbCVector@@XZ
?GetLightRange@eCShadowMapBase@@UEBAMXZ
?GetLightRange@eCShadowMapPointLight@@UEBAMXZ
?GetLightRange@eCShadowMapSpotLight@@UEBAMXZ
?GetLightSet@eCIlluminated_PS@@QEBAPEBVeCLightSet@@XZ
?GetLightSet@eCIlluminationAdmin@@QEAAPEAVeCLightSet@@K@Z
?GetLightSets@eCDynamicLight_PS@@QEBAAEBV?$bTValArray@PEAVeCLightSet@@@@XZ
?GetLightSpecularColor@eCWeatherStates@@QEAAAEAVeCColorScale@@XZ
?GetLightSpecularColor@eCWeatherStates@@QEBAAEBVeCColorScale@@XZ
?GetLightSpecularColor@eCWeatherZone_PS@@QEBAAEBVbCFloatColor@@XZ
?GetLightSpecularOverwrite@eCWeatherZone_PS@@QEBAAEBV?$bTPropertyContainer@W4eEWeatherZoneOverwrite@@@@XZ
?GetLightWorldTransform@eCShadowMapSpotLight@@QEBAAEBVbCMatrix@@XZ
?GetLighting@eCDX9Device@@UEAA?AW4bEResult@@PEA_N@Z
?GetLightingStyle@eCParticle_PS@@QEBAAEBV?$bTPropertyContainer@W4eELightingStyle@@@@XZ
?GetLightmapMesh@eCDecal@@QEBAPEAVeCMeshResource2@@XZ
?GetLightmapName@eCMeshResource2@@QEBAAEBVbCString@@XZ
?GetLightmapPath@eCApplication@@UEBA?AVbCString@@XZ
?GetLightmapPath@eCIlluminationAdmin@@QEBA?AVbCString@@XZ
?GetLightmapPreProcessor@eCStaticLightPreprocessor@@QEAAPEAVeCLightmapPreprocessor@@XZ
?GetLightmapUVData@eCMeshResource2@@QEBA?AV?$eTVertexBufferArray@VbCVector2@@@@_N@Z
?GetLightmaped@eCMesh_PS@@QEBAAEB_NXZ
?GetLineList@eCIteratorPrimitiveLineList@@QEAAAEAV?$bTValArray@VbCVector@@@@XZ
?GetLineList@eCIteratorPrimitiveLineList@@QEBAAEBV?$bTValArray@VbCVector@@@@XZ
?GetLineSize@eCGuiTrackBar2@@QEBAHXZ
?GetLinearDamping@eCRigidBody_PS@@QEBAAEBMXZ
?GetLinearMomentum@eCRigidBodyBase_PS@@UEBA?AVbCVector@@XZ
?GetLinearMomentum@eCRigidBody_PS@@UEBA?AVbCVector@@XZ
?GetLinearVelocity@eCRigidBodyBase_PS@@UEBA?AVbCVector@@XZ
?GetLinearVelocity@eCRigidBody_PS@@UEBA?AVbCVector@@XZ
?GetLinks@eCSoundResource2@@QEBAAEBV?$bTObjArray@USLink@eCSoundResource2@@@@XZ
?GetListCtrl@eCGuiListCtrl2@@IEBAPEAVCFXListCtrl@@XZ
?GetListOfAreaWithProperty@eCAreaAdmin@@QEAA_NAEBVbCVector@@AEBVbCString@@AEAV?$bTObjArray@VbCString@@@@@Z
?GetListOfAreaWithProperty@eCAreaAdmin@@QEAA_NAEBVbCVector@@AEBVbCString@@AEAV?$bTValArray@PEAVeCEntity@@@@@Z
?GetListOfAreaWithProperty@eCAreaAdmin@@QEAA_NAEBVeCGeometryEntity@@AEBVbCString@@AEAV?$bTObjArray@VbCString@@@@@Z
?GetListOfAreaWithProperty@eCAreaAdmin@@QEAA_NAEBVeCGeometryEntity@@AEBVbCString@@AEAV?$bTValArray@PEAVeCEntity@@@@@Z
?GetListOfPropertyNames@eCAreaAdmin@@QEAA_NAEBVbCVector@@AEAV?$bTObjArray@VbCString@@@@@Z
?GetListOfPropertyNames@eCAreaAdmin@@QEAA_NAEBVeCGeometryEntity@@AEAV?$bTObjArray@VbCString@@@@@Z
?GetListenerAttributes@eCAudioSystem@@QEBA?AW4eEAudioResult@@HPEAVbCVector@@000@Z
?GetListenerFwdDir@eCAudioModule@@QEBA?AVbCVector@@XZ
?GetListenerPosition@eCAudioModule@@QEBA?AVbCVector@@XZ
?GetLoDCount@eCMesh_PS@@QEBAEXZ
?GetLoDFactor@eCSpeedTree_PS@@QEBAAEBMXZ
?GetLoDFactor@eCWraper_SpeedTreeRT@@QEBAMXZ
?GetLoDFarDistance@eCSpeedTree_PS@@QEBAAEBMXZ
?GetLoDMeshAt@eCAOMeshLoD@eCAmbientOcclusionPreprocessor@@QEBAPEAVeCAOMeshBase@2@H@Z
?GetLoDMeshCount@eCAOMeshLoD@eCAmbientOcclusionPreprocessor@@QEBAHXZ
?GetLoDNearDistance@eCSpeedTree_PS@@QEBAAEBMXZ
?GetLoDRange@eCMesh_PS@@QEBAME@Z
?GetLocalBoneMatrix@eCAnimation_PS@@QEAA_NAEBVbCString@@AEAVbCMatrix@@@Z
?GetLocalBoneMatrix@eCAnimation_PS@@QEAA_NHAEAVbCMatrix@@@Z
?GetLocalData@eCGizmoTranslateAndScale@@UEAAXAEAVbCMatrix@@@Z
?GetLocalMatrix@eCDynamicEntity@@UEBAAEBVbCMatrix@@XZ
?GetLocalMatrix@eCGeometryEntity@@UEBAAEBVbCMatrix@@XZ
?GetLocalNodeBoundary@eCDynamicEntity@@UEBAAEBVbCBox@@XZ
?GetLocalNodeBoundary@eCGeometryEntity@@UEBAAEBVbCBox@@XZ
?GetLocalPointVelocity@eCRigidBody_PS@@UEBA?AVbCVector@@AEBV2@@Z
?GetLocalPolygon@eCAnimationCollisionDesc@@UEBA?AVbCTriangle@@H@Z
?GetLocalPolygon@eCAnimationCollisionDesc@@UEBA_NAEAVbCTriangle@@H@Z
?GetLocalPolygon@eCCollisionDescMesh@@UEBA?AVbCTriangle@@H@Z
?GetLocalPolygon@eCCollisionDescMesh@@UEBA_NAEAVbCTriangle@@H@Z
?GetLocalPolygon@eCSpeedTreeCollisionDesc@@UEBA?AVbCTriangle@@H@Z
?GetLocalPolygon@eCSpeedTreeCollisionDesc@@UEBA_NAEAVbCTriangle@@H@Z
?GetLocalPosition@eCGeometryEntity@@IEBAAEBVbCVector@@XZ
?GetLocalPosition@eCGeometryEntity@@IEBAXAEAVbCVector@@@Z
?GetLocalRotation@eCGeometryEntity@@IEBA?AVbCQuaternion@@XZ
?GetLocalRotation@eCGeometryEntity@@IEBAXAEAVbCQuaternion@@@Z
?GetLocalToWorldMatrix@eCAnimationCollisionDesc@@QEBAAEBVbCMatrix@@XZ
?GetLocalToWorldMatrix@eCCollisionDescMesh@@QEBAAEBVbCMatrix@@XZ
?GetLocalToWorldMatrix@eCSpeedTreeCollisionDesc@@QEBAAEBVbCMatrix@@XZ
?GetLocation@eCAudioChannel@@QEBA?AW4eEAudioResult@@AEAVbCVector@@@Z
?GetLodLevel@eCSpeedTree_PS@@QEAAMXZ
?GetLodLevel@eCWraper_SpeedTreeRT@@QEBAMXZ
?GetLodValues@eCWraper_SpeedTreeRT@@QEAAXAEAUSLodValues@CSpeedTreeRT@@M@Z
?GetLogSplitFactor@eCCascadeShadowMap@@QEBAAEBMXZ
?GetLookAtConstraints@eCMotionActorResource2@@QEBAAEBV?$bTObjArray@UeSLookAtConstraintData@eAnimShared@@@@XZ
?GetLoopCount@eCAudioChannel@@QEBA?AW4eEAudioResult@@AEAJ@Z
?GetLoopCount@eCAudioSound@@QEBA?AW4eEAudioResult@@AEAJ@Z
?GetLoopCount@eCMoverAnimationBase@@QEBAAEBHXZ
?GetLoopMode@eCAudioChannel@@QEBA?AW4eEAudioResult@@AEAK@Z
?GetLoopSample@eCWeatherStates@@QEBAAEBVbCString@@XZ
?GetLoopVolume@eCWeatherStates@@QEBAAEBMXZ
?GetMagicCode1@eCTemplateEntity@@SAKXZ
?GetMagicCode2@eCTemplateEntity@@SAKXZ
?GetMainCamera@eCApplication@@QEAAAEAVeCCameraBase@@XZ
?GetMapBank@eCWraper_SpeedTreeRT@@QEBAXAEAUSMapBank@CSpeedTreeRT@@@Z
?GetMaskReference@eCShaderBase@@QEBAAEBEXZ
?GetMaskThreshold@eCColorSrcMask@@QEBAAEBMXZ
?GetMass@eCRigidBodyBase_PS@@UEBAMXZ
?GetMass@eCRigidBody_PS@@UEBAMXZ
?GetMassSpaceInertia@eCRigidBody_PS@@QEBAAEBVbCVector@@XZ
?GetMassSpaceInertiaTensor@eCRigidBodyBase_PS@@UEBA?AVbCVector@@XZ
?GetMassSpaceInertiaTensor@eCRigidBody_PS@@UEBA?AVbCVector@@XZ
?GetMasterAlphaBlending@eCGfxMixerAdmin@@QEBA?AW4bEResult@@AEA_N@Z
?GetMasterAlphaTesting@eCDX9Device@@UEAA?AW4bEResult@@PEAW4eEMasterAlphaTest@eCGfxShared@@PEAUeSGfxAlphaTestData@4@@Z
?GetMasterAlphaTesting@eCGfxMixerAdmin@@QEBA?AW4bEResult@@AEAW4eEMasterAlphaTest@eCGfxShared@@AEAUeSGfxAlphaTestData@4@@Z
?GetMasterAlphaWriting@eCGfxMixerAdmin@@QEBA?AW4bEResult@@AEA_N@Z
?GetMasterBlending@eCDX9Device@@UEAA?AW4bEResult@@PEAW4eEMasterBlending@eCGfxShared@@0@Z
?GetMasterBlending@eCGfxMixerAdmin@@QEBA?AW4bEResult@@AEAW4eEMasterBlending@eCGfxShared@@0@Z
?GetMasterBlueGamma@eCGfxMixerAdmin@@QEBA?AW4bEResult@@AEAM@Z
?GetMasterBrightness@eCGfxMixerAdmin@@QEBA?AW4bEResult@@AEAM@Z
?GetMasterColorWriting@eCGfxMixerAdmin@@QEBA?AW4bEResult@@AEA_N@Z
?GetMasterContrast@eCGfxMixerAdmin@@QEBA?AW4bEResult@@AEAM@Z
?GetMasterCullingMode@eCDX9Device@@UEAA?AW4bEResult@@PEAW4eEMasterCullingMode@eCGfxShared@@@Z
?GetMasterCullingMode@eCGfxMixerAdmin@@QEBA?AW4bEResult@@AEAW4eEMasterCullingMode@eCGfxShared@@@Z
?GetMasterDepthBias@eCDX9Device@@UEAA?AW4bEResult@@PEA_NPEAM1@Z
?GetMasterDepthBias@eCGfxMixerAdmin@@QEBA?AW4bEResult@@AEA_NAEAM1@Z
?GetMasterDepthTesting@eCDX9Device@@UEAA?AW4bEResult@@PEAW4eEMasterCmpFunc@eCGfxShared@@@Z
?GetMasterDepthTesting@eCGfxMixerAdmin@@QEBA?AW4bEResult@@AEAW4eEMasterCmpFunc@eCGfxShared@@@Z
?GetMasterDepthWrite@eCDX9Device@@UEAA?AW4bEResult@@PEAW4eEMasterWrite@eCGfxShared@@@Z
?GetMasterDepthWrite@eCGfxMixerAdmin@@QEBA?AW4bEResult@@AEAW4eEMasterWrite@eCGfxShared@@@Z
?GetMasterFogging@eCDX9Device@@UEAA?AW4bEResult@@PEAW4eEMasterFogging@eCGfxShared@@@Z
?GetMasterFogging@eCGfxMixerAdmin@@QEBA?AW4bEResult@@AEAW4eEMasterFogging@eCGfxShared@@@Z
?GetMasterFrameCounter@eCTimer@@QEBAKXZ
?GetMasterGammaRamp@eCGfxMixerAdmin@@QEBA?AW4bEResult@@AEAUeSGfxGammaRamp@eCGfxShared@@@Z
?GetMasterGreenGamma@eCGfxMixerAdmin@@QEBA?AW4bEResult@@AEAM@Z
?GetMasterInstance@eCParticleModule@@QEAAPEAVeCParticle_PS@@PEBV2@@Z
?GetMasterLighting@eCGfxMixerAdmin@@QEBA?AW4bEResult@@AEA_N@Z
?GetMasterRedGamma@eCGfxMixerAdmin@@QEBA?AW4bEResult@@AEAM@Z
?GetMasterRenderMode@eCDX9Device@@UEAA?AW4bEResult@@PEAW4eEMasterRenderMode@eCGfxShared@@@Z
?GetMasterRenderMode@eCGfxMixerAdmin@@QEBA?AW4bEResult@@AEAW4eEMasterRenderMode@eCGfxShared@@@Z
?GetMasterShadeMode@eCDX9Device@@UEAA?AW4bEResult@@PEAW4eEMasterShadeMode@eCGfxShared@@@Z
?GetMasterShadeMode@eCGfxMixerAdmin@@QEBA?AW4bEResult@@AEAW4eEMasterShadeMode@eCGfxShared@@@Z
?GetMasterStencilTesting@eCDX9Device@@UEAA?AW4bEResult@@PEAW4eEMasterStencil@eCGfxShared@@PEAUeSGfxStencilData@4@@Z
?GetMasterStencilTesting@eCGfxMixerAdmin@@QEBA?AW4bEResult@@AEAW4eEMasterStencil@eCGfxShared@@AEAUeSGfxStencilData@4@@Z
?GetMasterZBias@eCDX9Device@@UEAA?AW4bEResult@@PEA_NPEAK@Z
?GetMasterZBias@eCGfxMixerAdmin@@QEBA?AW4bEResult@@AEA_NAEAK@Z
?GetMaterial@eCBillboard@@QEBAPEAVeCMaterialResource2@@XZ
?GetMaterial@eCBillboard_PS@@QEBAPEAVeCMaterialResource2@@XZ
?GetMaterial@eCCollisionShape@@QEBAAEBV?$bTPropertyContainer@W4eEShapeMaterial@@@@XZ
?GetMaterial@eCDecal@@QEBAPEAVeCMaterialResource2@@XZ
?GetMaterial@eCLightStreaks_PS@@QEBAPEAVeCMaterialResource2@@XZ
?GetMaterial@eCParticleMaterial@@QEBAPEAVeCMaterialResource2@@XZ
?GetMaterial@eCParticle_PS@@QEBAAEBVbCImageOrMaterialResourceString@@XZ
?GetMaterial@eCResource2@@SAPEAVeCMaterialResource2@@AEBVbCString@@@Z
?GetMaterial@eCSpeedTreeRenderBuffer@@QEAAPEAVeCMaterialResource2@@W4eEGeometryType@1@@Z
?GetMaterial@eCStrip_PS@@QEBAAEBVbCString@@XZ
?GetMaterial@eCSubMesh@@QEBAPEAVeCMaterialResource2@@XZ
?GetMaterial@eCVegetation_Mesh@@QEBAPEAVeCMaterialResource2@@XZ
?GetMaterialEntity@eCLightStreaks_PS@@QEBAPEAVeCResource2@@XZ
?GetMaterialID@eCMaterialResource2@@QEAAKXZ
?GetMaterialName@eCCollisionShape@@SA?AVbCString@@W4eEShapeMaterial@@@Z
?GetMaterialName@eCSubMesh@@QEBAAEBVbCString@@XZ
?GetMaterialOrTexture@eCBillboard@@QEBAPEAVeCResource2@@XZ
?GetMaterialOrTexture@eCDecal@@QEBAPEAVeCResource2@@XZ
?GetMaterialPath@eCApplication@@UEBA?AVbCString@@XZ
?GetMaterialResource@eCLightStreaks_PS@@QEBAAEBVbCImageOrMaterialResourceString@@XZ
?GetMaterialResource@eCParticle_PS@@QEBAPEAVeCMaterialResource2@@XZ
?GetMaterialResource@eCStrip_PS@@QEBAPEAVeCMaterialResource2@@XZ
?GetMaterialSwitch@eCAnimation_PS@@QEBAAEBHXZ
?GetMaterialSwitch@eCBillboard_PS@@QEBAAEBKXZ
?GetMaterialSwitch@eCBodyPart_PS@@QEBAAEBHXZ
?GetMaterialSwitch@eCMesh_PS@@QEBAAEBHXZ
?GetMaterialSwitch@eCStrip_PS@@QEBAAEBHXZ
?GetMatrixArray@eCDX9Effect@@UEAA?AW4bEResult@@QEAX0I@Z
?GetMatrixTransposeArray@eCDX9Effect@@UEAA?AW4bEResult@@QEAX0I@Z
?GetMaxAbsoluteVelocity@eCParticle_PS@@QEBAAEBVbCVector@@XZ
?GetMaxAngularVelocity@eCRigidBody_PS@@QEBAAEBMXZ
?GetMaxBendAngle@eCSpeedTreeWind_PS@@QEBAAEBMXZ
?GetMaxBoneMatrixCount@eCShaderBase@@UEAAHXZ
?GetMaxBoneMatrixCount@eCShaderDefault@@UEAAHXZ
?GetMaxCollisions@eCParticle_PS@@QEBAAEBVbCRange1@@XZ
?GetMaxDistance@eCAudioEmitter_PS@@QEBAAEBMXZ
?GetMaxDistance@eCCascadeShadowMap@@QEBAAEBMXZ
?GetMaxFPS@eCTimer@@QEBAMXZ
?GetMaxFrameTime@eCTimer@@QEBAMXZ
?GetMaxGradiant@eCLightmapBitmap@@QEAAMXZ
?GetMaxInstanceCount@eCShaderBase@@UEAAHXZ
?GetMaxInstanceCount@eCShaderDefault@@UEAAHXZ
?GetMaxLeafsPerNode@eCAmbientOcclusionPreprocessor@@SAHXZ
?GetMaxLenght@eCLightStreaks_PS@@QEBAAEBMXZ
?GetMaxModuleLevel@eCModuleAdmin@@AEBAHXZ
?GetMaxNumParticles@eCParticle_PS@@QEBAAEBHXZ
?GetMaxNumRepeats@eCAudioEmitter_PS@@QEBAAEBVbCRange1@@XZ
?GetMaxParticles@eCPrecipitation_PS@@QEBAAEBKXZ
?GetMaxScaling@eCVegetationBrush_PS@@QEBAAEBVbCVector2@@XZ
?GetMaxSegmentCount@eCStrip_PS@@QEBAAEBHXZ
?GetMaxShaderVersion@eCShaderBase@@QEBAAEBV?$bTPropertyContainer@W4eEShaderMaterialVersion@@@@XZ
?GetMaxShaderVersion@eCShaderMaterialAdmin@@QEBA?AW4eEShaderMaterialVersion@@XZ
?GetMaxSpawnPoints@eCPrecipitation_PS@@QEBAAEBKXZ
?GetMaxSubMeshTriangles@eCMesh_PS@@QEBAAEBHXZ
?GetMaxSubMeshTriangles@eCSpeedTreeBBMesh_PS@@QEBAAEBHXZ
?GetMaxTime@eCWrapper_emfx3ActorInstance@@QEBANW4eEMotionType@eAnimShared@@@Z
?GetMaximizeBox@eCGuiFrame2@@QEBA_NXZ
?GetMaximumAngularVelocity@eCPhysicsScene_PS@@QEBAAEBMXZ
?GetMemoryFootprint@eCSubMesh@@QEBAKXZ
?GetMesh@eCCollisionDescMesh@@QEBAPEAVeCMeshResource2@@XZ
?GetMesh@eCLightStreaks_PS@@QEBAAEBVbCMeshResourceString@@XZ
?GetMesh@eCResource2@@SAPEAVeCMeshResource2@@AEBVbCString@@@Z
?GetMesh@eCVegetation_PS@@QEBAPEAVeCVegetation_Mesh@@G@Z
?GetMesh@eCVegetation_PS@@QEBAPEAVeCVegetation_Mesh@@UeSVegetationMeshID@@@Z
?GetMeshAt@eCAOMeshBase@eCAmbientOcclusionPreprocessor@@UEBAPEAV12@H@Z
?GetMeshAt@eCAOMeshGroup@eCAmbientOcclusionPreprocessor@@UEBAPEAVeCAOMeshBase@2@H@Z
?GetMeshAt@eCAmbientOcclusionPreprocessor@@QEBAPEAVeCAOMeshBase@1@H@Z
?GetMeshAt@eCVegetation_PS@@QEBAPEAVeCVegetation_Mesh@@H@Z
?GetMeshCount@eCAOMeshBase@eCAmbientOcclusionPreprocessor@@UEBAHXZ
?GetMeshCount@eCAOMeshGroup@eCAmbientOcclusionPreprocessor@@UEBAHXZ
?GetMeshCount@eCVegetation_PS@@QEBAHXZ
?GetMeshFaceDirTollerance@eCBillboard_PS@@QEBAAEBMXZ
?GetMeshFaceDirection@eCBillboard_PS@@QEBAAEBVbCVector@@XZ
?GetMeshFileName@eCEditorEntityPropertySet@@QEBAAEBVbCString@@XZ
?GetMeshFileName@eCMesh_PS@@QEBA?AVbCString@@XZ
?GetMeshFileName@eCOccluder_PS@@QEBA?AVbCString@@XZ
?GetMeshFileName@eCPortalRoom_PS@@QEBA?AVbCString@@XZ
?GetMeshFileName@eCSpeedTreeBBMesh_PS@@QEBA?AVbCString@@XZ
?GetMeshFilePath@eCVegetation_Mesh@@QEBAAEBVbCMeshResourceString@@XZ
?GetMeshID@eCVegetation_Mesh@@QEBA?AUeSVegetationMeshID@@XZ
?GetMeshIDCount@eCVegetation_PS@@QEBAHXZ
?GetMeshIndex@eCAmbientOcclusionPreprocessor@@QEBAHPEAVeCAOMeshBase@1@@Z
?GetMeshNodeIndex@eCMotionActorResource2@@QEBAHXZ
?GetMeshNodeMatrix@eCWrapper_emfx3ActorInstance@@QEBA?AVbCMatrix@@XZ
?GetMeshResource@eCMesh_PS@@QEBAPEAVeCMeshResource2@@E@Z
?GetMeshResource@eCSpeedTreeBBMesh_PS@@QEBAPEAVeCMeshResource2@@XZ
?GetMeshResource@eCVegetation_Mesh@@QEBAPEAVeCMeshResource2@@XZ
?GetMeshResourceName@eCCollisionShape@@QEAAAEAVbCString@@XZ
?GetMeshResourceName@eCCollisionShape@@QEBAAEBVbCString@@XZ
?GetMeshShading@eCVegetation_Mesh@@QEBAAEBV?$bTPropertyContainer@W4eEVegetationMeshShading@@@@XZ
?GetMeshSphere@?$eCAOPerTriangleMeshBase@G@eCAmbientOcclusionPreprocessor@@UEBA_NAEAVbCSphere@@@Z
?GetMeshSphere@?$eCAOPerTriangleMeshBase@K@eCAmbientOcclusionPreprocessor@@UEBA_NAEAVbCSphere@@@Z
?GetMeshSphere@eCAOCustomMesh@eCAmbientOcclusionPreprocessor@@UEBA_NAEAVbCSphere@@@Z
?GetMeshSphere@eCAOMeshEmitterInstance@eCAmbientOcclusionPreprocessor@@UEBA_NAEAVbCSphere@@@Z
?GetMeshSphere@eCAOMeshGroup@eCAmbientOcclusionPreprocessor@@UEBA_NAEAVbCSphere@@@Z
?GetMeshSphere@eCAOMeshInstance@eCAmbientOcclusionPreprocessor@@UEBA_NAEAVbCSphere@@@Z
?GetMeshSphere@eCAOMeshLoD@eCAmbientOcclusionPreprocessor@@UEBA_NAEAVbCSphere@@@Z
?GetMeshSphere@eCAOPerVertexMesh@eCAmbientOcclusionPreprocessor@@UEBA_NAEAVbCSphere@@@Z
?GetMeshes@eCBillboard@@QEBAAEBV?$bTValArray@UeSBillboardMesh@eCBillboard@@@@XZ
?GetMethodSupport@eCDX9Device@@UEAA?AW4bEResult@@PEAUeSGfxAssistantMethods@eCGfxShared@@@Z
?GetMethodSupport@eCGfxAssistantAdmin@@QEBA?AW4bEResult@@AEAUeSGfxAssistantMethods@eCGfxShared@@@Z
?GetMetric@eCGuiWindow2@@QEBA?AVbCPoint@@H@Z
?GetMetrics@eCGlyphOutline@@QEBAAEBU_GLYPHMETRICS@@XZ
?GetMinDistance@eCAudioEmitter_PS@@QEBAAEBMXZ
?GetMinLenght@eCLightStreaks_PS@@QEBAAEBMXZ
?GetMinMaxDistance@eCAudioChannel@@QEBA?AW4eEAudioResult@@AEAM0@Z
?GetMinMaxDistance@eCAudioSound@@QEBA?AW4eEAudioResult@@AEAM0@Z
?GetMinScaling@eCVegetationBrush_PS@@QEBAAEBVbCVector2@@XZ
?GetMinShaderVersion@eCShaderMaterialAdmin@@QEBA?AW4eEShaderMaterialVersion@@XZ
?GetMinSpacing@eCVegetation_Mesh@@QEBAAEBMXZ
?GetMinSquaredVelocity@eCParticle_PS@@QEBAAEBMXZ
?GetMinimizeBox@eCGuiFrame2@@QEBA_NXZ
?GetMipMapCountForRead@eCGfxImageData@@QEBA?AW4bEResult@@AEAK@Z
?GetMode@eCAudioSound@@QEBA?AW4eEAudioResult@@AEAK@Z
?GetMode@eCVegetationBrush_PS@@QEBAAEBV?$bTPropertyContainer@W4eEVegetationBrushMode@@@@XZ
?GetModeCount@eCDX9Instance@@UEAA?AW4bEResult@@KPEAK@Z
?GetModeDesc@eCDX9Instance@@UEAA?AW4bEResult@@KKPEAUeSGfxModeDesc@eCGfxShared@@@Z
?GetModificationTime@eCArchiveFile@@QEBA_NAEAVbCDateTime@@@Z
?GetModifier@eCColorSrcProxy@@QEBA?AVbCString@@XZ
?GetModulationDepth@eCAudioReverbPreset@@QEBAAEBMXZ
?GetModulationTime@eCAudioReverbPreset@@QEBAAEBMXZ
?GetModule@eCModuleAdmin@@QEBAPEAVeCEngineComponentBase@@H@Z
?GetModuleAdmin@eCApplication@@QEAAAEAVeCModuleAdmin@@XZ
?GetModuleCount@eCModuleAdmin@@QEBAHXZ
?GetModuleLevel@eCEngineComponentBase@@QEBAHXZ
?GetModus@eCGfxGaugeAdmin@@QEAA?AW4bEResult@@AEAW4eEGaugeModus@eCGfxShared@@@Z
?GetMoonColor@eCSkydome_PS@@QEBAAEBVbCFloatColor@@XZ
?GetMoonMatrix@eCSkydome_PS@@QEBAAEBVbCMatrix@@XZ
?GetMoonSize@eCSkydome_PS@@QEBAAEBMXZ
?GetMoonTexture@eCSkydome_PS@@QEBAAEBVbCImageResourceString@@XZ
?GetMotion@eCMoverAnimationBase@@UEAA?AW4eEAnimationUpdate@@MAEAVbCVector@@AEAVbCQuaternion@@@Z
?GetMotion@eCMoverAnimationFile@@UEAA?AW4eEAnimationUpdate@@MAEAVbCVector@@AEAVbCQuaternion@@@Z
?GetMotion@eCMoverAnimationKFBase@@UEAA?AW4eEAnimationUpdate@@MAEAVbCVector@@AEAVbCQuaternion@@@Z
?GetMotion@eCMoverAnimationRotate@@UEAA?AW4eEAnimationUpdate@@MAEAVbCVector@@AEAVbCQuaternion@@@Z
?GetMotion@eCResource2@@SAPEAVeCMotionResource2@@AEBVbCString@@@Z
?GetMotion@eCWrapper_emfx3SkeletalMotion@@QEBAPEAVMotion@EMotionFX@@XZ
?GetMotion@eSMotionDesc@eAnimShared@@QEAAPEAVeCMotionResource2@@XZ
?GetMotion@eSMotionDesc@eAnimShared@@QEBAPEBVeCMotionResource2@@XZ
?GetMotionActor@eCResource2@@SAPEAVeCMotionActorResource2@@AEBVbCString@@@Z
?GetMotionAt@eCAnimation2Admin@@QEBAPEAVeCMotionResource2@@H@Z
?GetMotionCount@eCAnimation2Admin@@QEBAHXZ
?GetMotionData@eCMotionResource2@@QEBAPEAVMotion@EMotionFX@@XZ
?GetMotionFilename@eSMotionDesc@eAnimShared@@QEBA?AVbCString@@XZ
?GetMotionName@eCWrapper_emfx3ActorInstance@@QEBA?AVbCString@@W4eEMotionType@eAnimShared@@@Z
?GetMotionOwner@eCAnimation_PS@@QEBA?AW4eEMotionOwner@eAnimShared@@W4eEMotionType@3@@Z
?GetMotionOwner@eSMotionDesc@eAnimShared@@QEBA?AW4eEMotionOwner@2@XZ
?GetMotionVariationAt@eCAnimation2Admin@@QEBAPEAVeCMotionResource2@@HH@Z
?GetMotionVariationCount@eCAnimation2Admin@@QEBAEH@Z
?GetMounts@eCVirtualFileSystem@@QEBAAEBV?$bTObjArray@UeSMount@@@@XZ
?GetMouseDeltaX@eCGizmoBase@@SAHXZ
?GetMover@eCMoverAnimationBase@@QEBAPEAVeCMover_PS@@XZ
?GetMoverGoalReached@eCRigidBody_PS@@QEBA_NXZ
?GetMsgID@eCScriptEventArgs@@QEBAHXZ
?GetName@eCDynamicEntity@@UEBAAEBVbCString@@XZ
?GetName@eCEntity@@UEBAAEBVbCString@@XZ
?GetName@eCGeometryEntity@@UEBAAEBVbCString@@XZ
?GetName@eCGuiBitmapProxy2@@QEBA?AVbCString@@XZ
?GetName@eCGuiCursorProxy2@@QEBA?AVbCString@@XZ
?GetName@eCGuiFontProxy2@@QEBA?AVbCString@@XZ
?GetName@eCGuiWindow2@@QEBAAEBVbCString@@XZ
?GetName@eCImageFilterBase@@QEBAAEBVbCString@@XZ
?GetName@eCMoverAnimationBase@@QEBAAEBVbCString@@XZ
?GetName@eCTemplateEntity@@UEBAAEBVbCString@@XZ
?GetName@eCWeatherEnvironment@@QEBAAEBVbCString@@XZ
?GetName@eCWeatherStates@@QEBAAEBVbCString@@XZ
?GetNameFromFormat@eCGfxGaugeAdmin@@SAPEADW4eEGraphicMemoryType@eCGfxShared@@K@Z
?GetNameFromUsage@eCGfxGaugeAdmin@@SA?AVbCString@@K@Z
?GetNativePropertyAt@eCCollisionShape@@UEBA?AVbCPropertyConverterPtr@@H@Z
?GetNativePropertyAt@eCCollisionShape_PS@@UEBA?AVbCPropertyConverterPtr@@H@Z
?GetNativePropertyAt@eCColorSrcConstantAnimation@@UEBA?AVbCPropertyConverterPtr@@H@Z
?GetNativePropertyAt@eCDynamicEntity@@UEBA?AVbCPropertyConverterPtr@@H@Z
?GetNativePropertyAt@eCEntity@@UEBA?AVbCPropertyConverterPtr@@H@Z
?GetNativePropertyAt@eCGeometryEntity@@UEBA?AVbCPropertyConverterPtr@@H@Z
?GetNativePropertyAt@eCGuiImageCollection2@@UEBA?AVbCPropertyConverterPtr@@H@Z
?GetNativePropertyAt@eCGuiImageList2@@UEBA?AVbCPropertyConverterPtr@@H@Z
?GetNativePropertyAt@eCGuiWindow2@@UEBA?AVbCPropertyConverterPtr@@H@Z
?GetNativePropertyAt@eCImageFilterEffect@@UEBA?AVbCPropertyConverterPtr@@H@Z
?GetNativePropertyAt@eCParticle_PS@@UEBA?AVbCPropertyConverterPtr@@H@Z
?GetNativePropertyAt@eCTemplateEntity@@MEBA?AVbCPropertyConverterPtr@@H@Z
?GetNativePropertyCount@eCCollisionShape@@UEBAHXZ
?GetNativePropertyCount@eCCollisionShape_PS@@UEBAHXZ
?GetNativePropertyCount@eCColorSrcConstantAnimation@@UEBAHXZ
?GetNativePropertyCount@eCEntity@@UEBAHXZ
?GetNativePropertyCount@eCGuiImageCollection2@@UEBAHXZ
?GetNativePropertyCount@eCGuiImageList2@@UEBAHXZ
?GetNativePropertyCount@eCGuiWindow2@@UEBAHXZ
?GetNativePropertyCount@eCImageFilterEffect@@UEBAHXZ
?GetNativePropertyCount@eCParticle_PS@@UEBAHXZ
?GetNbProcessorsUsed@eCAnimation2Admin@@QEBAGXZ
?GetNearPlaneDistance@eCFrustumFilter@@QEBAMAEBVbCBox@@@Z
?GetNext@eCRenderContext@@QEAAPEAV1@XZ
?GetNextBitmap@eCGuiDevice2@@QEBAPEAVeCGuiBitmap2@@AEAPEAX@Z
?GetNextFont@eCGuiDevice2@@QEBAPEAVeCGuiFont2@@AEAPEAX@Z
?GetNextNeighbour@eCNode@@QEAAPEAV1@XZ
?GetNextNeighbour@eCNode@@QEBAPEBV1@XZ
?GetNextSibling@eCGuiWindow2@@QEBAPEAV1@XZ
?GetNextSibling@eCStatistic@@QEBAPEAV1@XZ
?GetNoThumb@eCGuiTrackBar2@@QEBA_NXZ
?GetNoTics@eCGuiTrackBar2@@QEBA_NXZ
?GetNodeAt@eCVegetation_Grid@@QEBAPEAVeCVegetation_GridNode@@AEBVbCPoint@@@Z
?GetNodeAt@eCVegetation_Grid@@QEBAPEAVeCVegetation_GridNode@@AEBVbCVector2@@@Z
?GetNodeAt@eCVegetation_Grid@@QEBAPEAVeCVegetation_GridNode@@H@Z
?GetNodeColor@eCProfilerAdmin@@IEAAKPEBDMMM@Z
?GetNodeDimension@eCVegetation_Grid@@QEBAMXZ
?GetNodeIndex@eCAnimationCollisionDesc@@UEBAKXZ
?GetNormalData@eCMeshResource2@@QEBA?AV?$eTVertexBufferArray@VbCVector@@@@_N@Z
?GetNormalize@eCImageFilterTextureRandom@@QEBAAEB_NXZ
?GetNumAttachments@eCAnimation_PS@@QEAAKXZ
?GetNumBodyParts@eCAnimation_PS@@QEAAHXZ
?GetNumBones@eCPhysicObject@@QEBAKXZ
?GetNumConvexMeshes@eCCollisionMeshResource2@@QEBAHXZ
?GetNumEntitiesByName@eCSceneAdmin@@QEBAHAEBVbCString@@@Z
?GetNumMorphTargets@eCMotionActorResource2@@QEBAHH@Z
?GetNumOfPrimitives@eCAnimation_HardRenderActor2@@QEAAGG@Z
?GetNumOfRagDollActors@eCMotionActorResource2@@QEBA?BKXZ
?GetNumParticlesAlive@eCPrecipitation_PS@@QEBAHXZ
?GetNumPatches@eCContactIterator@@QEAAKXZ
?GetNumPatchesRemaining@eCContactIterator@@QEAAKXZ
?GetNumPoints@eCContactIterator@@QEAAKXZ
?GetNumPointsRemaining@eCContactIterator@@QEAAKXZ
?GetNumRaysCasted@eCPhysicsScene@@QEBAKXZ
?GetNumResources@eCResourceModule2@@QEBAIAEBVbCString@@@Z
?GetNumShapes@eCCollisionShapeBase_PS@@UEBAKXZ
?GetNumShapes@eCCollisionShape_PS@@UEBAKXZ
?GetNumShapes@eCContactIterator@@QEAAKXZ
?GetNumTouchingShapes@eCCollisionShape_PS@@QEBAKXZ
?GetNumTriangleMeshes@eCCollisionMeshResource2@@QEBAHXZ
?GetNumUSubdivisions@eCGuiAnimImage2@@QEBAAEBHXZ
?GetNumUSubdivisions@eCParticle_PS@@QEBAAEBHXZ
?GetNumVSubdivisions@eCGuiAnimImage2@@QEBAAEBHXZ
?GetNumVSubdivisions@eCParticle_PS@@QEBAAEBHXZ
?GetNumberOfDynamicEntities@eCSceneAdmin@@QEBAKXZ
?GetNumberOfStaticEntities@eCSceneAdmin@@QEBAKXZ
?GetOCPriority@eCFrustumFilter@@QEBAMAEBVbCBox@@@Z
?GetOOFrameTime@eCTimer@@QEBAMXZ
?GetOOFrameTimeInSeconds@eCTimer@@QEBAMXZ
?GetObjectType@eCAmbientOcclusionPreprocessor@@UEBAPEAVbCPropertyObjectTypeBase@@XZ
?GetObjectType@eCAnimation2Admin@@UEBAPEAVbCPropertyObjectTypeBase@@XZ
?GetObjectType@eCAnimation_PS@@UEBAPEAVbCPropertyObjectTypeBase@@XZ
?GetObjectType@eCAreaAdmin@@UEBAPEAVbCPropertyObjectTypeBase@@XZ
?GetObjectType@eCArea_StringProperty_PS@@UEBAPEAVbCPropertyObjectTypeBase@@XZ
?GetObjectType@eCAudioEmitter_PS@@UEBAPEAVbCPropertyObjectTypeBase@@XZ
?GetObjectType@eCAudioModule@@UEBAPEAVbCPropertyObjectTypeBase@@XZ
?GetObjectType@eCAudioReverbPreset@@UEBAPEAVbCPropertyObjectTypeBase@@XZ
?GetObjectType@eCAudioRollOffPreset@@UEBAPEAVbCPropertyObjectTypeBase@@XZ
?GetObjectType@eCBillboardAdmin@@UEBAPEAVbCPropertyObjectTypeBase@@XZ
?GetObjectType@eCBillboard_PS@@UEBAPEAVbCPropertyObjectTypeBase@@XZ
?GetObjectType@eCBodyPart_PS@@UEBAPEAVbCPropertyObjectTypeBase@@XZ
?GetObjectType@eCCameraBase@@UEBAPEAVbCPropertyObjectTypeBase@@XZ
?GetObjectType@eCCascadeShadowMap@@UEBAPEAVbCPropertyObjectTypeBase@@XZ
?GetObjectType@eCCollisionMeshResource2@@UEBAPEAVbCPropertyObjectTypeBase@@XZ
?GetObjectType@eCCollisionShape@@UEBAPEAVbCPropertyObjectTypeBase@@XZ
?GetObjectType@eCCollisionShapeBase_PS@@UEBAPEAVbCPropertyObjectTypeBase@@XZ
?GetObjectType@eCCollisionShape_PS@@UEBAPEAVbCPropertyObjectTypeBase@@XZ
?GetObjectType@eCColorSrcBase@@UEBAPEAVbCPropertyObjectTypeBase@@XZ
?GetObjectType@eCColorSrcBlend@@UEBAPEAVbCPropertyObjectTypeBase@@XZ
?GetObjectType@eCColorSrcCamDistance@@UEBAPEAVbCPropertyObjectTypeBase@@XZ
?GetObjectType@eCColorSrcCamObstacle@@UEBAPEAVbCPropertyObjectTypeBase@@XZ
?GetObjectType@eCColorSrcCombiner@@UEBAPEAVbCPropertyObjectTypeBase@@XZ
?GetObjectType@eCColorSrcConstant@@UEBAPEAVbCPropertyObjectTypeBase@@XZ
?GetObjectType@eCColorSrcConstantAnimation@@UEBAPEAVbCPropertyObjectTypeBase@@XZ
?GetObjectType@eCColorSrcConstantSwitch@@UEBAPEAVbCPropertyObjectTypeBase@@XZ
?GetObjectType@eCColorSrcCubeSampler@@UEBAPEAVbCPropertyObjectTypeBase@@XZ
?GetObjectType@eCColorSrcFresnel@@UEBAPEAVbCPropertyObjectTypeBase@@XZ
?GetObjectType@eCColorSrcMask@@UEBAPEAVbCPropertyObjectTypeBase@@XZ
?GetObjectType@eCColorSrcSampler@@UEBAPEAVbCPropertyObjectTypeBase@@XZ
?GetObjectType@eCColorSrcSkydomeSampler@@UEBAPEAVbCPropertyObjectTypeBase@@XZ
?GetObjectType@eCColorSrcVertexColor@@UEBAPEAVbCPropertyObjectTypeBase@@XZ
?GetObjectType@eCContextBase@@UEBAPEAVbCPropertyObjectTypeBase@@XZ
?GetObjectType@eCDebugModule@@UEBAPEAVbCPropertyObjectTypeBase@@XZ
?GetObjectType@eCDecalAdmin@@UEBAPEAVbCPropertyObjectTypeBase@@XZ
?GetObjectType@eCDecal_PS@@UEBAPEAVbCPropertyObjectTypeBase@@XZ
?GetObjectType@eCDirectionalLight_PS@@UEBAPEAVbCPropertyObjectTypeBase@@XZ
?GetObjectType@eCDocObject@@UEBAPEAVbCPropertyObjectTypeBase@@XZ
?GetObjectType@eCDynamicLight_PS@@UEBAPEAVbCPropertyObjectTypeBase@@XZ
?GetObjectType@eCEditorEntityPropertySet@@UEBAPEAVbCPropertyObjectTypeBase@@XZ
?GetObjectType@eCEngineComponentBase@@UEBAPEAVbCPropertyObjectTypeBase@@XZ
?GetObjectType@eCEntityDynamicContext@@UEBAPEAVbCPropertyObjectTypeBase@@XZ
?GetObjectType@eCEntityPropertySet@@UEBAPEAVbCPropertyObjectTypeBase@@XZ
?GetObjectType@eCFixedGuiBitmapFont2@@UEBAPEAVbCPropertyObjectTypeBase@@XZ
?GetObjectType@eCGenericEntityListener_PS@@UEBAPEAVbCPropertyObjectTypeBase@@XZ
?GetObjectType@eCGfxAdmin@@UEBAPEAVbCPropertyObjectTypeBase@@XZ
?GetObjectType@eCGfxObject@@UEBAPEAVbCPropertyObjectTypeBase@@XZ
?GetObjectType@eCGuiAnimImage2@@UEBAPEAVbCPropertyObjectTypeBase@@XZ
?GetObjectType@eCGuiBaseBitmap2@@UEBAPEAVbCPropertyObjectTypeBase@@XZ
?GetObjectType@eCGuiBaseCursor2@@UEBAPEAVbCPropertyObjectTypeBase@@XZ
?GetObjectType@eCGuiBaseFont2@@UEBAPEAVbCPropertyObjectTypeBase@@XZ
?GetObjectType@eCGuiBitmap2@@UEBAPEAVbCPropertyObjectTypeBase@@XZ
?GetObjectType@eCGuiBitmapFont2@@UEBAPEAVbCPropertyObjectTypeBase@@XZ
?GetObjectType@eCGuiBitmapList2@@UEBAPEAVbCPropertyObjectTypeBase@@XZ
?GetObjectType@eCGuiButton2@@UEBAPEAVbCPropertyObjectTypeBase@@XZ
?GetObjectType@eCGuiCheckBox2@@UEBAPEAVbCPropertyObjectTypeBase@@XZ
?GetObjectType@eCGuiCursor2@@UEBAPEAVbCPropertyObjectTypeBase@@XZ
?GetObjectType@eCGuiEdit2@@UEBAPEAVbCPropertyObjectTypeBase@@XZ
?GetObjectType@eCGuiFont2@@UEBAPEAVbCPropertyObjectTypeBase@@XZ
?GetObjectType@eCGuiFrame2@@UEBAPEAVbCPropertyObjectTypeBase@@XZ
?GetObjectType@eCGuiGroupBox2@@UEBAPEAVbCPropertyObjectTypeBase@@XZ
?GetObjectType@eCGuiImage2@@UEBAPEAVbCPropertyObjectTypeBase@@XZ
?GetObjectType@eCGuiImageCollection2@@UEBAPEAVbCPropertyObjectTypeBase@@XZ
?GetObjectType@eCGuiImageList2@@UEBAPEAVbCPropertyObjectTypeBase@@XZ
?GetObjectType@eCGuiLayeredImage2@@UEBAPEAVbCPropertyObjectTypeBase@@XZ
?GetObjectType@eCGuiListCtrl2@@UEBAPEAVbCPropertyObjectTypeBase@@XZ
?GetObjectType@eCGuiModule2@@UEBAPEAVbCPropertyObjectTypeBase@@XZ
?GetObjectType@eCGuiPanel2@@UEBAPEAVbCPropertyObjectTypeBase@@XZ
?GetObjectType@eCGuiPictureBox2@@UEBAPEAVbCPropertyObjectTypeBase@@XZ
?GetObjectType@eCGuiProgressBar2@@UEBAPEAVbCPropertyObjectTypeBase@@XZ
?GetObjectType@eCGuiPushButton2@@UEBAPEAVbCPropertyObjectTypeBase@@XZ
?GetObjectType@eCGuiRadioButton2@@UEBAPEAVbCPropertyObjectTypeBase@@XZ
?GetObjectType@eCGuiResource2@@UEBAPEAVbCPropertyObjectTypeBase@@XZ
?GetObjectType@eCGuiScrollBar2@@UEBAPEAVbCPropertyObjectTypeBase@@XZ
?GetObjectType@eCGuiSplitImage2@@UEBAPEAVbCPropertyObjectTypeBase@@XZ
?GetObjectType@eCGuiStatic2@@UEBAPEAVbCPropertyObjectTypeBase@@XZ
?GetObjectType@eCGuiSystemFont2@@UEBAPEAVbCPropertyObjectTypeBase@@XZ
?GetObjectType@eCGuiSystemFontDesc2@@UEBAPEAVbCPropertyObjectTypeBase@@XZ
?GetObjectType@eCGuiSystemFontLanguage2@@UEBAPEAVbCPropertyObjectTypeBase@@XZ
?GetObjectType@eCGuiTexture2@@UEBAPEAVbCPropertyObjectTypeBase@@XZ
?GetObjectType@eCGuiToolTipCtrl2@@UEBAPEAVbCPropertyObjectTypeBase@@XZ
?GetObjectType@eCGuiTooltipTextCtrl2@@UEBAPEAVbCPropertyObjectTypeBase@@XZ
?GetObjectType@eCGuiTrackBar2@@UEBAPEAVbCPropertyObjectTypeBase@@XZ
?GetObjectType@eCGuiWindow2@@UEBAPEAVbCPropertyObjectTypeBase@@XZ
?GetObjectType@eCHemisphere_PS@@UEBAPEAVbCPropertyObjectTypeBase@@XZ
?GetObjectType@eCIlluminated_PS@@UEBAPEAVbCPropertyObjectTypeBase@@XZ
?GetObjectType@eCIlluminationAdmin@@UEBAPEAVbCPropertyObjectTypeBase@@XZ
?GetObjectType@eCImageEffect@@UEBAPEAVbCPropertyObjectTypeBase@@XZ
?GetObjectType@eCImageFilterAdmin@@UEBAPEAVbCPropertyObjectTypeBase@@XZ
?GetObjectType@eCImageFilterBase@@UEBAPEAVbCPropertyObjectTypeBase@@XZ
?GetObjectType@eCImageFilterCopy@@UEBAPEAVbCPropertyObjectTypeBase@@XZ
?GetObjectType@eCImageFilterEffect@@UEBAPEAVbCPropertyObjectTypeBase@@XZ
?GetObjectType@eCImageFilterImage@@UEBAPEAVbCPropertyObjectTypeBase@@XZ
?GetObjectType@eCImageFilterImageEffect@@UEBAPEAVbCPropertyObjectTypeBase@@XZ
?GetObjectType@eCImageFilterRTBase@@UEBAPEAVbCPropertyObjectTypeBase@@XZ
?GetObjectType@eCImageFilterScene@@UEBAPEAVbCPropertyObjectTypeBase@@XZ
?GetObjectType@eCImageFilterShadowMask@@UEBAPEAVbCPropertyObjectTypeBase@@XZ
?GetObjectType@eCImageFilterTexture@@UEBAPEAVbCPropertyObjectTypeBase@@XZ
?GetObjectType@eCImageFilterTextureRandom@@UEBAPEAVbCPropertyObjectTypeBase@@XZ
?GetObjectType@eCImageResource2@@UEBAPEAVbCPropertyObjectTypeBase@@XZ
?GetObjectType@eCInputAdmin@@UEBAPEAVbCPropertyObjectTypeBase@@XZ
?GetObjectType@eCLightStreaks_PS@@UEBAPEAVbCPropertyObjectTypeBase@@XZ
?GetObjectType@eCMaterialResource2@@UEBAPEAVbCPropertyObjectTypeBase@@XZ
?GetObjectType@eCMeshResource2@@UEBAPEAVbCPropertyObjectTypeBase@@XZ
?GetObjectType@eCMesh_PS@@UEBAPEAVbCPropertyObjectTypeBase@@XZ
?GetObjectType@eCMotionActorResource2@@UEBAPEAVbCPropertyObjectTypeBase@@XZ
?GetObjectType@eCMotionResource2@@UEBAPEAVbCPropertyObjectTypeBase@@XZ
?GetObjectType@eCMoverAnimationBase@@UEBAPEAVbCPropertyObjectTypeBase@@XZ
?GetObjectType@eCMoverAnimationBezier@@UEBAPEAVbCPropertyObjectTypeBase@@XZ
?GetObjectType@eCMoverAnimationFile@@UEBAPEAVbCPropertyObjectTypeBase@@XZ
?GetObjectType@eCMoverAnimationHermit@@UEBAPEAVbCPropertyObjectTypeBase@@XZ
?GetObjectType@eCMoverAnimationKFBase@@UEBAPEAVbCPropertyObjectTypeBase@@XZ
?GetObjectType@eCMoverAnimationLinear@@UEBAPEAVbCPropertyObjectTypeBase@@XZ
?GetObjectType@eCMoverAnimationRotate@@UEBAPEAVbCPropertyObjectTypeBase@@XZ
?GetObjectType@eCMoverAnimationSkeletal@@UEBAPEAVbCPropertyObjectTypeBase@@XZ
?GetObjectType@eCMoverAnimationTCB@@UEBAPEAVbCPropertyObjectTypeBase@@XZ
?GetObjectType@eCMover_PS@@UEBAPEAVbCPropertyObjectTypeBase@@XZ
?GetObjectType@eCNode@@UEBAPEAVbCPropertyObjectTypeBase@@XZ
?GetObjectType@eCOccluder_PS@@UEBAPEAVbCPropertyObjectTypeBase@@XZ
?GetObjectType@eCParticleModule@@UEBAPEAVbCPropertyObjectTypeBase@@XZ
?GetObjectType@eCParticle_PS@@UEBAPEAVbCPropertyObjectTypeBase@@XZ
?GetObjectType@eCPhysicsScene@@UEBAPEAVbCPropertyObjectTypeBase@@XZ
?GetObjectType@eCPhysicsScene_PS@@UEBAPEAVbCPropertyObjectTypeBase@@XZ
?GetObjectType@eCPointLight_PS@@UEBAPEAVbCPropertyObjectTypeBase@@XZ
?GetObjectType@eCPortalAdmin@@UEBAPEAVbCPropertyObjectTypeBase@@XZ
?GetObjectType@eCPortalCell_PS@@UEBAPEAVbCPropertyObjectTypeBase@@XZ
?GetObjectType@eCPortalRoom_PS@@UEBAPEAVbCPropertyObjectTypeBase@@XZ
?GetObjectType@eCPrecipitation_PS@@UEBAPEAVbCPropertyObjectTypeBase@@XZ
?GetObjectType@eCProcessibleElement@@UEBAPEAVbCPropertyObjectTypeBase@@XZ
?GetObjectType@eCProfilerAdmin@@UEBAPEAVbCPropertyObjectTypeBase@@XZ
?GetObjectType@eCRenderSystemAdmin@@UEBAPEAVbCPropertyObjectTypeBase@@XZ
?GetObjectType@eCResource2@@UEBAPEAVbCPropertyObjectTypeBase@@XZ
?GetObjectType@eCResourceModule2@@UEBAPEAVbCPropertyObjectTypeBase@@XZ
?GetObjectType@eCRigidBodyBase_PS@@UEBAPEAVbCPropertyObjectTypeBase@@XZ
?GetObjectType@eCRigidBody_PS@@UEBAPEAVbCPropertyObjectTypeBase@@XZ
?GetObjectType@eCSceneAdmin@@UEBAPEAVbCPropertyObjectTypeBase@@XZ
?GetObjectType@eCScriptEdit@@UEBAPEAVbCPropertyObjectTypeBase@@XZ
?GetObjectType@eCScriptListCtrl@@UEBAPEAVbCPropertyObjectTypeBase@@XZ
?GetObjectType@eCScriptProgressbar@@UEBAPEAVbCPropertyObjectTypeBase@@XZ
?GetObjectType@eCScriptRadioButton@@UEBAPEAVbCPropertyObjectTypeBase@@XZ
?GetObjectType@eCScriptStatic@@UEBAPEAVbCPropertyObjectTypeBase@@XZ
?GetObjectType@eCScriptTrackbar@@UEBAPEAVbCPropertyObjectTypeBase@@XZ
?GetObjectType@eCShaderBase@@UEBAPEAVbCPropertyObjectTypeBase@@XZ
?GetObjectType@eCShaderDefault@@UEBAPEAVbCPropertyObjectTypeBase@@XZ
?GetObjectType@eCShaderEllementBase@@UEBAPEAVbCPropertyObjectTypeBase@@XZ
?GetObjectType@eCShaderLeafs@@UEBAPEAVbCPropertyObjectTypeBase@@XZ
?GetObjectType@eCShaderLightStreaks@@UEBAPEAVbCPropertyObjectTypeBase@@XZ
?GetObjectType@eCShaderMaterialAdmin@@UEBAPEAVbCPropertyObjectTypeBase@@XZ
?GetObjectType@eCShaderParticle@@UEBAPEAVbCPropertyObjectTypeBase@@XZ
?GetObjectType@eCShaderSkyDome@@UEBAPEAVbCPropertyObjectTypeBase@@XZ
?GetObjectType@eCSkydome_PS@@UEBAPEAVbCPropertyObjectTypeBase@@XZ
?GetObjectType@eCSoundResource2@@UEBAPEAVbCPropertyObjectTypeBase@@XZ
?GetObjectType@eCSpeedTreeAdmin@@UEBAPEAVbCPropertyObjectTypeBase@@XZ
?GetObjectType@eCSpeedTreeBBMesh_PS@@UEBAPEAVbCPropertyObjectTypeBase@@XZ
?GetObjectType@eCSpeedTreeResource2@@UEBAPEAVbCPropertyObjectTypeBase@@XZ
?GetObjectType@eCSpeedTreeWind_PS@@UEBAPEAVbCPropertyObjectTypeBase@@XZ
?GetObjectType@eCSpeedTree_PS@@UEBAPEAVbCPropertyObjectTypeBase@@XZ
?GetObjectType@eCStaticAmbientLight_PS@@UEBAPEAVbCPropertyObjectTypeBase@@XZ
?GetObjectType@eCStaticLight_PS@@UEBAPEAVbCPropertyObjectTypeBase@@XZ
?GetObjectType@eCStaticPointLight_PS@@UEBAPEAVbCPropertyObjectTypeBase@@XZ
?GetObjectType@eCStrip_PS@@UEBAPEAVbCPropertyObjectTypeBase@@XZ
?GetObjectType@eCSubMesh@@UEBAPEAVbCPropertyObjectTypeBase@@XZ
?GetObjectType@eCTexCoordSrcBase@@UEBAPEAVbCPropertyObjectTypeBase@@XZ
?GetObjectType@eCTexCoordSrcBumpOffset@@UEBAPEAVbCPropertyObjectTypeBase@@XZ
?GetObjectType@eCTexCoordSrcColor@@UEBAPEAVbCPropertyObjectTypeBase@@XZ
?GetObjectType@eCTexCoordSrcOscillator@@UEBAPEAVbCPropertyObjectTypeBase@@XZ
?GetObjectType@eCTexCoordSrcReflect@@UEBAPEAVbCPropertyObjectTypeBase@@XZ
?GetObjectType@eCTexCoordSrcRotator@@UEBAPEAVbCPropertyObjectTypeBase@@XZ
?GetObjectType@eCTexCoordSrcScale@@UEBAPEAVbCPropertyObjectTypeBase@@XZ
?GetObjectType@eCTexCoordSrcScroller@@UEBAPEAVbCPropertyObjectTypeBase@@XZ
?GetObjectType@eCVegetationAdmin@@UEBAPEAVbCPropertyObjectTypeBase@@XZ
?GetObjectType@eCVegetationBrush_PS@@UEBAPEAVbCPropertyObjectTypeBase@@XZ
?GetObjectType@eCVegetation_Grid@@UEBAPEAVbCPropertyObjectTypeBase@@XZ
?GetObjectType@eCVegetation_GridNode@@UEBAPEAVbCPropertyObjectTypeBase@@XZ
?GetObjectType@eCVegetation_Mesh@@UEBAPEAVbCPropertyObjectTypeBase@@XZ
?GetObjectType@eCVegetation_PS@@UEBAPEAVbCPropertyObjectTypeBase@@XZ
?GetObjectType@eCWeatherAdmin@@UEBAPEAVbCPropertyObjectTypeBase@@XZ
?GetObjectType@eCWeatherStates@@UEBAPEAVbCPropertyObjectTypeBase@@XZ
?GetObjectType@eCWeatherZone_PS@@UEBAPEAVbCPropertyObjectTypeBase@@XZ
?GetOccluders@eCPortalAdmin@@QEBAAEBV?$bTValArray@PEAVeCOccluder_PS@@@@XZ
?GetOcclusionTestInfo@eCDX9Device@@UEAA?AW4bEResult@@QEAXAEAK_N@Z
?GetOcclusionTestInfo@eCGfxAssistantAdmin@@QEBA?AW4bEResult@@QEAXAEAK_N@Z
?GetOffset@eCBillboard_PS@@QEBAAEBVbCVector@@XZ
?GetOffset@eCDecal_PS@@QEBAAEBVbCVector@@XZ
?GetOffset@eCPointLight_PS@@QEBAAEBVbCVector@@XZ
?GetOffset@eCStaticAmbientLight_PS@@QEBAAEBVbCVector@@XZ
?GetOffset@eCStaticPointLight_PS@@QEBAAEBVbCVector@@XZ
?GetOffset@eCTexCoordSrcOscillator@@QEBAAEBVbCVector2@@XZ
?GetOffset@eCTexCoordSrcRotator@@QEBAAEBVbCVector2@@XZ
?GetOffsetAmount@eCTexCoordSrcBumpOffset@@QEBAAEBMXZ
?GetOffsetLeft@eCStrip_PS@@QEBAAEBVbCVector@@XZ
?GetOffsetRight@eCStrip_PS@@QEBAAEBVbCVector@@XZ
?GetOffsetVariation@eCBillboard_PS@@QEBAAEBVbCVector@@XZ
?GetOffsetX@eCLightmapBitmap@@QEBAJXZ
?GetOffsetY@eCLightmapBitmap@@QEBAJXZ
?GetOnChange@eCScriptEdit@@QEBAAEBVeCScriptProxyScript@@XZ
?GetOnClick@eCScriptRadioButton@@QEBAAEBVeCScriptProxyScript@@XZ
?GetOnDestroy@eCScriptEdit@@QEBAAEBVeCScriptProxyScript@@XZ
?GetOnDestroy@eCScriptListCtrl@@QEBAAEBVeCScriptProxyScript@@XZ
?GetOnDestroy@eCScriptProgressbar@@QEBAAEBVeCScriptProxyScript@@XZ
?GetOnDestroy@eCScriptRadioButton@@QEBAAEBVeCScriptProxyScript@@XZ
?GetOnDestroy@eCScriptStatic@@QEBAAEBVeCScriptProxyScript@@XZ
?GetOnDestroy@eCScriptTrackbar@@QEBAAEBVeCScriptProxyScript@@XZ
?GetOnDragAction@eCScriptListCtrl@@QEBAAEBVeCScriptProxyScript@@XZ
?GetOnDragAction@eCScriptStatic@@QEBAAEBVeCScriptProxyScript@@XZ
?GetOnDropResult@eCScriptListCtrl@@QEBAAEBVeCScriptProxyScript@@XZ
?GetOnDropResult@eCScriptStatic@@QEBAAEBVeCScriptProxyScript@@XZ
?GetOnGameMsg@eCScriptEdit@@QEBAAEBVeCScriptProxyScript@@XZ
?GetOnGameMsg@eCScriptListCtrl@@QEBAAEBVeCScriptProxyScript@@XZ
?GetOnGameMsg@eCScriptProgressbar@@QEBAAEBVeCScriptProxyScript@@XZ
?GetOnGameMsg@eCScriptRadioButton@@QEBAAEBVeCScriptProxyScript@@XZ
?GetOnGameMsg@eCScriptStatic@@QEBAAEBVeCScriptProxyScript@@XZ
?GetOnGameMsg@eCScriptTrackbar@@QEBAAEBVeCScriptProxyScript@@XZ
?GetOnInit@eCScriptEdit@@QEBAAEBVeCScriptProxyScript@@XZ
?GetOnInit@eCScriptListCtrl@@QEBAAEBVeCScriptProxyScript@@XZ
?GetOnInit@eCScriptProgressbar@@QEBAAEBVeCScriptProxyScript@@XZ
?GetOnInit@eCScriptRadioButton@@QEBAAEBVeCScriptProxyScript@@XZ
?GetOnInit@eCScriptStatic@@QEBAAEBVeCScriptProxyScript@@XZ
?GetOnInit@eCScriptTrackbar@@QEBAAEBVeCScriptProxyScript@@XZ
?GetOnItemActivate@eCScriptListCtrl@@QEBAAEBVeCScriptProxyScript@@XZ
?GetOnItemChanged@eCScriptListCtrl@@QEBAAEBVeCScriptProxyScript@@XZ
?GetOnKeyDown@eCScriptListCtrl@@QEBAAEBVeCScriptProxyScript@@XZ
?GetOnMouse@eCScriptListCtrl@@QEBAAEBVeCScriptProxyScript@@XZ
?GetOnPaint@eCScriptEdit@@QEBAAEBVeCScriptProxyScript@@XZ
?GetOnPaint@eCScriptListCtrl@@QEBAAEBVeCScriptProxyScript@@XZ
?GetOnPaint@eCScriptProgressbar@@QEBAAEBVeCScriptProxyScript@@XZ
?GetOnPaint@eCScriptRadioButton@@QEBAAEBVeCScriptProxyScript@@XZ
?GetOnPaint@eCScriptStatic@@QEBAAEBVeCScriptProxyScript@@XZ
?GetOnPaint@eCScriptTrackbar@@QEBAAEBVeCScriptProxyScript@@XZ
?GetOnSelectChange@eCScriptTrackbar@@QEBAAEBVeCScriptProxyScript@@XZ
?GetOnUpdateData@eCScriptListCtrl@@QEBAAEBVeCScriptProxyScript@@XZ
?GetOneClickActivate@eCGuiListCtrl2@@QEBA_NXZ
?GetOpacity@eCStrip_PS@@QEBAAEBMXZ
?GetOpacityCenter@eCVegetationBrush_PS@@QEBAAEBMXZ
?GetOpacityFalloff@eCVegetationBrush_PS@@QEBAAEBMXZ
?GetOrCreateNodeAt@eCVegetation_Grid@@IEAAPEAVeCVegetation_GridNode@@AEBVbCPoint@@@Z
?GetOrCreateNodeAt@eCVegetation_Grid@@IEAAPEAVeCVegetation_GridNode@@AEBVbCVector2@@@Z
?GetOrCreateNodeAt@eCVegetation_Grid@@IEAAPEAVeCVegetation_GridNode@@H@Z
?GetOrientation@eCCollisionShape@@QEAAAEAVbCMatrix3@@XZ
?GetOrientation@eCCollisionShape@@QEBAAEBVbCMatrix3@@XZ
?GetOrientation@eCGuiSystemFont2@@QEBAHXZ
?GetOrientation@eCGuiSystemFontDesc2@@QEBAHXZ
?GetOscillatorTypeU@eCTexCoordSrcOscillator@@QEBAAEBV?$bTPropertyContainer@W4eETexCoordSrcOscillatorType@@@@XZ
?GetOscillatorTypeV@eCTexCoordSrcOscillator@@QEBAAEBV?$bTPropertyContainer@W4eETexCoordSrcOscillatorType@@@@XZ
?GetOtherProprietaryShape@eCContactIterator@@QEAAPEAVNxShape@@PEBVeCEntity@@@Z
?GetOtherShape@eCContactIterator@@QEAAPEAVeCCollisionShape@@PEBVeCEntity@@@Z
?GetOtherShapeCenter@eCContactIterator@@QEAA?AVbCVector@@PEBVeCEntity@@@Z
?GetOtherShapeDepth@eCContactIterator@@QEAAMPEBVeCEntity@@@Z
?GetOtherShapeGroup@eCContactIterator@@QEAA?AW4eEShapeGroup@@PEBVeCEntity@@@Z
?GetOtherShapeHeight@eCContactIterator@@QEAAMPEBVeCEntity@@@Z
?GetOtherShapeMaterial@eCContactIterator@@QEAA?AW4eEShapeMaterial@@PEBVeCEntity@@@Z
?GetOtherShapeOrientation@eCContactIterator@@QEAA?AVbCMatrix3@@PEBVeCEntity@@@Z
?GetOtherShapeType@eCContactIterator@@QEAA?AW4eECollisionShapeType@@PEBVeCEntity@@@Z
?GetOtherShapeWidth@eCContactIterator@@QEAAMPEBVeCEntity@@@Z
?GetOutPrecision@eCGuiSystemFont2@@QEBAEXZ
?GetOutPrecision@eCGuiSystemFontDesc2@@QEBAEXZ
?GetOuterAABBLocal@eCCollisionShape@@QEAAAEAVbCBox@@XZ
?GetOuterAABBLocal@eCCollisionShape@@QEBAAEBVbCBox@@XZ
?GetOuterConeScale@eCLightStreaks_PS@@QEBAAEBMXZ
?GetOuterExtends@eCWeatherZone_PS@@QEBAAEBVbCVector@@XZ
?GetOuterRadius@eCWeatherZone_PS@@QEBAAEBMXZ
?GetOutputAt@eCImageFilterBase@@UEBA_NHAEAUeSOutput@1@@Z
?GetOutputAt@eCImageFilterImage@@UEBA_NHAEAUeSOutput@eCImageFilterBase@@@Z
?GetOutputAt@eCImageFilterImageEffect@@UEBA_NHAEAUeSOutput@eCImageFilterBase@@@Z
?GetOutputAt@eCImageFilterRTBase@@UEBA_NHAEAUeSOutput@eCImageFilterBase@@@Z
?GetOutputAt@eCImageFilterScene@@UEBA_NHAEAUeSOutput@eCImageFilterBase@@@Z
?GetOutputAt@eCImageFilterTexture@@UEBA_NHAEAUeSOutput@eCImageFilterBase@@@Z
?GetOutputCount@eCImageFilterBase@@UEBAHXZ
?GetOutputCount@eCImageFilterImage@@UEBAHXZ
?GetOutputCount@eCImageFilterImageEffect@@UEBAHXZ
?GetOutputCount@eCImageFilterRTBase@@UEBAHXZ
?GetOutputCount@eCImageFilterScene@@UEBAHXZ
?GetOutputCount@eCImageFilterTexture@@UEBAHXZ
?GetOutputMode@eCImageFilterRTBase@@QEBAAEBV?$bTPropertyContainer@W4eEIFOutputMode@@@@XZ
?GetOutputSize@eCImageFilterRTBase@@QEBA?AVbCPoint@@XZ
?GetOverlay1PlayMode@eCWrapper_emfx3ActorInstance@@QEBA?AW4eEMotionPlayMode@eAnimShared@@XZ
?GetOverlay@eCGuiWindow2@@QEBA?AVbCString@@HH@Z
?GetOverlayBlendMode@eCGuiLayeredImage2@@QEBAAEBV?$bTPropertyContainer@W4eEImageLayerBlend@@@@XZ
?GetOverlayBlendValue@eCImageFilterAdmin@@QEBAMXZ
?GetOverlayImage@eCGuiBitmapList2@@UEBAHH@Z
?GetOverlayImage@eCGuiImageCollection2@@UEBAHH@Z
?GetOverlayImage@eCGuiImageList2@@UEBAHH@Z
?GetOverlayImage@eCGuiLayeredImage2@@IEBA?AVbCString@@XZ
?GetOverlayMode@eCGuiPictureBox2@@QEBA?AV?$bTPropertyContainer@W4eEOverlayMode@@@@XZ
?GetOverrideEntityAABB@eCCollisionShape@@QEBAAEB_NXZ
?GetOverwriteIndicator@eCShaderMaterialAdmin@@QEBA?AW4eEShaderMaterialOverwriteIndicator@@XZ
?GetOvlReportFocus@eCGuiListCtrl2@@QEBA?AVbCString@@XZ
?GetOvlTileFocus@eCGuiListCtrl2@@QEBA?AVbCString@@XZ
?GetOwner@eCDecal@@QEBAPEAVeCEntity@@XZ
?GetOwnerPS@eCWrapper_emfx3ActorInstance@@QEAAPEAVeCEntityPropertySet@@XZ
?GetPSImplementation@eCTexCoordSrcBase@@UEAA_NAEAV?$bTObjArray@UeSShaderMaterialDeclaration@@@@AEAVbCString@@H_N@Z
?GetPSImplementation@eCTexCoordSrcBumpOffset@@UEAA_NAEAV?$bTObjArray@UeSShaderMaterialDeclaration@@@@AEAVbCString@@H_N@Z
?GetPSImplementation@eCTexCoordSrcColor@@UEAA_NAEAV?$bTObjArray@UeSShaderMaterialDeclaration@@@@AEAVbCString@@H_N@Z
?GetPSImplementation@eCTexCoordSrcOscillator@@UEAA_NAEAV?$bTObjArray@UeSShaderMaterialDeclaration@@@@AEAVbCString@@H_N@Z
?GetPSImplementation@eCTexCoordSrcProxy@@QEAA_NAEAV?$bTObjArray@UeSShaderMaterialDeclaration@@@@AEAVbCString@@H_N@Z
?GetPSImplementation@eCTexCoordSrcReflect@@UEAA_NAEAV?$bTObjArray@UeSShaderMaterialDeclaration@@@@AEAVbCString@@H_N@Z
?GetPSImplementation@eCTexCoordSrcRotator@@UEAA_NAEAV?$bTObjArray@UeSShaderMaterialDeclaration@@@@AEAVbCString@@H_N@Z
?GetPSImplementation@eCTexCoordSrcScale@@UEAA_NAEAV?$bTObjArray@UeSShaderMaterialDeclaration@@@@AEAVbCString@@H_N@Z
?GetPSImplementation@eCTexCoordSrcScroller@@UEAA_NAEAV?$bTObjArray@UeSShaderMaterialDeclaration@@@@AEAVbCString@@H_N@Z
?GetPadData@eCInputX360@@QEAAPEAUPadData@1@W4PadNumber@1@@Z
?GetPageSize@eCGuiScrollBar2@@QEBAHXZ
?GetPageSize@eCGuiTrackBar2@@QEBAHXZ
?GetPairFlags@eCContactIterator@@QEAA?AW4eECollisionPairFlags@@XZ
?GetParamA@eCScriptEventArgs@@QEBA_JXZ
?GetParamB@eCScriptEventArgs@@QEBA_JXZ
?GetParameter@eCDX9Effect@@UEAA?AW4bEResult@@QEAX0I@Z
?GetParameter@eCImageFilterEffect@@QEBAPEAUeSImageEffectParam@@AEBVbCString@@@Z
?GetParameterAt@eCImageFilterEffect@@QEBAPEAUeSImageEffectParam@@H@Z
?GetParameterByName@eCDX9Effect@@UEBAPEAXPEBD@Z
?GetParameterByName@eCGfxEffect@@QEBAPEAXPEBD@Z
?GetParameterCount@eCImageFilterEffect@@QEBAHXZ
?GetParameterDescription@eCDX9Effect@@UEAA?AW4bEResult@@IAEAUeSGfxParameterDesc@eCGfxShared@@PEAX@Z
?GetParameterDescription@eCGfxEffect@@QEBA?AW4bEResult@@IAEAUeSGfxParameterDesc@eCGfxShared@@PEAX@Z
?GetParent@eCGuiWindow2@@QEBAPEAV1@XZ
?GetParent@eCNode@@QEAAPEAV1@XZ
?GetParent@eCNode@@QEBAPEBV1@XZ
?GetParent@eCStatistic@@QEBAPEAV1@XZ
?GetParticlesPerSecond@eCParticle_PS@@QEBAAEBMXZ
?GetParticlesPerSecond@eCPrecipitation_PS@@QEBAAEBHXZ
?GetParticlesPerSecond@eCWeatherStates@@QEBAAEBHXZ
?GetPasses@eCShaderBase@@QEAAHHPEAUeSShaderMaterialIllumination@@W4eEShaderMaterialLightmapCombi@@_NE@Z
?GetPassiveName@eCResource2@@QEBA?AVbCString@@XZ
?GetPassiveNamePart@eCResourceInputStream2@@QEBA?AVbCString@@XZ
?GetPatchNormal@eCContactIterator@@QEAA?AVbCVector@@XZ
?GetPendingChanges@eCFileChangeInterface@@QEAAXAEAV?$bTObjArray@VeCFileChangeEntry@eCFileChangeInterface@@@@@Z
?GetPerspective@eCCameraBase@@QEBAAEB_NXZ
?GetPhase@eCTexCoordSrcOscillator@@QEBAAEBVbCVector2@@XZ
?GetPhase@eCTexCoordSrcRotator@@QEBAAEBVbCEulerAngles@@XZ
?GetPhysicMaterial@eCMaterialResource2@@QEBAAEBV?$bTPropertyContainer@W4eEShapeMaterial@@@@XZ
?GetPhysicObject@eCGeometryEntity@@QEAAPEAVeCPhysicObject@@XZ
?GetPhysicObject@eCGeometryEntity@@QEBAPEBVeCPhysicObject@@XZ
?GetPhysicalFilePath@eCArchiveFile@@QEBA?AVbCString@@XZ
?GetPhysicalPath@eCArchiveFile@@QEBA_NAEAVbCString@@@Z
?GetPhysicalRootPath@eCArchiveFile@@QEBA?AVbCString@@XZ
?GetPhysicalRootPath@eCVirtualFileSystem@@QEAA?AVbCString@@XZ
?GetPhysicsCollection@eCMotionActorResource2@@QEBAPEAVNxuPhysicsCollection@NXU@@XZ
?GetPhysicsEnabled@eCRigidBodyBase_PS@@QEBAAEB_NXZ
?GetPictureMode@eCGuiPictureBox2@@QEBA?AV?$bTPropertyContainer@W4eEPictureMode@@@@XZ
?GetPictureRect@eCGuiPictureBox2@@QEBA?AVbCRect@@XZ
?GetPitch@eCAudioChannelGroup@@QEBA?AW4eEAudioResult@@AEAM@Z
?GetPitch@eCGlyphOutline@@QEBAIXZ
?GetPitchAndFamily@eCGuiSystemFont2@@QEBAEXZ
?GetPitchAndFamily@eCGuiSystemFontDesc2@@QEBAEXZ
?GetPivotVelocity@eCRigidBody_PS@@UEBA?AVbCVector@@XZ
?GetPixel@eCGlyphOutline@@QEBAEII@Z
?GetPixelFormat@eCImageResource2@@QEBAAEBV?$bTPropertyContainer@W4eEColorFormat@eCGfxShared@@@@XZ
?GetPixelProgramData@eCDX9Device@@UEAA?AW4bEResult@@KPEAXPEAI@Z
?GetPixelProgramRegisterB@eCDX9Device@@UEAA?AW4bEResult@@KPEAHK@Z
?GetPixelProgramRegisterB@eCGfxMixerAdmin@@QEAA?AW4bEResult@@KPEAHK@Z
?GetPixelProgramRegisterF@eCDX9Device@@UEAA?AW4bEResult@@KPEAMK@Z
?GetPixelProgramRegisterF@eCGfxMixerAdmin@@QEAA?AW4bEResult@@KPEAMK@Z
?GetPixelProgramRegisterI@eCDX9Device@@UEAA?AW4bEResult@@KPEAHK@Z
?GetPixelProgramRegisterI@eCGfxMixerAdmin@@QEAA?AW4bEResult@@KPEAHK@Z
?GetPixelShaderConstantPool@eCShaderBase@@QEAAAEAVeCShaderConstantPool@@XZ
?GetPixelShaderConstantPool@eCShaderBase@@QEBAAEBVeCShaderConstantPool@@XZ
?GetPixelState@eCGlyphOutline@@QEBA_NII@Z
?GetPlaceHolderImageData@eCImageResource2@@QEBAPEAVeCGfxImageData@@H@Z
?GetPlaceOnTargetMesh@eCBillboard_PS@@QEBAAEB_NXZ
?GetPlacement@eCVegetationBrush_PS@@QEBAAEBV?$bTPropertyContainer@W4eEVegetationBrushPlace@@@@XZ
?GetPlainText@eCLocString@@QEBA?AVbCUnicodeString@@AEBVbCString@@@Z
?GetPlainText@eCLocString@@QEBA?AVbCUnicodeString@@XZ
?GetPlainText@eCLocStringEx@@QEBA?AVbCUnicodeString@@XZ
?GetPlayBackMode@eCMoverAnimationBase@@QEBAAEBV?$bTPropertyContainer@W4eEMoverPlayBackMode@@@@XZ
?GetPlaySpeed@eCWrapper_emfx3ActorInstance@@QEBAMW4eEMotionType@eAnimShared@@@Z
?GetPlayTime@eCWrapper_emfx3ActorInstance@@QEBANW4eEMotionType@eAnimShared@@@Z
?GetPlayerPosition@eCWeatherAdmin@@QEBAAEBVbCVector@@XZ
?GetPlayingChannelCount@eCAudioSystem@@QEBA?AW4eEAudioResult@@AEAH@Z
?GetPoint@eCCollisionShape@@QEAAAEAVbCVector@@XZ
?GetPoint@eCCollisionShape@@QEBAAEBVbCVector@@XZ
?GetPoint@eCContactIterator@@QEAA?AVbCVector@@XZ
?GetPointLight@eCShadowMapPointLight@@QEBAPEAVeCPointLight_PS@@XZ
?GetPointLightShadowMapFormat@eCShaderMaterialAdmin@@QEBA?AW4eEDepthMapFormat@@XZ
?GetPointVelocity@eCRigidBody_PS@@UEBA?AVbCVector@@AEBV2@@Z
?GetPolygonBackfaceCulling@eCIterator@@QEBA?AW4bESides@bCTriangle@@XZ
?GetPortalBSP@eCPortalRoom_PS@@QEAAAEAVeCPortalBSP@@XZ
?GetPortalBSP@eCPortalRoom_PS@@QEBAAEBVeCPortalBSP@@XZ
?GetPortalBox@eCPortal@@QEBAAEBVbCBox@@XZ
?GetPortalCells@eCPortalAdmin@@QEBAAEBV?$bTValArray@PEAVeCPortalCell_PS@@@@XZ
?GetPortalRect@eCPortal@@QEAAAEAUeSPortalRect@eCPortalBSP@@XZ
?GetPortalRect@eCPortal@@QEBAAEBUeSPortalRect@eCPortalBSP@@XZ
?GetPortalRoom@eCFrustumElementItem@@QEBAPEAVeCPortalRoom_PS@@XZ
?GetPortalRooms@eCPortalAdmin@@QEBAAEBV?$bTValArray@PEAVeCPortalRoom_PS@@@@XZ
?GetPortals@eCPortalCell_PS@@QEBAAEBV?$bTObjArray@VeCPortal@@@@XZ
?GetPos@eCGuiProgressBar2@@QEBAHXZ
?GetPos@eCGuiScrollBar2@@QEBAHXZ
?GetPos@eCGuiTrackBar2@@QEBAHXZ
?GetPos@eCProgressbarEventArgs@@QEBAHXZ
?GetPos@eCTrackbarEventArgs@@QEBAHXZ
?GetPose@eCRigidBodyBase_PS@@UEBA?AVbCMatrix@@XZ
?GetPose@eCRigidBody_PS@@UEBA?AVbCMatrix@@XZ
?GetPosition@eCArchiveFile@@UEBA_JXZ
?GetPosition@eCAudioChannel@@QEBAKW4eEAudioTimeUnit@@@Z
?GetPosition@eCBillboard@@QEBAAEBVbCVector@@H@Z
?GetPosition@eCCameraBase@@QEBAAEBVbCVector@@XZ
?GetPosition@eCGuiWindow2@@QEBA?AVbCPoint@@XZ
?GetPosition@eCMoverAnimationBezier@@QEBAAEBV?$bTInterpolatorBezier@VbCVector@@U?$bSKeyFrameBezier@VbCVector@@@@@@XZ
?GetPosition@eCMoverAnimationHermit@@QEBAAEBV?$bTInterpolatorHermit@VbCVector@@U?$bSKeyFrameHermitEx@VbCVector@@@@@@XZ
?GetPosition@eCMoverAnimationLinear@@QEBAAEBV?$bTInterpolatorLinear@VbCVector@@U?$bSKeyFrameLinearEx@VbCVector@@@@@@XZ
?GetPosition@eCMoverAnimationTCB@@QEBAAEBV?$bTInterpolatorHermit@VbCVector@@U?$bSKeyFrameTCBEx@VbCVector@@@@@@XZ
?GetPosition@eCPointLight_PS@@QEAAAEBVbCVector@@XZ
?GetPosition@eCResourceInputStream2@@UEBA_JXZ
?GetPosition@eCRigidBodyBase_PS@@UEBA?AVbCVector@@XZ
?GetPosition@eCRigidBody_PS@@UEBA?AVbCVector@@XZ
?GetPosition@eCStaticAmbientLight_PS@@UEBAAEBVbCVector@@XZ
?GetPosition@eCStaticLight_PS@@UEBAAEBVbCVector@@XZ
?GetPosition@eCStaticPointLight_PS@@UEBAAEBVbCVector@@XZ
?GetPosition@eCWindow@@QEBA?AVbCRect@@XZ
?GetPositionData@eCMeshResource2@@QEBA?AV?$eTVertexBufferArray@VbCVector@@@@_N@Z
?GetPositionInterpolator@eCMoverAnimationBezier@@UEBAPEAV?$bTInterpolatorBase@VbCVector@@@@XZ
?GetPositionInterpolator@eCMoverAnimationHermit@@UEBAPEAV?$bTInterpolatorBase@VbCVector@@@@XZ
?GetPositionInterpolator@eCMoverAnimationKFBase@@UEBAPEAV?$bTInterpolatorBase@VbCVector@@@@XZ
?GetPositionInterpolator@eCMoverAnimationLinear@@UEBAPEAV?$bTInterpolatorBase@VbCVector@@@@XZ
?GetPositionInterpolator@eCMoverAnimationTCB@@UEBAPEAV?$bTInterpolatorBase@VbCVector@@@@XZ
?GetPower@eCColorSrcCamDistance@@QEBAAEBMXZ
?GetPower@eCColorSrcFresnel@@QEBAAEBMXZ
?GetPrecipitationCubeSize@eCPrecipitation_PS@@QEBAAEBMXZ
?GetPrefetchAdmin@eCSceneAdmin@@QEAAAEAVeCPrefetchAdmin@@XZ
?GetPrefetchRange@eCPrefetchAdmin@@QEBAMXZ
?GetPrefetchSphere@eCGeometryEntity@@QEBA_KXZ
?GetPrefetchSphere@eCPrefetchAdmin@@QEAA_NPEAVeCGeometryEntity@@AEAVbCSphere@@@Z
?GetPrefetchStatistics@eCPrefetchAdmin@@QEBAAEBUeSPrefetchStatistics@1@XZ
?GetPrefix@eCLocString@@UEBA?AVbCString@@XZ
?GetPrefix@eCLocStringEx@@UEBA?AVbCString@@XZ
?GetPrefix@eCTipLocString@@UEBA?AVbCString@@XZ
?GetPrevSibling@eCGuiWindow2@@QEBAPEAV1@XZ
?GetPrevSibling@eCStatistic@@QEBAPEAV1@XZ
?GetPreviewSize@eCColorSrcCubeSampler@@UEAA?AVbCPoint@@AEBV2@@Z
?GetPreviewSize@eCColorSrcSampler@@UEAA?AVbCPoint@@AEBV2@@Z
?GetPreviewSize@eCShaderEllementBase@@UEAA?AVbCPoint@@AEBV2@@Z
?GetPrimary1PlayMode@eCWrapper_emfx3ActorInstance@@QEBA?AW4eEMotionPlayMode@eAnimShared@@XZ
?GetPrimitiveMaterial@eCAnimation_HardRenderActor2@@QEAAPEAVeCMaterialResource2@@GG@Z
?GetPriority@eCAudioChannel@@QEBA?AW4eEAudioResult@@AEAE@Z
?GetProbability@eCWeatherEnvironment@@QEAA_NAEBVbCString@@AEAUeSProbability@1@@Z
?GetProbabilityFunction@eCVegetationBrush_PS@@QEBAAEBV?$bTPropertyContainer@W4eEVegetationBrushProbabilityFunction@@@@XZ
?GetProbabilityNoise@eCVegetationBrush_PS@@QEBAPEBVbCNoise@@XZ
?GetProbabilityNoiseModify@eCVegetationBrush_PS@@QEBAAEBVbCVector2@@XZ
?GetProbabilityNoiseOctaves@eCVegetationBrush_PS@@QEBAAEBHXZ
?GetProbabilityNoiseScale@eCVegetationBrush_PS@@QEBAAEBMXZ
?GetProbabilityNoiseTurbulence@eCVegetationBrush_PS@@QEBAAEBV?$bTPropertyContainer@W4bENoiseTurbulence@@@@XZ
?GetProcessingIndex@eCPhysicsScene@@UEBAEXZ
?GetProfileLastTicksFirst@eCGuiModule2@@UEBA?BKXZ
?GetProfileLastTicksFirst@eCIlluminationAdmin@@UEBA?BKXZ
?GetProfileLastTicksFirst@eCParticleModule@@UEBA?BKXZ
?GetProfileLastTicksFirst@eCPhysicsScene@@UEBA?BKXZ
?GetProfileLastTicksFirst@eCRenderSystemAdmin@@UEBA?BKXZ
?GetProfileLastTicksSecond@eCParticleModule@@UEBA?BKXZ
?GetProfileLastTicksSecond@eCRenderSystemAdmin@@UEBA?BKXZ
?GetProfileLastTicksThird@eCRenderSystemAdmin@@UEBA?BKXZ
?GetProgramRegister@eCGfxPixelProgram@@QEBA?AW4bEResult@@KPEAMK@Z
?GetProgramRegister@eCGfxVertexProgram@@QEBA?AW4bEResult@@KPEAMK@Z
?GetProgressBar@eCGuiProgressBar2@@IEBAPEAVCFXProgressBar@@XZ
?GetProgressCallback@eCLightmapPreprocessor@@QEAAP6A_NHHAEBVbCString@@@ZXZ
?GetProjectionMatrix@eCCameraBase@@QEBAAEBVbCMatrix@@XZ
?GetProjectionMatrix@eCGfxCamera@@QEBA?AW4bEResult@@AEAVbCMatrix@@@Z
?GetProjectionMatrix@eCGfxCamera@@QEBAAEBVbCMatrix@@XZ
?GetProjectionNormal@eCParticle_PS@@QEBAAEBVbCVector@@XZ
?GetPropertyName@eCPropertyProxy@@QEBAAEBVbCString@@XZ
?GetPropertyNameList@eCArea_StringProperty_PS@@QEBAAEBV?$bTObjArray@VbCString@@@@XZ
?GetPropertySet@eCEntity@@QEAAPEAVeCEntityPropertySet@@AEBVbCString@@@Z
?GetPropertySet@eCEntity@@QEBAPEBVeCEntityPropertySet@@AEBVbCString@@@Z
?GetPropertySet@eCEntity@@QEBAPEBVeCEntityPropertySet@@W4eEPropertySetType@@@Z
?GetPropertySet@eCEntity@@UEAAPEAVeCEntityPropertySet@@W4eEPropertySetType@@@Z
?GetPropertySet@eCPropertySetProxy@@QEBAPEBVeCEntityPropertySet@@XZ
?GetPropertySetAt@eCEntity@@QEAAPEAVeCEntityPropertySet@@H@Z
?GetPropertySetAt@eCEntity@@QEBAPEBVeCEntityPropertySet@@H@Z
?GetPropertySetClassName@eCEntityPropertySet@@UEBAAEBVbCString@@XZ
?GetPropertySetCount@eCEntity@@QEBAHXZ
?GetPropertySetIndex@eCEntity@@QEBAHPEBVeCEntityPropertySet@@@Z
?GetPropertySetType@eCAnimation_PS@@MEBA?AW4eEPropertySetType@@XZ
?GetPropertySetType@eCArea_StringProperty_PS@@UEBA?AW4eEPropertySetType@@XZ
?GetPropertySetType@eCAudioEmitter_PS@@UEBA?AW4eEPropertySetType@@XZ
?GetPropertySetType@eCBillboard_PS@@UEBA?AW4eEPropertySetType@@XZ
?GetPropertySetType@eCBodyPart_PS@@MEBA?AW4eEPropertySetType@@XZ
?GetPropertySetType@eCCollisionShapeBase_PS@@UEBA?AW4eEPropertySetType@@XZ
?GetPropertySetType@eCDecal_PS@@UEBA?AW4eEPropertySetType@@XZ
?GetPropertySetType@eCDirectionalLight_PS@@UEBA?AW4eEPropertySetType@@XZ
?GetPropertySetType@eCDynamicLight_PS@@UEBA?AW4eEPropertySetType@@XZ
?GetPropertySetType@eCEditorEntityPropertySet@@UEBA?AW4eEPropertySetType@@XZ
?GetPropertySetType@eCEntityPropertySet@@UEBA?AW4eEPropertySetType@@XZ
?GetPropertySetType@eCGenericEntityListener_PS@@UEBA?AW4eEPropertySetType@@XZ
?GetPropertySetType@eCHemisphere_PS@@UEBA?AW4eEPropertySetType@@XZ
?GetPropertySetType@eCIlluminated_PS@@UEBA?AW4eEPropertySetType@@XZ
?GetPropertySetType@eCLightStreaks_PS@@UEBA?AW4eEPropertySetType@@XZ
?GetPropertySetType@eCMesh_PS@@UEBA?AW4eEPropertySetType@@XZ
?GetPropertySetType@eCMover_PS@@UEBA?AW4eEPropertySetType@@XZ
?GetPropertySetType@eCOccluder_PS@@UEBA?AW4eEPropertySetType@@XZ
?GetPropertySetType@eCParticle_PS@@UEBA?AW4eEPropertySetType@@XZ
?GetPropertySetType@eCPhysicsScene_PS@@UEBA?AW4eEPropertySetType@@XZ
?GetPropertySetType@eCPointLight_PS@@UEBA?AW4eEPropertySetType@@XZ
?GetPropertySetType@eCPortalRoom_PS@@UEBA?AW4eEPropertySetType@@XZ
?GetPropertySetType@eCPrecipitation_PS@@UEBA?AW4eEPropertySetType@@XZ
?GetPropertySetType@eCPropertySetProxy@@QEBAAEBVbCString@@XZ
?GetPropertySetType@eCRigidBodyBase_PS@@UEBA?AW4eEPropertySetType@@XZ
?GetPropertySetType@eCSkydome_PS@@UEBA?AW4eEPropertySetType@@XZ
?GetPropertySetType@eCSpeedTreeBBMesh_PS@@UEBA?AW4eEPropertySetType@@XZ
?GetPropertySetType@eCSpeedTreeWind_PS@@UEBA?AW4eEPropertySetType@@XZ
?GetPropertySetType@eCSpeedTree_PS@@UEBA?AW4eEPropertySetType@@XZ
?GetPropertySetType@eCStaticAmbientLight_PS@@UEBA?AW4eEPropertySetType@@XZ
?GetPropertySetType@eCStaticLight_PS@@UEBA?AW4eEPropertySetType@@XZ
?GetPropertySetType@eCStaticPointLight_PS@@UEBA?AW4eEPropertySetType@@XZ
?GetPropertySetType@eCStrip_PS@@UEBA?AW4eEPropertySetType@@XZ
?GetPropertySetType@eCVegetationBrush_PS@@UEBA?AW4eEPropertySetType@@XZ
?GetPropertySetType@eCVegetation_PS@@UEBA?AW4eEPropertySetType@@XZ
?GetPropertySetType@eCWeatherZone_PS@@UEBA?AW4eEPropertySetType@@XZ
?GetProprietaryShape@eCCollisionShape@@QEBAPEAVNxShape@@XZ
?GetProprietaryShapeAtIndex@eCCollisionShape_PS@@UEBAPEAVNxShape@@K@Z
?GetProprietaryTouchingShape@eCCollisionShape_PS@@QEBAPEAVNxShape@@K@Z
?GetProxyAt@eCColorSrcBlend@@UEBAPEBVeCShaderEllementProxy@@H@Z
?GetProxyAt@eCColorSrcCombiner@@UEBAPEBVeCShaderEllementProxy@@H@Z
?GetProxyAt@eCColorSrcCubeSampler@@UEBAPEBVeCShaderEllementProxy@@H@Z
?GetProxyAt@eCColorSrcMask@@UEBAPEBVeCShaderEllementProxy@@H@Z
?GetProxyAt@eCColorSrcSampler@@UEBAPEBVeCShaderEllementProxy@@H@Z
?GetProxyAt@eCColorSrcSkydomeSampler@@UEBAPEBVeCShaderEllementProxy@@H@Z
?GetProxyAt@eCShaderDefault@@UEBAPEBVeCShaderEllementProxy@@H@Z
?GetProxyAt@eCShaderEllementBase@@UEBAPEBVeCShaderEllementProxy@@H@Z
?GetProxyAt@eCShaderLightStreaks@@UEBAPEBVeCShaderEllementProxy@@H@Z
?GetProxyAt@eCShaderParticle@@UEBAPEBVeCShaderEllementProxy@@H@Z
?GetProxyAt@eCShaderSkyDome@@UEBAPEBVeCShaderEllementProxy@@H@Z
?GetProxyAt@eCTexCoordSrcBumpOffset@@UEBAPEBVeCShaderEllementProxy@@H@Z
?GetProxyAt@eCTexCoordSrcColor@@UEBAPEBVeCShaderEllementProxy@@H@Z
?GetProxyAt@eCTexCoordSrcOscillator@@UEBAPEBVeCShaderEllementProxy@@H@Z
?GetProxyAt@eCTexCoordSrcRotator@@UEBAPEBVeCShaderEllementProxy@@H@Z
?GetProxyAt@eCTexCoordSrcScale@@UEBAPEBVeCShaderEllementProxy@@H@Z
?GetProxyAt@eCTexCoordSrcScroller@@UEBAPEBVeCShaderEllementProxy@@H@Z
?GetProxyCount@eCColorSrcBlend@@UEBAHXZ
?GetProxyCount@eCColorSrcCombiner@@UEBAHXZ
?GetProxyCount@eCColorSrcCubeSampler@@UEBAHXZ
?GetProxyCount@eCColorSrcMask@@UEBAHXZ
?GetProxyCount@eCColorSrcSampler@@UEBAHXZ
?GetProxyCount@eCColorSrcSkydomeSampler@@UEBAHXZ
?GetProxyCount@eCShaderDefault@@UEBAHXZ
?GetProxyCount@eCShaderEllementBase@@UEBAHXZ
?GetProxyCount@eCShaderLightStreaks@@UEBAHXZ
?GetProxyCount@eCShaderParticle@@UEBAHXZ
?GetProxyCount@eCShaderSkyDome@@UEBAHXZ
?GetProxyCount@eCTexCoordSrcBumpOffset@@UEBAHXZ
?GetProxyCount@eCTexCoordSrcColor@@UEBAHXZ
?GetProxyCount@eCTexCoordSrcOscillator@@UEBAHXZ
?GetProxyCount@eCTexCoordSrcRotator@@UEBAHXZ
?GetProxyCount@eCTexCoordSrcScale@@UEBAHXZ
?GetProxyCount@eCTexCoordSrcScroller@@UEBAHXZ
?GetProxyNameAt@eCColorSrcBlend@@UEBA?AVbCString@@H@Z
?GetProxyNameAt@eCColorSrcCombiner@@UEBA?AVbCString@@H@Z
?GetProxyNameAt@eCColorSrcCubeSampler@@UEBA?AVbCString@@H@Z
?GetProxyNameAt@eCColorSrcMask@@UEBA?AVbCString@@H@Z
?GetProxyNameAt@eCColorSrcSampler@@UEBA?AVbCString@@H@Z
?GetProxyNameAt@eCColorSrcSkydomeSampler@@UEBA?AVbCString@@H@Z
?GetProxyNameAt@eCShaderDefault@@UEBA?AVbCString@@H@Z
?GetProxyNameAt@eCShaderEllementBase@@UEBA?AVbCString@@H@Z
?GetProxyNameAt@eCShaderLightStreaks@@UEBA?AVbCString@@H@Z
?GetProxyNameAt@eCShaderParticle@@UEBA?AVbCString@@H@Z
?GetProxyNameAt@eCShaderSkyDome@@UEBA?AVbCString@@H@Z
?GetProxyNameAt@eCTexCoordSrcBumpOffset@@UEBA?AVbCString@@H@Z
?GetProxyNameAt@eCTexCoordSrcColor@@UEBA?AVbCString@@H@Z
?GetProxyNameAt@eCTexCoordSrcOscillator@@UEBA?AVbCString@@H@Z
?GetProxyNameAt@eCTexCoordSrcRotator@@UEBA?AVbCString@@H@Z
?GetProxyNameAt@eCTexCoordSrcScale@@UEBA?AVbCString@@H@Z
?GetProxyNameAt@eCTexCoordSrcScroller@@UEBA?AVbCString@@H@Z
?GetPublic@eCImageFilterBase@@QEBAAEB_NXZ
?GetPushLike@eCGuiRadioButton2@@QEBA_NXZ
?GetQuality@eCGuiSystemFont2@@QEBAEXZ
?GetQuality@eCGuiSystemFontDesc2@@QEBAEXZ
?GetQuality@eCShaderMaterialAdmin@@QEBA?AW4eEShaderQuality@1@XZ
?GetQueryReport@eCPhysicsScene@@QEAAAEAVeCPhysicQueryReport@@XZ
?GetROISphere@eCPrefetchAdmin@@QEAAAEBVbCSphere@@XZ
?GetRadiusAdd@eCColorSrcCamObstacle@@QEBAAEBMXZ
?GetRadiusMultiply@eCColorSrcCamObstacle@@QEBAAEBMXZ
?GetRagDollEnabled@eCAnimation_PS@@QEBA_NXZ
?GetRagDollMass@eCAnimation_PS@@QEBAAEBMXZ
?GetRagDolls@eCMotionActorResource2@@QEBAPEAVNxuPhysicsCollection@NXU@@XZ
?GetRandomEffect@eCWeatherStates@@QEBAAEBVbCString@@XZ
?GetRandomFrame@eCParticle_PS@@IEBAXAEAH@Z
?GetRandomPointsOnMesh@eCAnimation_PS@@QEBAHPEAVbCVector@@H0M@Z
?GetRandomPointsOnMesh@eCMeshResource2@@QEBAHPEAVbCVector@@H0M@Z
?GetRandomPointsOnMesh@eCMesh_PS@@QEBAHPEAVbCVector@@H0M@Z
?GetRandomPointsOnMesh@eCWrapper_emfx3ActorInstance@@QEBAHPEAVbCVector@@H0M@Z
?GetRandomRotation@eCVegetationBrush_PS@@QEBAAEBMXZ
?GetRandomSpherePoint@eCParticle_PS@@IEBAXAEAVbCVector@@@Z
?GetRandomSubdivision@eCParticle_PS@@QEBAAEB_NXZ
?GetRandomTile@eCBillboard_PS@@QEBAAEB_NXZ
?GetRandomTile@eCDecal_PS@@QEBAAEB_NXZ
?GetRange@eCCollisionShape_PS@@QEBAAEBV?$bTPropertyContainer@W4eEPhysicRangeType@@@@XZ
?GetRange@eCPointLight_PS@@QEBAAEBMXZ
?GetRange@eCStaticAmbientLight_PS@@QEBAAEBMXZ
?GetRange@eCStaticPointLight_PS@@QEBAAEBMXZ
?GetRangeMax@eCGuiProgressBar2@@QEBAHXZ
?GetRangeMax@eCGuiScrollBar2@@QEBAHXZ
?GetRangeMax@eCGuiTrackBar2@@QEBAHXZ
?GetRangeMax@eCProgressbarEventArgs@@QEBAHXZ
?GetRangeMax@eCTrackbarEventArgs@@QEBAHXZ
?GetRangeMin@eCGuiProgressBar2@@QEBAHXZ
?GetRangeMin@eCGuiScrollBar2@@QEBAHXZ
?GetRangeMin@eCGuiTrackBar2@@QEBAHXZ
?GetRangeMin@eCProgressbarEventArgs@@QEBAHXZ
?GetRangeMin@eCTrackbarEventArgs@@QEBAHXZ
?GetRate@eCTexCoordSrcOscillator@@QEBAAEBVbCVector2@@XZ
?GetRate@eCTexCoordSrcRotator@@QEBAAEBVbCEulerAngles@@XZ
?GetRate@eCTexCoordSrcScroller@@QEBAAEBMXZ
?GetRawAnimationPath@eCApplication@@UEBA?AVbCString@@XZ
?GetRawExt@eCAudioReverbPreset@@UEBA?AVbCString@@XZ
?GetRawExt@eCAudioRollOffPreset@@UEBA?AVbCString@@XZ
?GetRawExt@eCDocObject@@UEBA?AVbCString@@XZ
?GetRawExt@eCGuiCursor2@@UEBA?AVbCString@@XZ
?GetRawExt@eCGuiFont2@@UEBA?AVbCString@@XZ
?GetRawExt@eCGuiFrame2@@UEBA?AVbCString@@XZ
?GetRawExt@eCGuiImageCollection2@@UEBA?AVbCString@@XZ
?GetRawExt@eCGuiResource2@@UEBA?AVbCString@@XZ
?GetRawExt@eCGuiWindow2@@UEBA?AVbCString@@XZ
?GetRawExt@eCImageEffect@@UEBA?AVbCString@@XZ
?GetRawFileExt@eCGuiBitmapList2@@SA?AVbCString@@XZ
?GetRawFileExt@eCGuiCursor2@@SA?AVbCString@@XZ
?GetRawFileExt@eCGuiImageCollection2@@SA?AVbCString@@XZ
?GetRawFileExt@eCGuiImageList2@@SA?AVbCString@@XZ
?GetRawFileName@eCDocObject@@QEBA?AVbCString@@XZ
?GetRawFilePath@eCDocObject@@QEBA?AVbCString@@XZ
?GetRawFilePath@eCGuiBitmapList2@@SA?AVbCString@@XZ
?GetRawFilePath@eCGuiCursor2@@SA?AVbCString@@XZ
?GetRawFilePath@eCGuiImageCollection2@@SA?AVbCString@@XZ
?GetRawFilePath@eCGuiImageList2@@SA?AVbCString@@XZ
?GetRawFileTime@eCDocObject@@QEBA_NAEAUSFFFileTime@@@Z
?GetRawKeyState@eCInputAdmin@@QEAA_NW4eEScanCode@@@Z
?GetRawPath@eCAudioReverbPreset@@UEBA?AVbCString@@XZ
?GetRawPath@eCAudioRollOffPreset@@UEBA?AVbCString@@XZ
?GetRawPath@eCDocObject@@UEBA?AVbCString@@XZ
?GetRawPath@eCGuiCursor2@@UEBA?AVbCString@@XZ
?GetRawPath@eCGuiFont2@@UEBA?AVbCString@@XZ
?GetRawPath@eCGuiFrame2@@UEBA?AVbCString@@XZ
?GetRawPath@eCGuiImageCollection2@@UEBA?AVbCString@@XZ
?GetRawPath@eCGuiResource2@@UEBA?AVbCString@@XZ
?GetRawPath@eCGuiWindow2@@UEBA?AVbCString@@XZ
?GetRawPath@eCImageEffect@@UEBA?AVbCString@@XZ
?GetRawSoundPath@eCApplication@@UEBA?AVbCString@@XZ
?GetRayProcessingTime@eCPhysicsScene@@QEBAKXZ
?GetReadOnly@eCVertexBufferArray@@QEBA_NXZ
?GetReadPointer@eCResourceInputStream2@@QEAAPEBXXZ
?GetRectBlendFactor@eCWeatherZone_PS@@IEBAMAEBVbCVector@@@Z
?GetRectOnTexture@eCGuiImage2@@QEBAAEBVbCRect@@XZ
?GetRefTemplate@eCTemplateEntity@@QEBAPEBV1@XZ
?GetRefTemplateID@eCTemplateEntity@@QEBAAEBVbCPropertyID@@XZ
?GetReferenceCount@eCGuiResource2@@UEAAKXZ
?GetReflectType@eCTexCoordSrcReflect@@QEBAAEBV?$bTPropertyContainer@W4eEReflectType@@@@XZ
?GetReflections@eCAudioReverbPreset@@QEBAAEBHXZ
?GetReflectionsDelay@eCAudioReverbPreset@@QEBAAEBMXZ
?GetReflectionsPan@eCAudioReverbPreset@@QEBAAEBVbCVector@@XZ
?GetRefractmap@eCShaderMaterialAdmin@@QEAAPEAVeCGfxImageData@@XZ
?GetRelativeSpinPivot@eCParticle_PS@@QEBAAEBVbCVector@@XZ
?GetRelativeWarmupTime@eCParticle_PS@@QEBAAEBMXZ
?GetRemainingVertexCount@eCVegetationAdmin@@QEAAKXZ
?GetRenderAlphaValue@eCGeometryEntity@@QEBAMXZ
?GetRenderAlphaValue@eCTemplateEntity@@QEBAMXZ
?GetRenderBuffer@eCSpeedTreeResource2@@QEBAPEAVeCSpeedTreeRenderBuffer@@XZ
?GetRenderContext@eCRenderOp2@@QEBAPEAVeCRenderContext@@XZ
?GetRenderContextDesc@eCRenderOp2@@QEBAKXZ
?GetRenderDebug@eCAnimation_PS@@SA_NXZ
?GetRenderDebug@eCAudioEmitter_PS@@SA_NXZ
?GetRenderDebugCM@eCAnimation_PS@@SA_NXZ
?GetRenderElementsAlpha@eCFrustumDatabase@@QEAAAEAV?$bTValArray@VeCRenderOp2@@@@XZ
?GetRenderElementsRefracted@eCFrustumDatabase@@QEAAAEAV?$bTValArray@VeCRenderOp2@@@@XZ
?GetRenderElementsSolid@eCFrustumDatabase@@QEAAAEAV?$bTValArray@VeCRenderOp2@@@@XZ
?GetRenderElementsZPass@eCFrustumDatabase@@QEAAAEAV?$bTValArray@VeCRenderOp2@@@@XZ
?GetRenderInstancesTimeStamp@eCMeshResource2@@QEBAKXZ
?GetRenderMatrices@eCWrapper_emfx3ActorInstance@@QEBAAEBV?$bTValArray@VbCMatrix@@@@XZ
?GetRenderMode@eCGfxVisual@@QEBA?AW4bEResult@@AEAW4eERenderMode@eCGfxShared@@@Z
?GetRenderPassType@eCDepthMap@@UEBA?AW4eEShaderMaterialSpecialPassType@@XZ
?GetRenderPassType@eCPackedShadowMap@@UEBA?AW4eEShaderMaterialSpecialPassType@@XZ
?GetRenderPassType@eCShadowMapDirectionalLight2@@UEBA?AW4eEShaderMaterialSpecialPassType@@XZ
?GetRenderPassType@eCShadowMapDirectionalLight2VS@@UEBA?AW4eEShaderMaterialSpecialPassType@@XZ
?GetRenderPassType@eCShadowMapPointLight@@UEBA?AW4eEShaderMaterialSpecialPassType@@XZ
?GetRenderPassType@eCShadowMapSpotLight@@UEBA?AW4eEShaderMaterialSpecialPassType@@XZ
?GetRenderPrePasses@eCFrustumDatabase@@QEAAAEAV?$bTValArray@VeCRenderOp2@@@@XZ
?GetRenderPriority@eCShaderBase@@QEBAAEBHXZ
?GetRenderQueueSize@eCSpeedTreeRenderBuffer@@QEAAHXZ
?GetRenderStatistics@eCRenderSystemAdmin@@QEAAAEAUeSRenderStatistics@@XZ
?GetRenderStatistics@eCRenderSystemAdmin@@QEBAAEBUeSRenderStatistics@@XZ
?GetRenderTarget@eCDX9Device@@UEAA?AW4bEResult@@PEAPEAX0@Z
?GetRenderTarget@eCGfxMixerAdmin@@QEBA?AW4bEResult@@AEAPEAX0@Z
?GetRenderTargetAt@eCDX9Device@@UEAA?AW4bEResult@@PEAPEAXH@Z
?GetRenderTargetAt@eCGfxMixerAdmin@@QEBA?AW4bEResult@@AEAPEAXH@Z
?GetRenderTargetData@eCDX9CubeMap@@UEAA?AW4bEResult@@W4eECubeMapFace@eCGfxShared@@PEAVeCAPITexture@@H@Z
?GetRenderTargetData@eCDX9Texture@@UEAA?AW4bEResult@@PEAVeCAPITexture@@H@Z
?GetRenderTargetData@eCGfxImageData@@QEAA?AW4bEResult@@W4eECubeMapFace@eCGfxShared@@PEAV1@H@Z
?GetRenderTargetHandle@eCDX9CubeMap@@UEAA?AW4bEResult@@W4eECubeMapFace@eCGfxShared@@PEAPEAX@Z
?GetRenderTargetHandle@eCDX9Texture@@UEAA?AW4bEResult@@PEAPEAX@Z
?GetRenderTargetHandle@eCGfxImageData@@QEBA?AW4bEResult@@W4eECubeMapFace@eCGfxShared@@AEAPEAX@Z
?GetRenderTimeStamp@eCSpeedTreeAdmin@@QEBAKXZ
?GetRenderTimeStamp@eCSpeedTreeRenderBuffer@@QEBAKXZ
?GetRepeatProbability@eCAudioEmitter_PS@@QEBAAEBVbCRange1@@XZ
?GetRepositioningVector@eCAnimation_PS@@QEBAAEBVbCVector@@XZ
?GetRepositioningVector@eCWrapper_emfx3ActorInstance@@QEBAAEBVbCVector@@XZ
?GetResetOnTrigger@eCParticle_PS@@QEBAAEB_NXZ
?GetResolutionDesc@eCApplication@@QEBAAEBUeSGfxContextDesc@eCGfxShared@@XZ
?GetResource@eCResource2@@CAPEAV1@W4eEResourceType@@AEBVbCString@@@Z
?GetResource@eCResource2@@SAPEAV1@AEBVbCString@@@Z
?GetResource@eCResourceModule2@@AEBAPEAVeCResource2@@AEBVbCString@@PEAVeCResourceCache2@@@Z
?GetResource@eCResourceModule2@@QEBAPEAVeCResource2@@AEBVbCString@@@Z
?GetResource@eCResourceModule2@@QEBAPEAVeCResource2@@W4eEResourceType@@AEBVbCString@@@Z
?GetResourceActor@eCWrapper_emfx3ActorInstance@@QEBAPEAVeCMotionActorResource2@@XZ
?GetResourceFilePath@eCAnimation_PS@@QEBA?AVbCString@@XZ
?GetResourceFilePath@eCBodyPart_PS@@QEBA?AVbCString@@XZ
?GetResourceFilePath@eCSpeedTree_PS@@QEBAAEBVbCSpeedTreeResourceString@@XZ
?GetResourceIndex@eCCollisionShape@@QEBAGXZ
?GetResourceSize@eCGfxAssistantAdmin@@QEBAHAEBUeSGfxLayersDesc@eCGfxShared@@H_N@Z
?GetResourceSize@eCGfxImageData@@QEAAKH@Z
?GetResourceSpeedTree@eCSpeedTreeCollisionDesc@@QEBAPEBVeCSpeedTreeResource2@@XZ
?GetResourceState@eCResource2@@QEBA?AW4eEResourceState@@XZ
?GetRespawnDeadParticles@eCParticle_PS@@QEBAAEB_NXZ
?GetResult@eCAOMeshEmitterInstance@eCAmbientOcclusionPreprocessor@@QEBAAEBV?$bTSphericalHarmonics3@M@@XZ
?GetResults@?$eCAOPerTriangleMeshBase@G@eCAmbientOcclusionPreprocessor@@QEAAXAEAV?$bTValArray@UeSOrientedDisk@eCAmbientOcclusionPreprocessor@@@@AEAV?$bTValArray@M@@@Z
?GetResults@?$eCAOPerTriangleMeshBase@G@eCAmbientOcclusionPreprocessor@@UEAAXAEAV?$bTValArray@M@@@Z
?GetResults@?$eCAOPerTriangleMeshBase@K@eCAmbientOcclusionPreprocessor@@QEAAXAEAV?$bTValArray@UeSOrientedDisk@eCAmbientOcclusionPreprocessor@@@@AEAV?$bTValArray@M@@@Z
?GetResults@?$eCAOPerTriangleMeshBase@K@eCAmbientOcclusionPreprocessor@@UEAAXAEAV?$bTValArray@M@@@Z
?GetResults@eCAOCustomMesh@eCAmbientOcclusionPreprocessor@@UEAAXAEAV?$bTValArray@M@@@Z
?GetResults@eCAOMeshEmitterInstance@eCAmbientOcclusionPreprocessor@@UEAAXAEAV?$bTValArray@M@@@Z
?GetResults@eCAOMeshGroup@eCAmbientOcclusionPreprocessor@@UEAAXAEAV?$bTValArray@M@@@Z
?GetResults@eCAOMeshInstance@eCAmbientOcclusionPreprocessor@@UEAAXAEAV?$bTValArray@M@@@Z
?GetResults@eCAOMeshLoD@eCAmbientOcclusionPreprocessor@@UEAAXAEAV?$bTValArray@M@@@Z
?GetResults@eCAOPerVertexMesh@eCAmbientOcclusionPreprocessor@@UEAAXAEAV?$bTValArray@M@@@Z
?GetReverb@eCAudioReverbPreset@@QEBAAEBHXZ
?GetReverbDelay@eCAudioReverbPreset@@QEBAAEBMXZ
?GetReverbOcclusion@eCAudioChannel@@QEBA?AW4eEAudioResult@@AEAM@Z
?GetReverbPan@eCAudioReverbPreset@@QEBAAEBVbCVector@@XZ
?GetReverbPreset@eCPortalRoom_PS@@QEBAAEBVbCString@@XZ
?GetReversed@eCGuiTrackBar2@@QEBA_NXZ
?GetRevolutionCenterOffset@eCParticle_PS@@QEBAAEBVbCRange3@@XZ
?GetRevolutionScaleRepeats@eCParticle_PS@@QEBAAEBMXZ
?GetRevolutionsPerSecond@eCParticle_PS@@QEBAAEBVbCRange3@@XZ
?GetRollOffPreset@eCAudioEmitter_PS@@QEBAAEBVbCString@@XZ
?GetRollOffPreset@eCAudioModule@@QEBA_NAEBVbCString@@AEAM11AEAW4eEAudioChannelFallOff@@@Z
?GetRoom@eCAudioReverbPreset@@QEBAAEBHXZ
?GetRoomHF@eCAudioReverbPreset@@QEBAAEBHXZ
?GetRoomLF@eCAudioReverbPreset@@QEBAAEBHXZ
?GetRoomRolloffFactor@eCAudioReverbPreset@@QEBAAEBMXZ
?GetRoot@eCNode@@QEBAPEBV1@XZ
?GetRootNode@eCXMLFile@@QEAAPEAVbCXMLParserNode@@XZ
?GetRootPath@eCArchiveFile@@QEBA?AVbCString@@XZ
?GetRootPath@eCArchiveFile@@QEBAXAEAVbCString@@@Z
?GetRootTemplateEntities@eCSceneAdmin@@QEAAXAEAV?$bTPtrArray@PEAVeCTemplateEntity@@@@@Z
?GetRotation@eCBillboard_PS@@QEBAAEBMXZ
?GetRotation@eCCameraBase@@QEBAAEBVbCVector@@XZ
?GetRotation@eCMoverAnimationBezier@@QEBAAEBV?$bTInterpolatorBezier@VbCQuaternion@@U?$bSKeyFrameBezier@VbCQuaternion@@@@@@XZ
?GetRotation@eCMoverAnimationHermit@@QEBAAEBV?$bTInterpolatorHermit@VbCQuaternion@@U?$bSKeyFrameHermitEx@VbCQuaternion@@@@@@XZ
?GetRotation@eCMoverAnimationLinear@@QEBAAEBV?$bTInterpolatorLinear@VbCQuaternion@@U?$bSKeyFrameLinearEx@VbCQuaternion@@@@@@XZ
?GetRotation@eCMoverAnimationTCB@@QEBAAEBV?$bTInterpolatorHermit@VbCQuaternion@@U?$bSKeyFrameTCBEx@VbCQuaternion@@@@@@XZ
?GetRotation@eCRigidBodyBase_PS@@UEBA?AVbCMatrix3@@XZ
?GetRotation@eCRigidBody_PS@@UEBA?AVbCMatrix3@@XZ
?GetRotationDampingFactor@eCParticle_PS@@QEBAAEBVbCRange3@@XZ
?GetRotationInterpolator@eCMoverAnimationBezier@@UEBAPEAV?$bTInterpolatorBase@VbCQuaternion@@@@XZ
?GetRotationInterpolator@eCMoverAnimationHermit@@UEBAPEAV?$bTInterpolatorBase@VbCQuaternion@@@@XZ
?GetRotationInterpolator@eCMoverAnimationKFBase@@UEBAPEAV?$bTInterpolatorBase@VbCQuaternion@@@@XZ
?GetRotationInterpolator@eCMoverAnimationLinear@@UEBAPEAV?$bTInterpolatorBase@VbCQuaternion@@@@XZ
?GetRotationInterpolator@eCMoverAnimationTCB@@UEBAPEAV?$bTInterpolatorBase@VbCQuaternion@@@@XZ
?GetRotationQuat@eCRigidBodyBase_PS@@UEBA?AVbCQuaternion@@XZ
?GetRotationQuat@eCRigidBody_PS@@UEBA?AVbCQuaternion@@XZ
?GetRotationType@eCTexCoordSrcRotator@@QEBAAEBV?$bTPropertyContainer@W4eETexCoordSrcRotatorType@@@@XZ
?GetRotationVariation@eCBillboard_PS@@QEBAAEBMXZ
?GetRubberRadius@eCVegetationBrush_PS@@QEBAAEBMXZ
?GetRuntimeOrientation@eCCollisionShape@@QEAAAEAVbCMatrix3@@XZ
?GetRuntimeOrientation@eCCollisionShape@@QEBAAEBVbCMatrix3@@XZ
?GetSDK@eCPhysicsScene@@QEAAAEAVNxPhysicsSDK@@XZ
?GetSRGBRead@eCColorSrcSampler@@QEBAAEB_NXZ
?GetSSAORadius@eCImageFilterShadowMask@@QEBAAEBVbCVector@@XZ
?GetSSAOScale@eCImageFilterShadowMask@@QEBAAEBMXZ
?GetSafeHandle@eCGuiWindow2@@QEBAPEAVIFFGuiWnd2@@XZ
?GetSafeInstance@eCGuiWindow2@@QEBAPEAVCFXWnd@@XZ
?GetSamplerIndex@eCDX9HLSLShader@@UEAA?AW4bEResult@@PEAXQEAXAEAI@Z
?GetSamplerIndex@eCGfxHLSLShader@@QEAA?AW4bEResult@@PEAXQEAXAEAI@Z
?GetSamplerType@eCColorSrcSampler@@QEBA?AW4eEColorSrcSamplerType@@XZ
?GetSaturation@eCWeatherAdmin@@QEBAMXZ
?GetSaturation@eCWeatherStates@@QEAAAEAVeCFloatScale@@XZ
?GetSaturation@eCWeatherStates@@QEBAAEBVeCFloatScale@@XZ
?GetSaveGameRelevance@eCAnimation_PS@@UEBA?AW4eEPSSaveGameRelevance@eCEntityPropertySet@@XZ
?GetSaveGameRelevance@eCCollisionShape_PS@@UEBA?AW4eEPSSaveGameRelevance@eCEntityPropertySet@@XZ
?GetSaveGameRelevance@eCEntityPropertySet@@UEBA?AW4eEPSSaveGameRelevance@1@XZ
?GetScale@eCCameraBase@@QEBAAEBVbCVector@@XZ
?GetScale@eCColorSrcCamDistance@@QEBAAEBMXZ
?GetScale@eCColorSrcFresnel@@QEBAAEBMXZ
?GetScale@eCLightmapBitmap@@QEBAMXZ
?GetScale@eCTexCoordSrcScale@@QEBAAEBVbCVector2@@XZ
?GetScaleGridPercentage@eCTemplateEntity@@QEBAEXZ
?GetScene@eCPhysicsScene@@QEAAAEAVNxScene@@XZ
?GetSceneExposure@eCWeatherAdmin@@QEBAMXZ
?GetSceneTreeID@eCPrefetchAdmin@@QEAA_KPEAVeCGeometryEntity@@@Z
?GetScissor@eCDX9Device@@UEAA?AW4bEResult@@AEAVbCRect@@@Z
?GetScissor@eCGfxMixerAdmin@@QEBA?AW4bEResult@@AEAVbCRect@@@Z
?GetScreen@eCCameraBase@@QEBAAEBVbCRect@@XZ
?GetScreenToWorldMatrix@eCCameraBase@@QEBA?AVbCMatrix@@XZ
?GetScript@eCScriptFunctionMap@@QEBAPEBUeSScriptBase@@AEBVbCString@@@Z
?GetScript@eCScriptProxy@@QEAAPEAUeSScriptBase@@XZ
?GetScript@eCScriptProxy@@QEBAPEBUeSScriptBase@@XZ
?GetScriptAICallback@eCScriptFunctionMap@@QEBAPEBUeSScriptBase@@AEBVbCString@@@Z
?GetScriptAIFunction@eCScriptFunctionMap@@QEBAPEBUeSScriptBase@@AEBVbCString@@@Z
?GetScriptAIState@eCScriptFunctionMap@@QEBAPEBUeSScriptBase@@AEBVbCString@@@Z
?GetScriptData@eCScriptEdit@@UEBAPEAXXZ
?GetScriptData@eCScriptEventArgs@@QEBAPEAXXZ
?GetScriptData@eCScriptListCtrl@@UEBAPEAXXZ
?GetScriptData@eCScriptProgressbar@@UEBAPEAXXZ
?GetScriptData@eCScriptRadioButton@@UEBAPEAXXZ
?GetScriptData@eCScriptStatic@@UEBAPEAXXZ
?GetScriptData@eCScriptTrackbar@@UEBAPEAXXZ
?GetScriptName@eCScriptProxy@@QEBAAEBVbCString@@XZ
?GetScrollBar@eCGuiScrollBar2@@IEBAPEAVCFXScrollBar@@XZ
?GetScrollBarImage@eCGuiFrame2@@QEBA?AVbCString@@HHH@Z
?GetScrollInfo@eCGuiFrame2@@QEBA_NHPEAUtagUI_SCROLLINFO@@@Z
?GetScrollOffset@eCTexCoordSrcScroller@@QEBAAEBVbCVector2@@XZ
?GetSecondsBeforeInactive@eCParticle_PS@@QEBAAEBMXZ
?GetSecondsBetweenRepeats@eCAudioEmitter_PS@@QEBAAEBVbCRange1@@XZ
?GetSection@eCConfigFile@@QEBAPEBVeCConfigFile_SectionObject@@AEBVbCString@@@Z
?GetSectionArray@eCConfigFile@@QEAAAEAV?$bTObjArray@VeCConfigFile_SectionObject@@@@XZ
?GetSectionArray@eCConfigFile@@QEBAAEBV?$bTObjArray@VeCConfigFile_SectionObject@@@@XZ
?GetSectionArray@eCUnicodeConfigFile@@QEAAAEAV?$bTObjArray@VeCUnicodeConfigFile_SectionObject@@@@XZ
?GetSectionArray@eCUnicodeConfigFile@@QEBAAEBV?$bTObjArray@VeCUnicodeConfigFile_SectionObject@@@@XZ
?GetSectionBlock@eCConfigFile@@QEBA_NVbCString@@AEAV?$bTObjArray@UeSConfigValue@eCConfigFile@@@@@Z
?GetSectionBlock@eCUnicodeConfigFile@@QEBA_NVbCUnicodeString@@AEAV?$bTObjArray@UeSConfigValue@eCUnicodeConfigFile@@@@@Z
?GetSectionName@eCConfigFile_SectionObject@@QEBAAEBVbCString@@XZ
?GetSectionName@eCUnicodeConfigFile_SectionObject@@QEBAAEBVbCUnicodeString@@XZ
?GetSections@eCConfigFile@@QEBA_NAEAV?$bTObjArray@VbCString@@@@@Z
?GetSections@eCUnicodeConfigFile@@QEBA_NAEAV?$bTObjArray@VbCUnicodeString@@@@@Z
?GetSegmentLenght@eCStrip_PS@@QEBAAEBMXZ
?GetSegmentLifeTime@eCStrip_PS@@QEBAAEBMXZ
?GetSegmentsPerSecond@eCStrip_PS@@QEBAAEBMXZ
?GetSelEnd@eCGuiTrackBar2@@QEBAHXZ
?GetSelStart@eCGuiTrackBar2@@QEBAHXZ
?GetSelectionIndex@eCGuiListCtrl2@@QEBAHXZ
?GetSenderArgs@eCListCtrlEventArgs@@QEBAPEAVeCScriptEventArgs@@XZ
?GetSenderArgs@eCStaticEventArgs@@QEBAPEAVeCScriptEventArgs@@XZ
?GetSeparation@eCContactIterator@@QEAAMXZ
?GetSetupWindowDesc@eCApplication@@QEBAAEBUeSSetupWindow@@XZ
?GetShadeMode@eCGfxCameraStates@@QEBA?AW4bEResult@@AEAW4eEShadeMode@eCGfxShared@@@Z
?GetShader@eCMaterialResource2@@QEBAPEAVeCShaderBase@@XZ
?GetShader@eCParticleMaterial@@QEBAPEAVeCShaderParticle@@XZ
?GetShader@eCSkyObject@@QEBAPEAVeCShaderBase@@XZ
?GetShaderByteCodeSize@eCDX9HLSLShader@@UEBA?AW4bEResult@@AEAJ@Z
?GetShaderByteCodeSize@eCGfxHLSLShader@@QEBA?AW4bEResult@@AEAJ@Z
?GetShaderEllement@?$eTShaderEllementProxy@VeCColorSrcBase@@@@UEBAPEAVeCShaderEllementBase@@XZ
?GetShaderEllement@?$eTShaderEllementProxy@VeCTexCoordSrcBase@@@@UEBAPEAVeCShaderEllementBase@@XZ
?GetShaderEllement@eCShaderBase@@QEBAPEAVeCShaderEllementBase@@AEBVbCGuid@@@Z
?GetShaderEllement@eCShaderBase@@QEBAPEAVeCShaderEllementBase@@H@Z
?GetShaderEllementCount@eCShaderBase@@QEBAHXZ
?GetShaderFileName@eCShaderDefault@@UEBAPEADXZ
?GetShaderFileName@eCShaderLeafs@@UEBAPEADXZ
?GetShaderMaterialIllumination@eCIlluminated_PS@@QEAAAEAUeSShaderMaterialIllumination@@XZ
?GetShaderMaterialIllumination@eCIlluminated_PS@@QEBAAEBUeSShaderMaterialIllumination@@XZ
?GetShaderMaterialLightList@eCLightSet@@QEBAAEBUeSShaderMaterialLightList@@XZ
?GetShaderPoolEllement@eCShaderMaterialAdmin@@QEAAPEAVeCShaderPoolEllement@@AEAVbCPropertyID@@W4eEShaderMaterialVersion@@@Z
?GetShaderSamplerPool@eCShaderBase@@QEAAAEAVeCShaderSamplerPool@@XZ
?GetShaderSamplerPool@eCShaderBase@@QEBAAEBVeCShaderSamplerPool@@XZ
?GetShaderSize@eCDX9HLSLShader@@QEAAHXZ
?GetShaderType@eCDX9HLSLShader@@UEBA?AW4bEResult@@AEAW4eEGfxHLSLShaderType@eCGfxShared@@@Z
?GetShaderType@eCGfxHLSLShader@@QEBA?AW4bEResult@@AEAW4eEGfxHLSLShaderType@eCGfxShared@@@Z
?GetShaderVersion@eCDX9HLSLShader@@UEBA?AW4bEResult@@PEAXAEAK@Z
?GetShaderVersion@eCGfxHLSLShader@@QEBA?AW4bEResult@@PEAXAEAK@Z
?GetShaderVersion@eCShaderBase@@QEBAPEAVeCShaderVersionBase@@W4eEShaderMaterialVersion@@@Z
?GetShadow@eCGuiSystemFont2@@QEBAAEB_NXZ
?GetShadowCaster@eCPointLight_PS@@QEAAXAEAV?$bTValArray@PEAVeCGeometryEntity@@@@@Z
?GetShadowCaster@eCShadowMapBase@@UEBAPEBV?$bTValArray@PEAVeCGeometryEntity@@@@XZ
?GetShadowCaster@eCShadowMapPointLight@@UEBAPEBV?$bTValArray@PEAVeCGeometryEntity@@@@XZ
?GetShadowCasterType@eCIlluminated_PS@@QEBAAEBV?$bTPropertyContainer@W4eEShadowCasterType@@@@XZ
?GetShadowDensity@eCWeatherStates@@QEAAAEAVeCFloatScale@@XZ
?GetShadowDensity@eCWeatherStates@@QEBAAEBVeCFloatScale@@XZ
?GetShadowMapCamera@eCShadowMapBase@@QEBAPEBVeCCameraBase@@XZ
?GetShadowMapDepthBuffer@eCIlluminationAdmin@@QEAAPEAXH@Z
?GetShadowMapDirection@eCDirectionalLight_PS@@QEAAAEBVbCVector@@XZ
?GetShadowMapMatrix@eCShadowMapDirectionalLight2@@QEBAAEBVbCMatrix@@XZ
?GetShadowMapSize@eCCascadeShadowMap@@QEBAHXZ
?GetShadowMapWorkingBuffer@eCIlluminationAdmin@@QEAAPEAVeCGfxImageData@@H@Z
?GetShadowMask@eCShaderMaterialAdmin@@QEAAPEAVeCGfxImageData@@XZ
?GetShadowMaskImageFilter@eCIlluminationAdmin@@QEBAPEAVeCImageFilterShadowMask@@XZ
?GetShadowMaskIndex@eCStaticPointLight_PS@@QEBAAEBV?$bTPropertyContainer@W4eEShadowMaskIndex@@@@XZ
?GetShadowOffset@eCGuiSystemFont2@@QEBAAEBVbCPoint@@XZ
?GetShape@eCAudioEmitter_PS@@QEBAAEBV?$bTPropertyContainer@W4eEAudioEmitterShape@@@@XZ
?GetShape@eCVegetationBrush_PS@@QEBAAEBV?$bTPropertyContainer@W4eEVegetationBrushShape@@@@XZ
?GetShape@eCWeatherZone_PS@@QEBAAEBV?$bTPropertyContainer@W4eEWeatherZoneShape@@@@XZ
?GetShapeAABBAdaptMode@eCCollisionShape@@QEBAAEBV?$bTPropertyContainer@W4eEShapeAABBAdapt@@@@XZ
?GetShapeAtIndex@eCCollisionShapeBase_PS@@UEBAPEAVeCCollisionShape@@K@Z
?GetShapeAtIndex@eCCollisionShape_PS@@UEBAPEAVeCCollisionShape@@H@Z
?GetShapeGroupEnumByString@eCPhysicsScene_PS@@QEBA?AW4eEShapeGroup@@VbCString@@@Z
?GetShapeGroupStringByEnum@eCPhysicsScene_PS@@QEBA?AVbCString@@W4eEShapeGroup@@@Z
?GetShapeType@eCCollisionShape@@QEBAAEBV?$bTPropertyContainer@W4eECollisionShapeType@@@@XZ
?GetShapes@eCCollisionShape_PS@@QEBAAEBV?$bTRefPtrArray@PEAVeCCollisionShape@@@@XZ
?GetShareTexture@eCImageFilterRTBase@@QEBA_NXZ
?GetShowRays@eCPhysicsScene@@AEAA_NXZ
?GetShowSkeleton@eCAnimation_PS@@QEAA_NXZ
?GetSimulationFPS@eCPhysicsScene_PS@@QEBAAEBMXZ
?GetSingleline@eCGuiButton2@@QEBA_NXZ
?GetSingleline@eCGuiStatic2@@QEBA_NXZ
?GetSize@eCBillboard_PS@@QEBAAEBVbCVector2@@XZ
?GetSize@eCDecal_PS@@QEBAAEBVbCVector@@XZ
?GetSize@eCDepthMap@@QEBAHXZ
?GetSize@eCGlyphOutline@@QEBA?AUtagSIZE@@XZ
?GetSize@eCGuiWindow2@@QEBA?AVbCPoint@@XZ
?GetSize@eCPrecipitation_PS@@QEBAAEBVbCVector2@@XZ
?GetSize@eCResourceInputStream2@@AEBA_KXZ
?GetSize@eCVegetationBrush_PS@@QEBAAEBMXZ
?GetSize@eCWeatherStates@@QEBAAEBVbCVector2@@XZ
?GetSizeBox@eCGuiFrame2@@QEBA_NXZ
?GetSizeCaption@eCGuiFrame2@@QEBA?AVbCPoint@@XZ
?GetSizeClose@eCGuiFrame2@@QEBA?AVbCPoint@@XZ
?GetSizeFromFormat@eCGfxGaugeAdmin@@SAKK@Z
?GetSizeIcon@eCGuiFrame2@@QEBA?AVbCPoint@@XZ
?GetSizeMaximize@eCGuiFrame2@@QEBA?AVbCPoint@@XZ
?GetSizeMinimize@eCGuiFrame2@@QEBA?AVbCPoint@@XZ
?GetSizeMode@eCImageFilterRTBase@@QEBAAEBV?$bTPropertyContainer@W4eEIFSizeMode@@@@XZ
?GetSizeRestore@eCGuiFrame2@@QEBA?AVbCPoint@@XZ
?GetSizeScaleRepeats@eCParticle_PS@@QEBAAEBMXZ
?GetSizeToContent@eCGuiStatic2@@QEBA_NXZ
?GetSizeVariation@eCBillboard_PS@@QEBAAEBVbCVector2@@XZ
?GetSkeletalMotion@eCMotionResource2@@QEBAPEAVSkeletalMotion@EMotionFX@@XZ
?GetSkinWidth@eCCollisionShape@@QEBAAEBMXZ
?GetSkipMips@eCImageResource2@@AEBAKXZ
?GetSkyColor@eCShaderSkyDome@@QEBAAEBVbCFloatColor@@XZ
?GetSkyColor@eCWeatherStates@@QEAAAEAVeCColorScale@@XZ
?GetSkyColor@eCWeatherStates@@QEBAAEBVeCColorScale@@XZ
?GetSkyColor@eCWeatherZone_PS@@QEBAAEBVbCFloatColor@@XZ
?GetSkyColorOverwrite@eCWeatherZone_PS@@QEBAAEBV?$bTPropertyContainer@W4eEWeatherZoneOverwrite@@@@XZ
?GetSkyDomeShader@eCSkydome_PS@@QEAAPEAVeCShaderSkyDome@@XZ
?GetSkydome@eCIlluminationAdmin@@QEAAPEAVeCSkydome_PS@@XZ
?GetSkydomeImage@eCIlluminationAdmin@@QEAAPEAVeCImageResource2@@XZ
?GetSliderCtrl@eCGuiTrackBar2@@IEBAPEAVCFXSliderCtrl@@XZ
?GetSmooth@eCGuiProgressBar2@@QEBA_NXZ
?GetSndClick@eCGuiButton2@@QEBAAEBVbCString@@XZ
?GetSndPush@eCGuiButton2@@QEBAAEBVbCString@@XZ
?GetSndUnPush@eCGuiButton2@@QEBAAEBVbCString@@XZ
?GetSoftLimit@eCResourceCache2@@QEBAHXZ
?GetSolidElement@eCFrustumDatabase@@QEBAAEBVeCRenderOp2@@H@Z
?GetSolidElementCount@eCFrustumDatabase@@QEBAHXZ
?GetSortID@eCRenderOp2@@QEBAAEBTeSSortID@1@XZ
?GetSortMode@eCStatisticList@@UEBA?AW4eEStatisticListSortMode@@H@Z
?GetSound@eCAudioEmitter_PS@@QEBAAEBVbCString@@XZ
?GetSound@eCResource2@@SAPEAVeCSoundResource2@@AEBVbCString@@@Z
?GetSoundData@eCSoundResource2@@QEAAAEAVeCAudioSound@@XZ
?GetSoundData@eCSoundResource2@@QEBAAEBVeCAudioSound@@XZ
?GetSource@eSInput@eCImageFilterBase@@QEBAPEAV2@XZ
?GetSourceShapePS@eCCollisionShape@@QEAAPEAVeCCollisionShape_PS@@XZ
?GetSpawnFromOtherEmitter@eCParticle_PS@@QEBAAEBVeCEntityProxy@@XZ
?GetSpawnMode@eCStrip_PS@@QEBAAEBV?$bTPropertyContainer@W4eEStripSpawning@@@@XZ
?GetSpawnNumParticles@eCParticle_PS@@QEBAAEBVbCRange1@@XZ
?GetSpawnPointDizzer@eCPrecipitation_PS@@QEBAAEBMXZ
?GetSpawnPointDizzer@eCWeatherStates@@QEBAAEBMXZ
?GetSpawnedVelocityScale@eCParticle_PS@@QEBAAEBVbCRange3@@XZ
?GetSpawningMode@eCAudioEmitter_PS@@QEBAAEBV?$bTPropertyContainer@W4eEAudioEmitterMode@@@@XZ
?GetSpeakerMode@eCAudioSystem@@QEBA?AW4eEAudioResult@@AEAW4eEAudioSpeakerMode@@@Z
?GetSpecIndex@eCFileChangeInterface@@QEAAHAEBVbCString@@@Z
?GetSpecialPassType@eCShaderMaterialAdmin@@QEBA?AW4eEShaderMaterialSpecialPassType@@XZ
?GetSpecularColor@eCDirectionalLight_PS@@QEBAAEBVbCFloatColor@@XZ
?GetSpecularColor@eCPointLight_PS@@QEBAAEBVbCFloatColor@@XZ
?GetSpecularEffect@eCDX9Device@@UEAA?AW4bEResult@@PEA_N@Z
?GetSpecularEffect@eCGfxMaterial@@QEBA?AW4bEResult@@AEA_N@Z
?GetSpecularMaterialSrc@eCGfxMaterial@@QEBA?AW4bEResult@@AEAW4eEMaterialColorSrc@eCGfxShared@@@Z
?GetSpecularReflection@eCGfxMaterial@@QEBA?AW4bEResult@@AEAVbCFloatAlphaColor@@AEAM@Z
?GetSpeed@eCMoverAnimationBase@@QEBAAEBMXZ
?GetSpeedMinMax@eCPrecipitation_PS@@QEBAAEBVbCVector2@@XZ
?GetSpeedMinMax@eCWeatherStates@@QEBAAEBVbCVector2@@XZ
?GetSpeedTree@eCResource2@@SAPEAVeCSpeedTreeResource2@@AEBVbCString@@@Z
?GetSpeedTreeInstance@eCSpeedTree_PS@@QEBAPEAVeCWraper_SpeedTreeRT@@XZ
?GetSpeedTreeResource@eCSpeedTree_PS@@QEBAPEAVeCSpeedTreeResource2@@XZ
?GetSpeedTreeWraper@eCSpeedTreeRenderBuffer@@QEBAPEAVeCWraper_SpeedTreeRT@@XZ
?GetSpeedTreeWrapper@eCSpeedTreeResource2@@QEBAPEAVeCWraper_SpeedTreeRT@@XZ
?GetSphere@eCCollisionShape@@QEAAAEAVbCSphere@@XZ
?GetSphere@eCCollisionShape@@QEBAAEBVbCSphere@@XZ
?GetSphereBlendFactor@eCWeatherZone_PS@@IEBAMAEBVbCVector@@@Z
?GetSphereTreeID@eCStaticLight_PS@@QEBA_KXZ
?GetSphereTreePrefetch@eCPrefetchAdmin@@QEAAAEAV?$eTSphereTree@UeSPrefetchTreeObject@eCPrefetchAdmin@@@@XZ
?GetSphereTreePrefetch@eCPrefetchAdmin@@QEBAAEBV?$eTSphereTree@UeSPrefetchTreeObject@eCPrefetchAdmin@@@@XZ
?GetSphereTreeScene@eCPrefetchAdmin@@QEAAAEAV?$eTSphereTree@UeSSceneTreeObject@eCPrefetchAdmin@@@@XZ
?GetSphereTreeScene@eCPrefetchAdmin@@QEBAAEBV?$eTSphereTree@UeSSceneTreeObject@eCPrefetchAdmin@@@@XZ
?GetSphericalHarmonics@eCHemisphere_PS@@QEBAAEBV?$bTSphericalHarmonics3@VbCVector4@@@@XZ
?GetSpinDirection@eCParticle_PS@@QEBAAEBMXZ
?GetSpinParticles@eCParticle_PS@@QEBAAEB_NXZ
?GetSpinsPerSecond@eCParticle_PS@@QEBAAEBVbCRange3@@XZ
?GetSplashDuration@eCPrecipitation_PS@@QEBAAEBMXZ
?GetSplashDuration@eCWeatherStates@@QEBAAEBMXZ
?GetSplashSizeScale@eCPrecipitation_PS@@QEBAAEBVbCVector2@@XZ
?GetSplashSizeScale@eCWeatherStates@@QEBAAEBVbCVector2@@XZ
?GetSplashTextureTile@eCPrecipitation_PS@@QEBAAEBHXZ
?GetSplashTextureTile@eCWeatherStates@@QEBAAEBHXZ
?GetSplitCount@eCCascadeShadowMap@@QEBAHXZ
?GetSplitDistance@eCCascadeShadowMap@@QEBAMH@Z
?GetSplitShadowMap@eCCascadeShadowMap@@QEAAAEAVeCShadowMapDirectionalLight2@@H@Z
?GetSplitShadowMap@eCCascadeShadowMap@@QEBAAEBVeCShadowMapDirectionalLight2@@H@Z
?GetSpread@eCAudioEmitter_PS@@QEBAAEBVbCRange1@@XZ
?GetSpriteListTransform@eCDX9Device@@UEAA?AW4bEResult@@AEAVbCMatrix@@@Z
?GetStageDirection@eCLocAdmin2@@QEBA?AVbCUnicodeString@@AEBVbCString@@0@Z
?GetStageDirection@eCLocAdmin2@@QEBA?AVbCUnicodeString@@AEBVbCString@@@Z
?GetStandardAniFadeTime@eCAnimation2Admin@@QEAAMXZ
?GetStarCount@eCSkydome_PS@@QEBAAEBHXZ
?GetStarTexture@eCSkydome_PS@@QEBAAEBVbCImageResourceString@@XZ
?GetStarsColor@eCSkydome_PS@@QEBAAEBVbCFloatColor@@XZ
?GetStarsMatrix@eCSkydome_PS@@QEBAAEBVbCMatrix@@XZ
?GetStartAlpha@eCStrip_PS@@QEBAAEBMXZ
?GetStartAngularVelocity@eCRigidBody_PS@@QEBAAEBVbCVector@@XZ
?GetStartBoxLocation@eCParticle_PS@@QEBAAEBVbCRange3@@XZ
?GetStartColor@eCStrip_PS@@QEBAAEBVbCFloatColor@@XZ
?GetStartForce@eCRigidBody_PS@@QEBAAEBVbCVector@@XZ
?GetStartLocationOffset@eCParticle_PS@@QEBAAEBVbCVector@@XZ
?GetStartLocationShape@eCParticle_PS@@QEBAAEBV?$bTPropertyContainer@W4eELocationShape@@@@XZ
?GetStartLocationTarget@eCParticle_PS@@QEBAAEBV?$bTPropertyContainer@W4eELocationTarget@@@@XZ
?GetStartSize@eCParticle_PS@@QEBAAEBVbCRange3@@XZ
?GetStartSphereRadius@eCParticle_PS@@QEBAAEBVbCRange1@@XZ
?GetStartSpin@eCParticle_PS@@QEBAAEBVbCRange3@@XZ
?GetStartTorque@eCRigidBody_PS@@QEBAAEBVbCVector@@XZ
?GetStartVelocity@eCParticle_PS@@QEBAAEBVbCRange3@@XZ
?GetStartVelocity@eCRigidBody_PS@@QEBAAEBVbCVector@@XZ
?GetStartWeatherState@eCWeatherEnvironment@@QEBAAEBVbCString@@XZ
?GetStatFrictionScaling@eCPhysicsScene_PS@@QEBAAEBMXZ
?GetState@eCProcessibleElement@@QEBA?AW4eEState@1@XZ
?GetStateAlpha@eCPhysicsScene@@QEBAMXZ
?GetStatic@eCGuiStatic2@@IEBAPEAVCFXStatic@@XZ
?GetStaticIlluminated@eCIlluminated_PS@@QEBAAEBV?$bTPropertyContainer@W4eEStaticIlluminated@@@@XZ
?GetStaticLightTree@eCIlluminationAdmin@@QEAAAEAV?$eTSphereTree@PEAVeCStaticLight_PS@@@@XZ
?GetStaticLightTree@eCIlluminationAdmin@@QEBAAEBV?$eTSphereTree@PEAVeCStaticLight_PS@@@@XZ
?GetStatistic@eCStatisticView@@QEBAPEAVeCStatistic@@XZ
?GetStatistics@eCEntityAdmin@@QEAAAEBUeSEntityStatistics@1@XZ
?GetStencilTesting@eCGfxCameraStates@@QEBA?AW4bEResult@@AEAW4eEStencil@eCGfxShared@@AEAUeSGfxStencilData@4@@Z
?GetStep@eCGuiProgressBar2@@QEBAHXZ
?GetStep@eCProgressbarEventArgs@@QEBAHXZ
?GetStepRotation@eCRigidBody_PS@@IEAA?AVbCQuaternion@@M@Z
?GetStepTranslation@eCRigidBody_PS@@IEAA?AVbCVector@@M@Z
?GetStiffness@eCParticle_PS@@QEBAAEBMXZ
?GetStreamOffset@eCDX9Primitive@@UEBAKK@Z
?GetStreamOffset@eCGfxVisual@@QEBAKK@Z
?GetStreamSourceFrequency@eCGfxVisual@@QEBAKK@Z
?GetStreamSrcFrequency@eCDX9Primitive@@UEBAKK@Z
?GetStreamStride@eCDX9Primitive@@UEBAKK@Z
?GetStreamStride@eCGfxVisual@@QEBAKK@Z
?GetStretchToEmitter@eCParticle_PS@@QEBAAEB_NXZ
?GetStrikeOut@eCGuiSystemFont2@@QEBA_NXZ
?GetStrikeOut@eCGuiSystemFontDesc2@@QEBA_NXZ
?GetString@eCConfigFile@@QEBAAEAVbCString@@AEBV2@00@Z
?GetString@eCConfigFile@@QEBAAEAVbCString@@AEBV2@0@Z
?GetString@eCLocAdmin2@@QEBA?AVbCUnicodeString@@AEBVbCString@@0@Z
?GetString@eCLocAdmin2@@QEBA?AVbCUnicodeString@@AEBVbCString@@@Z
?GetString@eCLocString@@QEBA?AVbCUnicodeString@@AEBVbCString@@@Z
?GetString@eCLocString@@QEBA?AVbCUnicodeString@@XZ
?GetString@eCLocStringEx@@QEBA?AVbCUnicodeString@@XZ
?GetString@eCUnicodeConfigFile@@QEBAAEAVbCUnicodeString@@AEBV2@00@Z
?GetString@eCUnicodeConfigFile@@QEBAAEAVbCUnicodeString@@AEBV2@0@Z
?GetSubBoundaries@eCCollisionMeshResource2@@QEBAAEBV?$bTObjArray@VbCBox@@@@XZ
?GetSubMesh@eCCollisionDescMesh@@QEAAAEAVeCSubMesh@@H@Z
?GetSubMesh@eCCollisionDescMesh@@QEBAAEBVeCSubMesh@@H@Z
?GetSubMeshCulling@eCMesh_PS@@QEBAAEB_NXZ
?GetSubMeshIndex@eCCollisionDescMesh@@QEAAHH@Z
?GetSubMeshes@eCMeshResource2@@QEBAAEBV?$bTObjArray@VeCSubMesh@@@@XZ
?GetSubdivisionEnd@eCGuiAnimImage2@@QEBAAEBHXZ
?GetSubdivisionEnd@eCParticle_PS@@QEBAAEBHXZ
?GetSubdivisionRowMajor@eCGuiAnimImage2@@QEBAAEB_NXZ
?GetSubdivisionRowMajor@eCParticle_PS@@QEBAAEB_NXZ
?GetSubdivisionScaleRepeats@eCParticle_PS@@QEBAAEBMXZ
?GetSubdivisionStart@eCGuiAnimImage2@@QEBAAEBHXZ
?GetSubdivisionStart@eCParticle_PS@@QEBAAEBHXZ
?GetSumFrictionForce@eCContactIterator@@QEBAAEBVbCVector@@XZ
?GetSumNormalForce@eCContactIterator@@QEBAAEBVbCVector@@XZ
?GetSunColor@eCShaderSkyDome@@QEBAAEBVbCFloatColor@@XZ
?GetSunColor@eCSkydome_PS@@QEBAAEBVbCFloatColor@@XZ
?GetSunLight@eCHemisphere_PS@@QEBAAEBVbCFloatColor@@XZ
?GetSunLightAxisDirectionOffset@eCHemisphere_PS@@QEBAAEBVbCEulerAngles@@XZ
?GetSunMatrix@eCSkydome_PS@@QEBAAEBVbCMatrix@@XZ
?GetSunNormal@eCShaderSkyDome@@QEBAAEBVbCVector@@XZ
?GetSunOcclusion@eCShaderSkyDome@@QEBAAEB_NXZ
?GetSunSize@eCSkydome_PS@@QEBAAEBMXZ
?GetSunSizeFactor@eCSkydome_PS@@QEBAMXZ
?GetSunTexture@eCSkydome_PS@@QEBAAEBVbCImageResourceString@@XZ
?GetSupportPointLights@eCLightStreaks_PS@@QEBAAEB_NXZ
?GetSwitchBegin@eCColorSrcSampler@@QEBAAEBHXZ
?GetSwitchImage@eCColorSrcSampler@@QEAAPEAVeCImageResource2@@H@Z
?GetSwitchRepeat@eCColorSrcConstantSwitch@@QEBAAEBV?$bTPropertyContainer@W4eEColorSrcSwitchRepeat@@@@XZ
?GetSwitchRepeat@eCColorSrcSampler@@QEBAAEBV?$bTPropertyContainer@W4eEColorSrcSwitchRepeat@@@@XZ
?GetSwizzle@eCColorSrcProxy@@QEBA?AVbCString@@XZ
?GetSyncPointCount@eCAudioSound@@QEBAHXZ
?GetSyncPointInfo@eCAudioSound@@QEBA?AW4eEAudioResult@@HW4eEAudioTimeUnit@@AEAKAEAVbCString@@@Z
?GetSysMenu@eCGuiFrame2@@QEBA_NXZ
?GetSystem@eCAudioModule@@QEBAPEAVeCAudioSystem@@XZ
?GetSystemDependencies@eCShaderMaterialAdmin@@QEBAKXZ
?GetTangentData@eCMeshResource2@@QEBA?AV?$eTVertexBufferArray@VbCVector@@@@_N@Z
?GetTarget@eCParticle_PS@@QEBAAEBVeCEntityProxy@@XZ
?GetTargetEntity@eCBillboard_PS@@QEBAAEBVeCEntityProxy@@XZ
?GetTargetMode@eCBillboard_PS@@QEBAAEBV?$bTPropertyContainer@W4eEBillboardTargetMode@@@@XZ
?GetTargetWeight@eCMoverAnimationBase@@QEBAAEBMXZ
?GetTargetWeight@eCWrapper_emfx3ActorInstance@@QEBAMW4eEMotionType@eAnimShared@@@Z
?GetTechinque@eCImageFilterEffect@@QEBA?AVbCString@@XZ
?GetTechinqueIndex@eCImageFilterEffect@@QEBAJXZ
?GetTechniqueDescription@eCDX9Effect@@UEAA?AW4bEResult@@IAEAUeSGfxTechniqueDesc@eCGfxShared@@@Z
?GetTechniqueDescription@eCGfxEffect@@QEBA?AW4bEResult@@IAEAUeSGfxTechniqueDesc@eCGfxShared@@@Z
?GetTemperature@eCWeatherStates@@QEAAAEAVeCFloatScale@@XZ
?GetTemperature@eCWeatherStates@@QEBAAEBVeCFloatScale@@XZ
?GetTemplateEntities@eCSceneAdmin@@QEAAXAEAV?$bTPtrArray@PEAVeCTemplateEntity@@@@_N1111@Z
?GetTemplateEntitiesByName@eCSceneAdmin@@QEAAHAEBVbCString@@AEAV?$bTPtrArray@PEAVeCTemplateEntity@@@@@Z
?GetTemplateEntity@eCEntityPropertySet@@QEAAPEAVeCTemplateEntity@@XZ
?GetTemplateEntity@eCEntityPropertySet@@QEBAPEBVeCTemplateEntity@@XZ
?GetTemplateEntity@eCEntityProxy@@QEAAPEAVeCTemplateEntity@@XZ
?GetTemplateEntity@eCEntityProxy@@QEBAPEBVeCTemplateEntity@@XZ
?GetTemplateEntityByName@eCSceneAdmin@@QEAAPEAVeCTemplateEntity@@AEBVbCString@@_N11@Z
?GetTemplateID@eCEntity@@QEBAAEBVbCPropertyID@@XZ
?GetTerm@eCColorSrcFresnel@@QEBAAEBV?$bTPropertyContainer@W4eEFresnelTerm@@@@XZ
?GetTerrainShadowMap@eCIlluminationAdmin@@QEBAPEAVeCShadowMapDirectionalLight2VS@@XZ
?GetTerrainsShadowMap@eCImageFilterShadowMask@@QEBAPEAVeCShadowMapDirectionalLight2@@XZ
?GetTexCoordSrc@eCColorSrcSampler@@QEAAAEAVeCTexCoordSrcProxy@@XZ
?GetTexCoordSrc@eCTexCoordSrcScale@@QEAAAEAVeCTexCoordSrcProxy@@XZ
?GetTexCoordSrc@eCTexCoordSrcScroller@@QEAAAEAVeCTexCoordSrcProxy@@XZ
?GetTexRepeatU@eCColorSrcSampler@@QEBAAEBV?$bTPropertyContainer@W4eEColorSrcSampleTexRepeat@@@@XZ
?GetTexRepeatV@eCColorSrcSampler@@QEBAAEBV?$bTPropertyContainer@W4eEColorSrcSampleTexRepeat@@@@XZ
?GetText@eCGuiWindow2@@QEBA?AVbCUnicodeString@@XZ
?GetText@eCLocString@@QEBA?AVbCUnicodeString@@AEBVbCString@@@Z
?GetText@eCLocString@@QEBA?AVbCUnicodeString@@XZ
?GetText@eCLocStringEx@@QEBA?AVbCUnicodeString@@XZ
?GetTextAlign@eCGuiButton2@@QEBA?AV?$bTPropertyContainer@W4eETextAlign@@@@XZ
?GetTextAlign@eCGuiStatic2@@QEBA?AV?$bTPropertyContainer@W4eETextAlign@@@@XZ
?GetTextIndices@eCDX9Font@@UEAA?AW4bEResult@@AEBVbCString@@AEAPEAGAEAG@Z
?GetTextIndices@eCDX9Font@@UEAA?AW4bEResult@@AEBVbCUnicodeString@@AEAPEAGAEAG@Z
?GetTextLanguage@eCLocAdmin2@@QEBA?AVbCString@@XZ
?GetTextStyle@eCGuiWindow2@@QEBA?AW4eETextAlign@@H@Z
?GetTexture@eCBillboard@@QEBAPEAVeCImageResource2@@XZ
?GetTexture@eCDecal@@QEBAPEAVeCImageResource2@@XZ
?GetTexture@eCGuiBitmapFont2@@QEBAAEBVbCString@@XZ
?GetTexture@eCImageFilterTexture@@QEBAPEAVeCGfxImageData@@XZ
?GetTexture@eCIteratorPrimitiveBillboard@@QEBAAEBVbCString@@XZ
?GetTexture@eCParticle_PS@@QEBAAEBVbCString@@XZ
?GetTexture@eCPrecipitation_PS@@QEBAAEBVbCImageResourceString@@XZ
?GetTextureAdressing@eCGfxTextureBlock@@QEBA?AW4bEResult@@AEAW4eETexAddress@eCGfxShared@@00@Z
?GetTextureCoordCalc@eCGfxTextureBlock@@QEBA?AW4bEResult@@AEAW4eETexCoordCalc@eCGfxShared@@@Z
?GetTextureCoordIndex@eCGfxTextureBlock@@QEBA?AW4bEResult@@AEAK@Z
?GetTextureCoordTrafo@eCGfxTextureBlock@@QEBA?AW4bEResult@@AEAK@Z
?GetTextureFiltering@eCGfxTextureBlock@@QEBA?AW4bEResult@@AEAW4eETexFilter@eCGfxShared@@00@Z
?GetTextureHandle@eCDX9CubeMap@@IEAA?AW4bEResult@@PEAPEAUIDirect3DCubeTexture9@@@Z
?GetTextureHandle@eCDX9Texture@@IEAA?AW4bEResult@@PEAPEAUIDirect3DTexture9@@@Z
?GetTextureHandle@eCGfxImageData@@IEAA?AW4bEResult@@PEAPEAVeCAPITexture@@@Z
?GetTextureMatrix@eCGfxTextureBlock@@QEBA?AW4bEResult@@AEAVbCMatrix@@@Z
?GetTextureMode@eCImageFilterTexture@@QEBAAEBV?$bTPropertyContainer@W4eEIFTextureMode@@@@XZ
?GetTextureName@eCGuiTexture2@@QEBAAEBVbCString@@XZ
?GetTextureRect@eCGuiBitmapFont2@@QEBA_NAEAUtagRECT@@@Z
?GetTextureRect@eCGuiTexture2@@IEBA_NAEAUtagRECT@@@Z
?GetTextureResultArgument@eCGfxTextureBlock@@QEBA?AW4bEResult@@AEAW4eETexArgument@eCGfxShared@@@Z
?GetTextureTileCountU@eCPrecipitation_PS@@QEBAAEBHXZ
?GetTextureTileCountV@eCPrecipitation_PS@@QEBAAEBHXZ
?GetThisType@eCAmbientOcclusionPreprocessor@@SAAEAVbCPropertyObjectTypeBase@@XZ
?GetThisType@eCAnimation2Admin@@SAAEAVbCPropertyObjectTypeBase@@XZ
?GetThisType@eCAnimation_PS@@SAAEAVbCPropertyObjectTypeBase@@XZ
?GetThisType@eCAreaAdmin@@SAAEAVbCPropertyObjectTypeBase@@XZ
?GetThisType@eCArea_StringProperty_PS@@SAAEAVbCPropertyObjectTypeBase@@XZ
?GetThisType@eCAudioEmitter_PS@@SAAEAVbCPropertyObjectTypeBase@@XZ
?GetThisType@eCAudioModule@@SAAEAVbCPropertyObjectTypeBase@@XZ
?GetThisType@eCAudioReverbPreset@@SAAEAVbCPropertyObjectTypeBase@@XZ
?GetThisType@eCAudioRollOffPreset@@SAAEAVbCPropertyObjectTypeBase@@XZ
?GetThisType@eCBillboardAdmin@@SAAEAVbCPropertyObjectTypeBase@@XZ
?GetThisType@eCBillboard_PS@@SAAEAVbCPropertyObjectTypeBase@@XZ
?GetThisType@eCBodyPart_PS@@SAAEAVbCPropertyObjectTypeBase@@XZ
?GetThisType@eCCameraBase@@SAAEAVbCPropertyObjectTypeBase@@XZ
?GetThisType@eCCascadeShadowMap@@SAAEAVbCPropertyObjectTypeBase@@XZ
?GetThisType@eCCollisionMeshResource2@@SAAEAVbCPropertyObjectTypeBase@@XZ
?GetThisType@eCCollisionShape@@SAAEAVbCPropertyObjectTypeBase@@XZ
?GetThisType@eCCollisionShapeBase_PS@@SAAEAVbCPropertyObjectTypeBase@@XZ
?GetThisType@eCCollisionShape_PS@@SAAEAVbCPropertyObjectTypeBase@@XZ
?GetThisType@eCColorSrcBase@@SAAEAVbCPropertyObjectTypeBase@@XZ
?GetThisType@eCColorSrcBlend@@SAAEAVbCPropertyObjectTypeBase@@XZ
?GetThisType@eCColorSrcCamDistance@@SAAEAVbCPropertyObjectTypeBase@@XZ
?GetThisType@eCColorSrcCamObstacle@@SAAEAVbCPropertyObjectTypeBase@@XZ
?GetThisType@eCColorSrcCombiner@@SAAEAVbCPropertyObjectTypeBase@@XZ
?GetThisType@eCColorSrcConstant@@SAAEAVbCPropertyObjectTypeBase@@XZ
?GetThisType@eCColorSrcConstantAnimation@@SAAEAVbCPropertyObjectTypeBase@@XZ
?GetThisType@eCColorSrcConstantSwitch@@SAAEAVbCPropertyObjectTypeBase@@XZ
?GetThisType@eCColorSrcCubeSampler@@SAAEAVbCPropertyObjectTypeBase@@XZ
?GetThisType@eCColorSrcFresnel@@SAAEAVbCPropertyObjectTypeBase@@XZ
?GetThisType@eCColorSrcMask@@SAAEAVbCPropertyObjectTypeBase@@XZ
?GetThisType@eCColorSrcSampler@@SAAEAVbCPropertyObjectTypeBase@@XZ
?GetThisType@eCColorSrcSkydomeSampler@@SAAEAVbCPropertyObjectTypeBase@@XZ
?GetThisType@eCColorSrcVertexColor@@SAAEAVbCPropertyObjectTypeBase@@XZ
?GetThisType@eCContextBase@@SAAEAVbCPropertyObjectTypeBase@@XZ
?GetThisType@eCDebugModule@@SAAEAVbCPropertyObjectTypeBase@@XZ
?GetThisType@eCDecalAdmin@@SAAEAVbCPropertyObjectTypeBase@@XZ
?GetThisType@eCDecal_PS@@SAAEAVbCPropertyObjectTypeBase@@XZ
?GetThisType@eCDirectionalLight_PS@@SAAEAVbCPropertyObjectTypeBase@@XZ
?GetThisType@eCDocObject@@SAAEAVbCPropertyObjectTypeBase@@XZ
?GetThisType@eCDynamicLight_PS@@SAAEAVbCPropertyObjectTypeBase@@XZ
?GetThisType@eCEditorEntityPropertySet@@SAAEAVbCPropertyObjectTypeBase@@XZ
?GetThisType@eCEngineComponentBase@@SAAEAVbCPropertyObjectTypeBase@@XZ
?GetThisType@eCEntityDynamicContext@@SAAEAVbCPropertyObjectTypeBase@@XZ
?GetThisType@eCEntityPropertySet@@SAAEAVbCPropertyObjectTypeBase@@XZ
?GetThisType@eCFixedGuiBitmapFont2@@SAAEAVbCPropertyObjectTypeBase@@XZ
?GetThisType@eCGenericEntityListener_PS@@SAAEAVbCPropertyObjectTypeBase@@XZ
?GetThisType@eCGfxAdmin@@SAAEAVbCPropertyObjectTypeBase@@XZ
?GetThisType@eCGfxObject@@SAAEAVbCPropertyObjectTypeBase@@XZ
?GetThisType@eCGuiAnimImage2@@SAAEAVbCPropertyObjectTypeBase@@XZ
?GetThisType@eCGuiBaseBitmap2@@SAAEAVbCPropertyObjectTypeBase@@XZ
?GetThisType@eCGuiBaseCursor2@@SAAEAVbCPropertyObjectTypeBase@@XZ
?GetThisType@eCGuiBaseFont2@@SAAEAVbCPropertyObjectTypeBase@@XZ
?GetThisType@eCGuiBitmap2@@SAAEAVbCPropertyObjectTypeBase@@XZ
?GetThisType@eCGuiBitmapFont2@@SAAEAVbCPropertyObjectTypeBase@@XZ
?GetThisType@eCGuiBitmapList2@@SAAEAVbCPropertyObjectTypeBase@@XZ
?GetThisType@eCGuiButton2@@SAAEAVbCPropertyObjectTypeBase@@XZ
?GetThisType@eCGuiCheckBox2@@SAAEAVbCPropertyObjectTypeBase@@XZ
?GetThisType@eCGuiCursor2@@SAAEAVbCPropertyObjectTypeBase@@XZ
?GetThisType@eCGuiEdit2@@SAAEAVbCPropertyObjectTypeBase@@XZ
?GetThisType@eCGuiFont2@@SAAEAVbCPropertyObjectTypeBase@@XZ
?GetThisType@eCGuiFrame2@@SAAEAVbCPropertyObjectTypeBase@@XZ
?GetThisType@eCGuiGroupBox2@@SAAEAVbCPropertyObjectTypeBase@@XZ
?GetThisType@eCGuiImage2@@SAAEAVbCPropertyObjectTypeBase@@XZ
?GetThisType@eCGuiImageCollection2@@SAAEAVbCPropertyObjectTypeBase@@XZ
?GetThisType@eCGuiImageList2@@SAAEAVbCPropertyObjectTypeBase@@XZ
?GetThisType@eCGuiLayeredImage2@@SAAEAVbCPropertyObjectTypeBase@@XZ
?GetThisType@eCGuiListCtrl2@@SAAEAVbCPropertyObjectTypeBase@@XZ
?GetThisType@eCGuiModule2@@SAAEAVbCPropertyObjectTypeBase@@XZ
?GetThisType@eCGuiPanel2@@SAAEAVbCPropertyObjectTypeBase@@XZ
?GetThisType@eCGuiPictureBox2@@SAAEAVbCPropertyObjectTypeBase@@XZ
?GetThisType@eCGuiProgressBar2@@SAAEAVbCPropertyObjectTypeBase@@XZ
?GetThisType@eCGuiPushButton2@@SAAEAVbCPropertyObjectTypeBase@@XZ
?GetThisType@eCGuiRadioButton2@@SAAEAVbCPropertyObjectTypeBase@@XZ
?GetThisType@eCGuiResource2@@SAAEAVbCPropertyObjectTypeBase@@XZ
?GetThisType@eCGuiScrollBar2@@SAAEAVbCPropertyObjectTypeBase@@XZ
?GetThisType@eCGuiSplitImage2@@SAAEAVbCPropertyObjectTypeBase@@XZ
?GetThisType@eCGuiStatic2@@SAAEAVbCPropertyObjectTypeBase@@XZ
?GetThisType@eCGuiSystemFont2@@SAAEAVbCPropertyObjectTypeBase@@XZ
?GetThisType@eCGuiSystemFontDesc2@@SAAEAVbCPropertyObjectTypeBase@@XZ
?GetThisType@eCGuiSystemFontLanguage2@@SAAEAVbCPropertyObjectTypeBase@@XZ
?GetThisType@eCGuiTexture2@@SAAEAVbCPropertyObjectTypeBase@@XZ
?GetThisType@eCGuiToolTipCtrl2@@SAAEAVbCPropertyObjectTypeBase@@XZ
?GetThisType@eCGuiTooltipTextCtrl2@@SAAEAVbCPropertyObjectTypeBase@@XZ
?GetThisType@eCGuiTrackBar2@@SAAEAVbCPropertyObjectTypeBase@@XZ
?GetThisType@eCGuiWindow2@@SAAEAVbCPropertyObjectTypeBase@@XZ
?GetThisType@eCHemisphere_PS@@SAAEAVbCPropertyObjectTypeBase@@XZ
?GetThisType@eCIlluminated_PS@@SAAEAVbCPropertyObjectTypeBase@@XZ
?GetThisType@eCIlluminationAdmin@@SAAEAVbCPropertyObjectTypeBase@@XZ
?GetThisType@eCImageEffect@@SAAEAVbCPropertyObjectTypeBase@@XZ
?GetThisType@eCImageFilterAdmin@@SAAEAVbCPropertyObjectTypeBase@@XZ
?GetThisType@eCImageFilterBase@@SAAEAVbCPropertyObjectTypeBase@@XZ
?GetThisType@eCImageFilterCopy@@SAAEAVbCPropertyObjectTypeBase@@XZ
?GetThisType@eCImageFilterEffect@@SAAEAVbCPropertyObjectTypeBase@@XZ
?GetThisType@eCImageFilterImage@@SAAEAVbCPropertyObjectTypeBase@@XZ
?GetThisType@eCImageFilterImageEffect@@SAAEAVbCPropertyObjectTypeBase@@XZ
?GetThisType@eCImageFilterRTBase@@SAAEAVbCPropertyObjectTypeBase@@XZ
?GetThisType@eCImageFilterScene@@SAAEAVbCPropertyObjectTypeBase@@XZ
?GetThisType@eCImageFilterShadowMask@@SAAEAVbCPropertyObjectTypeBase@@XZ
?GetThisType@eCImageFilterTexture@@SAAEAVbCPropertyObjectTypeBase@@XZ
?GetThisType@eCImageFilterTextureRandom@@SAAEAVbCPropertyObjectTypeBase@@XZ
?GetThisType@eCImageResource2@@SAAEAVbCPropertyObjectTypeBase@@XZ
?GetThisType@eCInputAdmin@@SAAEAVbCPropertyObjectTypeBase@@XZ
?GetThisType@eCLightStreaks_PS@@SAAEAVbCPropertyObjectTypeBase@@XZ
?GetThisType@eCMaterialResource2@@SAAEAVbCPropertyObjectTypeBase@@XZ
?GetThisType@eCMeshResource2@@SAAEAVbCPropertyObjectTypeBase@@XZ
?GetThisType@eCMesh_PS@@SAAEAVbCPropertyObjectTypeBase@@XZ
?GetThisType@eCMotionActorResource2@@SAAEAVbCPropertyObjectTypeBase@@XZ
?GetThisType@eCMotionResource2@@SAAEAVbCPropertyObjectTypeBase@@XZ
?GetThisType@eCMoverAnimationBase@@SAAEAVbCPropertyObjectTypeBase@@XZ
?GetThisType@eCMoverAnimationBezier@@SAAEAVbCPropertyObjectTypeBase@@XZ
?GetThisType@eCMoverAnimationFile@@SAAEAVbCPropertyObjectTypeBase@@XZ
?GetThisType@eCMoverAnimationHermit@@SAAEAVbCPropertyObjectTypeBase@@XZ
?GetThisType@eCMoverAnimationKFBase@@SAAEAVbCPropertyObjectTypeBase@@XZ
?GetThisType@eCMoverAnimationLinear@@SAAEAVbCPropertyObjectTypeBase@@XZ
?GetThisType@eCMoverAnimationRotate@@SAAEAVbCPropertyObjectTypeBase@@XZ
?GetThisType@eCMoverAnimationSkeletal@@SAAEAVbCPropertyObjectTypeBase@@XZ
?GetThisType@eCMoverAnimationTCB@@SAAEAVbCPropertyObjectTypeBase@@XZ
?GetThisType@eCMover_PS@@SAAEAVbCPropertyObjectTypeBase@@XZ
?GetThisType@eCNode@@SAAEAVbCPropertyObjectTypeBase@@XZ
?GetThisType@eCOccluder_PS@@SAAEAVbCPropertyObjectTypeBase@@XZ
?GetThisType@eCParticleModule@@SAAEAVbCPropertyObjectTypeBase@@XZ
?GetThisType@eCParticle_PS@@SAAEAVbCPropertyObjectTypeBase@@XZ
?GetThisType@eCPhysicsScene@@SAAEAVbCPropertyObjectTypeBase@@XZ
?GetThisType@eCPhysicsScene_PS@@SAAEAVbCPropertyObjectTypeBase@@XZ
?GetThisType@eCPointLight_PS@@SAAEAVbCPropertyObjectTypeBase@@XZ
?GetThisType@eCPortalAdmin@@SAAEAVbCPropertyObjectTypeBase@@XZ
?GetThisType@eCPortalCell_PS@@SAAEAVbCPropertyObjectTypeBase@@XZ
?GetThisType@eCPortalRoom_PS@@SAAEAVbCPropertyObjectTypeBase@@XZ
?GetThisType@eCPrecipitation_PS@@SAAEAVbCPropertyObjectTypeBase@@XZ
?GetThisType@eCProcessibleElement@@SAAEAVbCPropertyObjectTypeBase@@XZ
?GetThisType@eCProfilerAdmin@@SAAEAVbCPropertyObjectTypeBase@@XZ
?GetThisType@eCRenderSystemAdmin@@SAAEAVbCPropertyObjectTypeBase@@XZ
?GetThisType@eCResource2@@SAAEAVbCPropertyObjectTypeBase@@XZ
?GetThisType@eCResourceModule2@@SAAEAVbCPropertyObjectTypeBase@@XZ
?GetThisType@eCRigidBodyBase_PS@@SAAEAVbCPropertyObjectTypeBase@@XZ
?GetThisType@eCRigidBody_PS@@SAAEAVbCPropertyObjectTypeBase@@XZ
?GetThisType@eCSceneAdmin@@SAAEAVbCPropertyObjectTypeBase@@XZ
?GetThisType@eCScriptEdit@@SAAEAVbCPropertyObjectTypeBase@@XZ
?GetThisType@eCScriptListCtrl@@SAAEAVbCPropertyObjectTypeBase@@XZ
?GetThisType@eCScriptProgressbar@@SAAEAVbCPropertyObjectTypeBase@@XZ
?GetThisType@eCScriptRadioButton@@SAAEAVbCPropertyObjectTypeBase@@XZ
?GetThisType@eCScriptStatic@@SAAEAVbCPropertyObjectTypeBase@@XZ
?GetThisType@eCScriptTrackbar@@SAAEAVbCPropertyObjectTypeBase@@XZ
?GetThisType@eCShaderBase@@SAAEAVbCPropertyObjectTypeBase@@XZ
?GetThisType@eCShaderDefault@@SAAEAVbCPropertyObjectTypeBase@@XZ
?GetThisType@eCShaderEllementBase@@SAAEAVbCPropertyObjectTypeBase@@XZ
?GetThisType@eCShaderLeafs@@SAAEAVbCPropertyObjectTypeBase@@XZ
?GetThisType@eCShaderLightStreaks@@SAAEAVbCPropertyObjectTypeBase@@XZ
?GetThisType@eCShaderMaterialAdmin@@SAAEAVbCPropertyObjectTypeBase@@XZ
?GetThisType@eCShaderParticle@@SAAEAVbCPropertyObjectTypeBase@@XZ
?GetThisType@eCShaderSkyDome@@SAAEAVbCPropertyObjectTypeBase@@XZ
?GetThisType@eCSkydome_PS@@SAAEAVbCPropertyObjectTypeBase@@XZ
?GetThisType@eCSoundResource2@@SAAEAVbCPropertyObjectTypeBase@@XZ
?GetThisType@eCSpeedTreeAdmin@@SAAEAVbCPropertyObjectTypeBase@@XZ
?GetThisType@eCSpeedTreeBBMesh_PS@@SAAEAVbCPropertyObjectTypeBase@@XZ
?GetThisType@eCSpeedTreeResource2@@SAAEAVbCPropertyObjectTypeBase@@XZ
?GetThisType@eCSpeedTreeWind_PS@@SAAEAVbCPropertyObjectTypeBase@@XZ
?GetThisType@eCSpeedTree_PS@@SAAEAVbCPropertyObjectTypeBase@@XZ
?GetThisType@eCStaticAmbientLight_PS@@SAAEAVbCPropertyObjectTypeBase@@XZ
?GetThisType@eCStaticLight_PS@@SAAEAVbCPropertyObjectTypeBase@@XZ
?GetThisType@eCStaticPointLight_PS@@SAAEAVbCPropertyObjectTypeBase@@XZ
?GetThisType@eCStrip_PS@@SAAEAVbCPropertyObjectTypeBase@@XZ
?GetThisType@eCSubMesh@@SAAEAVbCPropertyObjectTypeBase@@XZ
?GetThisType@eCTexCoordSrcBase@@SAAEAVbCPropertyObjectTypeBase@@XZ
?GetThisType@eCTexCoordSrcBumpOffset@@SAAEAVbCPropertyObjectTypeBase@@XZ
?GetThisType@eCTexCoordSrcColor@@SAAEAVbCPropertyObjectTypeBase@@XZ
?GetThisType@eCTexCoordSrcOscillator@@SAAEAVbCPropertyObjectTypeBase@@XZ
?GetThisType@eCTexCoordSrcReflect@@SAAEAVbCPropertyObjectTypeBase@@XZ
?GetThisType@eCTexCoordSrcRotator@@SAAEAVbCPropertyObjectTypeBase@@XZ
?GetThisType@eCTexCoordSrcScale@@SAAEAVbCPropertyObjectTypeBase@@XZ
?GetThisType@eCTexCoordSrcScroller@@SAAEAVbCPropertyObjectTypeBase@@XZ
?GetThisType@eCVegetationAdmin@@SAAEAVbCPropertyObjectTypeBase@@XZ
?GetThisType@eCVegetationBrush_PS@@SAAEAVbCPropertyObjectTypeBase@@XZ
?GetThisType@eCVegetation_Grid@@SAAEAVbCPropertyObjectTypeBase@@XZ
?GetThisType@eCVegetation_GridNode@@SAAEAVbCPropertyObjectTypeBase@@XZ
?GetThisType@eCVegetation_Mesh@@SAAEAVbCPropertyObjectTypeBase@@XZ
?GetThisType@eCVegetation_PS@@SAAEAVbCPropertyObjectTypeBase@@XZ
?GetThisType@eCWeatherAdmin@@SAAEAVbCPropertyObjectTypeBase@@XZ
?GetThisType@eCWeatherStates@@SAAEAVbCPropertyObjectTypeBase@@XZ
?GetThisType@eCWeatherZone_PS@@SAAEAVbCPropertyObjectTypeBase@@XZ
?GetThreeState@eCGuiButton2@@QEBA_NXZ
?GetThumbLength@eCGuiTrackBar2@@QEBAHXZ
?GetThunderDuration@eCWeatherStates@@QEBAAEBMXZ
?GetThunderIntesity@eCWeatherStates@@QEBAAEBVbCRange1@@XZ
?GetThunderProbability@eCWeatherStates@@QEBAAEBMXZ
?GetTicFreq@eCGuiTrackBar2@@QEBAHXZ
?GetTicSide@eCGuiTrackBar2@@QEBA?AV?$bTPropertyContainer@W4eETicSide@@@@XZ
?GetTicksPerSecond@eCParticle_PS@@QEBAAEBMXZ
?GetTileCount@eCImageFilterEffect@@QEBAAEBVbCPoint@@XZ
?GetTileCountX@eCBillboard_PS@@QEBAAEBHXZ
?GetTileCountX@eCDecal_PS@@QEBAAEBHXZ
?GetTileCountY@eCBillboard_PS@@QEBAAEBHXZ
?GetTileCountY@eCDecal_PS@@QEBAAEBHXZ
?GetTileIndex@eCBillboard_PS@@QEBAAEBHXZ
?GetTileIndex@eCDecal_PS@@QEBAAEBHXZ
?GetTileSize@eCGuiListCtrl2@@QEBA?AVbCPoint@@XZ
?GetTileSizeMode@eCGuiListCtrl2@@QEBA?AV?$bTPropertyContainer@W4eEListViewTileSize@@@@XZ
?GetTime@eCMoverAnimationBase@@QEBAMXZ
?GetTimeScaling@eCTimer@@QEBAMXZ
?GetTimeStamp@eCRenderSystemAdmin@@QEAAKXZ
?GetTintColor@eCWeatherAdmin@@QEBAAEBVbCFloatColor@@XZ
?GetTintColor@eCWeatherStates@@QEAAAEAVeCColorScale@@XZ
?GetTintColor@eCWeatherStates@@QEBAAEBVeCColorScale@@XZ
?GetTitle@eCStatistic@@QEBAAEBVbCString@@XZ
?GetToken@?$eTShaderEllementProxy@VeCColorSrcBase@@@@QEBAAEBVbCGuid@@XZ
?GetToken@?$eTShaderEllementProxy@VeCTexCoordSrcBase@@@@QEBAAEBVbCGuid@@XZ
?GetToken@eCShaderEllementBase@@QEBAAEBVbCGuid@@XZ
?GetToolTip@eCGuiWindow2@@QEBAAEBVbCString@@XZ
?GetToolTipCtrl@eCGuiToolTipCtrl2@@QEBAPEAVCFXToolTipCtrl@@XZ
?GetToolTipText@eCGuiWindow2@@QEBAAEBVeCTipLocString@@XZ
?GetToolWindow@eCGuiTooltipData2@@QEBAPEAVeCGuiWindow2@@XZ
?GetTotalMass@eCRigidBody_PS@@QEBAAEBMXZ
?GetTotalNumQueuedBytes@eCResourceModule2@@QEBAIXZ
?GetTotalSizeWithMipmaps@eCGfxGaugeAdmin@@SAKW4eEGraphicMemoryType@eCGfxShared@@KKKK@Z
?GetTotalTime@eCTimer@@QEBAKXZ
?GetTotalTimeFloat@eCTimer@@QEBAMXZ
?GetTouchType@eCCollisionShape_PS@@QEBA?AW4eEPropertySetType@@XZ
?GetTouchingBone@eCCollisionShape_PS@@QEBAAEBVbCString@@XZ
?GetTouchingShapeAtIndex@eCCollisionShape_PS@@QEBAPEAVeCCollisionShape@@K@Z
?GetTrackName@eCMoverAnimationFile@@QEBAAEBVbCString@@XZ
?GetTrackSelect@eCGuiListCtrl2@@QEBA_NXZ
?GetTradeAlphaAsSolid@eCShaderBase@@QEBAAEB_NXZ
?GetTransform@eCActorAttachment@@QEBAAEBVbCMatrix@@XZ
?GetTransform@eCDX9Sprite@@UEAA?AW4bEResult@@PEAVbCMatrix@@@Z
?GetTransformSpace@eCGizmoBase@@SA?AW4eETransformSpace@@XZ
?GetTransformationType@eCShaderDefault@@QEBAAEBV?$bTPropertyContainer@W4eEShaderMaterialTransformation@@@@XZ
?GetTransparent@eCGuiWindow2@@QEBA_NXZ
?GetTriangleList@eCIteratorPrimitiveTriangleList@@QEAAAEAV?$bTValArray@VbCVector@@@@XZ
?GetTriangleList@eCIteratorPrimitiveTriangleList@@QEBAAEBV?$bTValArray@VbCVector@@@@XZ
?GetTriangleMesh@eCCollisionMeshResource2@@QEBAPEAVNxTriangleMesh@@H@Z
?GetTriangles@eCCollisionDescMesh@@QEAAAEAV?$bTValArray@UeSMeshCollisionTriangle@eCCollisionDescMesh@@@@XZ
?GetTriangles@eCCollisionDescMesh@@QEBAAEBV?$bTValArray@UeSMeshCollisionTriangle@eCCollisionDescMesh@@@@XZ
?GetTriggerNumParticles@eCParticle_PS@@QEBAAEBVbCRange1@@XZ
?GetTriggerParticlesPerSecond@eCParticle_PS@@QEBAAEBMXZ
?GetTriggersOnIntersect@eCCollisionShape@@QEBAAEB_NXZ
?GetTriggersOnTouch@eCCollisionShape@@QEBAAEB_NXZ
?GetTriggersOnUntouch@eCCollisionShape@@QEBAAEB_NXZ
?GetTtfBUff@eCGuiFontFile2@@QEAAPEAEXZ
?GetType@eCVegetation_PS@@QEBAAEBVbCString@@G@Z
?GetType@eCVegetation_PS@@QEBAAEBVbCString@@UeSVegetationMeshID@@@Z
?GetTypeAt@eCVegetation_PS@@QEBAAEBVbCString@@H@Z
?GetTypeCount@eCVegetation_PS@@QEBAHXZ
?GetTypeID@eCVegetation_Mesh@@QEBAGXZ
?GetTypeID@eCVegetation_PS@@QEAAGAEBVbCString@@@Z
?GetTypeName@eCVegetation_Mesh@@QEBAAEBVbCString@@XZ
?GetU16@eCConfigFile@@QEBAGAEBVbCString@@0@Z
?GetU16@eCConfigFile@@QEBAGAEBVbCString@@0G@Z
?GetU16@eCUnicodeConfigFile@@QEBAGAEBVbCUnicodeString@@0@Z
?GetU16@eCUnicodeConfigFile@@QEBAGAEBVbCUnicodeString@@0G@Z
?GetU32@eCConfigFile@@QEBAKAEBVbCString@@0@Z
?GetU32@eCConfigFile@@QEBAKAEBVbCString@@0K@Z
?GetU32@eCUnicodeConfigFile@@QEBAKAEBVbCUnicodeString@@0@Z
?GetU32@eCUnicodeConfigFile@@QEBAKAEBVbCUnicodeString@@0K@Z
?GetU8@eCConfigFile@@QEBAEAEBVbCString@@0@Z
?GetU8@eCConfigFile@@QEBAEAEBVbCString@@0E@Z
?GetU8@eCUnicodeConfigFile@@QEBAEAEBVbCUnicodeString@@0@Z
?GetU8@eCUnicodeConfigFile@@QEBAEAEBVbCUnicodeString@@0E@Z
?GetUGIconAlignMode@eCGuiListCtrl2@@QEBA?AV?$bTPropertyContainer@W4eEListViewAlign@@@@XZ
?GetUGIconBorder@eCGuiListCtrl2@@QEBA?AVbCRect@@XZ
?GetUGIconSize@eCGuiListCtrl2@@QEBA?AVbCPoint@@XZ
?GetUGIconSizeMode@eCGuiListCtrl2@@QEBA?AV?$bTPropertyContainer@W4eEListViewIconSize@@@@XZ
?GetUGItemBorder@eCGuiListCtrl2@@QEBA?AVbCRect@@XZ
?GetUGItemLayoutMode@eCGuiListCtrl2@@QEBA?AV?$bTPropertyContainer@W4eEListViewItemLayout@@@@XZ
?GetUGLabelAlignMode@eCGuiListCtrl2@@QEBA?AV?$bTPropertyContainer@W4eEListViewAlign@@@@XZ
?GetUGLabelBorder@eCGuiListCtrl2@@QEBA?AVbCRect@@XZ
?GetUGNoEmptyCols@eCGuiListCtrl2@@QEBA_NXZ
?GetUGNoEmptyRows@eCGuiListCtrl2@@QEBA_NXZ
?GetUGNoLabel@eCGuiListCtrl2@@QEBA_NXZ
?GetUGNoWrapNext@eCGuiListCtrl2@@QEBA_NXZ
?GetUGNumItemLines@eCGuiListCtrl2@@QEBAHXZ
?GetUGNumSubItemLines@eCGuiListCtrl2@@QEBAHXZ
?GetUGNumSubItems@eCGuiListCtrl2@@QEBAHXZ
?GetUGPartialCols@eCGuiListCtrl2@@QEBA_NXZ
?GetUGPartialRows@eCGuiListCtrl2@@QEBA_NXZ
?GetUGSnapCols@eCGuiListCtrl2@@QEBA_NXZ
?GetUGSnapRows@eCGuiListCtrl2@@QEBA_NXZ
?GetUGSubLabelAlignMode@eCGuiListCtrl2@@QEBA?AV?$bTPropertyContainer@W4eEListViewAlign@@@@XZ
?GetUGTileSize@eCGuiListCtrl2@@QEBA?AVbCPoint@@XZ
?GetUGTileSizeMode@eCGuiListCtrl2@@QEBA?AV?$bTPropertyContainer@W4eEListViewTileSize@@@@XZ
?GetUGVertical@eCGuiListCtrl2@@QEBA_NXZ
?GetUVData@eCMeshResource2@@QEBA?AV?$eTVertexBufferArray@VbCVector2@@@@H_N@Z
?GetUnderline@eCGuiSystemFont2@@QEBA_NXZ
?GetUnderline@eCGuiSystemFontDesc2@@QEBA_NXZ
?GetUniformDistribution@eCVegetationBrush_PS@@QEBAAEB_NXZ
?GetUniformScaling@eCGeometryEntity@@QEBAMXZ
?GetUniformSize@eCParticle_PS@@QEBAAEB_NXZ
?GetUniformSizeVariation@eCBillboard_PS@@QEBAAEB_NXZ
?GetUniqueEntityByName@eCSceneAdmin@@QEBA_NAEBVbCString@@AEAPEAVeCEntity@@@Z
?GetUnitNumber@eCGfxImageData@@QEBA?AW4bEResult@@AEAK@Z
?GetUnitNumber@eCGfxTextureBlock@@QEBA?AW4bEResult@@AEAK@Z
?GetUnitsPerLightmapTexel@eCMesh_PS@@QEBAAEBMXZ
?GetUpdateCallback@eCActorAttachment@@QEBAP6A_NPEAV1@@ZXZ
?GetUpdateData@eCListCtrlEventArgs@@QEBA_NXZ
?GetUseAmbientVariationExclusionForNextAnimation@eCAnimation_PS@@QEBA_NXZ
?GetUseCollision@eCParticle_PS@@QEBAAEB_NXZ
?GetUseColorScale@eCParticle_PS@@QEBAAEB_NXZ
?GetUseDefaultViewRange@eCVegetation_PS@@QEBAAEB_NXZ
?GetUseDepthBias@eCShaderBase@@QEBAAEB_NXZ
?GetUseEntityDirection@eCDecal_PS@@QEBAAEB_NXZ
?GetUseIndex@eCInputAdmin@@QEBAEW4eEScanCode@@@Z
?GetUseMaxCollisions@eCParticle_PS@@QEBAAEB_NXZ
?GetUseMaxRepeats@eCAudioEmitter_PS@@QEBAAEB_NXZ
?GetUseQuality@eCVegetation_PS@@QEBAAEB_NXZ
?GetUseRevolution@eCParticle_PS@@QEBAAEB_NXZ
?GetUseRevolutionScale@eCParticle_PS@@QEBAAEB_NXZ
?GetUseRollOffPreset@eCAudioEmitter_PS@@QEBAAEB_NXZ
?GetUseRotationDamping@eCParticle_PS@@QEBAAEB_NXZ
?GetUseRotationFrom@eCParticle_PS@@QEBAAEBV?$bTPropertyContainer@W4eERotationFrom@@@@XZ
?GetUseSizeScale@eCParticle_PS@@QEBAAEB_NXZ
?GetUseSpawnedVelocityScale@eCParticle_PS@@QEBAAEB_NXZ
?GetUseSubdivisionScale@eCParticle_PS@@QEBAAEB_NXZ
?GetUseVelocityScale@eCParticle_PS@@QEBAAEB_NXZ
?GetUseVolumeFromPreset@eCAudioEmitter_PS@@QEBAAEB_NXZ
?GetUsedShadowMapTotalBytes@eCIlluminationAdmin@@QEBAKXZ
?GetUsedVertexCount@eCVegetationAdmin@@QEAAKXZ
?GetUserData@eCGenericEntityListener_PS@@QEBAPEAXXZ
?GetUserData@eCIterator@@QEBAPEAXXZ
?GetUserTextureFilter@eCGfxMixerAdmin@@QEBA?AW4bEResult@@AEAW4eETexFilter@eCGfxShared@@AEAH@Z
?GetVSImplementation@eCTexCoordSrcBase@@UEAA_NAEAV?$bTObjArray@UeSShaderMaterialDeclaration@@@@AEAVbCString@@H_N@Z
?GetVSImplementation@eCTexCoordSrcBumpOffset@@UEAA_NAEAV?$bTObjArray@UeSShaderMaterialDeclaration@@@@AEAVbCString@@H_N@Z
?GetVSImplementation@eCTexCoordSrcColor@@UEAA_NAEAV?$bTObjArray@UeSShaderMaterialDeclaration@@@@AEAVbCString@@H_N@Z
?GetVSImplementation@eCTexCoordSrcOscillator@@UEAA_NAEAV?$bTObjArray@UeSShaderMaterialDeclaration@@@@AEAVbCString@@H_N@Z
?GetVSImplementation@eCTexCoordSrcProxy@@QEAA_NAEAV?$bTObjArray@UeSShaderMaterialDeclaration@@@@AEAVbCString@@H_N@Z
?GetVSImplementation@eCTexCoordSrcRotator@@UEAA_NAEAV?$bTObjArray@UeSShaderMaterialDeclaration@@@@AEAVbCString@@H_N@Z
?GetVSImplementation@eCTexCoordSrcScale@@UEAA_NAEAV?$bTObjArray@UeSShaderMaterialDeclaration@@@@AEAVbCString@@H_N@Z
?GetVSImplementation@eCTexCoordSrcScroller@@UEAA_NAEAV?$bTObjArray@UeSShaderMaterialDeclaration@@@@AEAVbCString@@H_N@Z
?GetValue@eCConfigFile@@QEAAAEAVbCString@@AEBV2@0@Z
?GetValue@eCConfigFile@@QEBAAEBVbCString@@AEBV2@0@Z
?GetValue@eCConfigFile@@QEBA_NAEBVbCString@@0AEAC@Z
?GetValue@eCConfigFile@@QEBA_NAEBVbCString@@0AEAE@Z
?GetValue@eCConfigFile@@QEBA_NAEBVbCString@@0AEAF@Z
?GetValue@eCConfigFile@@QEBA_NAEBVbCString@@0AEAG@Z
?GetValue@eCConfigFile@@QEBA_NAEBVbCString@@0AEAH@Z
?GetValue@eCConfigFile@@QEBA_NAEBVbCString@@0AEAJ@Z
?GetValue@eCConfigFile@@QEBA_NAEBVbCString@@0AEAK@Z
?GetValue@eCConfigFile@@QEBA_NAEBVbCString@@0AEAM@Z
?GetValue@eCConfigFile@@QEBA_NAEBVbCString@@0AEAN@Z
?GetValue@eCConfigFile@@QEBA_NAEBVbCString@@0AEAV2@@Z
?GetValue@eCConfigFile@@QEBA_NAEBVbCString@@0AEA_N@Z
?GetValue@eCConfigFile_KeyObject@@QEAAAEAVbCString@@XZ
?GetValue@eCConfigFile_KeyObject@@QEBAAEBVbCString@@XZ
?GetValue@eCConfigFile_SectionObject@@QEBAAEBVbCString@@AEBV2@@Z
?GetValue@eCConfigFile_SectionObject@@QEBA_NAEBVbCString@@AEAV2@@Z
?GetValue@eCPropertyProxy@@QEBA?AVbCString@@XZ
?GetValue@eCUnicodeConfigFile@@QEAAAEAVbCUnicodeString@@AEBV2@0@Z
?GetValue@eCUnicodeConfigFile@@QEBAAEBVbCUnicodeString@@AEBV2@0@Z
?GetValue@eCUnicodeConfigFile@@QEBA_NAEBVbCUnicodeString@@0AEAC@Z
?GetValue@eCUnicodeConfigFile@@QEBA_NAEBVbCUnicodeString@@0AEAE@Z
?GetValue@eCUnicodeConfigFile@@QEBA_NAEBVbCUnicodeString@@0AEAF@Z
?GetValue@eCUnicodeConfigFile@@QEBA_NAEBVbCUnicodeString@@0AEAG@Z
?GetValue@eCUnicodeConfigFile@@QEBA_NAEBVbCUnicodeString@@0AEAH@Z
?GetValue@eCUnicodeConfigFile@@QEBA_NAEBVbCUnicodeString@@0AEAJ@Z
?GetValue@eCUnicodeConfigFile@@QEBA_NAEBVbCUnicodeString@@0AEAK@Z
?GetValue@eCUnicodeConfigFile@@QEBA_NAEBVbCUnicodeString@@0AEAM@Z
?GetValue@eCUnicodeConfigFile@@QEBA_NAEBVbCUnicodeString@@0AEAN@Z
?GetValue@eCUnicodeConfigFile@@QEBA_NAEBVbCUnicodeString@@0AEAV2@@Z
?GetValue@eCUnicodeConfigFile@@QEBA_NAEBVbCUnicodeString@@0AEA_N@Z
?GetValue@eCUnicodeConfigFile_KeyObject@@QEAAAEAVbCUnicodeString@@XZ
?GetValue@eCUnicodeConfigFile_KeyObject@@QEBAAEBVbCUnicodeString@@XZ
?GetValue@eCUnicodeConfigFile_SectionObject@@QEBAAEBVbCUnicodeString@@AEBV2@@Z
?GetValue@eCUnicodeConfigFile_SectionObject@@QEBA_NAEBVbCUnicodeString@@AEAV2@@Z
?GetValueString@eCConfigAdmin@@IEAA_NAEBVbCString@@AEAV2@0@Z
?GetValues@eCGfxGaugeAdmin@@QEBA?AW4bEResult@@AEAUeSGfxGaugeValues@eCGfxShared@@@Z
?GetVarianceShadowMapFormat@eCShaderMaterialAdmin@@QEBA?AW4eEDepthMapFormat@@XZ
?GetVariation@eCVegetationBrush_PS@@QEBAAEBMXZ
?GetVectorArray@eCDX9Effect@@UEAA?AW4bEResult@@QEAX0I@Z
?GetVegetationIDs@eCVegetationBrush_PS@@QEAAAEAV?$bTObjArray@UeSVegetationMeshID@@@@XZ
?GetVelocity@eCAudioChannel@@QEBA?AW4eEAudioResult@@AEAVbCVector@@@Z
?GetVelocityDirectionFrom@eCParticle_PS@@QEBAAEBV?$bTPropertyContainer@W4eEVelocityDirectionFrom@@@@XZ
?GetVelocityLeft@eCStrip_PS@@QEBAAEBMXZ
?GetVelocityLoss@eCParticle_PS@@QEBAAEBVbCRange3@@XZ
?GetVelocityRight@eCStrip_PS@@QEBAAEBMXZ
?GetVelocityScaleRepeats@eCParticle_PS@@QEBAAEBMXZ
?GetVersion@eCAmbientOcclusionPreprocessor@@UEBAGXZ
?GetVersion@eCAnimation2Admin@@UEBAGXZ
?GetVersion@eCAnimation_PS@@UEBAGXZ
?GetVersion@eCArchiveFile@@QEBAGXZ
?GetVersion@eCAreaAdmin@@UEBAGXZ
?GetVersion@eCArea_StringProperty_PS@@UEBAGXZ
?GetVersion@eCAudioEmitter_PS@@UEBAGXZ
?GetVersion@eCBillboard_PS@@UEBAGXZ
?GetVersion@eCBodyPart_PS@@UEBAGXZ
?GetVersion@eCCameraBase@@UEBAGXZ
?GetVersion@eCCollisionShape@@UEBAGXZ
?GetVersion@eCCollisionShapeBase_PS@@UEBAGXZ
?GetVersion@eCCollisionShape_PS@@UEBAGXZ
?GetVersion@eCColorSrcBase@@UEBAGXZ
?GetVersion@eCColorSrcBlend@@UEBAGXZ
?GetVersion@eCColorSrcCamDistance@@UEBAGXZ
?GetVersion@eCColorSrcCamObstacle@@UEBAGXZ
?GetVersion@eCColorSrcCombiner@@UEBAGXZ
?GetVersion@eCColorSrcConstant@@UEBAGXZ
?GetVersion@eCColorSrcConstantAnimation@@UEBAGXZ
?GetVersion@eCColorSrcConstantSwitch@@UEBAGXZ
?GetVersion@eCColorSrcCubeSampler@@UEBAGXZ
?GetVersion@eCColorSrcFresnel@@UEBAGXZ
?GetVersion@eCColorSrcMask@@UEBAGXZ
?GetVersion@eCColorSrcSampler@@UEBAGXZ
?GetVersion@eCColorSrcSkydomeSampler@@UEBAGXZ
?GetVersion@eCColorSrcVertexColor@@UEBAGXZ
?GetVersion@eCContextBase@@UEBAGXZ
?GetVersion@eCDecal_PS@@UEBAGXZ
?GetVersion@eCDepthMap@@UEBAGXZ
?GetVersion@eCDirectionalLight_PS@@UEBAGXZ
?GetVersion@eCDynamicEntity@@UEBAGXZ
?GetVersion@eCDynamicLight_PS@@UEBAGXZ
?GetVersion@eCEditorEntityPropertySet@@UEBAGXZ
?GetVersion@eCEngineComponentBase@@UEBAGXZ
?GetVersion@eCEntity@@UEBAGXZ
?GetVersion@eCEntityDynamicContext@@UEBAGXZ
?GetVersion@eCEntityPropertySet@@UEBAGXZ
?GetVersion@eCEntityProxy@@QEBAGXZ
?GetVersion@eCEntityStringProxy@@QEBAGXZ
?GetVersion@eCGenericEntityListener_PS@@UEBAGXZ
?GetVersion@eCGeometryEntity@@UEBAGXZ
?GetVersion@eCHemisphere_PS@@UEBAGXZ
?GetVersion@eCIlluminated_PS@@UEBAGXZ
?GetVersion@eCLightSet@@UEBAGXZ
?GetVersion@eCLightStreaks_PS@@UEBAGXZ
?GetVersion@eCMesh_PS@@UEBAGXZ
?GetVersion@eCModuleAdmin@@UEBAGXZ
?GetVersion@eCMoverAnimationBase@@UEBAGXZ
?GetVersion@eCMoverAnimationBezier@@UEBAGXZ
?GetVersion@eCMoverAnimationFile@@UEBAGXZ
?GetVersion@eCMoverAnimationHermit@@UEBAGXZ
?GetVersion@eCMoverAnimationKFBase@@UEBAGXZ
?GetVersion@eCMoverAnimationLinear@@UEBAGXZ
?GetVersion@eCMoverAnimationRotate@@UEBAGXZ
?GetVersion@eCMoverAnimationSkeletal@@UEBAGXZ
?GetVersion@eCMoverAnimationTCB@@UEBAGXZ
?GetVersion@eCMover_PS@@UEBAGXZ
?GetVersion@eCNode@@UEBAGXZ
?GetVersion@eCOccluder_PS@@UEBAGXZ
?GetVersion@eCParticle_PS@@UEBAGXZ
?GetVersion@eCPhysicsScene_PS@@UEBAGXZ
?GetVersion@eCPointLight_PS@@UEBAGXZ
?GetVersion@eCPortalCell_PS@@UEBAGXZ
?GetVersion@eCPortalRoom_PS@@UEBAGXZ
?GetVersion@eCPrecipitation_PS@@UEBAGXZ
?GetVersion@eCProfilerAdmin@@UEBAGXZ
?GetVersion@eCPropertyProxy@@QEBAGXZ
?GetVersion@eCPropertySetProxy@@QEBAGXZ
?GetVersion@eCRenderSystemAdmin@@UEBAGXZ
?GetVersion@eCRigidBodyBase_PS@@UEBAGXZ
?GetVersion@eCRigidBody_PS@@UEBAGXZ
?GetVersion@eCSceneAdmin@@UEBAGXZ
?GetVersion@eCScriptProxy@@QEBAGXZ
?GetVersion@eCShaderBase@@UEBAGXZ
?GetVersion@eCShaderDefault@@UEBAGXZ
?GetVersion@eCShaderEllementBase@@UEBAGXZ
?GetVersion@eCShaderLightStreaks@@UEBAGXZ
?GetVersion@eCShaderParticle@@UEBAGXZ
?GetVersion@eCShaderSkyDome@@UEBAGXZ
?GetVersion@eCShadowMapBase@@UEBAGXZ
?GetVersion@eCShadowMapPointLight@@UEBAGXZ
?GetVersion@eCShadowMapSpotLight@@UEBAGXZ
?GetVersion@eCSkydome_PS@@UEBAGXZ
?GetVersion@eCSpeedTreeBBMesh_PS@@UEBAGXZ
?GetVersion@eCSpeedTreeWind_PS@@UEBAGXZ
?GetVersion@eCSpeedTree_PS@@UEBAGXZ
?GetVersion@eCStaticAmbientLight_PS@@UEBAGXZ
?GetVersion@eCStaticLight_PS@@UEBAGXZ
?GetVersion@eCStaticPointLight_PS@@UEBAGXZ
?GetVersion@eCStrip_PS@@UEBAGXZ
?GetVersion@eCTemplateEntity@@UEBAGXZ
?GetVersion@eCTemplateEntityProxy@@QEBAGXZ
?GetVersion@eCTexCoordSrcBase@@UEBAGXZ
?GetVersion@eCTexCoordSrcBumpOffset@@UEBAGXZ
?GetVersion@eCTexCoordSrcColor@@UEBAGXZ
?GetVersion@eCTexCoordSrcOscillator@@UEBAGXZ
?GetVersion@eCTexCoordSrcReflect@@UEBAGXZ
?GetVersion@eCTexCoordSrcRotator@@UEBAGXZ
?GetVersion@eCTexCoordSrcScale@@UEBAGXZ
?GetVersion@eCTexCoordSrcScroller@@UEBAGXZ
?GetVersion@eCVegetationAdmin@@UEBAGXZ
?GetVersion@eCVegetationBrush_PS@@UEBAGXZ
?GetVersion@eCVegetation_Grid@@UEBAGXZ
?GetVersion@eCVegetation_GridNode@@UEBAGXZ
?GetVersion@eCVegetation_Mesh@@UEBAGXZ
?GetVersion@eCVegetation_PS@@UEBAGXZ
?GetVersion@eCWeatherAdmin@@UEBAGXZ
?GetVersion@eCWeatherEnvironment@@QEBAGXZ
?GetVersion@eCWeatherStates@@UEBAGXZ
?GetVersion@eCWeatherZone_PS@@UEBAGXZ
?GetVersion@eCWrapper_emfx3ActorInstance@@UEBAGXZ
?GetVersion@eCWrapper_emfx3SkeletalMotion@@UEBAGXZ
?GetVertexCount@eCSubMesh@@QEBAAEBKXZ
?GetVertexData@eCGfxVertexData@@IEAA?AW4bEResult@@AEAPEAVeCAPIVertexData@@@Z
?GetVertexData@eCMeshResource2@@QEBA?AVeCVertexBufferArray@@W4eEDeclUsage@eCGfxShared@@E_N@Z
?GetVertexDeclarationData@eCDX9Device@@UEAA?AW4bEResult@@PEAXPEAUeSGfxDclElement@eCGfxShared@@PEAI@Z
?GetVertexLighting@eCGfxLight@@QEBA?AW4bEResult@@KAEA_N@Z
?GetVertexLightingData@eCGfxLight@@QEBA?AW4bEResult@@KAEAUeSGfxLightData@eCGfxShared@@@Z
?GetVertexProgramData@eCDX9Device@@UEAA?AW4bEResult@@KPEAXPEAI@Z
?GetVertexProgramRegisterB@eCDX9Device@@UEAA?AW4bEResult@@KPEAHK@Z
?GetVertexProgramRegisterB@eCGfxMixerAdmin@@QEAA?AW4bEResult@@KPEAHK@Z
?GetVertexProgramRegisterF@eCDX9Device@@UEAA?AW4bEResult@@KPEAMK@Z
?GetVertexProgramRegisterF@eCGfxMixerAdmin@@QEAA?AW4bEResult@@KPEAMK@Z
?GetVertexProgramRegisterI@eCDX9Device@@UEAA?AW4bEResult@@KPEAHK@Z
?GetVertexProgramRegisterI@eCGfxMixerAdmin@@QEAA?AW4bEResult@@KPEAHK@Z
?GetVertexShaderConstantPool@eCShaderBase@@QEAAAEAVeCShaderConstantPool@@XZ
?GetVertexShaderConstantPool@eCShaderBase@@QEBAAEBVeCShaderConstantPool@@XZ
?GetVertexStream@eCVegetationAdmin@@QEAAPEAVeCGfxVertexData@@XZ
?GetVertexStreamOffset@eCVegetationAdmin@@QEAAKXZ
?GetVertexTexCoord@eCTexCoordSrcProxy@@QEBAHXZ
?GetVertical@eCGuiProgressBar2@@QEBA_NXZ
?GetVertical@eCGuiScrollBar2@@QEBA_NXZ
?GetVertical@eCGuiTrackBar2@@QEBA_NXZ
?GetVerticalScrollBar@eCGuiFrame2@@QEBA_NXZ
?GetVertices@eCDecal@@QEBAAEBV?$bTValArray@UeSDecalVertex@eCDecal@@@@XZ
?GetVideoPlayer@eCGfxImageData@@QEAAPEAVeCVideoPlayer@@XZ
?GetView@eCGuiListCtrl2@@QEBA?AV?$bTPropertyContainer@W4eEListView@@@@XZ
?GetViewMatrix@eCCameraBase@@QEBAAEBVbCMatrix@@XZ
?GetViewMatrix@eCDX9Device@@UEAA?AW4bEResult@@PEAVbCMatrix@@@Z
?GetViewMatrix@eCGfxCamera@@QEBA?AW4bEResult@@AEAVbCMatrix@@@Z
?GetViewMatrix@eCGfxCamera@@QEBAAEBVbCMatrix@@XZ
?GetViewMatrix@eCGfxMixerAdmin@@QEBA?AW4bEResult@@AEAVbCMatrix@@@Z
?GetViewProjectionMatrix@eCGfxCamera@@QEBAAEBVbCMatrix@@XZ
?GetViewRange@eCGeometryEntity@@QEBAMXZ
?GetViewRange@eCTemplateEntity@@QEBAMXZ
?GetViewRange@eCVegetation_PS@@QEBAAEBMXZ
?GetViewport@eCDX9Device@@UEAA?AW4bEResult@@AEAUeSGfxViewport@eCGfxShared@@@Z
?GetViewport@eCGfxMixerAdmin@@QEBA?AW4bEResult@@AEAUeSGfxViewport@eCGfxShared@@@Z
?GetVirtualFilePath@eCArchiveFile@@QEBA?AVbCString@@XZ
?GetVirtualResolution@eCGuiModule2@@QEBA?AVbCPoint@@XZ
?GetVirtualRootPath@eCArchiveFile@@QEBA?AVbCString@@XZ
?GetVirtualRootPath@eCVirtualFileSystem@@QEAA?AVbCString@@XZ
?GetVisible@eCGuiWindow2@@QEBA_NXZ
?GetVisible@eCScriptEventArgs@@QEBA_NXZ
?GetVisual@eCImageFilterEffect@@QEBAPEAVeCGfxVisual@@XZ
?GetVisual@eCMeshResource2@@QEBAPEAVeCGfxVisual@@XZ
?GetVisual@eCSkyObject@@QEAAPEAVeCGfxVisual@@XZ
?GetVisualizedRotAxes@eCDynamicEntity@@QEBAGXZ
?GetVisualizedTransAxes@eCDynamicEntity@@QEBAGXZ
?GetVoiceLanguage@eCLocAdmin2@@QEBA?AVbCString@@XZ
?GetVolume@eCAudioChannel@@QEBA?AW4eEAudioResult@@AEAM@Z
?GetVolume@eCAudioChannelGroup@@QEBA?AW4eEAudioResult@@AEAM@Z
?GetVolume@eCAudioEmitter_PS@@QEBAAEBMXZ
?GetVolume@eCAudioRollOffPreset@@QEBAAEBMXZ
?GetVolumeScaleFactor@eCAudioChannelGroup@@QEBA?AW4eEAudioResult@@AEAM@Z
?GetWakeUpCounter@eCRigidBody_PS@@QEBAAEBMXZ
?GetWarmupTicksPerSecond@eCParticle_PS@@QEBAAEBMXZ
?GetWeatherEnvironment@eCWeatherZone_PS@@QEBAAEBVbCString@@XZ
?GetWeatherEnvironmentAt@eCWeatherAdmin@@QEBAPEAVeCWeatherEnvironment@@H@Z
?GetWeatherEnvironmentByName@eCWeatherAdmin@@QEBAPEAVeCWeatherEnvironment@@AEBVbCString@@@Z
?GetWeatherEnvironmentCount@eCWeatherAdmin@@QEBAHXZ
?GetWeatherStatesAt@eCWeatherAdmin@@QEBAPEAVeCWeatherStates@@H@Z
?GetWeatherStatesByName@eCWeatherAdmin@@QEBAPEAVeCWeatherStates@@AEBVbCString@@@Z
?GetWeatherStatesCount@eCWeatherAdmin@@QEBAHXZ
?GetWeight@eCGuiSystemFont2@@QEBAHXZ
?GetWeight@eCGuiSystemFontDesc2@@QEBAHXZ
?GetWidth@eCCollisionShape@@QEAAMXZ
?GetWidth@eCCollisionShape@@QEBA?BMXZ
?GetWidth@eCGlyphOutline@@QEBAIXZ
?GetWidth@eCGuiSystemFont2@@QEBAHXZ
?GetWidth@eCGuiSystemFontDesc2@@QEBAHXZ
?GetWidth@eCImageFilterTextureRandom@@QEBAAEBHXZ
?GetWidth@eCImageResource2@@QEBAAEBHXZ
?GetWidth@eCLightmapBitmap@@QEBAJXZ
?GetWindPower@eCSpeedTreeAdmin@@QEBAMXZ
?GetWindPower@eCWeatherStates@@QEBAAEBMXZ
?GetWindResponse@eCSpeedTreeWind_PS@@QEBAAEBMXZ
?GetWindResponseLimit@eCSpeedTreeWind_PS@@QEBAAEBMXZ
?GetWindStrength@eCSpeedTreeWind_PS@@QEBAAEBMXZ
?GetWindStrength@eCVegetation_Mesh@@QEBAAEBMXZ
?GetWindowAbsPosition@eCGuiWindow2@@QEAA?AVbCPoint@@XZ
?GetWindowClass@eCGuiButton2@@UEBA?AVbCUnicodeString@@XZ
?GetWindowClass@eCGuiEdit2@@UEBA?AVbCUnicodeString@@XZ
?GetWindowClass@eCGuiFrame2@@UEBA?AVbCUnicodeString@@XZ
?GetWindowClass@eCGuiListCtrl2@@UEBA?AVbCUnicodeString@@XZ
?GetWindowClass@eCGuiProgressBar2@@UEBA?AVbCUnicodeString@@XZ
?GetWindowClass@eCGuiScrollBar2@@UEBA?AVbCUnicodeString@@XZ
?GetWindowClass@eCGuiStatic2@@UEBA?AVbCUnicodeString@@XZ
?GetWindowClass@eCGuiToolTipCtrl2@@UEBA?AVbCUnicodeString@@XZ
?GetWindowClass@eCGuiTrackBar2@@UEBA?AVbCUnicodeString@@XZ
?GetWindowClass@eCGuiWindow2@@UEBA?AVbCUnicodeString@@XZ
?GetWindowHandle@eCMessageHandler@@UEAAPEAUHWND__@@XZ
?GetWindowHeight@eCWindow@@QEBAHXZ
?GetWindowID@eCScriptEventArgs@@QEBAKXZ
?GetWindowMode@eCWindow@@QEBA?AW4eEWindowMode@1@XZ
?GetWindowWidth@eCWindow@@QEBAHXZ
?GetWorldBox@eCSceneAdmin@@QEBAAEBVbCBox@@XZ
?GetWorldDimension@eCVegetation_Grid@@QEBAXAEAVbCVector2@@@Z
?GetWorldIntersectionPoint@eCAnimationCollisionDesc@@UEBA?AVbCVector@@AEBVbCUnitedRay@@H@Z
?GetWorldIntersectionPoint@eCAnimationCollisionDesc@@UEBAXAEBVbCUnitedRay@@AEAVbCVector@@H@Z
?GetWorldIntersectionPoint@eCCollisionDescMesh@@UEBA?AVbCVector@@AEBVbCUnitedRay@@H@Z
?GetWorldIntersectionPoint@eCCollisionDescMesh@@UEBAXAEBVbCUnitedRay@@AEAVbCVector@@H@Z
?GetWorldIntersectionPoint@eCPrimitiveCollisionDesc@@UEBA?AVbCVector@@AEBVbCUnitedRay@@H@Z
?GetWorldIntersectionPoint@eCPrimitiveCollisionDesc@@UEBAXAEBVbCUnitedRay@@AEAVbCVector@@H@Z
?GetWorldIntersectionPoint@eCSpeedTreeCollisionDesc@@UEBA?AVbCVector@@AEBVbCUnitedRay@@H@Z
?GetWorldIntersectionPoint@eCSpeedTreeCollisionDesc@@UEBAXAEBVbCUnitedRay@@AEAVbCVector@@H@Z
?GetWorldMatrices@eCWrapper_emfx3ActorInstance@@QEAAPEAVbCMatrix@@XZ
?GetWorldMatrices@eCWrapper_emfx3ActorInstance@@QEBAPEBVbCMatrix@@XZ
?GetWorldMatrices@eCWrapper_emfx3ActorInstance@@QEBA_NAEAV?$bTValArray@VbCMatrix@@@@@Z
?GetWorldMatrices@eCWrapper_emfx3ActorInstance@@SAPEAVbCMatrix@@PEAVActorInstance@EMotionFX@@@Z
?GetWorldMatrices@eCWrapper_emfx3ActorInstance@@SAPEBVbCMatrix@@PEBVActorInstance@EMotionFX@@@Z
?GetWorldMatrix@eCDX9Device@@UEAA?AW4bEResult@@PEAVbCMatrix@@@Z
?GetWorldMatrix@eCGeometryEntity@@QEBAAEBVbCMatrix@@XZ
?GetWorldMatrix@eCGfxMixerAdmin@@QEBA?AW4bEResult@@AEAVbCMatrix@@@Z
?GetWorldNodeBoundary@eCDynamicEntity@@UEBAAEBVbCBox@@XZ
?GetWorldNodeBoundary@eCGeometryEntity@@UEBAAEBVbCBox@@XZ
?GetWorldNodeSphere@eCDynamicEntity@@UEBAAEBVbCSphere@@XZ
?GetWorldNodeSphere@eCGeometryEntity@@UEBAAEBVbCSphere@@XZ
?GetWorldOffset@eCPointLight_PS@@QEBAAEBVbCVector@@XZ
?GetWorldOffset@eCVegetation_Grid@@QEBAXAEAVbCVector2@@@Z
?GetWorldPolygon@eCAnimationCollisionDesc@@UEBA?AVbCTriangle@@H@Z
?GetWorldPolygon@eCAnimationCollisionDesc@@UEBA_NAEAVbCTriangle@@H@Z
?GetWorldPolygon@eCCollisionDescMesh@@UEBA?AVbCTriangle@@H@Z
?GetWorldPolygon@eCCollisionDescMesh@@UEBA_NAEAVbCTriangle@@H@Z
?GetWorldPolygon@eCSpeedTreeCollisionDesc@@UEBA?AVbCTriangle@@H@Z
?GetWorldPolygon@eCSpeedTreeCollisionDesc@@UEBA_NAEAVbCTriangle@@H@Z
?GetWorldPosition@eCGeometryEntity@@QEBAAEBVbCVector@@XZ
?GetWorldPosition@eCGeometryEntity@@QEBAXAEAVbCVector@@@Z
?GetWorldRect@eCVegetation_Grid@@QEBAXAEAVbCVector2@@0@Z
?GetWorldRotation@eCGeometryEntity@@QEBA?AVbCQuaternion@@XZ
?GetWorldRotation@eCGeometryEntity@@QEBAXAEAVbCQuaternion@@@Z
?GetWorldToScreenMatrix@eCCameraBase@@QEBA?AVbCMatrix@@XZ
?GetWorldTreeBoundary@eCGeometryEntity@@QEBAAEBVbCBox@@XZ
?GetWorldTreeSphere@eCGeometryEntity@@QEBAAEBVbCSphere@@XZ
?GetWrapMode@eCColorScale@@QEBA?AW4eEWrapMode@1@XZ
?GetWrapMode@eCFloatScale@@QEBA?AW4eEWrapMode@1@XZ
?GetYHorizon@eCLightmapBitmap@@QEAAPEAUeSHorizonRow@eCLightmapBatcher@@XZ
?GetYHorizon@eCLightmapBitmap@@QEBAPEBUeSHorizonRow@eCLightmapBatcher@@XZ
?GetZAxis@eCCameraBase@@QEBAXAEAVbCVector@@@Z
?GetZPassRenderTimeStamp@eCSpeedTreeRenderBuffer@@QEBAKXZ
?GiveFeedback@eCGuiDropSource2@@UEAA_NK@Z
?GoNextPatch@eCContactIterator@@QEAA_NXZ
?GoNextPoint@eCContactIterator@@QEAA_NXZ
?GoNextShape@eCContactIterator@@QEAA_NXZ
?GoToEntity@eCCameraBase@@QEAAXAEBVeCEntity@@@Z
?GridToCellIndex@eCVegetation_Grid@@QEBAHAEBVbCPoint@@@Z
?GridToWorldSpace@eCVegetation_Grid@@QEBAXAEBVbCPoint@@AEAVbCVector2@@@Z
?GridToWorldSpace@eCVegetation_Grid@@QEBAXAEBVbCPoint@@AEBVbCVector2@@AEAV3@@Z
?HandleDeprecatedProperty@eCIlluminated_PS@@UEAA_NAEBVbCString@@0AEAVbCIStream@@@Z
?HandleMessage@eCApplication@@MEAAHPEAUHWND__@@I_K_J@Z
?HandleMessage@eCMessageHandler@@UEAAHI_K_J@Z
?HandleMessage@eCMessageHandler@@UEAAHPEAUHWND__@@I_K_J@Z
?HandleMouse@eCGuiPictureBox2@@AEAA_NPEAVIFFGuiWnd2@@I_J1@Z
?HandleMouse@eCScriptStatic@@AEAA_NPEAVIFFGuiWnd2@@I_J1@Z
?HasAlphaLayer@eCGfxImageData@@IEAA_NAEBVbCString@@@Z
?HasConvexMesh@eCCollisionShape_PS@@QEBA?B_NXZ
?HasCreator@eCDynamicEntity@@UEBA_NXZ
?HasCreator@eCGeometryEntity@@UEBA_NXZ
?HasEntityFreePlace@eCPhysicsScene@@QEBA_NAEAVeCGeometryEntity@@PEAVbCMatrix@@_N2M@Z
?HasFocus@eCGuiWindow2@@QEBA_NXZ
?HasGemoetry@eCSpeedTreeRenderBuffer@@QEAA_NW4eEGeometryType@1@@Z
?HasGraph@eCContextBase@@QEBA_NXZ
?HasGroup@eCCollisionShape_PS@@QEBA?B_NW4eEShapeGroup@@@Z
?HasKeyOnly@eCConfigFile_KeyObject@@QEBA_NXZ
?HasKeyOnly@eCUnicodeConfigFile_KeyObject@@QEBA_NXZ
?HasMotion@eCAnimation_PS@@QEBA_NW4eEMotionType@eAnimShared@@@Z
?HasMotionInstance@eCWrapper_emfx3ActorInstance@@QEBA_NW4eEMotionType@eAnimShared@@@Z
?HasMultiChildren@eCNode@@QEBA_NXZ
?HasOpacity@eCShaderBase@@UEBA_NXZ
?HasOpacity@eCShaderDefault@@UEBA_NXZ
?HasOpacity@eCShaderLightStreaks@@UEBA_NXZ
?HasOpacity@eCShaderParticle@@UEBA_NXZ
?HasOpacity@eCShaderSkyDome@@UEBA_NXZ
?HasParent@eCNode@@QEBA_NXZ
?HasPortalTo@eCPortalCell_PS@@QEBA_NPEAV1@@Z
?HasPropertySet@eCEntity@@QEBA_NAEBVbCString@@@Z
?HasPropertySet@eCEntity@@QEBA_NW4eEPropertySetType@@@Z
?HasReachedEnd@eCMoverAnimationBase@@QEBA_NXZ
?HasRenderContexts@eCFrustumElementItem@@QEBA_NXZ
?HasScalableMesh@eCCollisionShape_PS@@QEBA?B_NXZ
?HasShapeFreePlace@eCPhysicsScene@@QEBA_NAEBVeCCollisionShape@@AEBVeCGeometryEntity@@PEAVbCMatrix@@_N3M@Z
?HasSingleChild@eCNode@@QEBA_NXZ
?HasStaticPose@eCAnimation_PS@@QEBA_NXZ
?HasTriangleMesh@eCCollisionShape_PS@@QEBA?B_NXZ
?HasVisual@eCEntity@@QEBA_NXZ
?Hide@eCConsole2@@QEAAXXZ
?Hide@eCStatisticScreen@@QEAAXXZ
?Idle@eCMessageHandler@@UEAAXXZ
?Import@eCGfxImageData@@QEAA?AW4bEResult@@AEBVbCString@@_N@Z
?Import@eCResource2@@AEAA_NAEBVbCString@@@Z
?ImportData@eCResource2@@AEAA_NAEAVeCResourceInputStream2@@AEAVeCResourceOutputStream2@@@Z
?ImportFile@eCDocArchive@@AEAA_NAEBVbCString@@@Z
?ImportPath@eCDocArchive@@AEAA_NAEBVbCString@@AEBV?$bTObjArray@VbCString@@@@@Z
?ImportRaw@eCDocArchive@@QEAA_NXZ
?ImportResource@eCResourceCache2@@AEAA_NPEAVeCResource2@@@Z
?IncreaseMasterFrameCounter@eCTimer@@QEAAXXZ
?Init@eCBeamTree@@QEAAXAEBVbCFrustum@@AEBVbCVector@@@Z
?Init@eCBeamTree@@QEAAXAEBVbCMatrix@@_N@Z
?Init@eCCameraBase@@UEAA?AW4bEResult@@AEBVbCRect@@MMM@Z
?Init@eCCameraBase@@UEAA?AW4bEResult@@PEAUHWND__@@MMM@Z
?Init@eCDX9Instance@@UEAA?AW4bEResult@@W4eEAPIType@eCGfxShared@@@Z
?Init@eCLightmapBatcher@@QEAAXHHH@Z
?Init@eCPhysicObjectStateBuffer@@QEAAXXZ
?InitElements@eCGuiButton2@@UEAAXXZ
?InitElements@eCGuiCheckBox2@@UEAAXXZ
?InitElements@eCGuiEdit2@@UEAAXXZ
?InitElements@eCGuiFrame2@@UEAAXXZ
?InitElements@eCGuiGroupBox2@@UEAAXXZ
?InitElements@eCGuiListCtrl2@@UEAAXXZ
?InitElements@eCGuiProgressBar2@@UEAAXXZ
?InitElements@eCGuiPushButton2@@UEAAXXZ
?InitElements@eCGuiRadioButton2@@UEAAXXZ
?InitElements@eCGuiScrollBar2@@UEAAXXZ
?InitElements@eCGuiStatic2@@UEAAXXZ
?InitElements@eCGuiToolTipCtrl2@@UEAAXXZ
?InitElements@eCGuiTrackBar2@@UEAAXXZ
?InitElements@eCGuiWindow2@@UEAAXXZ
?InitResource@eCResourceCache2@@AEAAXPEAVIFFFileSystemNode2@@@Z
?Initialize@eCAnimation2Admin@@UEAA?AW4bEResult@@XZ
?Initialize@eCAreaAdmin@@UEAA?AW4bEResult@@XZ
?Initialize@eCAudioModule@@UEAA?AW4bEResult@@XZ
?Initialize@eCBillboardAdmin@@UEAA?AW4bEResult@@XZ
?Initialize@eCConsole2@@IEAAXXZ
?Initialize@eCDecalAdmin@@UEAA?AW4bEResult@@XZ
?Initialize@eCEngineComponentBase@@UEAA?AW4bEResult@@XZ
?Initialize@eCFileChangeInterface@@QEAAXXZ
?Initialize@eCGfxAdmin@@UEAA?AW4bEResult@@XZ
?Initialize@eCGuiModule2@@UEAA?AW4bEResult@@XZ
?Initialize@eCGuiWindow2@@QEAAXXZ
?Initialize@eCIlluminationAdmin@@UEAA?AW4bEResult@@XZ
?Initialize@eCInputAdmin@@UEAA?AW4bEResult@@XZ
?Initialize@eCInputX360@@QEAAXXZ
?Initialize@eCLocAdmin2@@IEAAXXZ
?Initialize@eCParticle_PS@@IEAAXXZ
?Initialize@eCPhysicsScene@@UEAA?AW4bEResult@@XZ
?Initialize@eCProfilerAdmin@@UEAA?AW4bEResult@@XZ
?Initialize@eCRenderSystemAdmin@@UEAA?AW4bEResult@@XZ
?Initialize@eCResourceModule2@@UEAA?AW4bEResult@@XZ
?Initialize@eCSceneAdmin@@UEAA?AW4bEResult@@XZ
?Initialize@eCShaderMaterialAdmin@@UEAA?AW4bEResult@@XZ
?Initialize@eCSpeedTreeAdmin@@UEAA?AW4bEResult@@XZ
?Initialize@eCStrip_PS@@IEAAXXZ
?Initialize@eCVegetationAdmin@@UEAA?AW4bEResult@@XZ
?Initialize@eCVirtualFileSystem@@QEAA_NAEBVbCCommandLine@@@Z
?Initialize@eCWeatherAdmin@@UEAA?AW4bEResult@@XZ
?InitializeAdmin@eCGfxAdmin@@IEAAXW4eEAPIType@eCGfxShared@@@Z
?InitializeCamera@eCCameraBase@@IEAAXXZ
?InitializeGauge@eCGfxGaugeAdmin@@IEAAXXZ
?InitializeGizmoForPropertySet@eCGizmoBase@@SAXXZ
?Insert@eCLightmapBatcher@@QEAA_NJJJJPEBUeSHorizonRow@1@@Z
?InsertAfter@eCPSMap@@AEAAPEAUeSPSIndexMap@@PEAUSNode@1@AEBUSHash@1@AEBV?$bTValArray@PEAVeCEntityPropertySet@@@@AEBVbCString@@@Z
?InsertChild@eCPackedShadowMap@@IEAAPEAUeSQuadTreeNode@1@PEAU21@E@Z
?InsertEntries@eCVegetationBrush_PS@@IEAAXAEAV?$bTValArray@UeSBrushEntry@eCVegetationBrush_PS@@@@@Z
?InsertEntry@eCVegetation_Grid@@QEAAXAEBUeSVegetationNodeEntry@@@Z
?InsertEntryCheckSpacing@eCVegetation_Grid@@QEAA_NAEBUeSVegetationNodeEntry@@_N1@Z
?InsertItem@eCColorScale@@QEAAHMAEBVbCFloatAlphaColor@@@Z
?InsertItem@eCFloatScale@@QEAAHMM@Z
?InsertItem@eCGuiListCtrl2@@QEAA_NAEAUtagUI_LVITEMW@@@Z
?InsertItem@eCVectorScale@@QEAAHMAEBVbCVector@@@Z
?InsertNewEmptyKey@eCConfigFile_SectionObject@@IEAAAEAVeCConfigFile_KeyObject@@XZ
?InsertNewEmptyKey@eCUnicodeConfigFile_SectionObject@@IEAAAEAVeCUnicodeConfigFile_KeyObject@@XZ
?InsertText@eCLocString@@QEAA_NAEBVbCString@@@Z
?InsertText@eCLocString@@QEAA_NAEBVbCUnicodeString@@@Z
?InsertText@eCLocStringEx@@QEAA_NAEBVbCString@@@Z
?InsertText@eCLocStringEx@@QEAA_NAEBVbCUnicodeString@@@Z
?Intersects@eCOccluder_PS@@UEBA_NAEAVbCFrustum@@@Z
?Intersects@eCPortalCell_PS@@UEBA_NAEAVbCFrustum@@@Z
?Intersects@eCPortalRoom_PS@@UEBA_NAEAVbCFrustum@@@Z
?IntersectsMinSpacing@eCVegetation_Grid@@QEAA_NAEBVbCPoint@@AEBUeSVegetationNodeEntry@@_NPEAV?$bTValArray@H@@@Z
?IntersectsMinSpacing@eCVegetation_GridNode@@IEAA_NAEBUeSVegetationNodeEntry@@_NPEAV?$bTValArray@H@@@Z
?IntersectsRay@eCAnimation_PS@@UEBA_NAEAUeSRayIntersectionDesc@@AEBVbCMatrix@@PEAPEAVeCCollisionDesc@@@Z
?IntersectsRay@eCArea_StringProperty_PS@@MEBA_NAEAUeSRayIntersectionDesc@@AEBVbCMatrix@@PEAPEAVeCCollisionDesc@@@Z
?IntersectsRay@eCBillboard@@QEBA_NAEAUeSRayIntersectionDesc@@PEAPEAVeCCollisionDesc@@@Z
?IntersectsRay@eCBillboard_PS@@UEBA_NAEAUeSRayIntersectionDesc@@AEBVbCMatrix@@PEAPEAVeCCollisionDesc@@@Z
?IntersectsRay@eCCollisionShape@@QEAA_NAEBVbCRay@@@Z
