EXPORTS
??0Achievement@@QEAA@XZ
??0Effect@@AEAA@AEBV0@@Z
??0Effect@@AEAA@PEAVgCEffect@@@Z
??0EffectSystem@@QEAA@XZ
??0Entity@@QEAA@AEBV0@@Z
??0Entity@@QEAA@AEBVeCEntityProxy@@@Z
??0Entity@@QEAA@PEBVeCEntity@@@Z
??0Entity@@QEAA@XZ
??0Focus@@QEAA@AEBV0@@Z
??0Focus@@QEAA@XZ
??0GUI2@@QEAA@XZ
??0InfComAttack@@QEAA@AEBV0@@Z
??0InfComAttack@@QEAA@XZ
??0InfComHeal@@QEAA@AEBV0@@Z
??0InfComHeal@@QEAA@XZ
??0InfComInfoWait@@QEAA@AEBV0@@Z
??0InfComInfoWait@@QEAA@XZ
??0InfComPickPocket@@QEAA@AEBV0@@Z
??0InfComPickPocket@@QEAA@XZ
??0InfComRunAIScript@@QEAA@AEBV0@@Z
??0InfComRunAIScript@@QEAA@XZ
??0InfComSay@@QEAA@AEBV0@@Z
??0InfComSay@@QEAA@XZ
??0InfComSayConfirm@@QEAA@AEBV0@@Z
??0InfComSayConfirm@@QEAA@XZ
??0InfComSayHoldingPosition@@QEAA@AEBV0@@Z
??0InfComSayHoldingPosition@@QEAA@XZ
??0InfComSayKeepItUp@@QEAA@AEBV0@@Z
??0InfComSayKeepItUp@@QEAA@XZ
??0InfComSaySVM@@QEAA@AEBV0@@Z
??0InfComSaySVM@@QEAA@XZ
??0InfComSaySound@@QEAA@AEBV0@@Z
??0InfComSaySound@@QEAA@XZ
??0InfComSetSectorStatus@@QEAA@AEBV0@@Z
??0InfComSetSectorStatus@@QEAA@XZ
??0InfComSleep@@QEAA@AEBV0@@Z
??0InfComSleep@@QEAA@XZ
??0InfComThink@@QEAA@AEBV0@@Z
??0InfComThink@@QEAA@XZ
??0InfComUse@@QEAA@AEBV0@@Z
??0InfComUse@@QEAA@XZ
??0InfoSystem@@QEAA@XZ
??0Input@@QEAA@XZ
??0Music@@QEAA@XZ
??0ScriptActionTimer@@QEAA@XZ
??0ScriptCommentManager@@QEAA@XZ
??0ScriptDestinationCollector@@QEAA@AEBV0@@Z
??0ScriptDestinationCollector@@QEAA@AEBVEntity@@@Z
??0ScriptDestinationCollector@@QEAA@AEBVEntity@@_N@Z
??0Template@@QEAA@AEBV0@@Z
??0Template@@QEAA@AEBVEntity@@@Z
??0Template@@QEAA@AEBVbCPropertyID@@@Z
??0Template@@QEAA@AEBVeCTemplateEntityProxy@@@Z
??0Template@@QEAA@PEBD@Z
??0Template@@QEAA@XZ
??0Tutorial@@QEAA@XZ
??0World@@QEAA@XZ
??1Achievement@@QEAA@XZ
??1EffectSystem@@QEAA@XZ
??1Entity@@QEAA@XZ
??1Focus@@QEAA@XZ
??1GUI2@@QEAA@XZ
??1InfComAttack@@UEAA@XZ
??1InfComHeal@@UEAA@XZ
??1InfComInfoWait@@UEAA@XZ
??1InfComPickPocket@@UEAA@XZ
??1InfComRunAIScript@@UEAA@XZ
??1InfComSay@@UEAA@XZ
??1InfComSayConfirm@@UEAA@XZ
??1InfComSayHoldingPosition@@UEAA@XZ
??1InfComSayKeepItUp@@UEAA@XZ
??1InfComSaySVM@@UEAA@XZ
??1InfComSaySound@@UEAA@XZ
??1InfComSetSectorStatus@@UEAA@XZ
??1InfComSleep@@UEAA@XZ
??1InfComThink@@UEAA@XZ
??1InfComUse@@UEAA@XZ
??1InfoSystem@@QEAA@XZ
??1Input@@QEAA@XZ
??1Music@@QEAA@XZ
??1ScriptActionTimer@@QEAA@XZ
??1ScriptCommentManager@@QEAA@XZ
??1ScriptDestinationCollector@@QEAA@XZ
??1Template@@QEAA@XZ
??1Tutorial@@QEAA@XZ
??1World@@QEAA@XZ
??4Achievement@@QEAAAEAV0@AEBV0@@Z
??4Effect@@QEAAAEAV0@AEBV0@@Z
??4EffectSystem@@QEAAAEAV0@AEBV0@@Z
??4Entity@@QEAAAEAV0@AEBV0@@Z
??4Focus@@QEAAAEAV0@AEBV0@@Z
??4GUI2@@QEAAAEAV0@AEBV0@@Z
??4InfComAttack@@QEAAAEAV0@AEBV0@@Z
??4InfComHeal@@QEAAAEAV0@AEBV0@@Z
??4InfComInfoWait@@QEAAAEAV0@AEBV0@@Z
??4InfComPickPocket@@QEAAAEAV0@AEBV0@@Z
??4InfComRunAIScript@@QEAAAEAV0@AEBV0@@Z
??4InfComSay@@QEAAAEAV0@AEBV0@@Z
??4InfComSayConfirm@@QEAAAEAV0@AEBV0@@Z
??4InfComSayHoldingPosition@@QEAAAEAV0@AEBV0@@Z
??4InfComSayKeepItUp@@QEAAAEAV0@AEBV0@@Z
??4InfComSaySVM@@QEAAAEAV0@AEBV0@@Z
??4InfComSaySound@@QEAAAEAV0@AEBV0@@Z
??4InfComSetSectorStatus@@QEAAAEAV0@AEBV0@@Z
??4InfComSleep@@QEAAAEAV0@AEBV0@@Z
??4InfComThink@@QEAAAEAV0@AEBV0@@Z
??4InfComUse@@QEAAAEAV0@AEBV0@@Z
??4InfoSystem@@QEAAAEAV0@AEBV0@@Z
??4Input@@QEAAAEAV0@AEBV0@@Z
??4Music@@QEAAAEAV0@AEBV0@@Z
??4PSAIZone@@QEAAAEAV0@$$QEAV0@@Z
??4PSAIZone@@QEAAAEAV0@AEBV0@@Z
??4PSAnchor@@QEAAAEAV0@$$QEAV0@@Z
??4PSAnchor@@QEAAAEAV0@AEBV0@@Z
??4PSAnimation@@QEAAAEAV0@$$QEAV0@@Z
??4PSAnimation@@QEAAAEAV0@AEBV0@@Z
??4PSArea@@QEAAAEAV0@$$QEAV0@@Z
??4PSArea@@QEAAAEAV0@AEBV0@@Z
??4PSArena@@QEAAAEAV0@$$QEAV0@@Z
??4PSArena@@QEAAAEAV0@AEBV0@@Z
??4PSBook@@QEAAAEAV0@$$QEAV0@@Z
??4PSBook@@QEAAAEAV0@AEBV0@@Z
??4PSCastInfo@@QEAAAEAV0@$$QEAV0@@Z
??4PSCastInfo@@QEAAAEAV0@AEBV0@@Z
??4PSCharacterMovement@@QEAAAEAV0@$$QEAV0@@Z
??4PSCharacterMovement@@QEAAAEAV0@AEBV0@@Z
??4PSClock@@QEAAAEAV0@$$QEAV0@@Z
??4PSClock@@QEAAAEAV0@AEBV0@@Z
??4PSCollisionShape@@QEAAAEAV0@$$QEAV0@@Z
??4PSCollisionShape@@QEAAAEAV0@AEBV0@@Z
??4PSCombatSystem@@QEAAAEAV0@$$QEAV0@@Z
??4PSCombatSystem@@QEAAAEAV0@AEBV0@@Z
??4PSDamage@@QEAAAEAV0@$$QEAV0@@Z
??4PSDamage@@QEAAAEAV0@AEBV0@@Z
??4PSDialog@@QEAAAEAV0@$$QEAV0@@Z
??4PSDialog@@QEAAAEAV0@AEBV0@@Z
??4PSDoor@@QEAAAEAV0@$$QEAV0@@Z
??4PSDoor@@QEAAAEAV0@AEBV0@@Z
??4PSEffect@@QEAAAEAV0@$$QEAV0@@Z
??4PSEffect@@QEAAAEAV0@AEBV0@@Z
??4PSInteraction@@QEAAAEAV0@$$QEAV0@@Z
??4PSInteraction@@QEAAAEAV0@AEBV0@@Z
??4PSInventory@@QEAAAEAV0@$$QEAV0@@Z
??4PSInventory@@QEAAAEAV0@AEBV0@@Z
??4PSItem@@QEAAAEAV0@$$QEAV0@@Z
??4PSItem@@QEAAAEAV0@AEBV0@@Z
??4PSLetter@@QEAAAEAV0@$$QEAV0@@Z
??4PSLetter@@QEAAAEAV0@AEBV0@@Z
??4PSLock@@QEAAAEAV0@$$QEAV0@@Z
??4PSLock@@QEAAAEAV0@AEBV0@@Z
??4PSMap@@QEAAAEAV0@$$QEAV0@@Z
??4PSMap@@QEAAAEAV0@AEBV0@@Z
??4PSMover@@QEAAAEAV0@$$QEAV0@@Z
??4PSMover@@QEAAAEAV0@AEBV0@@Z
??4PSNavigation@@QEAAAEAV0@$$QEAV0@@Z
??4PSNavigation@@QEAAAEAV0@AEBV0@@Z
??4PSNpc@@QEAAAEAV0@$$QEAV0@@Z
??4PSNpc@@QEAAAEAV0@AEBV0@@Z
??4PSParticle@@QEAAAEAV0@$$QEAV0@@Z
??4PSParticle@@QEAAAEAV0@AEBV0@@Z
??4PSParty@@QEAAAEAV0@$$QEAV0@@Z
??4PSParty@@QEAAAEAV0@AEBV0@@Z
??4PSProjectile@@QEAAAEAV0@$$QEAV0@@Z
??4PSProjectile@@QEAAAEAV0@AEBV0@@Z
??4PSRecipe@@QEAAAEAV0@$$QEAV0@@Z
??4PSRecipe@@QEAAAEAV0@AEBV0@@Z
??4PSRigidBody@@QEAAAEAV0@$$QEAV0@@Z
??4PSRigidBody@@QEAAAEAV0@AEBV0@@Z
??4PSRoutine@@QEAAAEAV0@$$QEAV0@@Z
??4PSRoutine@@QEAAAEAV0@AEBV0@@Z
??4PSSkills@@QEAAAEAV0@$$QEAV0@@Z
??4PSSkills@@QEAAAEAV0@AEBV0@@Z
??4PSStateGraph@@QEAAAEAV0@$$QEAV0@@Z
??4PSStateGraph@@QEAAAEAV0@AEBV0@@Z
??4PSStrip@@QEAAAEAV0@$$QEAV0@@Z
??4PSStrip@@QEAAAEAV0@AEBV0@@Z
??4PropertyAIDelay@PSRoutine@@QEAAAEAV01@$$QEAV01@@Z
??4PropertyAIDelay@PSRoutine@@QEAAAEAV01@AEBJ@Z
??4PropertyAIDelay@PSRoutine@@QEAAAEAV01@AEBV01@@Z
??4PropertyAIMode@PSRoutine@@QEAAAEAV01@$$QEAV01@@Z
??4PropertyAIMode@PSRoutine@@QEAAAEAV01@AEBV01@@Z
??4PropertyAIMode@PSRoutine@@QEAAAEAV01@AEBW4gEAIMode@@@Z
??4PropertyAcceleration@PSParticle@@QEAAAEAV01@$$QEAV01@@Z
??4PropertyAcceleration@PSParticle@@QEAAAEAV01@AEBV01@@Z
??4PropertyAcceleration@PSParticle@@QEAAAEAV01@AEBVbCVector@@@Z
??4PropertyActionString@PSRoutine@@QEAAAEAV01@$$QEAV01@@Z
??4PropertyActionString@PSRoutine@@QEAAAEAV01@AEBV01@@Z
??4PropertyActionString@PSRoutine@@QEAAAEAV01@AEBVbCString@@@Z
??4PropertyActiveFightAI@PSCombatSystem@@QEAAAEAV01@$$QEAV01@@Z
??4PropertyActiveFightAI@PSCombatSystem@@QEAAAEAV01@AEBV01@@Z
??4PropertyActiveFightAI@PSCombatSystem@@QEAAAEAV01@AEBVbCString@@@Z
??4PropertyAlphaReference@PSParticle@@QEAAAEAV01@$$QEAV01@@Z
??4PropertyAlphaReference@PSParticle@@QEAAAEAV01@AEBE@Z
??4PropertyAlphaReference@PSParticle@@QEAAAEAV01@AEBV01@@Z
??4PropertyAlphaTest@PSParticle@@QEAAAEAV01@$$QEAV01@@Z
??4PropertyAlphaTest@PSParticle@@QEAAAEAV01@AEBV01@@Z
??4PropertyAlphaTest@PSParticle@@QEAAAEAV01@AEB_N@Z
??4PropertyAmbientAction@PSRoutine@@QEAAAEAV01@$$QEAV01@@Z
??4PropertyAmbientAction@PSRoutine@@QEAAAEAV01@AEBV01@@Z
??4PropertyAmbientAction@PSRoutine@@QEAAAEAV01@AEBW4gEAmbientAction@@@Z
??4PropertyAnchorType@PSAnchor@@QEAAAEAV01@$$QEAV01@@Z
??4PropertyAnchorType@PSAnchor@@QEAAAEAV01@AEBV01@@Z
??4PropertyAnchorType@PSAnchor@@QEAAAEAV01@AEBW4gEAnchorType@@@Z
??4PropertyAngularDamping@PSRigidBody@@QEAAAEAV01@$$QEAV01@@Z
??4PropertyAngularDamping@PSRigidBody@@QEAAAEAV01@AEBM@Z
??4PropertyAngularDamping@PSRigidBody@@QEAAAEAV01@AEBV01@@Z
??4PropertyAnimationBearing@PSNpc@@QEAAAEAV01@$$QEAV01@@Z
??4PropertyAnimationBearing@PSNpc@@QEAAAEAV01@AEBV01@@Z
??4PropertyAnimationBearing@PSNpc@@QEAAAEAV01@AEBVbCString@@@Z
??4PropertyAttitudeLock@PSNpc@@QEAAAEAV01@$$QEAV01@@Z
??4PropertyAttitudeLock@PSNpc@@QEAAAEAV01@AEBV01@@Z
??4PropertyAttitudeLock@PSNpc@@QEAAAEAV01@AEBW4gEAttitude@@@Z
??4PropertyAutoKill@PSParticle@@QEAAAEAV01@$$QEAV01@@Z
??4PropertyAutoKill@PSParticle@@QEAAAEAV01@AEBV01@@Z
??4PropertyAutoRejoin@PSParty@@QEAAAEAV01@$$QEAV01@@Z
??4PropertyAutoRejoin@PSParty@@QEAAAEAV01@AEBV01@@Z
??4PropertyAutoRejoin@PSParty@@QEAAAEAV01@AEB_N@Z
??4PropertyAutoReset@PSParticle@@QEAAAEAV01@$$QEAV01@@Z
??4PropertyAutoReset@PSParticle@@QEAAAEAV01@AEBV01@@Z
??4PropertyAutoReset@PSParticle@@QEAAAEAV01@AEB_N@Z
??4PropertyAutomaticSpawning@PSParticle@@QEAAAEAV01@$$QEAV01@@Z
??4PropertyAutomaticSpawning@PSParticle@@QEAAAEAV01@AEBV01@@Z
??4PropertyAutomaticSpawning@PSParticle@@QEAAAEAV01@AEB_N@Z
??4PropertyBallisticDeactivationVelocity@PSProjectile@@QEAAAEAV01@$$QEAV01@@Z
??4PropertyBallisticDeactivationVelocity@PSProjectile@@QEAAAEAV01@AEBM@Z
??4PropertyBallisticDeactivationVelocity@PSProjectile@@QEAAAEAV01@AEBV01@@Z
??4PropertyBallisticGravity@PSProjectile@@QEAAAEAV01@$$QEAV01@@Z
??4PropertyBallisticGravity@PSProjectile@@QEAAAEAV01@AEBM@Z
??4PropertyBallisticGravity@PSProjectile@@QEAAAEAV01@AEBV01@@Z
??4PropertyBallisticVelocityLoss@PSProjectile@@QEAAAEAV01@$$QEAV01@@Z
??4PropertyBallisticVelocityLoss@PSProjectile@@QEAAAEAV01@AEBM@Z
??4PropertyBallisticVelocityLoss@PSProjectile@@QEAAAEAV01@AEBV01@@Z
??4PropertyBlendBetweenSubdivisions@PSParticle@@QEAAAEAV01@$$QEAV01@@Z
??4PropertyBlendBetweenSubdivisions@PSParticle@@QEAAAEAV01@AEBV01@@Z
??4PropertyBlendBetweenSubdivisions@PSParticle@@QEAAAEAV01@AEB_N@Z
??4PropertyBodyFlag@PSRigidBody@@QEAAAEAV01@$$QEAV01@@Z
??4PropertyBodyFlag@PSRigidBody@@QEAAAEAV01@AEBV01@@Z
??4PropertyBodyFlag@PSRigidBody@@QEAAAEAV01@AEBW4eERigidbody_Flag@@@Z
??4PropertyBraveryOverride@PSNpc@@QEAAAEAV01@$$QEAV01@@Z
??4PropertyBraveryOverride@PSNpc@@QEAAAEAV01@AEBV01@@Z
??4PropertyBraveryOverride@PSNpc@@QEAAAEAV01@AEBW4gEBraveryOverride@@@Z
??4PropertyCanBePushedWhileIdle@PSCharacterMovement@@QEAAAEAV01@$$QEAV01@@Z
??4PropertyCanBePushedWhileIdle@PSCharacterMovement@@QEAAAEAV01@AEBV01@@Z
??4PropertyCanBePushedWhileIdle@PSCharacterMovement@@QEAAAEAV01@AEB_N@Z
??4PropertyCastAmmo@PSCastInfo@@QEAAAEAV01@$$QEAV01@@Z
??4PropertyCastAmmo@PSCastInfo@@QEAAAEAV01@AEBV01@@Z
??4PropertyCastAmmo@PSCastInfo@@QEAAAEAV01@AEBVTemplate@@@Z
??4PropertyCastFail@PSCastInfo@@QEAAAEAV01@$$QEAV01@@Z
??4PropertyCastFail@PSCastInfo@@QEAAAEAV01@AEBV01@@Z
??4PropertyCastFail@PSCastInfo@@QEAAAEAV01@AEBVTemplate@@@Z
??4PropertyCastInfo@PSCastInfo@@QEAAAEAV01@$$QEAV01@@Z
??4PropertyCastInfo@PSCastInfo@@QEAAAEAV01@AEBV01@@Z
??4PropertyCastInfo@PSCastInfo@@QEAAAEAV01@AEBVbCString@@@Z
??4PropertyCastItem@PSCastInfo@@QEAAAEAV01@$$QEAV01@@Z
??4PropertyCastItem@PSCastInfo@@QEAAAEAV01@AEBV01@@Z
??4PropertyCastItem@PSCastInfo@@QEAAAEAV01@AEBVTemplate@@@Z
??4PropertyCollideWithCharacters@PSParticle@@QEAAAEAV01@$$QEAV01@@Z
??4PropertyCollideWithCharacters@PSParticle@@QEAAAEAV01@AEBV01@@Z
??4PropertyCollideWithCharacters@PSParticle@@QEAAAEAV01@AEB_N@Z
??4PropertyCollideWithDynamic@PSParticle@@QEAAAEAV01@$$QEAV01@@Z
??4PropertyCollideWithDynamic@PSParticle@@QEAAAEAV01@AEBV01@@Z
??4PropertyCollideWithDynamic@PSParticle@@QEAAAEAV01@AEB_N@Z
??4PropertyCollideWithStatic@PSParticle@@QEAAAEAV01@$$QEAV01@@Z
??4PropertyCollideWithStatic@PSParticle@@QEAAAEAV01@AEBV01@@Z
??4PropertyCollideWithStatic@PSParticle@@QEAAAEAV01@AEB_N@Z
??4PropertyCollideWithTransparent@PSParticle@@QEAAAEAV01@$$QEAV01@@Z
??4PropertyCollideWithTransparent@PSParticle@@QEAAAEAV01@AEBV01@@Z
??4PropertyCollideWithTransparent@PSParticle@@QEAAAEAV01@AEB_N@Z
??4PropertyColorScaleRepeats@PSParticle@@QEAAAEAV01@$$QEAV01@@Z
??4PropertyColorScaleRepeats@PSParticle@@QEAAAEAV01@AEBM@Z
??4PropertyColorScaleRepeats@PSParticle@@QEAAAEAV01@AEBV01@@Z
??4PropertyCommandTime@PSRoutine@@QEAAAEAV01@$$QEAV01@@Z
??4PropertyCommandTime@PSRoutine@@QEAAAEAV01@AEBJ@Z
??4PropertyCommandTime@PSRoutine@@QEAAAEAV01@AEBV01@@Z
??4PropertyConsumeItem@PSCastInfo@@QEAAAEAV01@$$QEAV01@@Z
??4PropertyConsumeItem@PSCastInfo@@QEAAAEAV01@AEBV01@@Z
??4PropertyConsumeItem@PSCastInfo@@QEAAAEAV01@AEB_N@Z
??4PropertyCoordinateSystem@PSParticle@@QEAAAEAV01@$$QEAV01@@Z
??4PropertyCoordinateSystem@PSParticle@@QEAAAEAV01@AEBV01@@Z
??4PropertyCoordinateSystem@PSParticle@@QEAAAEAV01@AEBW4eECoordinateSystem@@@Z
??4PropertyCraft@PSRecipe@@QEAAAEAV01@$$QEAV01@@Z
??4PropertyCraft@PSRecipe@@QEAAAEAV01@AEBV01@@Z
??4PropertyCraft@PSRecipe@@QEAAAEAV01@AEBW4gERecipeCategory@@@Z
??4PropertyCurrentAniDirection@PSNavigation@@QEAAAEAV01@$$QEAV01@@Z
??4PropertyCurrentAniDirection@PSNavigation@@QEAAAEAV01@AEBV01@@Z
??4PropertyCurrentAniDirection@PSNavigation@@QEAAAEAV01@AEBW4gEDirection@@@Z
??4PropertyDamageAmount@PSDamage@@QEAAAEAV01@$$QEAV01@@Z
??4PropertyDamageAmount@PSDamage@@QEAAAEAV01@AEBJ@Z
??4PropertyDamageAmount@PSDamage@@QEAAAEAV01@AEBV01@@Z
??4PropertyDamageBonus@PSDamage@@QEAAAEAV01@$$QEAV01@@Z
??4PropertyDamageBonus@PSDamage@@QEAAAEAV01@AEBJ@Z
??4PropertyDamageBonus@PSDamage@@QEAAAEAV01@AEBV01@@Z
??4PropertyDamageCalculationType@PSNpc@@QEAAAEAV01@$$QEAV01@@Z
??4PropertyDamageCalculationType@PSNpc@@QEAAAEAV01@AEBV01@@Z
??4PropertyDamageCalculationType@PSNpc@@QEAAAEAV01@AEBW4gEDamageCalculationType@@@Z
??4PropertyDamageMultiplier@PSDamage@@QEAAAEAV01@$$QEAV01@@Z
??4PropertyDamageMultiplier@PSDamage@@QEAAAEAV01@AEBM@Z
??4PropertyDamageMultiplier@PSDamage@@QEAAAEAV01@AEBV01@@Z
??4PropertyDamageType@PSDamage@@QEAAAEAV01@$$QEAV01@@Z
??4PropertyDamageType@PSDamage@@QEAAAEAV01@AEBV01@@Z
??4PropertyDamageType@PSDamage@@QEAAAEAV01@AEBW4gEDamageType@@@Z
??4PropertyDampingFactor@PSParticle@@QEAAAEAV01@$$QEAV01@@Z
??4PropertyDampingFactor@PSParticle@@QEAAAEAV01@AEBV01@@Z
??4PropertyDampingFactor@PSParticle@@QEAAAEAV01@AEBVbCRange3@@@Z
??4PropertyDefeatedByPlayer@PSNpc@@QEAAAEAV01@$$QEAV01@@Z
??4PropertyDefeatedByPlayer@PSNpc@@QEAAAEAV01@AEBV01@@Z
??4PropertyDefeatedByPlayer@PSNpc@@QEAAAEAV01@AEB_N@Z
??4PropertyDepthTest@PSParticle@@QEAAAEAV01@$$QEAV01@@Z
??4PropertyDepthTest@PSParticle@@QEAAAEAV01@AEBV01@@Z
??4PropertyDepthTest@PSParticle@@QEAAAEAV01@AEB_N@Z
??4PropertyDepthWrite@PSParticle@@QEAAAEAV01@$$QEAV01@@Z
??4PropertyDepthWrite@PSParticle@@QEAAAEAV01@AEBV01@@Z
??4PropertyDepthWrite@PSParticle@@QEAAAEAV01@AEB_N@Z
??4PropertyDifficulty@PSLock@@QEAAAEAV01@$$QEAV01@@Z
??4PropertyDifficulty@PSLock@@QEAAAEAV01@AEBH@Z
??4PropertyDifficulty@PSLock@@QEAAAEAV01@AEBV01@@Z
??4PropertyDisableFogging@PSParticle@@QEAAAEAV01@$$QEAV01@@Z
??4PropertyDisableFogging@PSParticle@@QEAAAEAV01@AEBV01@@Z
??4PropertyDisableFogging@PSParticle@@QEAAAEAV01@AEB_N@Z
??4PropertyDisableRotation@PSCharacterMovement@@QEAAAEAV01@$$QEAV01@@Z
??4PropertyDisableRotation@PSCharacterMovement@@QEAAAEAV01@AEBV01@@Z
??4PropertyDisableRotation@PSCharacterMovement@@QEAAAEAV01@AEB_N@Z
??4PropertyDisableTranslation@PSCharacterMovement@@QEAAAEAV01@$$QEAV01@@Z
??4PropertyDisableTranslation@PSCharacterMovement@@QEAAAEAV01@AEBV01@@Z
??4PropertyDisableTranslation@PSCharacterMovement@@QEAAAEAV01@AEB_N@Z
??4PropertyDiscovered@PSNpc@@QEAAAEAV01@$$QEAV01@@Z
??4PropertyDiscovered@PSNpc@@QEAAAEAV01@AEBV01@@Z
??4PropertyDiscovered@PSNpc@@QEAAAEAV01@AEB_N@Z
??4PropertyDistanceToImpact@PSProjectile@@QEAAAEAV01@$$QEAV01@@Z
??4PropertyDistanceToImpact@PSProjectile@@QEAAAEAV01@AEBM@Z
??4PropertyDistanceToImpact@PSProjectile@@QEAAAEAV01@AEBV01@@Z
??4PropertyDrawStyle@PSParticle@@QEAAAEAV01@$$QEAV01@@Z
??4PropertyDrawStyle@PSParticle@@QEAAAEAV01@AEBV01@@Z
??4PropertyDrawStyle@PSParticle@@QEAAAEAV01@AEBW4eETextureDrawStyle@@@Z
??4PropertyDropped@PSItem@@QEAAAEAV01@$$QEAV01@@Z
??4PropertyDropped@PSItem@@QEAAAEAV01@AEBV01@@Z
??4PropertyDropped@PSItem@@QEAAAEAV01@AEB_N@Z
??4PropertyEffectMaterial@PSItem@@QEAAAEAV01@$$QEAV01@@Z
??4PropertyEffectMaterial@PSItem@@QEAAAEAV01@AEBV01@@Z
??4PropertyEffectMaterial@PSItem@@QEAAAEAV01@AEBVbCString@@@Z
??4PropertyEffectMaterial@PSNpc@@QEAAAEAV01@$$QEAV01@@Z
??4PropertyEffectMaterial@PSNpc@@QEAAAEAV01@AEBV01@@Z
??4PropertyEffectMaterial@PSNpc@@QEAAAEAV01@AEBVbCString@@@Z
??4PropertyEffectSpecies@PSNpc@@QEAAAEAV01@$$QEAV01@@Z
??4PropertyEffectSpecies@PSNpc@@QEAAAEAV01@AEBV01@@Z
??4PropertyEffectSpecies@PSNpc@@QEAAAEAV01@AEBVbCString@@@Z
??4PropertyEnabled@PSEffect@@QEAAAEAV01@$$QEAV01@@Z
??4PropertyEnabled@PSEffect@@QEAAAEAV01@AEBV01@@Z
??4PropertyEnabled@PSEffect@@QEAAAEAV01@AEB_N@Z
??4PropertyEnabled@PSParticle@@QEAAAEAV01@$$QEAV01@@Z
??4PropertyEnabled@PSParticle@@QEAAAEAV01@AEBV01@@Z
??4PropertyEnabled@PSParticle@@QEAAAEAV01@AEB_N@Z
??4PropertyEnabled@PSStrip@@QEAAAEAV01@$$QEAV01@@Z
??4PropertyEnabled@PSStrip@@QEAAAEAV01@AEBV01@@Z
??4PropertyEnabled@PSStrip@@QEAAAEAV01@AEB_N@Z
??4PropertyEndAttackTimestamp@PSRoutine@@QEAAAEAV01@$$QEAV01@@Z
??4PropertyEndAttackTimestamp@PSRoutine@@QEAAAEAV01@AEBM@Z
??4PropertyEndAttackTimestamp@PSRoutine@@QEAAAEAV01@AEBV01@@Z
??4PropertyEndDialogTimestamp@PSDialog@@QEAAAEAV01@$$QEAV01@@Z
??4PropertyEndDialogTimestamp@PSDialog@@QEAAAEAV01@AEBM@Z
??4PropertyEndDialogTimestamp@PSDialog@@QEAAAEAV01@AEBV01@@Z
??4PropertyEnterROIScript@PSInteraction@@QEAAAEAV01@$$QEAV01@@Z
??4PropertyEnterROIScript@PSInteraction@@QEAAAEAV01@AEBV01@@Z
??4PropertyEnterROIScript@PSInteraction@@QEAAAEAV01@AEBVeCScriptProxyScript@@@Z
??4PropertyExitROIScript@PSInteraction@@QEAAAEAV01@$$QEAV01@@Z
??4PropertyExitROIScript@PSInteraction@@QEAAAEAV01@AEBV01@@Z
??4PropertyExitROIScript@PSInteraction@@QEAAAEAV01@AEBVeCScriptProxyScript@@@Z
??4PropertyExtentMultiplier@PSParticle@@QEAAAEAV01@$$QEAV01@@Z
??4PropertyExtentMultiplier@PSParticle@@QEAAAEAV01@AEBV01@@Z
??4PropertyExtentMultiplier@PSParticle@@QEAAAEAV01@AEBVbCVector@@@Z
??4PropertyFaceInFactor@PSParticle@@QEAAAEAV01@$$QEAV01@@Z
??4PropertyFaceInFactor@PSParticle@@QEAAAEAV01@AEBV01@@Z
??4PropertyFaceInFactor@PSParticle@@QEAAAEAV01@AEBVbCFloatAlphaColor@@@Z
??4PropertyFaceOutFactor@PSParticle@@QEAAAEAV01@$$QEAV01@@Z
??4PropertyFaceOutFactor@PSParticle@@QEAAAEAV01@AEBV01@@Z
??4PropertyFaceOutFactor@PSParticle@@QEAAAEAV01@AEBVbCFloatAlphaColor@@@Z
??4PropertyFacingDirection@PSParticle@@QEAAAEAV01@$$QEAV01@@Z
??4PropertyFacingDirection@PSParticle@@QEAAAEAV01@AEBV01@@Z
??4PropertyFacingDirection@PSParticle@@QEAAAEAV01@AEBW4eEFacingDirection@@@Z
??4PropertyFadeIn@PSParticle@@QEAAAEAV01@$$QEAV01@@Z
??4PropertyFadeIn@PSParticle@@QEAAAEAV01@AEBV01@@Z
??4PropertyFadeIn@PSParticle@@QEAAAEAV01@AEB_N@Z
??4PropertyFadeInEndTime@PSParticle@@QEAAAEAV01@$$QEAV01@@Z
??4PropertyFadeInEndTime@PSParticle@@QEAAAEAV01@AEBM@Z
??4PropertyFadeInEndTime@PSParticle@@QEAAAEAV01@AEBV01@@Z
??4PropertyFadeOut@PSParticle@@QEAAAEAV01@$$QEAV01@@Z
??4PropertyFadeOut@PSParticle@@QEAAAEAV01@AEBV01@@Z
??4PropertyFadeOut@PSParticle@@QEAAAEAV01@AEB_N@Z
??4PropertyFadeOutStartTime@PSParticle@@QEAAAEAV01@$$QEAV01@@Z
??4PropertyFadeOutStartTime@PSParticle@@QEAAAEAV01@AEBM@Z
??4PropertyFadeOutStartTime@PSParticle@@QEAAAEAV01@AEBV01@@Z
??4PropertyFightAIMode@PSCombatSystem@@QEAAAEAV01@$$QEAV01@@Z
??4PropertyFightAIMode@PSCombatSystem@@QEAAAEAV01@AEBV01@@Z
??4PropertyFightAIMode@PSCombatSystem@@QEAAAEAV01@AEBW4gECombatFightAIMode@@@Z
??4PropertyFlightPathType@PSProjectile@@QEAAAEAV01@$$QEAV01@@Z
??4PropertyFlightPathType@PSProjectile@@QEAAAEAV01@AEBV01@@Z
??4PropertyFlightPathType@PSProjectile@@QEAAAEAV01@AEBW4gEFlightPathType@@@Z
??4PropertyFocusMode@PSCastInfo@@QEAAAEAV01@$$QEAV01@@Z
??4PropertyFocusMode@PSCastInfo@@QEAAAEAV01@AEBV01@@Z
??4PropertyFocusMode@PSCastInfo@@QEAAAEAV01@AEBVbCString@@@Z
??4PropertyFocusNameType@PSInteraction@@QEAAAEAV01@$$QEAV01@@Z
??4PropertyFocusNameType@PSInteraction@@QEAAAEAV01@AEBV01@@Z
??4PropertyFocusNameType@PSInteraction@@QEAAAEAV01@AEBW4gEFocusNameType@@@Z
??4PropertyForceGroundAlignment@PSCharacterMovement@@QEAAAEAV01@$$QEAV01@@Z
??4PropertyForceGroundAlignment@PSCharacterMovement@@QEAAAEAV01@AEBV01@@Z
??4PropertyForceGroundAlignment@PSCharacterMovement@@QEAAAEAV01@AEB_N@Z
??4PropertyGender@PSNpc@@QEAAAEAV01@$$QEAV01@@Z
??4PropertyGender@PSNpc@@QEAAAEAV01@AEBV01@@Z
??4PropertyGender@PSNpc@@QEAAAEAV01@AEBW4gEGender@@@Z
??4PropertyGroundBias@PSInteraction@@QEAAAEAV01@$$QEAV01@@Z
??4PropertyGroundBias@PSInteraction@@QEAAAEAV01@AEBV01@@Z
??4PropertyGroundBias@PSInteraction@@QEAAAEAV01@AEB_N@Z
??4PropertyGroup@PSAIZone@@QEAAAEAV01@$$QEAV01@@Z
??4PropertyGroup@PSAIZone@@QEAAAEAV01@AEBV01@@Z
??4PropertyGroup@PSAIZone@@QEAAAEAV01@AEBVbCString@@@Z
??4PropertyGroup@PSNpc@@QEAAAEAV01@$$QEAV01@@Z
??4PropertyGroup@PSNpc@@QEAAAEAV01@AEBV01@@Z
??4PropertyGroup@PSNpc@@QEAAAEAV01@AEBVbCString@@@Z
??4PropertyGuardStatus@PSNpc@@QEAAAEAV01@$$QEAV01@@Z
??4PropertyGuardStatus@PSNpc@@QEAAAEAV01@AEBV01@@Z
??4PropertyGuardStatus@PSNpc@@QEAAAEAV01@AEBW4gEGuardStatus@@@Z
??4PropertyGuideWalkMode@PSNavigation@@QEAAAEAV01@$$QEAV01@@Z
??4PropertyGuideWalkMode@PSNavigation@@QEAAAEAV01@AEBV01@@Z
??4PropertyGuideWalkMode@PSNavigation@@QEAAAEAV01@AEBW4gEWalkMode@@@Z
??4PropertyGuild@PSAIZone@@QEAAAEAV01@$$QEAV01@@Z
??4PropertyGuild@PSAIZone@@QEAAAEAV01@AEBV01@@Z
??4PropertyGuild@PSAIZone@@QEAAAEAV01@AEBW4gEGuild@@@Z
??4PropertyGuild@PSNpc@@QEAAAEAV01@$$QEAV01@@Z
??4PropertyGuild@PSNpc@@QEAAAEAV01@AEBV01@@Z
??4PropertyGuild@PSNpc@@QEAAAEAV01@AEBW4gEGuild@@@Z
??4PropertyHitBone@PSDamage@@QEAAAEAV01@$$QEAV01@@Z
??4PropertyHitBone@PSDamage@@QEAAAEAV01@AEBH@Z
??4PropertyHitBone@PSDamage@@QEAAAEAV01@AEBV01@@Z
??4PropertyHitDirection@PSRoutine@@QEAAAEAV01@$$QEAV01@@Z
??4PropertyHitDirection@PSRoutine@@QEAAAEAV01@AEBV01@@Z
??4PropertyHitDirection@PSRoutine@@QEAAAEAV01@AEBW4gEHitDirection@@@Z
??4PropertyHoldType@PSItem@@QEAAAEAV01@$$QEAV01@@Z
??4PropertyHoldType@PSItem@@QEAAAEAV01@AEBV01@@Z
??4PropertyHoldType@PSItem@@QEAAAEAV01@AEBW4gEItemHoldType@@@Z
??4PropertyInitialAge@PSParticle@@QEAAAEAV01@$$QEAV01@@Z
??4PropertyInitialAge@PSParticle@@QEAAAEAV01@AEBV01@@Z
??4PropertyInitialAge@PSParticle@@QEAAAEAV01@AEBVbCRange1@@@Z
??4PropertyInitialDelay@PSParticle@@QEAAAEAV01@$$QEAV01@@Z
??4PropertyInitialDelay@PSParticle@@QEAAAEAV01@AEBV01@@Z
??4PropertyInitialDelay@PSParticle@@QEAAAEAV01@AEBVbCRange1@@@Z
??4PropertyInteractionCounter@PSInteraction@@QEAAAEAV01@$$QEAV01@@Z
??4PropertyInteractionCounter@PSInteraction@@QEAAAEAV01@AEBH@Z
??4PropertyInteractionCounter@PSInteraction@@QEAAAEAV01@AEBV01@@Z
??4PropertyIsDangerousWeapon@PSItem@@QEAAAEAV01@$$QEAV01@@Z
??4PropertyIsDangerousWeapon@PSItem@@QEAAAEAV01@AEBV01@@Z
??4PropertyIsDangerousWeapon@PSItem@@QEAAAEAV01@AEB_N@Z
??4PropertyIsOnDestination@PSNavigation@@QEAAAEAV01@$$QEAV01@@Z
??4PropertyIsOnDestination@PSNavigation@@QEAAAEAV01@AEBV01@@Z
??4PropertyIsOnDestination@PSNavigation@@QEAAAEAV01@AEB_N@Z
??4PropertyIsOnDestinationTimeStamp@PSNavigation@@QEAAAEAV01@$$QEAV01@@Z
??4PropertyIsOnDestinationTimeStamp@PSNavigation@@QEAAAEAV01@AEBK@Z
??4PropertyIsOnDestinationTimeStamp@PSNavigation@@QEAAAEAV01@AEBV01@@Z
??4PropertyLastAIMode@PSRoutine@@QEAAAEAV01@$$QEAV01@@Z
??4PropertyLastAIMode@PSRoutine@@QEAAAEAV01@AEBV01@@Z
??4PropertyLastAIMode@PSRoutine@@QEAAAEAV01@AEBW4gEAIMode@@@Z
??4PropertyLastCommentTimestamp@PSNpc@@QEAAAEAV01@$$QEAV01@@Z
??4PropertyLastCommentTimestamp@PSNpc@@QEAAAEAV01@AEBM@Z
??4PropertyLastCommentTimestamp@PSNpc@@QEAAAEAV01@AEBV01@@Z
??4PropertyLastDistToGuardPoint@PSNpc@@QEAAAEAV01@$$QEAV01@@Z
??4PropertyLastDistToGuardPoint@PSNpc@@QEAAAEAV01@AEBM@Z
??4PropertyLastDistToGuardPoint@PSNpc@@QEAAAEAV01@AEBV01@@Z
??4PropertyLastDistToTarget@PSNpc@@QEAAAEAV01@$$QEAV01@@Z
??4PropertyLastDistToTarget@PSNpc@@QEAAAEAV01@AEBM@Z
??4PropertyLastDistToTarget@PSNpc@@QEAAAEAV01@AEBV01@@Z
??4PropertyLastFallVelocity@PSCharacterMovement@@QEAAAEAV01@$$QEAV01@@Z
??4PropertyLastFallVelocity@PSCharacterMovement@@QEAAAEAV01@AEBM@Z
??4PropertyLastFallVelocity@PSCharacterMovement@@QEAAAEAV01@AEBV01@@Z
??4PropertyLastFightAgainstPlayer@PSNpc@@QEAAAEAV01@$$QEAV01@@Z
??4PropertyLastFightAgainstPlayer@PSNpc@@QEAAAEAV01@AEBV01@@Z
??4PropertyLastFightAgainstPlayer@PSNpc@@QEAAAEAV01@AEBW4gEFight@@@Z
??4PropertyLastFightTimestamp@PSNpc@@QEAAAEAV01@$$QEAV01@@Z
??4PropertyLastFightTimestamp@PSNpc@@QEAAAEAV01@AEBM@Z
??4PropertyLastFightTimestamp@PSNpc@@QEAAAEAV01@AEBV01@@Z
??4PropertyLastPlayerAR@PSNpc@@QEAAAEAV01@$$QEAV01@@Z
??4PropertyLastPlayerAR@PSNpc@@QEAAAEAV01@AEBV01@@Z
??4PropertyLastPlayerAR@PSNpc@@QEAAAEAV01@AEBW4gEReason@@@Z
??4PropertyLastPlayerComment@PSNpc@@QEAAAEAV01@$$QEAV01@@Z
??4PropertyLastPlayerComment@PSNpc@@QEAAAEAV01@AEBV01@@Z
??4PropertyLastPlayerComment@PSNpc@@QEAAAEAV01@AEBW4gEComment@@@Z
??4PropertyLastPlayerCrime@PSNpc@@QEAAAEAV01@$$QEAV01@@Z
??4PropertyLastPlayerCrime@PSNpc@@QEAAAEAV01@AEBV01@@Z
??4PropertyLastPlayerCrime@PSNpc@@QEAAAEAV01@AEBW4gECrime@@@Z
??4PropertyLastReason@PSNpc@@QEAAAEAV01@$$QEAV01@@Z
??4PropertyLastReason@PSNpc@@QEAAAEAV01@AEBV01@@Z
??4PropertyLastReason@PSNpc@@QEAAAEAV01@AEBW4gEReason@@@Z
??4PropertyLifetime@PSParticle@@QEAAAEAV01@$$QEAV01@@Z
??4PropertyLifetime@PSParticle@@QEAAAEAV01@AEBV01@@Z
??4PropertyLifetime@PSParticle@@QEAAAEAV01@AEBVbCRange1@@@Z
??4PropertyLinearDamping@PSRigidBody@@QEAAAEAV01@$$QEAV01@@Z
??4PropertyLinearDamping@PSRigidBody@@QEAAAEAV01@AEBM@Z
??4PropertyLinearDamping@PSRigidBody@@QEAAAEAV01@AEBV01@@Z
??4PropertyLockAIInterrupt@PSRoutine@@QEAAAEAV01@$$QEAV01@@Z
??4PropertyLockAIInterrupt@PSRoutine@@QEAAAEAV01@AEBV01@@Z
??4PropertyLockAIInterrupt@PSRoutine@@QEAAAEAV01@AEB_N@Z
??4PropertyLockAIResult@PSRoutine@@QEAAAEAV01@$$QEAV01@@Z
??4PropertyLockAIResult@PSRoutine@@QEAAAEAV01@AEBV01@@Z
??4PropertyLockAIResult@PSRoutine@@QEAAAEAV01@AEB_N@Z
??4PropertyManaCost@PSCastInfo@@QEAAAEAV01@$$QEAV01@@Z
??4PropertyManaCost@PSCastInfo@@QEAAAEAV01@AEBH@Z
??4PropertyManaCost@PSCastInfo@@QEAAAEAV01@AEBV01@@Z
??4PropertyMaxAbsoluteVelocity@PSParticle@@QEAAAEAV01@$$QEAV01@@Z
??4PropertyMaxAbsoluteVelocity@PSParticle@@QEAAAEAV01@AEBV01@@Z
??4PropertyMaxAbsoluteVelocity@PSParticle@@QEAAAEAV01@AEBVbCVector@@@Z
??4PropertyMaxCollisions@PSParticle@@QEAAAEAV01@$$QEAV01@@Z
??4PropertyMaxCollisions@PSParticle@@QEAAAEAV01@AEBV01@@Z
??4PropertyMaxCollisions@PSParticle@@QEAAAEAV01@AEBVbCRange1@@@Z
??4PropertyMaxNumParticles@PSParticle@@QEAAAEAV01@$$QEAV01@@Z
??4PropertyMaxNumParticles@PSParticle@@QEAAAEAV01@AEBH@Z
??4PropertyMaxNumParticles@PSParticle@@QEAAAEAV01@AEBV01@@Z
??4PropertyMinSquaredVelocity@PSParticle@@QEAAAEAV01@$$QEAV01@@Z
??4PropertyMinSquaredVelocity@PSParticle@@QEAAAEAV01@AEBM@Z
??4PropertyMinSquaredVelocity@PSParticle@@QEAAAEAV01@AEBV01@@Z
??4PropertyMobEnabled@PSDialog@@QEAAAEAV01@$$QEAV01@@Z
??4PropertyMobEnabled@PSDialog@@QEAAAEAV01@AEBV01@@Z
??4PropertyMobEnabled@PSDialog@@QEAAAEAV01@AEB_N@Z
??4PropertyNumUSubdivisions@PSParticle@@QEAAAEAV01@$$QEAV01@@Z
??4PropertyNumUSubdivisions@PSParticle@@QEAAAEAV01@AEBH@Z
??4PropertyNumUSubdivisions@PSParticle@@QEAAAEAV01@AEBV01@@Z
??4PropertyNumVSubdivisions@PSParticle@@QEAAAEAV01@$$QEAV01@@Z
??4PropertyNumVSubdivisions@PSParticle@@QEAAAEAV01@AEBH@Z
??4PropertyNumVSubdivisions@PSParticle@@QEAAAEAV01@AEBV01@@Z
??4PropertyOnHitScript@PSProjectile@@QEAAAEAV01@$$QEAV01@@Z
??4PropertyOnHitScript@PSProjectile@@QEAAAEAV01@AEBV01@@Z
??4PropertyOnHitScript@PSProjectile@@QEAAAEAV01@AEBVeCScriptProxyScript@@@Z
??4PropertyOnIntersectScript@PSProjectile@@QEAAAEAV01@$$QEAV01@@Z
??4PropertyOnIntersectScript@PSProjectile@@QEAAAEAV01@AEBV01@@Z
??4PropertyOnIntersectScript@PSProjectile@@QEAAAEAV01@AEBVeCScriptProxyScript@@@Z
??4PropertyParticlesPerSecond@PSParticle@@QEAAAEAV01@$$QEAV01@@Z
??4PropertyParticlesPerSecond@PSParticle@@QEAAAEAV01@AEBM@Z
??4PropertyParticlesPerSecond@PSParticle@@QEAAAEAV01@AEBV01@@Z
??4PropertyPartyArea@PSParty@@QEAAAEAV01@$$QEAV01@@Z
??4PropertyPartyArea@PSParty@@QEAAAEAV01@AEBV01@@Z
??4PropertyPartyArea@PSParty@@QEAAAEAV01@AEBVbCString@@@Z
??4PropertyPartyEnabled@PSDialog@@QEAAAEAV01@$$QEAV01@@Z
??4PropertyPartyEnabled@PSDialog@@QEAAAEAV01@AEBV01@@Z
??4PropertyPartyEnabled@PSDialog@@QEAAAEAV01@AEB_N@Z
??4PropertyPartyMemberType@PSParty@@QEAAAEAV01@$$QEAV01@@Z
??4PropertyPartyMemberType@PSParty@@QEAAAEAV01@AEBV01@@Z
??4PropertyPartyMemberType@PSParty@@QEAAAEAV01@AEBW4gEPartyMemberType@@@Z
??4PropertyPassiveFightAI@PSCombatSystem@@QEAAAEAV01@$$QEAV01@@Z
??4PropertyPassiveFightAI@PSCombatSystem@@QEAAAEAV01@AEBV01@@Z
??4PropertyPassiveFightAI@PSCombatSystem@@QEAAAEAV01@AEBVbCString@@@Z
??4PropertyPatrolIndex@PSAnchor@@QEAAAEAV01@$$QEAV01@@Z
??4PropertyPatrolIndex@PSAnchor@@QEAAAEAV01@AEBK@Z
??4PropertyPatrolIndex@PSAnchor@@QEAAAEAV01@AEBV01@@Z
??4PropertyPickedPocket@PSDialog@@QEAAAEAV01@$$QEAV01@@Z
??4PropertyPickedPocket@PSDialog@@QEAAAEAV01@AEBV01@@Z
??4PropertyPickedPocket@PSDialog@@QEAAAEAV01@AEB_N@Z
??4PropertyPivotOffset@PSProjectile@@QEAAAEAV01@$$QEAV01@@Z
??4PropertyPivotOffset@PSProjectile@@QEAAAEAV01@AEBM@Z
??4PropertyPivotOffset@PSProjectile@@QEAAAEAV01@AEBV01@@Z
??4PropertyPivotStuckOffset@PSProjectile@@QEAAAEAV01@$$QEAV01@@Z
??4PropertyPivotStuckOffset@PSProjectile@@QEAAAEAV01@AEBM@Z
??4PropertyPivotStuckOffset@PSProjectile@@QEAAAEAV01@AEBV01@@Z
??4PropertyPlayerWeaponTimestamp@PSNpc@@QEAAAEAV01@$$QEAV01@@Z
??4PropertyPlayerWeaponTimestamp@PSNpc@@QEAAAEAV01@AEBM@Z
??4PropertyPlayerWeaponTimestamp@PSNpc@@QEAAAEAV01@AEBV01@@Z
??4PropertyPriority@PSMap@@QEAAAEAV01@$$QEAV01@@Z
??4PropertyPriority@PSMap@@QEAAAEAV01@AEBK@Z
??4PropertyPriority@PSMap@@QEAAAEAV01@AEBV01@@Z
??4PropertyProjectionNormal@PSParticle@@QEAAAEAV01@$$QEAV01@@Z
??4PropertyProjectionNormal@PSParticle@@QEAAAEAV01@AEBV01@@Z
??4PropertyProjectionNormal@PSParticle@@QEAAAEAV01@AEBVbCVector@@@Z
??4PropertyPurchaseModifier@PSDialog@@QEAAAEAV01@$$QEAV01@@Z
??4PropertyPurchaseModifier@PSDialog@@QEAAAEAV01@AEBM@Z
??4PropertyPurchaseModifier@PSDialog@@QEAAAEAV01@AEBV01@@Z
??4PropertyRandomSubdivision@PSParticle@@QEAAAEAV01@$$QEAV01@@Z
??4PropertyRandomSubdivision@PSParticle@@QEAAAEAV01@AEBV01@@Z
??4PropertyRandomSubdivision@PSParticle@@QEAAAEAV01@AEB_N@Z
??4PropertyRansacked@PSNpc@@QEAAAEAV01@$$QEAV01@@Z
??4PropertyRansacked@PSNpc@@QEAAAEAV01@AEBV01@@Z
??4PropertyRansacked@PSNpc@@QEAAAEAV01@AEB_N@Z
??4PropertyReason@PSNpc@@QEAAAEAV01@$$QEAV01@@Z
??4PropertyReason@PSNpc@@QEAAAEAV01@AEBV01@@Z
??4PropertyReason@PSNpc@@QEAAAEAV01@AEBW4gEReason@@@Z
??4PropertyRelativeWarmupTime@PSParticle@@QEAAAEAV01@$$QEAV01@@Z
??4PropertyRelativeWarmupTime@PSParticle@@QEAAAEAV01@AEBM@Z
??4PropertyRelativeWarmupTime@PSParticle@@QEAAAEAV01@AEBV01@@Z
??4PropertyResetOnTrigger@PSParticle@@QEAAAEAV01@$$QEAV01@@Z
??4PropertyResetOnTrigger@PSParticle@@QEAAAEAV01@AEBV01@@Z
??4PropertyResetOnTrigger@PSParticle@@QEAAAEAV01@AEB_N@Z
??4PropertyRespawnDeadParticles@PSParticle@@QEAAAEAV01@$$QEAV01@@Z
??4PropertyRespawnDeadParticles@PSParticle@@QEAAAEAV01@AEBV01@@Z
??4PropertyRespawnDeadParticles@PSParticle@@QEAAAEAV01@AEB_N@Z
??4PropertyResultAmount@PSRecipe@@QEAAAEAV01@$$QEAV01@@Z
??4PropertyResultAmount@PSRecipe@@QEAAAEAV01@AEBK@Z
??4PropertyResultAmount@PSRecipe@@QEAAAEAV01@AEBV01@@Z
??4PropertyResultQuality@PSRecipe@@QEAAAEAV01@$$QEAV01@@Z
??4PropertyResultQuality@PSRecipe@@QEAAAEAV01@AEBV01@@Z
??4PropertyRevolutionCenterOffset@PSParticle@@QEAAAEAV01@$$QEAV01@@Z
??4PropertyRevolutionCenterOffset@PSParticle@@QEAAAEAV01@AEBV01@@Z
??4PropertyRevolutionCenterOffset@PSParticle@@QEAAAEAV01@AEBVbCRange3@@@Z
??4PropertyRevolutionScaleRepeats@PSParticle@@QEAAAEAV01@$$QEAV01@@Z
??4PropertyRevolutionScaleRepeats@PSParticle@@QEAAAEAV01@AEBM@Z
??4PropertyRevolutionScaleRepeats@PSParticle@@QEAAAEAV01@AEBV01@@Z
??4PropertyRevolutionsPerSecond@PSParticle@@QEAAAEAV01@$$QEAV01@@Z
??4PropertyRevolutionsPerSecond@PSParticle@@QEAAAEAV01@AEBV01@@Z
??4PropertyRevolutionsPerSecond@PSParticle@@QEAAAEAV01@AEBVbCRange3@@@Z
??4PropertyRotationDampingFactor@PSParticle@@QEAAAEAV01@$$QEAV01@@Z
??4PropertyRotationDampingFactor@PSParticle@@QEAAAEAV01@AEBV01@@Z
??4PropertyRotationDampingFactor@PSParticle@@QEAAAEAV01@AEBVbCRange3@@@Z
??4PropertyRoutine@PSRoutine@@QEAAAEAV01@$$QEAV01@@Z
??4PropertyRoutine@PSRoutine@@QEAAAEAV01@AEBV01@@Z
??4PropertyRoutine@PSRoutine@@QEAAAEAV01@AEBVeCScriptProxyScript@@@Z
??4PropertyRoutineChanged@PSRoutine@@QEAAAEAV01@$$QEAV01@@Z
??4PropertyRoutineChanged@PSRoutine@@QEAAAEAV01@AEBV01@@Z
??4PropertyRoutineChanged@PSRoutine@@QEAAAEAV01@AEB_N@Z
??4PropertyRoutineTask@PSInteraction@@QEAAAEAV01@$$QEAV01@@Z
??4PropertyRoutineTask@PSInteraction@@QEAAAEAV01@AEBV01@@Z
??4PropertyRoutineTask@PSInteraction@@QEAAAEAV01@AEBVgCScriptProxyAIState@@@Z
??4PropertySaleModifier@PSDialog@@QEAAAEAV01@$$QEAV01@@Z
??4PropertySaleModifier@PSDialog@@QEAAAEAV01@AEBM@Z
??4PropertySaleModifier@PSDialog@@QEAAAEAV01@AEBV01@@Z
??4PropertySecondsBeforeInactive@PSParticle@@QEAAAEAV01@$$QEAV01@@Z
??4PropertySecondsBeforeInactive@PSParticle@@QEAAAEAV01@AEBM@Z
??4PropertySecondsBeforeInactive@PSParticle@@QEAAAEAV01@AEBV01@@Z
??4PropertySecurityLevelFunc@PSAIZone@@QEAAAEAV01@$$QEAV01@@Z
??4PropertySecurityLevelFunc@PSAIZone@@QEAAAEAV01@AEBV01@@Z
??4PropertySecurityLevelFunc@PSAIZone@@QEAAAEAV01@AEBVeCScriptProxyScript@@@Z
??4PropertyShootScript@PSProjectile@@QEAAAEAV01@$$QEAV01@@Z
??4PropertyShootScript@PSProjectile@@QEAAAEAV01@AEBV01@@Z
??4PropertyShootScript@PSProjectile@@QEAAAEAV01@AEBVeCScriptProxyScript@@@Z
??4PropertySizeScaleRepeats@PSParticle@@QEAAAEAV01@$$QEAV01@@Z
??4PropertySizeScaleRepeats@PSParticle@@QEAAAEAV01@AEBM@Z
??4PropertySizeScaleRepeats@PSParticle@@QEAAAEAV01@AEBV01@@Z
??4PropertySlaveryEnabled@PSDialog@@QEAAAEAV01@$$QEAV01@@Z
??4PropertySlaveryEnabled@PSDialog@@QEAAAEAV01@AEBV01@@Z
??4PropertySlaveryEnabled@PSDialog@@QEAAAEAV01@AEB_N@Z
??4PropertySpawnFromOtherEmitter@PSParticle@@QEAAAEAV01@$$QEAV01@@Z
??4PropertySpawnFromOtherEmitter@PSParticle@@QEAAAEAV01@AEBV01@@Z
??4PropertySpawnFromOtherEmitter@PSParticle@@QEAAAEAV01@AEBVeCEntityProxy@@@Z
??4PropertySpawnNumParticles@PSParticle@@QEAAAEAV01@$$QEAV01@@Z
??4PropertySpawnNumParticles@PSParticle@@QEAAAEAV01@AEBV01@@Z
??4PropertySpawnNumParticles@PSParticle@@QEAAAEAV01@AEBVbCRange1@@@Z
??4PropertySpawnedVelocityScale@PSParticle@@QEAAAEAV01@$$QEAV01@@Z
??4PropertySpawnedVelocityScale@PSParticle@@QEAAAEAV01@AEBV01@@Z
??4PropertySpawnedVelocityScale@PSParticle@@QEAAAEAV01@AEBVbCRange3@@@Z
??4PropertySpecies@PSNpc@@QEAAAEAV01@$$QEAV01@@Z
??4PropertySpecies@PSNpc@@QEAAAEAV01@AEBV01@@Z
??4PropertySpecies@PSNpc@@QEAAAEAV01@AEBW4gESpecies@@@Z
??4PropertySpinDirection@PSParticle@@QEAAAEAV01@$$QEAV01@@Z
??4PropertySpinDirection@PSParticle@@QEAAAEAV01@AEBM@Z
??4PropertySpinDirection@PSParticle@@QEAAAEAV01@AEBV01@@Z
??4PropertySpinParticles@PSParticle@@QEAAAEAV01@$$QEAV01@@Z
??4PropertySpinParticles@PSParticle@@QEAAAEAV01@AEBV01@@Z
??4PropertySpinParticles@PSParticle@@QEAAAEAV01@AEB_N@Z
??4PropertySpinsPerSecond@PSParticle@@QEAAAEAV01@$$QEAV01@@Z
??4PropertySpinsPerSecond@PSParticle@@QEAAAEAV01@AEBV01@@Z
??4PropertySpinsPerSecond@PSParticle@@QEAAAEAV01@AEBVbCRange3@@@Z
??4PropertyStartBoxLocation@PSParticle@@QEAAAEAV01@$$QEAV01@@Z
??4PropertyStartBoxLocation@PSParticle@@QEAAAEAV01@AEBV01@@Z
??4PropertyStartBoxLocation@PSParticle@@QEAAAEAV01@AEBVbCRange3@@@Z
??4PropertyStartLocationOffset@PSParticle@@QEAAAEAV01@$$QEAV01@@Z
??4PropertyStartLocationOffset@PSParticle@@QEAAAEAV01@AEBV01@@Z
??4PropertyStartLocationOffset@PSParticle@@QEAAAEAV01@AEBVbCVector@@@Z
??4PropertyStartLocationShape@PSParticle@@QEAAAEAV01@$$QEAV01@@Z
??4PropertyStartLocationShape@PSParticle@@QEAAAEAV01@AEBV01@@Z
??4PropertyStartLocationShape@PSParticle@@QEAAAEAV01@AEBW4eELocationShape@@@Z
??4PropertyStartPosition@PSNavigation@@QEAAAEAV01@$$QEAV01@@Z
??4PropertyStartPosition@PSNavigation@@QEAAAEAV01@AEBV01@@Z
??4PropertyStartPosition@PSNavigation@@QEAAAEAV01@AEBVbCVector@@@Z
??4PropertyStartSize@PSParticle@@QEAAAEAV01@$$QEAV01@@Z
??4PropertyStartSize@PSParticle@@QEAAAEAV01@AEBV01@@Z
??4PropertyStartSize@PSParticle@@QEAAAEAV01@AEBVbCRange3@@@Z
??4PropertyStartSphereRadius@PSParticle@@QEAAAEAV01@$$QEAV01@@Z
??4PropertyStartSphereRadius@PSParticle@@QEAAAEAV01@AEBV01@@Z
??4PropertyStartSphereRadius@PSParticle@@QEAAAEAV01@AEBVbCRange1@@@Z
??4PropertyStartSpin@PSParticle@@QEAAAEAV01@$$QEAV01@@Z
??4PropertyStartSpin@PSParticle@@QEAAAEAV01@AEBV01@@Z
??4PropertyStartSpin@PSParticle@@QEAAAEAV01@AEBVbCRange3@@@Z
??4PropertyStartTask@PSCastInfo@@QEAAAEAV01@$$QEAV01@@Z
??4PropertyStartTask@PSCastInfo@@QEAAAEAV01@AEBV01@@Z
??4PropertyStartTask@PSCastInfo@@QEAAAEAV01@AEBVbCString@@@Z
??4PropertyStartVelocity@PSParticle@@QEAAAEAV01@$$QEAV01@@Z
??4PropertyStartVelocity@PSParticle@@QEAAAEAV01@AEBV01@@Z
??4PropertyStartVelocity@PSParticle@@QEAAAEAV01@AEBVbCRange3@@@Z
??4PropertyStartVelocity@PSProjectile@@QEAAAEAV01@$$QEAV01@@Z
??4PropertyStartVelocity@PSProjectile@@QEAAAEAV01@AEBM@Z
??4PropertyStartVelocity@PSProjectile@@QEAAAEAV01@AEBV01@@Z
??4PropertyStatePosition@PSRoutine@@QEAAAEAV01@$$QEAV01@@Z
??4PropertyStatePosition@PSRoutine@@QEAAAEAV01@AEBJ@Z
??4PropertyStatePosition@PSRoutine@@QEAAAEAV01@AEBV01@@Z
??4PropertyStatus@PSArena@@QEAAAEAV01@$$QEAV01@@Z
??4PropertyStatus@PSArena@@QEAAAEAV01@AEBV01@@Z
??4PropertyStatus@PSArena@@QEAAAEAV01@AEBW4gEArenaStatus@@@Z
??4PropertyStatus@PSDoor@@QEAAAEAV01@$$QEAV01@@Z
??4PropertyStatus@PSDoor@@QEAAAEAV01@AEBV01@@Z
??4PropertyStatus@PSDoor@@QEAAAEAV01@AEBW4gEDoorStatus@@@Z
??4PropertyStatus@PSLock@@QEAAAEAV01@$$QEAV01@@Z
??4PropertyStatus@PSLock@@QEAAAEAV01@AEBV01@@Z
??4PropertyStatus@PSLock@@QEAAAEAV01@AEBW4gELockStatus@@@Z
??4PropertyStepHeight@PSCharacterMovement@@QEAAAEAV01@$$QEAV01@@Z
??4PropertyStepHeight@PSCharacterMovement@@QEAAAEAV01@AEBM@Z
??4PropertyStepHeight@PSCharacterMovement@@QEAAAEAV01@AEBV01@@Z
??4PropertyStretchToEmitter@PSParticle@@QEAAAEAV01@$$QEAV01@@Z
??4PropertyStretchToEmitter@PSParticle@@QEAAAEAV01@AEBV01@@Z
??4PropertyStretchToEmitter@PSParticle@@QEAAAEAV01@AEB_N@Z
??4PropertySubdivisionEnd@PSParticle@@QEAAAEAV01@$$QEAV01@@Z
??4PropertySubdivisionEnd@PSParticle@@QEAAAEAV01@AEBH@Z
??4PropertySubdivisionEnd@PSParticle@@QEAAAEAV01@AEBV01@@Z
??4PropertySubdivisionScaleRepeats@PSParticle@@QEAAAEAV01@$$QEAV01@@Z
??4PropertySubdivisionScaleRepeats@PSParticle@@QEAAAEAV01@AEBM@Z
??4PropertySubdivisionScaleRepeats@PSParticle@@QEAAAEAV01@AEBV01@@Z
??4PropertySubdivisionStart@PSParticle@@QEAAAEAV01@$$QEAV01@@Z
??4PropertySubdivisionStart@PSParticle@@QEAAAEAV01@AEBH@Z
??4PropertySubdivisionStart@PSParticle@@QEAAAEAV01@AEBV01@@Z
??4PropertyTalkedToPlayer@PSDialog@@QEAAAEAV01@$$QEAV01@@Z
??4PropertyTalkedToPlayer@PSDialog@@QEAAAEAV01@AEBV01@@Z
??4PropertyTalkedToPlayer@PSDialog@@QEAAAEAV01@AEB_N@Z
??4PropertyTarget@PSParticle@@QEAAAEAV01@$$QEAV01@@Z
??4PropertyTarget@PSParticle@@QEAAAEAV01@AEBV01@@Z
??4PropertyTarget@PSParticle@@QEAAAEAV01@AEBVeCEntityProxy@@@Z
??4PropertyTaskPosition@PSRoutine@@QEAAAEAV01@$$QEAV01@@Z
??4PropertyTaskPosition@PSRoutine@@QEAAAEAV01@AEBJ@Z
??4PropertyTaskPosition@PSRoutine@@QEAAAEAV01@AEBV01@@Z
??4PropertyTeachEnabled@PSDialog@@QEAAAEAV01@$$QEAV01@@Z
??4PropertyTeachEnabled@PSDialog@@QEAAAEAV01@AEBV01@@Z
??4PropertyTeachEnabled@PSDialog@@QEAAAEAV01@AEB_N@Z
??4PropertyTexture@PSParticle@@QEAAAEAV01@$$QEAV01@@Z
??4PropertyTexture@PSParticle@@QEAAAEAV01@AEBV01@@Z
??4PropertyTexture@PSParticle@@QEAAAEAV01@AEBVbCString@@@Z
??4PropertyTicksPerSecond@PSParticle@@QEAAAEAV01@$$QEAV01@@Z
??4PropertyTicksPerSecond@PSParticle@@QEAAAEAV01@AEBM@Z
??4PropertyTicksPerSecond@PSParticle@@QEAAAEAV01@AEBV01@@Z
??4PropertyTradeEnabled@PSDialog@@QEAAAEAV01@$$QEAV01@@Z
??4PropertyTradeEnabled@PSDialog@@QEAAAEAV01@AEBV01@@Z
??4PropertyTradeEnabled@PSDialog@@QEAAAEAV01@AEB_N@Z
??4PropertyTriggerNumParticles@PSParticle@@QEAAAEAV01@$$QEAV01@@Z
??4PropertyTriggerNumParticles@PSParticle@@QEAAAEAV01@AEBV01@@Z
??4PropertyTriggerNumParticles@PSParticle@@QEAAAEAV01@AEBVbCRange1@@@Z
??4PropertyTriggerParticlesPerSecond@PSParticle@@QEAAAEAV01@$$QEAV01@@Z
??4PropertyTriggerParticlesPerSecond@PSParticle@@QEAAAEAV01@AEBM@Z
??4PropertyTriggerParticlesPerSecond@PSParticle@@QEAAAEAV01@AEBV01@@Z
??4PropertyUniformSize@PSParticle@@QEAAAEAV01@$$QEAV01@@Z
??4PropertyUniformSize@PSParticle@@QEAAAEAV01@AEBV01@@Z
??4PropertyUniformSize@PSParticle@@QEAAAEAV01@AEB_N@Z
??4PropertyUseCollision@PSParticle@@QEAAAEAV01@$$QEAV01@@Z
??4PropertyUseCollision@PSParticle@@QEAAAEAV01@AEBV01@@Z
??4PropertyUseCollision@PSParticle@@QEAAAEAV01@AEB_N@Z
??4PropertyUseColorScale@PSParticle@@QEAAAEAV01@$$QEAV01@@Z
??4PropertyUseColorScale@PSParticle@@QEAAAEAV01@AEBV01@@Z
??4PropertyUseColorScale@PSParticle@@QEAAAEAV01@AEB_N@Z
??4PropertyUseMaxCollisions@PSParticle@@QEAAAEAV01@$$QEAV01@@Z
??4PropertyUseMaxCollisions@PSParticle@@QEAAAEAV01@AEBV01@@Z
??4PropertyUseMaxCollisions@PSParticle@@QEAAAEAV01@AEB_N@Z
??4PropertyUseRevolution@PSParticle@@QEAAAEAV01@$$QEAV01@@Z
??4PropertyUseRevolution@PSParticle@@QEAAAEAV01@AEBV01@@Z
??4PropertyUseRevolution@PSParticle@@QEAAAEAV01@AEB_N@Z
??4PropertyUseRevolutionScale@PSParticle@@QEAAAEAV01@$$QEAV01@@Z
??4PropertyUseRevolutionScale@PSParticle@@QEAAAEAV01@AEBV01@@Z
??4PropertyUseRevolutionScale@PSParticle@@QEAAAEAV01@AEB_N@Z
??4PropertyUseRotationDamping@PSParticle@@QEAAAEAV01@$$QEAV01@@Z
??4PropertyUseRotationDamping@PSParticle@@QEAAAEAV01@AEBV01@@Z
??4PropertyUseRotationDamping@PSParticle@@QEAAAEAV01@AEB_N@Z
??4PropertyUseRotationFrom@PSParticle@@QEAAAEAV01@$$QEAV01@@Z
??4PropertyUseRotationFrom@PSParticle@@QEAAAEAV01@AEBV01@@Z
??4PropertyUseRotationFrom@PSParticle@@QEAAAEAV01@AEBW4eERotationFrom@@@Z
??4PropertyUseSizeScale@PSParticle@@QEAAAEAV01@$$QEAV01@@Z
??4PropertyUseSizeScale@PSParticle@@QEAAAEAV01@AEBV01@@Z
??4PropertyUseSizeScale@PSParticle@@QEAAAEAV01@AEB_N@Z
??4PropertyUseSpawnedVelocityScale@PSParticle@@QEAAAEAV01@$$QEAV01@@Z
??4PropertyUseSpawnedVelocityScale@PSParticle@@QEAAAEAV01@AEBV01@@Z
??4PropertyUseSpawnedVelocityScale@PSParticle@@QEAAAEAV01@AEB_N@Z
??4PropertyUseSubdivisionScale@PSParticle@@QEAAAEAV01@$$QEAV01@@Z
??4PropertyUseSubdivisionScale@PSParticle@@QEAAAEAV01@AEBV01@@Z
??4PropertyUseSubdivisionScale@PSParticle@@QEAAAEAV01@AEB_N@Z
??4PropertyUseType@PSInteraction@@QEAAAEAV01@$$QEAV01@@Z
??4PropertyUseType@PSInteraction@@QEAAAEAV01@AEBV01@@Z
??4PropertyUseType@PSInteraction@@QEAAAEAV01@AEBW4gEInteractionUseType@@@Z
??4PropertyUseType@PSItem@@QEAAAEAV01@$$QEAV01@@Z
??4PropertyUseType@PSItem@@QEAAAEAV01@AEBV01@@Z
??4PropertyUseType@PSItem@@QEAAAEAV01@AEBW4gEItemUseType@@@Z
??4PropertyUseVelocityScale@PSParticle@@QEAAAEAV01@$$QEAV01@@Z
??4PropertyUseVelocityScale@PSParticle@@QEAAAEAV01@AEBV01@@Z
??4PropertyUseVelocityScale@PSParticle@@QEAAAEAV01@AEB_N@Z
??4PropertyVelocityDirectionFrom@PSParticle@@QEAAAEAV01@$$QEAV01@@Z
??4PropertyVelocityDirectionFrom@PSParticle@@QEAAAEAV01@AEBV01@@Z
??4PropertyVelocityDirectionFrom@PSParticle@@QEAAAEAV01@AEBW4eEVelocityDirectionFrom@@@Z
??4PropertyVelocityLoss@PSParticle@@QEAAAEAV01@$$QEAV01@@Z
??4PropertyVelocityLoss@PSParticle@@QEAAAEAV01@AEBV01@@Z
??4PropertyVelocityLoss@PSParticle@@QEAAAEAV01@AEBVbCRange3@@@Z
??4PropertyVelocityScaleRepeats@PSParticle@@QEAAAEAV01@$$QEAV01@@Z
??4PropertyVelocityScaleRepeats@PSParticle@@QEAAAEAV01@AEBM@Z
??4PropertyVelocityScaleRepeats@PSParticle@@QEAAAEAV01@AEBV01@@Z
??4PropertyVoice@PSNpc@@QEAAAEAV01@$$QEAV01@@Z
??4PropertyVoice@PSNpc@@QEAAAEAV01@AEBV01@@Z
??4PropertyVoice@PSNpc@@QEAAAEAV01@AEBVbCString@@@Z
??4PropertyWaiting@PSParty@@QEAAAEAV01@$$QEAV01@@Z
??4PropertyWaiting@PSParty@@QEAAAEAV01@AEBV01@@Z
??4PropertyWaiting@PSParty@@QEAAAEAV01@AEB_N@Z
??4PropertyWarmupTicksPerSecond@PSParticle@@QEAAAEAV01@$$QEAV01@@Z
??4PropertyWarmupTicksPerSecond@PSParticle@@QEAAAEAV01@AEBM@Z
??4PropertyWarmupTicksPerSecond@PSParticle@@QEAAAEAV01@AEBV01@@Z
??4QuestManager@@QEAAAEAV0@$$QEAV0@@Z
??4QuestManager@@QEAAAEAV0@AEBV0@@Z
??4ScriptActionTimer@@QEAAAEAV0@AEBV0@@Z
??4ScriptCommentManager@@QEAAAEAV0@AEBV0@@Z
??4ScriptDestinationCollector@@QEAAAEAV0@AEBV0@@Z
??4Template@@QEAAAEAV0@AEBV0@@Z
??4Template@@QEAAAEAV0@AEBVEntity@@@Z
??4Template@@QEAAAEAV0@AEBVbCPropertyID@@@Z
??4Template@@QEAAAEAV0@AEBVeCTemplateEntityProxy@@@Z
??4Template@@QEAAAEAV0@PEBD@Z
??4Tutorial@@QEAAAEAV0@AEBV0@@Z
??4World@@QEAAAEAV0@AEBV0@@Z
??8Entity@@QEBA_NAEBV0@@Z
??8Template@@QEBA_NAEBVbCPropertyID@@@Z
??9Entity@@QEBA_NAEBV0@@Z
??9Template@@QEBA_NAEBVbCPropertyID@@@Z
??BEffect@@AEBAPEAVgCEffect@@XZ
??BEntity@@QEBAPEAVeCEntity@@XZ
??BPSAIZone@@IEAAPEAVgCAIZone_PS@@XZ
??BPSAIZone@@IEBAPEBVgCAIZone_PS@@XZ
??BPSAnchor@@IEAAPEAVgCAnchor_PS@@XZ
??BPSAnchor@@IEBAPEBVgCAnchor_PS@@XZ
??BPSAnimation@@IEAAPEAVeCAnimation_PS@@XZ
??BPSAnimation@@IEBAPEBVeCAnimation_PS@@XZ
??BPSArea@@IEAAPEAVeCArea_StringProperty_PS@@XZ
??BPSArea@@IEBAPEBVeCArea_StringProperty_PS@@XZ
??BPSArena@@IEAAPEAVgCArena_PS@@XZ
??BPSArena@@IEBAPEBVgCArena_PS@@XZ
??BPSBook@@IEAAPEAVgCBook_PS@@XZ
??BPSBook@@IEBAPEBVgCBook_PS@@XZ
??BPSCastInfo@@IEAAPEAVgCCastInfo_PS@@XZ
??BPSCastInfo@@IEBAPEBVgCCastInfo_PS@@XZ
??BPSCharacterMovement@@IEAAPEAVgCCharacterMovement_PS@@XZ
??BPSCharacterMovement@@IEBAPEBVgCCharacterMovement_PS@@XZ
??BPSClock@@IEAAPEAVgCClock_PS@@XZ
??BPSClock@@IEBAPEBVgCClock_PS@@XZ
??BPSCollisionShape@@IEAAPEAVeCCollisionShape_PS@@XZ
??BPSCollisionShape@@IEBAPEBVeCCollisionShape_PS@@XZ
??BPSCombatSystem@@IEAAPEAVgCCombatSystem_PS@@XZ
??BPSCombatSystem@@IEBAPEBVgCCombatSystem_PS@@XZ
??BPSDamage@@IEAAPEAVgCDamage_PS@@XZ
??BPSDamage@@IEBAPEBVgCDamage_PS@@XZ
??BPSDialog@@IEAAPEAVgCDialog_PS@@XZ
??BPSDialog@@IEBAPEBVgCDialog_PS@@XZ
??BPSDoor@@IEAAPEAVgCDoor_PS@@XZ
??BPSDoor@@IEBAPEBVgCDoor_PS@@XZ
??BPSEffect@@IEAAPEAVgCEffect_PS@@XZ
??BPSEffect@@IEBAPEBVgCEffect_PS@@XZ
??BPSInteraction@@IEAAPEAVgCInteraction_PS@@XZ
??BPSInteraction@@IEBAPEBVgCInteraction_PS@@XZ
??BPSInventory@@IEAAPEAVgCInventory_PS@@XZ
??BPSInventory@@IEBAPEBVgCInventory_PS@@XZ
??BPSItem@@IEAAPEAVgCItem_PS@@XZ
??BPSItem@@IEBAPEBVgCItem_PS@@XZ
??BPSLetter@@IEAAPEAVgCLetter_PS@@XZ
??BPSLetter@@IEBAPEBVgCLetter_PS@@XZ
??BPSLock@@IEAAPEAVgCLock_PS@@XZ
??BPSLock@@IEBAPEBVgCLock_PS@@XZ
??BPSMap@@IEAAPEAVgCMap_PS@@XZ
??BPSMap@@IEBAPEBVgCMap_PS@@XZ
??BPSMover@@IEAAPEAVeCMover_PS@@XZ
??BPSMover@@IEBAPEBVeCMover_PS@@XZ
??BPSNavigation@@IEAAPEAVgCNavigation_PS@@XZ
??BPSNavigation@@IEBAPEBVgCNavigation_PS@@XZ
??BPSNpc@@IEAAPEAVgCNPC_PS@@XZ
??BPSNpc@@IEBAPEBVgCNPC_PS@@XZ
??BPSParticle@@IEAAPEAVeCParticle_PS@@XZ
??BPSParticle@@IEBAPEBVeCParticle_PS@@XZ
??BPSParty@@IEAAPEAVgCParty_PS@@XZ
??BPSParty@@IEBAPEBVgCParty_PS@@XZ
??BPSProjectile@@IEAAPEAVgCProjectile2_PS@@XZ
??BPSProjectile@@IEBAPEBVgCProjectile2_PS@@XZ
??BPSRecipe@@IEAAPEAVgCRecipe_PS@@XZ
??BPSRecipe@@IEBAPEBVgCRecipe_PS@@XZ
??BPSRigidBody@@IEAAPEAVeCRigidBody_PS@@XZ
??BPSRigidBody@@IEBAPEBVeCRigidBody_PS@@XZ
??BPSRoutine@@IEAAPEAVgCScriptRoutine_PS@@XZ
??BPSRoutine@@IEBAPEBVgCScriptRoutine_PS@@XZ
??BPSSkills@@IEAAPEAVgCSkills_PS@@XZ
??BPSSkills@@IEBAPEBVgCSkills_PS@@XZ
??BPSStateGraph@@IEAAPEAVgCStateGraph_PS@@XZ
??BPSStateGraph@@IEBAPEBVgCStateGraph_PS@@XZ
??BPSStrip@@IEAAPEAVeCStrip_PS@@XZ
??BPSStrip@@IEBAPEBVeCStrip_PS@@XZ
??BPropertyAIDelay@PSRoutine@@QEBA?BJXZ
??BPropertyAIMode@PSRoutine@@QEBA?BW4gEAIMode@@XZ
??BPropertyAcceleration@PSParticle@@QEBA?BVbCVector@@XZ
??BPropertyActionString@PSRoutine@@QEBA?BVbCString@@XZ
??BPropertyActiveFightAI@PSCombatSystem@@QEBA?BVbCString@@XZ
??BPropertyAlphaReference@PSParticle@@QEBA?BEXZ
??BPropertyAlphaTest@PSParticle@@QEBA?B_NXZ
??BPropertyAmbientAction@PSRoutine@@QEBA?BW4gEAmbientAction@@XZ
??BPropertyAnchorType@PSAnchor@@QEBA?BW4gEAnchorType@@XZ
??BPropertyAngularDamping@PSRigidBody@@QEBA?BMXZ
??BPropertyAnimationBearing@PSNpc@@QEBA?BVbCString@@XZ
??BPropertyAttitudeLock@PSNpc@@QEBA?BW4gEAttitude@@XZ
??BPropertyAutoRejoin@PSParty@@QEBA?B_NXZ
??BPropertyAutoReset@PSParticle@@QEBA?B_NXZ
??BPropertyAutomaticSpawning@PSParticle@@QEBA?B_NXZ
??BPropertyBallisticDeactivationVelocity@PSProjectile@@QEBA?BMXZ
??BPropertyBallisticGravity@PSProjectile@@QEBA?BMXZ
??BPropertyBallisticVelocityLoss@PSProjectile@@QEBA?BMXZ
??BPropertyBlendBetweenSubdivisions@PSParticle@@QEBA?B_NXZ
??BPropertyBodyFlag@PSRigidBody@@QEBA?BW4eERigidbody_Flag@@XZ
??BPropertyBraveryOverride@PSNpc@@QEBA?BW4gEBraveryOverride@@XZ
??BPropertyCanBePushedWhileIdle@PSCharacterMovement@@QEBA?B_NXZ
??BPropertyCastAmmo@PSCastInfo@@QEBA?BVTemplate@@XZ
??BPropertyCastFail@PSCastInfo@@QEBA?BVTemplate@@XZ
??BPropertyCastInfo@PSCastInfo@@QEBA?BVbCString@@XZ
??BPropertyCastItem@PSCastInfo@@QEBA?BVTemplate@@XZ
??BPropertyCollideWithCharacters@PSParticle@@QEBA?B_NXZ
??BPropertyCollideWithDynamic@PSParticle@@QEBA?B_NXZ
??BPropertyCollideWithStatic@PSParticle@@QEBA?B_NXZ
??BPropertyCollideWithTransparent@PSParticle@@QEBA?B_NXZ
??BPropertyColorScaleRepeats@PSParticle@@QEBA?BMXZ
??BPropertyCommandTime@PSRoutine@@QEBA?BJXZ
??BPropertyConsumeItem@PSCastInfo@@QEBA?B_NXZ
??BPropertyCoordinateSystem@PSParticle@@QEBA?BW4eECoordinateSystem@@XZ
??BPropertyCraft@PSRecipe@@QEBA?BW4gERecipeCategory@@XZ
??BPropertyCurrentAniDirection@PSNavigation@@QEBA?BW4gEDirection@@XZ
??BPropertyDamageAmount@PSDamage@@QEBA?BJXZ
??BPropertyDamageBonus@PSDamage@@QEBA?BJXZ
??BPropertyDamageCalculationType@PSNpc@@QEBA?BW4gEDamageCalculationType@@XZ
??BPropertyDamageMultiplier@PSDamage@@QEBA?BMXZ
??BPropertyDamageType@PSDamage@@QEBA?BW4gEDamageType@@XZ
??BPropertyDampingFactor@PSParticle@@QEBA?BVbCRange3@@XZ
??BPropertyDefeatedByPlayer@PSNpc@@QEBA?B_NXZ
??BPropertyDepthTest@PSParticle@@QEBA?B_NXZ
??BPropertyDepthWrite@PSParticle@@QEBA?B_NXZ
??BPropertyDifficulty@PSLock@@QEBA?BHXZ
??BPropertyDisableFogging@PSParticle@@QEBA?B_NXZ
??BPropertyDisableRotation@PSCharacterMovement@@QEBA?B_NXZ
??BPropertyDisableTranslation@PSCharacterMovement@@QEBA?B_NXZ
??BPropertyDiscovered@PSNpc@@QEBA?B_NXZ
??BPropertyDistanceToImpact@PSProjectile@@QEBA?BMXZ
??BPropertyDrawStyle@PSParticle@@QEBA?BW4eETextureDrawStyle@@XZ
??BPropertyDropped@PSItem@@QEBA?B_NXZ
??BPropertyEffectMaterial@PSItem@@QEBA?BVbCString@@XZ
??BPropertyEffectMaterial@PSNpc@@QEBA?BVbCString@@XZ
??BPropertyEffectSpecies@PSNpc@@QEBA?BVbCString@@XZ
??BPropertyEnabled@PSEffect@@QEBA?B_NXZ
??BPropertyEnabled@PSParticle@@QEBA?B_NXZ
??BPropertyEnabled@PSStrip@@QEBA?B_NXZ
??BPropertyEndAttackTimestamp@PSRoutine@@QEBA?BMXZ
??BPropertyEndDialogTimestamp@PSDialog@@QEBA?BMXZ
??BPropertyEnterROIScript@PSInteraction@@QEBA?BVeCScriptProxyScript@@XZ
??BPropertyExitROIScript@PSInteraction@@QEBA?BVeCScriptProxyScript@@XZ
??BPropertyExtentMultiplier@PSParticle@@QEBA?BVbCVector@@XZ
??BPropertyFaceInFactor@PSParticle@@QEBA?BVbCFloatAlphaColor@@XZ
??BPropertyFaceOutFactor@PSParticle@@QEBA?BVbCFloatAlphaColor@@XZ
??BPropertyFacingDirection@PSParticle@@QEBA?BW4eEFacingDirection@@XZ
??BPropertyFadeIn@PSParticle@@QEBA?B_NXZ
??BPropertyFadeInEndTime@PSParticle@@QEBA?BMXZ
??BPropertyFadeOut@PSParticle@@QEBA?B_NXZ
??BPropertyFadeOutStartTime@PSParticle@@QEBA?BMXZ
??BPropertyFightAIMode@PSCombatSystem@@QEBA?BW4gECombatFightAIMode@@XZ
??BPropertyFlightPathType@PSProjectile@@QEBA?BW4gEFlightPathType@@XZ
??BPropertyFocusMode@PSCastInfo@@QEBA?BVbCString@@XZ
??BPropertyFocusNameType@PSInteraction@@QEBA?BW4gEFocusNameType@@XZ
??BPropertyForceGroundAlignment@PSCharacterMovement@@QEBA?B_NXZ
??BPropertyGender@PSNpc@@QEBA?BW4gEGender@@XZ
??BPropertyGroundBias@PSInteraction@@QEBA?B_NXZ
??BPropertyGroup@PSAIZone@@QEBA?BVbCString@@XZ
??BPropertyGroup@PSNpc@@QEBA?BVbCString@@XZ
??BPropertyGuardStatus@PSNpc@@QEBA?BW4gEGuardStatus@@XZ
??BPropertyGuideWalkMode@PSNavigation@@QEBA?BW4gEWalkMode@@XZ
??BPropertyGuild@PSAIZone@@QEBA?BW4gEGuild@@XZ
??BPropertyGuild@PSNpc@@QEBA?BW4gEGuild@@XZ
??BPropertyHitBone@PSDamage@@QEBA?BHXZ
??BPropertyHitDirection@PSRoutine@@QEBA?BW4gEHitDirection@@XZ
??BPropertyHoldType@PSItem@@QEBA?BW4gEItemHoldType@@XZ
??BPropertyInitialAge@PSParticle@@QEBA?BVbCRange1@@XZ
??BPropertyInitialDelay@PSParticle@@QEBA?BVbCRange1@@XZ
??BPropertyInteractionCounter@PSInteraction@@QEBA?BHXZ
??BPropertyIsDangerousWeapon@PSItem@@QEBA?B_NXZ
??BPropertyIsOnDestination@PSNavigation@@QEBA?B_NXZ
??BPropertyIsOnDestinationTimeStamp@PSNavigation@@QEBA?BKXZ
??BPropertyLastAIMode@PSRoutine@@QEBA?BW4gEAIMode@@XZ
??BPropertyLastCommentTimestamp@PSNpc@@QEBA?BMXZ
??BPropertyLastDistToGuardPoint@PSNpc@@QEBA?BMXZ
??BPropertyLastDistToTarget@PSNpc@@QEBA?BMXZ
??BPropertyLastFallVelocity@PSCharacterMovement@@QEBA?BMXZ
??BPropertyLastFightAgainstPlayer@PSNpc@@QEBA?BW4gEFight@@XZ
??BPropertyLastFightTimestamp@PSNpc@@QEBA?BMXZ
??BPropertyLastPlayerAR@PSNpc@@QEBA?BW4gEReason@@XZ
??BPropertyLastPlayerComment@PSNpc@@QEBA?BW4gEComment@@XZ
??BPropertyLastPlayerCrime@PSNpc@@QEBA?BW4gECrime@@XZ
??BPropertyLastReason@PSNpc@@QEBA?BW4gEReason@@XZ
??BPropertyLifetime@PSParticle@@QEBA?BVbCRange1@@XZ
??BPropertyLinearDamping@PSRigidBody@@QEBA?BMXZ
??BPropertyLockAIInterrupt@PSRoutine@@QEBA?B_NXZ
??BPropertyLockAIResult@PSRoutine@@QEBA?B_NXZ
??BPropertyManaCost@PSCastInfo@@QEBA?BHXZ
??BPropertyMaxAbsoluteVelocity@PSParticle@@QEBA?BVbCVector@@XZ
??BPropertyMaxCollisions@PSParticle@@QEBA?BVbCRange1@@XZ
??BPropertyMaxNumParticles@PSParticle@@QEBA?BHXZ
??BPropertyMinSquaredVelocity@PSParticle@@QEBA?BMXZ
??BPropertyMobEnabled@PSDialog@@QEBA?B_NXZ
??BPropertyNumUSubdivisions@PSParticle@@QEBA?BHXZ
??BPropertyNumVSubdivisions@PSParticle@@QEBA?BHXZ
??BPropertyOnHitScript@PSProjectile@@QEBA?BVeCScriptProxyScript@@XZ
??BPropertyOnIntersectScript@PSProjectile@@QEBA?BVeCScriptProxyScript@@XZ
??BPropertyParticlesPerSecond@PSParticle@@QEBA?BMXZ
??BPropertyPartyArea@PSParty@@QEBA?BVbCString@@XZ
??BPropertyPartyEnabled@PSDialog@@QEBA?B_NXZ
??BPropertyPartyMemberType@PSParty@@QEBA?BW4gEPartyMemberType@@XZ
??BPropertyPassiveFightAI@PSCombatSystem@@QEBA?BVbCString@@XZ
??BPropertyPatrolIndex@PSAnchor@@QEBA?BKXZ
??BPropertyPickedPocket@PSDialog@@QEBA?B_NXZ
??BPropertyPivotOffset@PSProjectile@@QEBA?BMXZ
??BPropertyPivotStuckOffset@PSProjectile@@QEBA?BMXZ
??BPropertyPlayerWeaponTimestamp@PSNpc@@QEBA?BMXZ
??BPropertyPriority@PSMap@@QEBA?BKXZ
??BPropertyProjectionNormal@PSParticle@@QEBA?BVbCVector@@XZ
??BPropertyPurchaseModifier@PSDialog@@QEBA?BMXZ
??BPropertyRandomSubdivision@PSParticle@@QEBA?B_NXZ
??BPropertyRansacked@PSNpc@@QEBA?B_NXZ
??BPropertyReason@PSNpc@@QEBA?BW4gEReason@@XZ
??BPropertyRelativeWarmupTime@PSParticle@@QEBA?BMXZ
??BPropertyResetOnTrigger@PSParticle@@QEBA?B_NXZ
??BPropertyRespawnDeadParticles@PSParticle@@QEBA?B_NXZ
??BPropertyResultAmount@PSRecipe@@QEBA?BKXZ
??BPropertyRevolutionCenterOffset@PSParticle@@QEBA?BVbCRange3@@XZ
??BPropertyRevolutionScaleRepeats@PSParticle@@QEBA?BMXZ
??BPropertyRevolutionsPerSecond@PSParticle@@QEBA?BVbCRange3@@XZ
??BPropertyRotationDampingFactor@PSParticle@@QEBA?BVbCRange3@@XZ
??BPropertyRoutine@PSRoutine@@QEBA?BVeCScriptProxyScript@@XZ
??BPropertyRoutineChanged@PSRoutine@@QEBA?B_NXZ
??BPropertyRoutineTask@PSInteraction@@QEBA?BVgCScriptProxyAIState@@XZ
??BPropertySaleModifier@PSDialog@@QEBA?BMXZ
??BPropertySecondsBeforeInactive@PSParticle@@QEBA?BMXZ
??BPropertySecurityLevelFunc@PSAIZone@@QEBA?BVeCScriptProxyScript@@XZ
??BPropertyShootScript@PSProjectile@@QEBA?BVeCScriptProxyScript@@XZ
??BPropertySizeScaleRepeats@PSParticle@@QEBA?BMXZ
??BPropertySlaveryEnabled@PSDialog@@QEBA?B_NXZ
??BPropertySpawnFromOtherEmitter@PSParticle@@QEBA?BVeCEntityProxy@@XZ
??BPropertySpawnNumParticles@PSParticle@@QEBA?BVbCRange1@@XZ
??BPropertySpawnedVelocityScale@PSParticle@@QEBA?BVbCRange3@@XZ
??BPropertySpecies@PSNpc@@QEBA?BW4gESpecies@@XZ
??BPropertySpinDirection@PSParticle@@QEBA?BMXZ
??BPropertySpinParticles@PSParticle@@QEBA?B_NXZ
??BPropertySpinsPerSecond@PSParticle@@QEBA?BVbCRange3@@XZ
??BPropertyStartBoxLocation@PSParticle@@QEBA?BVbCRange3@@XZ
??BPropertyStartLocationOffset@PSParticle@@QEBA?BVbCVector@@XZ
??BPropertyStartLocationShape@PSParticle@@QEBA?BW4eELocationShape@@XZ
??BPropertyStartPosition@PSNavigation@@QEBA?BVbCVector@@XZ
??BPropertyStartSize@PSParticle@@QEBA?BVbCRange3@@XZ
??BPropertyStartSphereRadius@PSParticle@@QEBA?BVbCRange1@@XZ
??BPropertyStartSpin@PSParticle@@QEBA?BVbCRange3@@XZ
??BPropertyStartTask@PSCastInfo@@QEBA?BVbCString@@XZ
??BPropertyStartVelocity@PSParticle@@QEBA?BVbCRange3@@XZ
??BPropertyStartVelocity@PSProjectile@@QEBA?BMXZ
??BPropertyStatePosition@PSRoutine@@QEBA?BJXZ
??BPropertyStatus@PSArena@@QEBA?BW4gEArenaStatus@@XZ
??BPropertyStatus@PSDoor@@QEBA?BW4gEDoorStatus@@XZ
??BPropertyStatus@PSLock@@QEBA?BW4gELockStatus@@XZ
??BPropertyStepHeight@PSCharacterMovement@@QEBA?BMXZ
??BPropertyStretchToEmitter@PSParticle@@QEBA?B_NXZ
??BPropertySubdivisionEnd@PSParticle@@QEBA?BHXZ
??BPropertySubdivisionScaleRepeats@PSParticle@@QEBA?BMXZ
??BPropertySubdivisionStart@PSParticle@@QEBA?BHXZ
??BPropertyTalkedToPlayer@PSDialog@@QEBA?B_NXZ
??BPropertyTarget@PSParticle@@QEBA?BVeCEntityProxy@@XZ
??BPropertyTaskPosition@PSRoutine@@QEBA?BJXZ
??BPropertyTeachEnabled@PSDialog@@QEBA?B_NXZ
??BPropertyTexture@PSParticle@@QEBA?BVbCString@@XZ
??BPropertyTicksPerSecond@PSParticle@@QEBA?BMXZ
??BPropertyTradeEnabled@PSDialog@@QEBA?B_NXZ
??BPropertyTriggerNumParticles@PSParticle@@QEBA?BVbCRange1@@XZ
??BPropertyTriggerParticlesPerSecond@PSParticle@@QEBA?BMXZ
??BPropertyUniformSize@PSParticle@@QEBA?B_NXZ
??BPropertyUseCollision@PSParticle@@QEBA?B_NXZ
??BPropertyUseColorScale@PSParticle@@QEBA?B_NXZ
??BPropertyUseMaxCollisions@PSParticle@@QEBA?B_NXZ
??BPropertyUseRevolution@PSParticle@@QEBA?B_NXZ
??BPropertyUseRevolutionScale@PSParticle@@QEBA?B_NXZ
??BPropertyUseRotationDamping@PSParticle@@QEBA?B_NXZ
??BPropertyUseRotationFrom@PSParticle@@QEBA?BW4eERotationFrom@@XZ
??BPropertyUseSizeScale@PSParticle@@QEBA?B_NXZ
??BPropertyUseSpawnedVelocityScale@PSParticle@@QEBA?B_NXZ
??BPropertyUseSubdivisionScale@PSParticle@@QEBA?B_NXZ
??BPropertyUseType@PSInteraction@@QEBA?BW4gEInteractionUseType@@XZ
??BPropertyUseType@PSItem@@QEBA?BW4gEItemUseType@@XZ
??BPropertyUseVelocityScale@PSParticle@@QEBA?B_NXZ
??BPropertyVelocityDirectionFrom@PSParticle@@QEBA?BW4eEVelocityDirectionFrom@@XZ
??BPropertyVelocityLoss@PSParticle@@QEBA?BVbCRange3@@XZ
??BPropertyVelocityScaleRepeats@PSParticle@@QEBA?BMXZ
??BPropertyVoice@PSNpc@@QEBA?BVbCString@@XZ
??BPropertyWaiting@PSParty@@QEBA?B_NXZ
??BPropertyWarmupTicksPerSecond@PSParticle@@QEBA?BMXZ
??BTemplate@@QEBA?AVeCTemplateEntityProxy@@XZ
??BTemplate@@QEBAAEBVbCPropertyID@@XZ
??BTemplate@@QEBAPEAVeCEntity@@XZ
??CPSAIZone@@IEAAPEAVgCAIZone_PS@@XZ
??CPSAIZone@@QEBAPEBVgCAIZone_PS@@XZ
??CPSAnchor@@IEAAPEAVgCAnchor_PS@@XZ
??CPSAnchor@@QEBAPEBVgCAnchor_PS@@XZ
??CPSAnimation@@IEAAPEAVeCAnimation_PS@@XZ
??CPSAnimation@@QEBAPEBVeCAnimation_PS@@XZ
??CPSArea@@IEAAPEAVeCArea_StringProperty_PS@@XZ
??CPSArea@@QEBAPEBVeCArea_StringProperty_PS@@XZ
??CPSArena@@IEAAPEAVgCArena_PS@@XZ
??CPSArena@@QEBAPEBVgCArena_PS@@XZ
??CPSBook@@IEAAPEAVgCBook_PS@@XZ
??CPSBook@@QEBAPEBVgCBook_PS@@XZ
??CPSCastInfo@@IEAAPEAVgCCastInfo_PS@@XZ
??CPSCastInfo@@QEBAPEBVgCCastInfo_PS@@XZ
??CPSCharacterMovement@@IEAAPEAVgCCharacterMovement_PS@@XZ
??CPSCharacterMovement@@QEBAPEBVgCCharacterMovement_PS@@XZ
??CPSClock@@IEAAPEAVgCClock_PS@@XZ
??CPSClock@@QEBAPEBVgCClock_PS@@XZ
??CPSCollisionShape@@IEAAPEAVeCCollisionShape_PS@@XZ
??CPSCollisionShape@@QEBAPEBVeCCollisionShape_PS@@XZ
??CPSCombatSystem@@IEAAPEAVgCCombatSystem_PS@@XZ
??CPSCombatSystem@@QEBAPEBVgCCombatSystem_PS@@XZ
??CPSDamage@@IEAAPEAVgCDamage_PS@@XZ
??CPSDamage@@QEBAPEBVgCDamage_PS@@XZ
??CPSDialog@@IEAAPEAVgCDialog_PS@@XZ
??CPSDialog@@QEBAPEBVgCDialog_PS@@XZ
??CPSDoor@@IEAAPEAVgCDoor_PS@@XZ
??CPSDoor@@QEBAPEBVgCDoor_PS@@XZ
??CPSEffect@@IEAAPEAVgCEffect_PS@@XZ
??CPSEffect@@QEBAPEBVgCEffect_PS@@XZ
??CPSInteraction@@IEAAPEAVgCInteraction_PS@@XZ
??CPSInteraction@@QEBAPEBVgCInteraction_PS@@XZ
??CPSInventory@@IEAAPEAVgCInventory_PS@@XZ
??CPSInventory@@QEBAPEBVgCInventory_PS@@XZ
??CPSItem@@IEAAPEAVgCItem_PS@@XZ
??CPSItem@@QEBAPEBVgCItem_PS@@XZ
??CPSLetter@@IEAAPEAVgCLetter_PS@@XZ
??CPSLetter@@QEBAPEBVgCLetter_PS@@XZ
??CPSLock@@IEAAPEAVgCLock_PS@@XZ
??CPSLock@@QEBAPEBVgCLock_PS@@XZ
??CPSMap@@IEAAPEAVgCMap_PS@@XZ
??CPSMap@@QEBAPEBVgCMap_PS@@XZ
??CPSMover@@IEAAPEAVeCMover_PS@@XZ
??CPSMover@@QEBAPEBVeCMover_PS@@XZ
??CPSNavigation@@IEAAPEAVgCNavigation_PS@@XZ
??CPSNavigation@@QEBAPEBVgCNavigation_PS@@XZ
??CPSNpc@@IEAAPEAVgCNPC_PS@@XZ
??CPSNpc@@QEBAPEBVgCNPC_PS@@XZ
??CPSParticle@@IEAAPEAVeCParticle_PS@@XZ
??CPSParticle@@QEBAPEBVeCParticle_PS@@XZ
??CPSParty@@IEAAPEAVgCParty_PS@@XZ
??CPSParty@@QEBAPEBVgCParty_PS@@XZ
??CPSProjectile@@IEAAPEAVgCProjectile2_PS@@XZ
??CPSProjectile@@QEBAPEBVgCProjectile2_PS@@XZ
??CPSRecipe@@IEAAPEAVgCRecipe_PS@@XZ
??CPSRecipe@@QEBAPEBVgCRecipe_PS@@XZ
??CPSRigidBody@@IEAAPEAVeCRigidBody_PS@@XZ
??CPSRigidBody@@QEBAPEBVeCRigidBody_PS@@XZ
??CPSRoutine@@IEAAPEAVgCScriptRoutine_PS@@XZ
??CPSRoutine@@QEBAPEBVgCScriptRoutine_PS@@XZ
??CPSSkills@@IEAAPEAVgCSkills_PS@@XZ
??CPSSkills@@QEBAPEBVgCSkills_PS@@XZ
??CPSStateGraph@@IEAAPEAVgCStateGraph_PS@@XZ
??CPSStateGraph@@QEBAPEBVgCStateGraph_PS@@XZ
??CPSStrip@@IEAAPEAVeCStrip_PS@@XZ
??CPSStrip@@QEBAPEBVeCStrip_PS@@XZ
??_7InfComAttack@@6B@
??_7InfComHeal@@6B@
??_7InfComInfoWait@@6B@
??_7InfComPickPocket@@6B@
??_7InfComRunAIScript@@6B@
??_7InfComSay@@6B@
??_7InfComSayConfirm@@6B@
??_7InfComSayHoldingPosition@@6B@
??_7InfComSayKeepItUp@@6B@
??_7InfComSaySVM@@6B@
??_7InfComSaySound@@6B@
??_7InfComSetSectorStatus@@6B@
??_7InfComSleep@@6B@
??_7InfComThink@@6B@
??_7InfComUse@@6B@
??_FEffect@@QEAAXXZ
?AcceptResolution@GUI2@@QEAA_NXZ
?ActAmbient@ScriptActionTimer@@QEAAH_N@Z
?ActBriefly@ScriptActionTimer@@QEAAHXZ
?ActLong@ScriptActionTimer@@QEAAHXZ
?ActShort@ScriptActionTimer@@QEAAHXZ
?AddActorFlag@PSRigidBody@@QEAAXW4eEPhysicObjectFlag@@@Z
?AddAttachment@PSAnimation@@QEAA_NVbCString@@VEntity@@@Z
?AddBodyFlag@PSRigidBody@@QEAAXW4eERigidbody_Flag@@@Z
?AddChoice@ScriptDestinationCollector@@QEAAXW4gEInteractionUseType@@HM@Z
?AddForce@PSRigidBody@@QEAAXAEBVbCVector@@@Z
?AddForceAtPos@PSAnimation@@QEAAXVbCVector@@0@Z
?AddToParty@PSParty@@QEAA_NVEntity@@@Z
?ApplyHardResolution@GUI2@@QEAA_NKK@Z
?ApplyModSkills@PSItem@@QEAAXAEAVEntity@@@Z
?ApplyResolution@GUI2@@QEAA_NXZ
?ArrangeStacks@PSInventory@@QEAAXXZ
?AssignStackToQuickSlot@PSInventory@@QEAA_NHH@Z
?AssureAll@PSInventory@@QEAAXXZ
?AssureItems@PSInventory@@QEAAHAEBVTemplate@@HW4gEStackType@@@Z
?AssureItemsEx@PSInventory@@QEAAHAEBVTemplate@@HHW4gEStackType@@@Z
?AttachTo@Entity@@QEAA_NPEAVeCEntity@@@Z
?AttachToBone@PSProjectile@@QEBA_NAEAVEntity@@_J@Z
?AttachToSlot@PSInteraction@@QEAA?AVEntity@@AEAVTemplate@@@Z
?AutoSave@World@@QEAAXAEBVbCString@@@Z
?BeginInteraction@PSInteraction@@QEAA_NVEntity@@@Z
?BeginInteraction@PSInteraction@@QEAA_NVEntity@@W4gEInteractionType@@@Z
?BeginStatusEffect@PSNpc@@QEAA_NAEAUgSNPCStatusEffect@@@Z
?BeginTalkedToBy@PSDialog@@QEAAXAEBVEntity@@@Z
?BeginTalkingTo@PSDialog@@QEAAXAEBVEntity@@@Z
?CacheEntities@World@@QEAAXXZ
?CanAttachToSlot@PSInteraction@@QEBA_NAEAVTemplate@@@Z
?CanCast@PSCastInfo@@QEBA_NAEAVEntity@@@Z
?CanComment@ScriptCommentManager@@QEAA_NVEntity@@W4ECommentType@@@Z
?CanContinue@GUI2@@QEAA_NXZ
?CanCounterCurrentTarget@PSCombatSystem@@QEBA_NW4gECombatMove@@@Z
?CanEquipStackToSlot@PSInventory@@QEAA_NHW4gEEquipSlot@@@Z
?CanEvade@Entity@@QEBA_NAEBV1@W4gEDirection@@@Z
?CanGoToState@PSStateGraph@@QEAA_NAEBVbCString@@@Z
?CanGoto@Entity@@QEBA_NAEBV1@@Z
?CanGoto@Entity@@QEBA_NAEBVbCVector@@@Z
?CanInteractWith@PSInteraction@@QEAA_NVEntity@@@Z
?CanInteractWith@PSInteraction@@QEAA_NVEntity@@W4gEInteractionType@@@Z
?CanJump@PSCharacterMovement@@QEBA_NXZ
?CanJumpToZone@Entity@@QEBA_NAEBV1@@Z
?CanStandAtPose@PSCharacterMovement@@QEBA_NAEBVbCMatrix@@_N1@Z
?CanSynthesize@PSInventory@@QEBAHAEBVEntity@@@Z
?CanUse@PSMap@@QEBA_NXZ
?CancelQuest@QuestManager@@SA_NAEBVbCString@@@Z
?ChangeItemAmount@PSInventory@@QEAAHAEBH0@Z
?CheckFlightPath@PSProjectile@@QEBA_NAEBVbCVector@@0@Z
?CheckFlightPath@PSProjectile@@QEBA_NAEBVbCVector@@@Z
?ClearGameLog@GUI2@@QEAAXXZ
?ClearMnemonic@PSNpc@@QEAAXXZ
?ClearOffsetPose@Focus@@QEAAXXZ
?ClearPath@PSStateGraph@@QEAA_NXZ
?ClearStaticPose@PSAnimation@@QEAAXXZ
?Close@GUI2@@QEAA_NW4gEHudPage@@@Z
?CloseMenu@GUI2@@QEAAXXZ
?CloseQuest@QuestManager@@SA_NAEBVbCString@@@Z
?CombatWait@ScriptActionTimer@@QEAAHXZ
?Compare@PSInventory@@QEBAHHH@Z
?Consume@PSCastInfo@@QEAA_NAEAVEntity@@H@Z
?ConsumeItems@PSInventory@@QEAA_NHH@Z
?ContainsContent@PSMap@@QEBA_NXZ
?ContainsEntity@PSMap@@QEBA_NAEBVbCString@@@Z
?ContainsQuest@PSMap@@QEBA_NAEBVbCString@@@Z
?Continue@GUI2@@QEAAXXZ
?ContinueRoutine@PSRoutine@@QEAAXXZ
?CopyFrom@Entity@@IEAA_NAEBV1@@Z
?Create@Template@@AEAAXPEBD@Z
?CreateDependantShapes@PSCharacterMovement@@QEAAXXZ
?CreateDynamicShape@PSCollisionShape@@QEAA_NW4eECollisionShapeType@@W4eEShapeGroup@@M@Z
?CreateItems@PSInventory@@QEAAHAEBVTemplate@@HW4gEStackType@@@Z
?CreateShape@PSCollisionShape@@QEAA_NW4eECollisionShapeType@@W4eEShapeGroup@@VbCVector@@2@Z
?Deactivate@PSProjectile@@QEAAXXZ
?Decay@Entity@@QEAAXXZ
?DelayTravel@ScriptActionTimer@@QEAAHXZ
?DelegateActiveStatus@PSCombatSystem@@QEAA_NXZ
?DeleteItems@PSInventory@@QEAA_NHH@Z
?DeleteSaveGame@World@@QEAA_NAEBK@Z
?DeleteSaveGame@World@@QEAA_NAEBVbCUnicodeString@@@Z
?DeleteStack@PSInventory@@QEAA_NH@Z
?DestroyWaterEmitter@Entity@@QEBA_NXZ
?DetachToSlot@PSInteraction@@QEAA_NAEAVEntity@@@Z
?DetectClimbMode@PSCharacterMovement@@QEAA?AW4gEClimbMode@@W4gEDirection@@@Z
?DetectJumpMode@PSCharacterMovement@@QEAA?AW4gEJumpMode@@W4gEDirection@@@Z
?DoDamage@PSDamage@@QEAA_NAEAVEntity@@0@Z
?DoDamage@PSDamage@@QEAA_NAEAVEntity@@@Z
?DoModal@GUI2@@QEAA_NVbCString@@AEAHPEAX@Z
?DoModalLoop@GUI2@@QEAA_NVbCString@@AEAHPEAX@Z
?DropItemFromSlot@PSInventory@@IEAA?AVEntity@@W4gESlot@@@Z
?DropItemsFromSlot@PSInventory@@IEAA?AVEntity@@W4gESlot@@H@Z
?DropLeftHoldItem@PSInventory@@QEAA?AVEntity@@XZ
?DropRightHoldItem@PSInventory@@QEAA?AVEntity@@XZ
?DropStack@PSInventory@@QEAA?AVEntity@@HAEBVbCMatrix@@@Z
?EnableAutoRefresh@Focus@@QEAAX_N@Z
?EnableAutoUpdate@Music@@QEAAX_N@Z
?EnableCollision@Entity@@QEAAXW4eEShapeGroup@@_NH@Z
?EnableCollision@Entity@@QEAAX_N@Z
?EnableCollisionWith@Entity@@QEAAXAEBV1@_N@Z
?EnableControlByAI@PSRigidBody@@QEAAX_N@Z
?EnableControlByAnimation@PSCharacterMovement@@QEAAX_N@Z
?EnableGameLog@Achievement@@QEAAX_N@Z
?EnableGraivity@PSRigidBody@@QEAAX_N@Z
?EnableGravitation@PSCharacterMovement@@QEAAX_N@Z
?EnableRendering@Entity@@QEAAX_N@Z
?EnableSectorFolder@World@@QEAA_NAEBVbCString@@_N@Z
?EnableTraceRay@Entity@@QEAAX_N@Z
?EndGame@World@@QEAAXXZ
?EndInfoSystem@InfoSystem@@SA_N_N@Z
?EndInteraction@PSInteraction@@QEAA_NXZ
?EndStatusEffect@PSNpc@@QEAA_NW4gEStatusEffect@@@Z
?EndTakeOver@Entity@@QEAAXXZ
?EndTalkedToBy@PSDialog@@QEAAXAEBVEntity@@@Z
?EndTalkingTo@PSDialog@@QEAAXAEBVEntity@@@Z
?EquipStack@PSInventory@@QEAA_NH@Z
?EquipStackToSlot@PSInventory@@QEAA_NHW4gEEquipSlot@@@Z
?ExistsEffect@EffectSystem@@SA_NAEBVbCString@@@Z
?ExistsGameVariable@InfoSystem@@SA_NAEBVbCString@@@Z
?ExitGame@World@@QEAAXXZ
?FailQuest@QuestManager@@SA_NAEBVbCString@@@Z
?FindDeepPoint@Entity@@QEAAMMAEAVbCVector@@@Z
?FindFloorAtPos@PSCharacterMovement@@QEBA_NAEAVbCVector@@@Z
?FindNearestFreeDestination@ScriptDestinationCollector@@IEAAPEAVeCEntity@@W4gEInteractionUseType@@M@Z
?FindNextNPC@Entity@@SA?AVbCString@@AEBV2@0@Z
?FindNextPropertySet@Entity@@QEAA?AVbCString@@AEBV2@@Z
?FindNextPropertySetAttribute@Entity@@QEAA?AVbCString@@AEBV2@0@Z
?FindNextSector@World@@QEAA?AVbCString@@AEBV2@0@Z
?FindNextTemplate@World@@QEBA?AVbCString@@AEBV2@0W4eEPropertySetType@@@Z
?FindPage@GUI2@@QEAAPEAVgCHudPage2@@W4gEHudPage@@@Z
?FindPointOfImpact@PSProjectile@@QEBA?AVbCVector@@AEBV2@0@Z
?FindPopup@GUI2@@QEAAPEAVgCHudPopUp2@@VbCString@@@Z
?FindSpawnPose@Entity@@QEBA_NAEAVbCMatrix@@AEBV1@_NG@Z
?FindStackIndex@PSInventory@@IEBAHW4gESlot@@@Z
?FindStackIndex@PSInventory@@QEBAHAEBVTemplate@@H_N@Z
?FindStackIndex@PSInventory@@QEBAHAEBVTemplate@@W4gEStackType@@H_N@Z
?FindStackIndex@PSInventory@@QEBAHW4gEEquipSlot@@@Z
?FindStackIndex@PSInventory@@QEBAHW4gEItemUseType@@@Z
?FindStackIndexByQuickSlot@PSInventory@@QEBAHH@Z
?FullStop@PSRoutine@@QEAAXXZ
?GameReset@Input@@QEAAXXZ
?GetAIGotoDestination@PSNavigation@@QEBA?AVEntity@@XZ
?GetAIScriptName@InfComRunAIScript@@QEAA?AVbCString@@XZ
?GetAIZoneGroup@Entity@@QEBA?AVbCString@@XZ
?GetAIZoneGuild@Entity@@QEBA?AW4gEGuild@@XZ
?GetAIZoneSecurityLevel@Entity@@QEBA?AW4gESecurityLevel@@XZ
?GetAcrobat@PSSkills@@QEBAHXZ
?GetActionKey@Input@@QEAA?AW4gEActionKey@@K@Z
?GetActionKeyDescription@Input@@QEAA?AVbCUnicodeString@@K@Z
?GetActionKeyInfo@Input@@QEAAAEBUgSActionKeyInfo@@W4gEActionKey@@@Z
?GetActionTarget@PSRoutine@@QEBA?AVEntity@@XZ
?GetAgressor@PSDamage@@QEAA?AVEntity@@XZ
?GetAlchemy@PSSkills@@QEBAHXZ
?GetAlignmentLookAt@PSCharacterMovement@@QEBA?AVbCVector@@XZ
?GetAlignmentSpeed@PSCharacterMovement@@QEBAMXZ
?GetAlignmentTarget@Entity@@QEBA?AV1@XZ
?GetAlignmentTarget@PSCharacterMovement@@QEBA?AVEntity@@XZ
?GetAlternative@ScriptDestinationCollector@@QEAA?AVEntity@@AEAV2@HM@Z
?GetAmmoStack@PSCastInfo@@QEAAHAEAVEntity@@@Z
?GetAmount@PSInventory@@QEBAHH@Z
?GetAmount@PSItem@@QEBAKXZ
?GetAnchorPoint@PSInteraction@@QEBA?AVEntity@@XZ
?GetAni@Entity@@QEBA?AVbCString@@AEBV2@0W4gEDirection@@_NW4gECombatPose@@W4gEAniState@@@Z
?GetAni@Entity@@QEBA?AVbCString@@AEBV2@W4gEItemUseType@@10W4gEDirection@@_NW4gECombatPose@@W4gEAniState@@3@Z
?GetAniDirection@PSNavigation@@QEBA?AW4gEDirection@@XZ
?GetAniEx@Entity@@QEBA?AVbCString@@AEBV2@0_NW4gEDirection@@1W4gECombatPose@@W4gEAniState@@@Z
?GetAniEx@Entity@@QEBA?AVbCString@@W4gEItemUseType@@0AEBV2@1_NW4gEDirection@@2W4gECombatPose@@W4gEAniState@@2@Z
?GetAniMaxTime@PSAnimation@@QEBAMW4eEMotionType@eAnimShared@@@Z
?GetAniPlayTime@PSAnimation@@QEBAMW4eEMotionType@eAnimShared@@@Z
?GetAniState@PSRoutine@@QEBA?AW4gEAniState@@XZ
?GetAtVector@Entity@@QEBA?AVbCVector@@XZ
?GetAziElev@Entity@@QEBAXAEBV1@AEAM1@Z
?GetAziElev@Entity@@QEBAXAEBVbCVector@@AEAM1@Z
?GetBase@PSSkills@@QEBAHW4gESkill@@@Z
?GetBodyPart@PSAnimation@@AEAAPEAVeCBodyPart_PS@@W4gESlot@@@Z
?GetBoneIndex@PSProjectile@@QEBAH_J@Z
?GetBoneName@PSAnimation@@QEBA?AVbCString@@H@Z
?GetBonePose@PSAnimation@@QEBA?AVbCMatrix@@VbCString@@@Z
?GetBoundingRadius@Entity@@QEBAMXZ
?GetBoundingSphere@Entity@@QEBA?AVbCSphere@@XZ
?GetBrakingTime@PSCharacterMovement@@QEBAMXZ
?GetCameraPose@Entity@@SA?AVbCMatrix@@XZ
?GetCameraTarget@Entity@@SA?BV1@AEAV1@AEA_NAEAVbCVector@@@Z
?GetCastStack@PSCastInfo@@QEAAHAEAVEntity@@@Z
?GetCategory@PSInventory@@QEBA?AW4gEItemCategory@@H@Z
?GetCategory@PSItem@@QEBA?AW4gEItemCategory@@XZ
?GetCategory@PSSkills@@QEBA?AW4gESkillCategroy@@W4gESkill@@@Z
?GetCeilingY@PSCharacterMovement@@QEBAMXZ
?GetCircle@PSSkills@@QEBAHXZ
?GetClimbBeginPlayed@PSCharacterMovement@@QEBA_NXZ
?GetClimbLoopPlayed@PSCharacterMovement@@QEBA_NXZ
?GetCollisionGroup@Entity@@QEBA?AW4eECollisionGroup@@XZ
?GetCombatAxe@PSSkills@@QEBAHXZ
?GetCombatBow@PSSkills@@QEBAHXZ
?GetCombatCrossBow@PSSkills@@QEBAHXZ
?GetCombatMode@PSCombatSystem@@QEBA?AW4gECombatMode@@HH@Z
?GetCombatMode@PSCombatSystem@@QEBA?AW4gECombatMode@@W4gEItemUseType@@0@Z
?GetCombatMode@PSCombatSystem@@QEBA?AW4gECombatMode@@XZ
?GetCombatPose@PSCombatSystem@@QEBA?AW4gECombatPose@@HH@Z
?GetCombatPose@PSCombatSystem@@QEBA?AW4gECombatPose@@W4gEItemUseType@@0@Z
?GetCombatPose@PSCombatSystem@@QEBA?AW4gECombatPose@@XZ
?GetCombatStaff@PSSkills@@QEBAHXZ
?GetCombatSword@PSSkills@@QEBAHXZ
?GetCombatWalkMode@PSCombatSystem@@QEBA?AW4gEWalkMode@@XZ
?GetCommandLineA@World@@QEAA?AVbCString@@XZ
?GetControledNPC@Entity@@SA?AV1@XZ
?GetCurrentActionEvent@Input@@QEBAAEBUgSAction@@XZ
?GetCurrentAniDirection@Entity@@QEBA?AW4gEDirection@@XZ
?GetCurrentAttacker@PSCombatSystem@@QEBA?AVEntity@@XZ
?GetCurrentAttacker@PSNpc@@QEBA?AVEntity@@XZ
?GetCurrentCameraName@Entity@@SAAEAVbCString@@XZ
?GetCurrentCanInteractScript@PSInteraction@@QEAA?AVeCScriptProxyScript@@XZ
?GetCurrentChapter@Entity@@SAKXZ
?GetCurrentCommand@InfoSystem@@KAPEAVgCInfoCommand@@XZ
?GetCurrentCommandAttack@InfoSystem@@SAAEAVInfComAttack@@XZ
?GetCurrentCommandHeal@InfoSystem@@SAAEAVInfComHeal@@XZ
?GetCurrentCommandInfoWait@InfoSystem@@SAAEAVInfComInfoWait@@XZ
?GetCurrentCommandIsValid@InfoSystem@@SA_NXZ
?GetCurrentCommandName@InfoSystem@@SA?AVbCString@@XZ
?GetCurrentCommandPickPocket@InfoSystem@@SAAEAVInfComPickPocket@@XZ
?GetCurrentCommandRunAIScript@InfoSystem@@SAAEAVInfComRunAIScript@@XZ
?GetCurrentCommandSay@InfoSystem@@SAAEAVInfComSay@@XZ
?GetCurrentCommandSayConfirm@InfoSystem@@SAAEAVInfComSayConfirm@@XZ
?GetCurrentCommandSayHoldingPosition@InfoSystem@@SAAEAVInfComSayHoldingPosition@@XZ
?GetCurrentCommandSayKeepItUp@InfoSystem@@SAAEAVInfComSayKeepItUp@@XZ
?GetCurrentCommandSaySVM@InfoSystem@@SAAEAVInfComSaySVM@@XZ
?GetCurrentCommandSaySound@InfoSystem@@SAAEAVInfComSaySound@@XZ
?GetCurrentCommandSetSectorStatus@InfoSystem@@SAAEAVInfComSetSectorStatus@@XZ
?GetCurrentCommandSleep@InfoSystem@@SAAEAVInfComSleep@@XZ
?GetCurrentCommandThink@InfoSystem@@SAAEAVInfComThink@@XZ
?GetCurrentCommandType@InfoSystem@@SA?AW4gEInfoCommand@@XZ
?GetCurrentCommandUse@InfoSystem@@SAAEAVInfComUse@@XZ
?GetCurrentDebugEvent@Input@@QEBAAEBUgSDebugAction@@XZ
?GetCurrentDestinationPoint@PSNavigation@@QEBA?AVEntity@@XZ
?GetCurrentDifficulty@Entity@@SA?AW4EDifficulty@@XZ
?GetCurrentInfoIsComment@InfoSystem@@SA_NXZ
?GetCurrentIntParam@PSInteraction@@QEAAHXZ
?GetCurrentInteractScript@PSInteraction@@QEAA?AVgCScriptProxyAIFunction@@XZ
?GetCurrentMove@PSCombatSystem@@QEBA?AW4gECombatMove@@XZ
?GetCurrentMovementAni@PSNpc@@QEBA?AVbCString@@XZ
?GetCurrentNavigationTarget@PSNavigation@@QEBA?AVbCVector@@XZ
?GetCurrentPowerLoad@PSCombatSystem@@QEBAMXZ
?GetCurrentPreInteractScript@PSInteraction@@QEAA?AVgCScriptProxyAIFunction@@XZ
?GetCurrentRoutineTask@PSRoutine@@QEBA?AVbCString@@XZ
?GetCurrentState@PSRoutine@@QEBA?AVbCString@@XZ
?GetCurrentTarget@PSCombatSystem@@QEBA?AVEntity@@XZ
?GetCurrentTarget@PSInteraction@@QEBA?AVEntity@@XZ
?GetCurrentTarget@PSNpc@@QEBA?AVEntity@@XZ
?GetCurrentTask@PSRoutine@@QEBA?AVbCString@@XZ
?GetCurrentUser@PSInteraction@@QEBA?AVEntity@@XZ
?GetCurrentZone@PSNavigation@@QEBA?AVEntity@@XZ
?GetDCCEnabled@PSNavigation@@QEBA_NXZ
?GetDCCRadius@PSNavigation@@QEBAMXZ
?GetDay@PSClock@@QEBAHXZ
?GetDebugMode@PSAnimation@@QEBA_NXZ
?GetDefault@PSSkills@@QEBAHW4gESkill@@@Z
?GetDefaultItemFromSlot@PSInventory@@IEBA?AVEntity@@W4gESlot@@@Z
?GetDescription@PSSkills@@QEBA?AVbCUnicodeString@@W4gESkill@@@Z
?GetDexterity@PSSkills@@QEBAHXZ
?GetDifficulty@InfComPickPocket@@QEAAKXZ
?GetDirectionOfMovementKeys@Input@@QEBA?AW4gEDirection@@XZ
?GetDirectionTo@Entity@@QEBA?AVbCVector@@AEBV1@@Z
?GetDisplayName@Entity@@QEBA?AVbCString@@XZ
?GetDistanceTo@Entity@@QEBAMAEBV1@@Z
?GetDistanceToGround@PSCharacterMovement@@QEAA_NAEAM@Z
?GetDuration@Tutorial@@QEBAHVbCString@@@Z
?GetEffectMaterialName@PSCombatSystem@@QEBA?AVbCString@@XZ
?GetEnable@Tutorial@@QEBA_NXZ
?GetEnableLogMessages@GUI2@@QEBA_NXZ
?GetEngineEntity@Entity@@IEBAPEAVeCEntity@@XZ
?GetEntities@Entity@@SA?AV?$bTObjArray@VEntity@@@@XZ
?GetEntitiesByDistance@Entity@@QEBA?AV?$bTObjArray@VEntity@@@@XZ
?GetEntitiesByName@Entity@@SA?AV?$bTValArray@PEAVeCEntity@@@@VbCString@@@Z
?GetEntity1@InfComAttack@@QEAA?AVEntity@@XZ
?GetEntity1@InfComHeal@@QEAA?AVEntity@@XZ
?GetEntity1@InfComSleep@@QEAA?AVEntity@@XZ
?GetEntity1@InfComUse@@QEAA?AVEntity@@XZ
?GetEntity2@InfComAttack@@QEAA?AVEntity@@XZ
?GetEntity2@InfComHeal@@QEAA?AVEntity@@XZ
?GetEntity@Entity@@SA?AV1@VbCString@@@Z
?GetEquipOwner@PSItem@@QEBA?AVEntity@@XZ
?GetEquipSlotFromStack@PSInventory@@QEBA?AW4gEEquipSlot@@H@Z
?GetEquipSlotUseType@PSInventory@@QEBA?AW4gEItemUseType@@W4gEEquipSlot@@@Z
?GetEvadeDestination@Entity@@QEBA?AVbCVector@@AEBV1@W4gEDirection@@@Z
?GetExperience@PSSkills@@QEBAHXZ
?GetFactor@PSClock@@QEBAMXZ
?GetFailStack@PSCastInfo@@QEAAHAEAVEntity@@@Z
?GetFallDistance@PSCharacterMovement@@QEBAMXZ
?GetFallbackAniState@PSRoutine@@QEBA?AW4gEAniState@@XZ
?GetFireball@PSSkills@@QEBAHXZ
?GetFleePoint@Entity@@QEAA?AV1@AEAV1@_NM@Z
?GetFloorEntity@PSCharacterMovement@@QEBA?AVEntity@@XZ
?GetFloorMaterial@PSCharacterMovement@@QEBA?AW4eEShapeMaterial@@XZ
?GetFloorY@PSCharacterMovement@@QEBAMXZ
?GetFocus@World@@QEBA?AVEntity@@XZ
?GetFocusEntity@Focus@@QEBA?AVEntity@@XZ
?GetFocusMode@Focus@@QEBA?AVbCString@@XZ
?GetFocusName@PSInteraction@@QEBA?AVbCUnicodeString@@XZ
?GetFrost@PSSkills@@QEBAHXZ
?GetGameVariable@InfoSystem@@SA_NAEBVbCString@@AEAH@Z
?GetGesture@InfComPickPocket@@QEAA?AW4gEInfoGesture@@XZ
?GetGesture@InfComSay@@QEAA?AW4gEInfoGesture@@XZ
?GetGesture@InfComSaySVM@@QEAA?AW4gEInfoGesture@@XZ
?GetGesture@InfComThink@@QEAA?AW4gEInfoGesture@@XZ
?GetGoldValue@PSItem@@QEBAHXZ
?GetGotoStatus@PSNavigation@@QEBA?AW4gEGotoStatus@@XZ
?GetGroundBias@PSCharacterMovement@@QEBA?AVEntity@@XZ
?GetGuardPoint@PSNpc@@QEBA?AVEntity@@XZ
?GetHitAngle@PSProjectile@@QEBAM_J@Z
?GetHitPoints@PSSkills@@QEBAHXZ
?GetHitPointsMax@PSSkills@@QEBAHXZ
?GetHitPointsPercent@PSSkills@@QEBAHXZ
?GetHitSufferRadius@PSCombatSystem@@QEBAMXZ
?GetHoldAni@Entity@@QEBA?AVbCString@@AEBV2@W4gEItemHoldType@@10W4gEDirection@@_NW4gECombatPose@@@Z
?GetHoldAniEx@Entity@@QEBA?AVbCString@@W4gEItemHoldType@@0AEBV2@1_NW4gEDirection@@2W4gECombatPose@@@Z
?GetHoldOverlayAni@Entity@@QEBA?AVbCString@@AEBV2@W4gEItemHoldType@@10W4gEDirection@@_NW4gECombatPose@@@Z
?GetHoldType@PSInventory@@QEBA?AW4gEItemHoldType@@H@Z
?GetHoldType@PSItem@@QEBA?AVbCString@@XZ
?GetHoldType@PSItem@@SA?AVbCString@@W4gEItemHoldType@@@Z
?GetHour@PSClock@@QEBAHXZ
?GetIconImage@PSItem@@QEBA?AVbCString@@XZ
?GetImageAspectRatio@PSMap@@QEBAMXZ
?GetIngredientAmount@PSRecipe@@QEBAHH@Z
?GetIngredientCount@PSRecipe@@QEBAKXZ
?GetIngredientItem@PSRecipe@@QEBA?AVEntity@@H@Z
?GetInstance@Entity@@QEBAPEAVeCEntity@@XZ
?GetIntelligence@PSSkills@@QEBAHXZ
?GetInteract@World@@QEBA?AVEntity@@XZ
?GetInteractPoints@PSAnchor@@QEBA?AV?$bTObjArray@VEntity@@@@_N@Z
?GetItem@InfComUse@@QEAA?AVTemplate@@XZ
?GetItemAmount@PSInventory@@QEBAHAEBVTemplate@@@Z
?GetItemAmount@PSInventory@@QEBAHW4gEItemUseType@@@Z
?GetItemFromSlot@PSInventory@@IEBA?AVEntity@@W4gESlot@@@Z
?GetKey@PSLock@@QEBA?AVTemplate@@XZ
?GetKeyPressDuration@Input@@QEBAMW4gEActionKey@@@Z
?GetKeyReleasedDuration@Input@@QEBAMW4gEActionKey@@@Z
?GetLastAmbientWasLoop@PSAnimation@@QEBA_NXZ
?GetLastAnimationVariation@PSAnimation@@QEBAHXZ
?GetLastAttackMove@PSCombatSystem@@QEAA?AW4gECombatMove@@XZ
?GetLastAttacker@PSNpc@@QEBA?AVEntity@@XZ
?GetLastCTRClimbEdgeDetected@PSCharacterMovement@@QEBA_NXZ
?GetLastCTRClimbFlightDuration@PSCharacterMovement@@QEBAMXZ
?GetLastCTRClimbMode@PSCharacterMovement@@QEBA?AW4gEClimbMode@@XZ
?GetLastCTRClimbTargetEntity@PSCharacterMovement@@QEBA?AVEntity@@XZ
?GetLastCTRClimbTargetGroundAngle@PSCharacterMovement@@QEBAMXZ
?GetLastCTRClimbTargetNormal@PSCharacterMovement@@QEBA?AVbCVector@@XZ
?GetLastCTRClimbTargetPoint@PSCharacterMovement@@QEBA?AVbCVector@@XZ
?GetLastJTRJumpFlightDuration@PSCharacterMovement@@QEBAMXZ
?GetLastJTRJumpMode@PSCharacterMovement@@QEBA?AW4gEJumpMode@@XZ
?GetLastKeyDown@Input@@QEBA?AW4gEActionKey@@AEAM@Z
?GetLastKeyUp@Input@@QEBA?AW4gEActionKey@@AEAM@Z
?GetLastMovementMode@PSCharacterMovement@@QEBA?AW4gECharMovementMode@@XZ
?GetLastNavigationPosition@PSNavigation@@QEBA?AVbCVector@@XZ
?GetLastTask@PSRoutine@@QEBA?AVbCString@@XZ
?GetLastWaterContact@PSNavigation@@QEBA?AVEntity@@XZ
?GetLastZone@PSNavigation@@QEBA?AVEntity@@XZ
?GetLearnPoints@PSSkills@@QEBAHXZ
?GetLeftFistItem@PSCombatSystem@@QEBA?AVTemplate@@XZ
?GetLeftHoldItem@PSInventory@@QEBA?AVEntity@@XZ
?GetLeftHoldStack@PSInventory@@QEBAHXZ
?GetLeftHoldType@PSInventory@@QEBA?AW4gEItemHoldType@@XZ
?GetLeftHoldUseType@PSInventory@@QEBA?AW4gEItemUseType@@XZ
?GetLevel@PSSkills@@QEBAHXZ
?GetLevitationUpVeloPercentage@PSCharacterMovement@@QEBAMXZ
?GetLinearVelocity@Entity@@QEBA?AVbCVector@@XZ
?GetListOfAreaWithProperty@Entity@@QEAA_NAEBVbCString@@AEAV?$bTObjArray@VbCString@@@@@Z
?GetListOfAreaWithProperty@Entity@@QEAA_NAEBVbCString@@AEAV?$bTValArray@PEAVeCEntity@@@@@Z
?GetListOfAreaWithProperty@Entity@@QEAA_NAEBVbCVector@@AEBVbCString@@AEAV?$bTObjArray@VbCString@@@@@Z
?GetListOfAreaWithProperty@Entity@@QEAA_NAEBVbCVector@@AEBVbCString@@AEAV?$bTValArray@PEAVeCEntity@@@@@Z
?GetListOfPropertyNames@Entity@@QEAA_NAEAV?$bTObjArray@VbCString@@@@@Z
?GetListOfPropertyNames@Entity@@QEAA_NAEBVbCVector@@AEAV?$bTObjArray@VbCString@@@@@Z
?GetListener@InfComPickPocket@@QEAA?AVEntity@@XZ
?GetListener@InfComSay@@QEAA?AVEntity@@XZ
?GetListener@InfComSayConfirm@@QEAA?AVEntity@@XZ
?GetListener@InfComSayHoldingPosition@@QEAA?AVEntity@@XZ
?GetListener@InfComSayKeepItUp@@QEAA?AVEntity@@XZ
?GetListener@InfComSaySVM@@QEAA?AVEntity@@XZ
?GetLoadingImage@Tutorial@@QEBA?AVbCString@@XZ
?GetLoadingText@Tutorial@@QEBA?AVbCUnicodeString@@XZ
?GetLocalCallback@PSRoutine@@QEBA?AVbCString@@XZ
?GetLockPickCombination@PSLock@@QEBA?AW4gELockCombi@@H@Z
?GetLockPickCombinationCount@PSLock@@QEBAHXZ
?GetLockpick@PSSkills@@QEBAHXZ
?GetManaPoints@PSSkills@@QEBAHXZ
?GetManaPointsMax@PSSkills@@QEBAHXZ
?GetManaPointsPercent@PSSkills@@QEBAHXZ
?GetMaterial@PSProjectile@@QEBA?AW4eEShapeMaterial@@_J@Z
?GetMaterialName@Entity@@SA?AVbCString@@W4eEShapeMaterial@@@Z
?GetMaxUserCount@PSAnchor@@QEBAHXZ
?GetMaximum@PSSkills@@QEBAHW4gESkill@@@Z
?GetMinimum@PSSkills@@QEBAHW4gESkill@@@Z
?GetMining@PSSkills@@QEBAHXZ
?GetMinute@PSClock@@QEBAHXZ
?GetMissile@PSSkills@@QEBAHXZ
?GetModSkills@PSItem@@QEBAAEBV?$bTObjArray@VgCModifySkill@@@@XZ
?GetMode@GUI2@@QEBA?AW4gEHudMode@@XZ
?GetModification@PSSkills@@QEBAHW4gESkill@@@Z
?GetMoneyAmount@PSInventory@@QEBAMXZ
?GetMonth@PSClock@@QEBAHXZ
?GetMovementMode@Entity@@QEBA?AW4gECharMovementMode@@XZ
?GetMovementMode@PSCharacterMovement@@QEBA?AW4gECharMovementMode@@XZ
?GetMusicVolume@Music@@QEAAMXZ
?GetNPC@InfoSystem@@SA?AVEntity@@XZ
?GetNPCs@Entity@@SA?AV?$bTObjArray@VEntity@@@@XZ
?GetName@Entity@@QEBA?AVbCString@@XZ
?GetName@PSSkills@@QEBA?AVbCUnicodeString@@W4gESkill@@@Z
?GetNavigationZone@PSInteraction@@QEBA?AVEntity@@XZ
?GetNearIdleTime@PSCharacterMovement@@QEBAMXZ
?GetNearestFleePoint@Entity@@QEAA?AV1@AEAV1@M@Z
?GetNearestNavigationPoint@Entity@@QEAA?AVbCVector@@V2@M@Z
?GetNetIndex@Entity@@QEBAKXZ
?GetNextMove@PSCombatSystem@@QEBA?AW4gECombatMove@@XZ
?GetNextPatrolPoint@Entity@@SA?AV1@AEBV1@@Z
?GetNextWalkDuration@PSCombatSystem@@QEBAMXZ
?GetNumRefreshRates@GUI2@@QEAAHH@Z
?GetNumResolutions@GUI2@@QEAAHXZ
?GetNumTouchingShapes@PSCollisionShape@@QEAAHXZ
?GetOffsetPose@Focus@@QEBA?AVbCMatrix@@XZ
?GetOnEnterWaterScript@PSNavigation@@QEBAAEBVeCScriptProxyScript@@XZ
?GetOnLeaveWaterScript@PSNavigation@@QEBAAEBVeCScriptProxyScript@@XZ
?GetOnWaterScript@PSNavigation@@QEBAAEBVeCScriptProxyScript@@XZ
?GetOriginalPlayer@Entity@@SA?AV1@XZ
?GetOther@InfComRunAIScript@@QEAA?AVEntity@@XZ
?GetOverlayAni@Entity@@QEBA?AVbCString@@AEBV2@0W4gEDirection@@_NW4gECombatPose@@@Z
?GetOverlayAni@Entity@@QEBA?AVbCString@@AEBV2@W4gEItemUseType@@10W4gEDirection@@_NW4gECombatPose@@@Z
?GetOwner@Entity@@QEBA?AV1@XZ
?GetOwner@PSInteraction@@QEBA?AVEntity@@XZ
?GetPageMode@GUI2@@QEBA?AW4gEPageMode@@XZ
?GetParameter@InfComRunAIScript@@QEAAHXZ
?GetPartyLeader@PSParty@@QEBA?AVEntity@@XZ
?GetPartyMembers@PSParty@@QEBA?AV?$bTValArray@PEAVeCEntity@@@@_N@Z
?GetPartyName@PSParty@@QEBA?AVbCString@@XZ
?GetPendingRefreshRate@GUI2@@QEAAHXZ
?GetPendingResolution@GUI2@@QEAAHXZ
?GetPhysicMaterial@PSCollisionShape@@QEAA?AW4eEShapeMaterial@@XZ
?GetPickpocket@PSSkills@@QEBAHXZ
?GetPivotVelocity@PSRigidBody@@QEBA?AVbCVector@@XZ
?GetPlayer@Entity@@SA?AV1@XZ
?GetPlayer@World@@QEBA?AVEntity@@XZ
?GetPlayingTime@Entity@@SAMXZ
?GetPlayingTimeInSeconds@Entity@@SAMXZ
?GetPointOfImpact@PSProjectile@@QEBA?AVbCVector@@_J@Z
?GetPose@Entity@@QEBA?AVbCMatrix@@XZ
?GetPosition@Entity@@QEBA?AVbCVector@@XZ
?GetProperty@Achievement@@QEBA_NHHAEAJ@Z
?GetProperty@Achievement@@QEBA_NHHAEAM@Z
?GetProperty@Achievement@@QEBA_NHHAEAN@Z
?GetProperty@Achievement@@QEBA_NHHAEA_J@Z
?GetPropertySetAttribute@Entity@@QEAA?AVbCString@@AEBV2@0@Z
?GetProtBlunt@PSSkills@@QEBAHXZ
?GetProtEdge@PSSkills@@QEBAHXZ
?GetProtFire@PSSkills@@QEBAHXZ
?GetProtIce@PSSkills@@QEBAHXZ
?GetProtMagic@PSSkills@@QEBAHXZ
?GetProtPoint@PSSkills@@QEBAHXZ
?GetProtection@PSSkills@@QEAAHW4gEDamageType@@@Z
?GetPurchaseAmount@PSInventory@@QEBAMAEBVEntity@@@Z
?GetQuickslotFromStack@PSInventory@@QEBAHH@Z
?GetRandomNavigationPoint@Entity@@QEAA?AVbCVector@@V2@M@Z
?GetRandomNumber@Entity@@SAHH@Z
?GetReason@InfComAttack@@QEAA?AVbCString@@XZ
?GetRefreshRate@GUI2@@QEAAKHH@Z
?GetRelaxingPoint@PSNavigation@@QEBA?AVEntity@@XZ
?GetRequiredSkill@PSRecipe@@QEBA?AW4gESkill@@H@Z
?GetRequiredSkillAmount@PSRecipe@@QEBAHH@Z
?GetRequiredSkillCount@PSRecipe@@QEBAKXZ
?GetRequirement@PSSkills@@QEBA?AVbCUnicodeString@@W4gESkill@@@Z
?GetResolution@GUI2@@QEAA?AVbCPoint@@H@Z
?GetResourceName@PSAnimation@@QEBA?AVbCString@@XZ
?GetRestorePlayerCombatMode@Entity@@SA?AW4gECombatMode@@XZ
?GetResultItem@PSRecipe@@QEBA?AVEntity@@XZ
?GetRightFistItem@PSCombatSystem@@QEBA?AVTemplate@@XZ
?GetRightHoldItem@PSInventory@@QEBA?AVEntity@@XZ
?GetRightHoldStack@PSInventory@@QEBAHXZ
?GetRightHoldType@PSInventory@@QEBA?AW4gEItemHoldType@@XZ
?GetRightHoldUseType@PSInventory@@QEBA?AW4gEItemUseType@@XZ
?GetRoamingPointsByName@Entity@@SA?AV?$bTValArray@PEAVeCEntity@@@@VbCString@@@Z
?GetRoom@Entity@@QEBA?AV1@XZ
?GetRoom@Entity@@SA?AV1@AEBVbCVector@@@Z
?GetRoutinePoint@PSNavigation@@QEBA?AVEntity@@W4ERoutineTime@@@Z
?GetSVMID@InfComPickPocket@@QEAA?AVbCString@@XZ
?GetSVMID@InfComSaySVM@@QEAA?AVbCString@@XZ
?GetSVMTextID@InfComPickPocket@@QEAA?AVbCString@@XZ
?GetSaleAmount@PSInventory@@QEBAMAEBVEntity@@@Z
?GetSampleTitle@Entity@@QEBA?AVbCString@@V2@@Z
?GetSaveGameCount@World@@QEBAHXZ
?GetSaveGameDate@World@@QEBA?AVbCString@@AEBV2@@Z
?GetSaveGameDateShort@World@@QEBA?AVbCString@@AEBV2@@Z
?GetSaveGameFileName@World@@QEBA?AVbCString@@H@Z
?GetSaveGameLocation@World@@QEBA?AVbCUnicodeString@@AEBVbCString@@@Z
?GetSaveGameName@World@@QEBA?AVbCUnicodeString@@AEBVbCString@@@Z
?GetSaveGamePlayTime@World@@QEBA?AVbCUnicodeString@@AEBVbCString@@@Z
?GetSaveGameTime@World@@QEBA?AVbCString@@AEBV2@@Z
?GetScanCodeDescription@Input@@QEAA?AVbCUnicodeString@@K@Z
?GetScribe@PSSkills@@QEBAHXZ
?GetSectorEnabled@InfComSetSectorStatus@@QEAA_NXZ
?GetSectorName@InfComSetSectorStatus@@QEAA?AVbCString@@XZ
?GetSectorStatus@World@@QEAA_NAEBVbCString@@@Z
?GetSecurityLevel@PSAIZone@@QEBA?AW4gESecurityLevel@@XZ
?GetSelectLimit@PSInventory@@QEBAHH@Z
?GetSelectRemain@PSInventory@@QEBAHH@Z
?GetSelection@PSInventory@@QEBAHH@Z
?GetSelf@InfComRunAIScript@@QEAA?AVEntity@@XZ
?GetShootDirection@PSProjectile@@QEAA_NAEAVbCVector@@AEBVEntity@@AEBV2@MM@Z
?GetShootDirection@PSProjectile@@QEAA_NAEAVbCVector@@AEBVEntity@@MM@Z
?GetShooter@PSProjectile@@QEBA?AVEntity@@XZ
?GetShowSkeleton@PSAnimation@@QEBA_NXZ
?GetSkeletonName@Entity@@QEBA?AVbCString@@XZ
?GetSkeletonName@PSAnimation@@QEBA_NAEAVbCString@@@Z
?GetSleepingPoint@PSNavigation@@QEBA?AVEntity@@XZ
?GetSlideDistance@PSCharacterMovement@@QEBAMXZ
?GetSlideStartedFrontally@PSCharacterMovement@@QEBA_NXZ
?GetSliderThreshold@GUI2@@QEBAHXZ
?GetSlotAttachedTo@PSInteraction@@QEAA?AVEntity@@XZ
?GetSlotCount@PSInteraction@@QEAAHXZ
?GetSlotFromStack@PSInventory@@IEBA?AW4gESlot@@H@Z
?GetSlotHoldType@PSInventory@@IEBA?AW4gEItemHoldType@@W4gESlot@@@Z
?GetSlotUseType@PSInventory@@IEBA?AW4gEItemUseType@@W4gESlot@@@Z
?GetSmalltalkString@Entity@@QEAA?AVbCString@@XZ
?GetSmith@PSSkills@@QEBAHXZ
?GetSneak@PSSkills@@QEBAHXZ
?GetSortOrder@PSSkills@@QEBAEW4gESkill@@@Z
?GetSoundName@InfComSaySound@@QEAA?AVbCString@@XZ
?GetSpeaker@InfComPickPocket@@QEAA?AVEntity@@XZ
?GetSpeaker@InfComSay@@QEAA?AVEntity@@XZ
?GetSpeaker@InfComSayConfirm@@QEAA?AVEntity@@XZ
?GetSpeaker@InfComSayHoldingPosition@@QEAA?AVEntity@@XZ
?GetSpeaker@InfComSayKeepItUp@@QEAA?AVEntity@@XZ
?GetSpeaker@InfComSaySVM@@QEAA?AVEntity@@XZ
?GetSpeaker@InfComSaySound@@QEAA?AVEntity@@XZ
?GetSpeaker@InfComThink@@QEAA?AVEntity@@XZ
?GetSpell@PSInteraction@@QEBA?AVEntity@@XZ
?GetSpell@PSItem@@QEBA?AVEntity@@XZ
?GetSquareDistanceTo@Entity@@QEBAMAEBV1@@Z
?GetStackCount@PSInventory@@QEBAHXZ
?GetStackType@PSInventory@@QEBA?AW4gEStackType@@H@Z
?GetStateTime@PSRoutine@@QEBAMXZ
?GetStatusEffect@PSNpc@@QEBA?AUgSNPCStatusEffect@@W4gEStatusEffect@@@Z
?GetStatusEffectDuration@PSNpc@@QEBAKW4gEStatusEffect@@@Z
?GetStatusEffectName@PSNpc@@QEBA?AVbCString@@W4gEStatusEffect@@@Z
?GetStatusEffectTime@PSNpc@@QEBAKW4gEStatusEffect@@@Z
?GetStatusEffectUserData@PSNpc@@QEBAKW4gEStatusEffect@@@Z
?GetStrength@PSSkills@@QEBAHXZ
?GetStyleName@PSCombatSystem@@QEBA?AVbCString@@W4gEItemUseType@@0@Z
?GetSurfaceNormal@PSProjectile@@QEBA?AVbCVector@@_J@Z
?GetTag@PSSkills@@QEBA?AVbCString@@W4gESkill@@@Z
?GetTarget@PSProjectile@@QEBA?AVEntity@@XZ
?GetTargetHour@InfComSleep@@QEAAKXZ
?GetTargetPoint@Focus@@QEBA_NAEAVbCVector@@@Z
?GetTargetWeight@PSAnimation@@QEAAMW4eEMotionType@eAnimShared@@@Z
?GetTaskCallback@PSRoutine@@QEBA?AVbCString@@XZ
?GetTaskTime@PSRoutine@@QEBAMXZ
?GetTemplate@Entity@@QEBA?AVTemplate@@XZ
?GetTemplate@PSInventory@@QEBA?AVTemplate@@H@Z
?GetTemplateItem@PSInventory@@QEBA?AVEntity@@H@Z
?GetTestMode@ScriptActionTimer@@QEBA_NXZ
?GetTextID@InfComPickPocket@@QEAA?AVbCString@@XZ
?GetTextID@InfComSay@@QEAA?AVbCString@@XZ
?GetTextID@InfComSaySVM@@QEAA?AVbCString@@XZ
?GetTextID@InfComThink@@QEAA?AVbCString@@XZ
?GetTime@InfComInfoWait@@QEAAKXZ
?GetTimeStampInSeconds@Entity@@SAMXZ
?GetTimeStampInSeconds@PSClock@@QEBAMXZ
?GetTotal@PSSkills@@QEBAHW4gESkill@@@Z
?GetTouchingBone@PSCollisionShape@@QEBA?AVbCString@@XZ
?GetTouchingShapeGroup@PSCollisionShape@@QEAA?AW4eEShapeGroup@@K@Z
?GetTrader@World@@QEBA?AVEntity@@XZ
?GetTrophy@PSSkills@@QEBAHXZ
?GetType@PSCollisionShape@@QEBA?AW4eEPropertySetType@@XZ
?GetUnderWaterDepth@PSNavigation@@QEBAMXZ
?GetUnitDirectionTo@Entity@@QEBA?AVbCVector@@AEBV1@@Z
?GetUseAnimationName@InfComUse@@QEAA?AVbCString@@XZ
?GetUseType@PSInteraction@@QEBA?AW4gEInteractionUseType@@XZ
?GetUseType@PSInventory@@QEBA?AW4gEItemUseType@@H@Z
?GetUseType@PSItem@@QEBA?AW4gEItemUseType@@XZ
?GetUser@Entity@@QEBA?AV1@XZ
?GetUserCount@PSAnchor@@QEBAHXZ
?GetVelocity@Entity@@QEBA?AVbCVector@@XZ
?GetVelocity@PSProjectile@@QEBA?AVbCVector@@XZ
?GetWaterEffect@Entity@@QEBA?AVbCString@@AEBV2@0@Z
?GetWaterEffectMaterial@Entity@@QEBA?AVbCString@@XZ
?GetWaterEmitter@Entity@@QEBA?AV1@XZ
?GetWaterY@PSCharacterMovement@@QEBAMXZ
?GetWorkingPoint@PSNavigation@@QEBA?AVEntity@@XZ
?GetWorldAspectRatio@PSMap@@QEBAMXZ
?GetWorldEntity@Entity@@SA?AV1@XZ
?GetWorldSize@PSMap@@QEBAKXZ
?GetWorldTime@Entity@@SAMXZ
?GetWorldTime@PSClock@@QEBAMXZ
?GetWorldTorch@Entity@@SAAEBVeCEntityProxy@@XZ
?GetYear@PSClock@@QEBAHXZ
?GetZone@Entity@@QEBA?AV1@XZ
?Give@InfoSystem@@SA_NAEBVEntity@@0HK@Z
?GoToState@PSStateGraph@@QEAA_NAEBVbCString@@_N@Z
?HasAdditionalMovementVelo@PSCharacterMovement@@QEBA_NXZ
?HasAnyDestination@PSNavigation@@QEBA_NXZ
?HasCommentInfo@Entity@@QEBA_NAEBV1@@Z
?HasCommentInfo@InfoSystem@@SA_NAEBVEntity@@0@Z
?HasCopyCheckFailed@Entity@@SA_NXZ
?HasFreePlace@Entity@@QEBA_NAEAVbCMatrix@@@Z
?HasFreeSlot@PSInteraction@@QEBA_NXZ
?HasHoverGoalReached@PSRigidBody@@QEBA_NXZ
?HasImportantInfo@Entity@@QEBA_NAEBV1@@Z
?HasImportantInfo@InfoSystem@@SA_NAEBVEntity@@0@Z
?HasInFOV@Entity@@QEBA_NAEBV1@@Z
?HasInfo@Entity@@QEBA_NAEBV1@@Z
?HasInfos@InfoSystem@@SA_NAEBVEntity@@0@Z
?HasInteractionOfType@PSInteraction@@QEAA_NW4gEInteractionType@@@Z
?HasItems@PSInventory@@QEBA_NAEBVTemplate@@H@Z
?HasItems@PSInventory@@QEBA_NW4gEItemUseType@@H@Z
?HasMove@PSCombatSystem@@QEAA_NXZ
?HasMoveAttackCombo@PSCombatSystem@@QEAA_NXZ
?HasMoved@PSCharacterMovement@@QEBA_NXZ
?HasNewsInfo@Entity@@QEBA_NAEBV1@@Z
?HasNewsInfo@InfoSystem@@SA_NAEBVEntity@@0@Z
?HasProperty@PSArea@@QEBA_NVbCString@@@Z
?HasReachedClimbFinalTarget@PSCharacterMovement@@QEBA_NXZ
?HasReachedClimbJumpTarget@PSCharacterMovement@@QEBA_NXZ
?HasReachedJumpEnd@PSCharacterMovement@@QEBA_NXZ
?HasReachedLevitationBounds@PSCharacterMovement@@QEBA_NXZ
?HasRefuseInfo@Entity@@QEBA_NAEBV1@@Z
?HasRefuseInfo@InfoSystem@@SA_NAEBVEntity@@0@Z
?HasRequiredSkills@PSItem@@QEAA_NAEAVEntity@@AEAV?$bTObjArray@UgSMissingSkill@@@@@Z
?HasRequiredSkills@PSRecipe@@QEBA_NAEAVEntity@@@Z
?HasSVMBlock@Entity@@QEAA_NAEBVbCString@@@Z
?HasStaticPose@PSAnimation@@QEBA_NXZ
?HasStatusEffects@PSNpc@@QEBA_NW4gEStatusEffect@@@Z
?HasWaterContact@Entity@@QEAA_NXZ
?HoldCastItem@PSCastInfo@@QEAA_NAEAVEntity@@@Z
?HoldLeftStack@PSInventory@@QEAA_NH@Z
?HoldRightStack@PSInventory@@QEAA_NH@Z
?HoldStacks@PSInventory@@QEAA_NHH@Z
?HoverTo@PSRigidBody@@QEAAXAEBVbCVector@@M@Z
?IDToStack@PSInventory@@QEBAHK@Z
?Init@GUI2@@QEAAXXZ
?Init@ScriptDestinationCollector@@QEAAXAEBVEntity@@_N@Z
?InsertEntity@PSMap@@QEAA_NAEBVbCString@@0@Z
?InsertQuest@PSMap@@QEAA_NAEBVbCString@@@Z
?InsertQuestActor@QuestManager@@SA_NAEBVbCString@@0W4gEQuestActor@@@Z
?InsertStack@PSInventory@@QEAAHAEBVEntity@@@Z
?InteruptCurrentMove@PSCombatSystem@@QEAA_NXZ
?InteruptPowerRaise@PSCombatSystem@@QEBAXXZ
?Invalidate@Entity@@IEAAXXZ
?IsActive@PSProjectile@@QEBA_NXZ
?IsAdvancedTestModeEnabled@Entity@@SA_NXZ
?IsAttachedToSlot@PSInteraction@@QEAA_NXZ
?IsAttachedToSlot@PSInteraction@@QEBA_NAEAVEntity@@@Z
?IsAttackSecEnabled@PSCombatSystem@@QEBA_NXZ
?IsAutoRefreshEnabled@Focus@@QEBA_NXZ
?IsAvailable@Tutorial@@QEBA_NVbCString@@@Z
?IsBeingTalkedTo@PSDialog@@QEBA_NXZ
?IsBraking@Entity@@QEBA_NXZ
?IsBraking@PSCharacterMovement@@QEBA_NXZ
?IsBrowsing@GUI2@@QEBA_NXZ
?IsBrowsingCraftSelect@GUI2@@QEAA_NXZ
?IsBrowsingGame@GUI2@@QEBA_NXZ
?IsBrowsingInventory@GUI2@@QEBA_NXZ
?IsBrowsingItemSelect@GUI2@@QEAA_NXZ
?IsBrowsingLoot@GUI2@@QEAA_NXZ
?IsBrowsingMap@GUI2@@QEBA_NXZ
?IsBrowsingMenu@GUI2@@QEBA_NXZ
?IsBrowsingPickpocket@GUI2@@QEAA_NXZ
?IsBurned@Entity@@QEBA_NXZ
?IsBurning@PSNpc@@QEBA_NXZ
?IsCameraInDestinationPose@Entity@@SA_NXZ
?IsCancelled@QuestManager@@SA_NAEBVbCString@@@Z
?IsCharacter@Entity@@QEBA_NXZ
?IsCheatGodEnabled@Entity@@SA_NXZ
?IsCheatInvisibleEnabled@Entity@@SA_NXZ
?IsClimbing@Entity@@QEBA_NXZ
?IsClimbing@PSCharacterMovement@@QEBA_NXZ
?IsCompleted@Tutorial@@QEBA_NVbCString@@@Z
?IsConsoleVisible@GUI2@@QEBA_NXZ
?IsControledByAnimation@PSCharacterMovement@@QEBA_NXZ
?IsControledNPC@Entity@@QEBA_NXZ
?IsDead@Entity@@QEBA_NXZ
?IsDead@PSAnimation@@QEBA_NXZ
?IsDecalEnabled@Entity@@QEBA_NXZ
?IsDialogCameraActive@Entity@@SA_NXZ
?IsDiving@Entity@@QEBA_NXZ
?IsDiving@PSCharacterMovement@@QEBA_NXZ
?IsDown@Entity@@QEBA_NXZ
?IsEditing@GUI2@@QEBA_NXZ
?IsEquipped@PSItem@@QEBA_NXZ
?IsFailed@QuestManager@@SA_NAEBVbCString@@@Z
?IsFalling@Entity@@QEBA_NXZ
?IsFalling@PSCharacterMovement@@QEBA_NXZ
?IsFinished@QuestManager@@SA_NAEBVbCString@@@Z
?IsFixCamActive@Entity@@SA_NXZ
?IsFreeDestination@PSInteraction@@QEAA_NVEntity@@@Z
?IsFreeLOS@Entity@@QEBA_NAEBV1@_N@Z
?IsFreeLOSKneeHeight@Entity@@QEBA_NAEBV1@@Z
?IsFrozen@Entity@@QEBA_NXZ
?IsFrozen@PSNpc@@QEBA_NXZ
?IsGameLogEnable@Achievement@@QEBA_NXZ
?IsGameRunning@World@@QEBA_NXZ
?IsGeneratedPlunder@PSInventory@@QEBA_NXZ
?IsGeneratedTrade@PSInventory@@QEBA_NXZ
?IsGravitationEnabled@PSCharacterMovement@@QEBA_NXZ
?IsHighlighted@Entity@@QEBA_NXZ
?IsHoldingLeft@PSInventory@@QEAA_NH@Z
?IsHoldingRight@PSInventory@@QEAA_NH@Z
?IsHoldingStacks@PSInventory@@QEAA_NHH@Z
?IsHoldingUseTypes@PSInventory@@QEAA_NW4gEItemUseType@@0@Z
?IsInAreaWithProperties@Entity@@QEAA_NAEBV?$bTObjArray@VbCString@@@@_N01@Z
?IsInAreaWithProperties@Entity@@QEAA_NAEBVbCVector@@AEBV?$bTObjArray@VbCString@@@@_N12@Z
?IsInAreaWithProperty@Entity@@QEAA_NAEBVbCString@@@Z
?IsInAreaWithProperty@Entity@@QEAA_NAEBVbCVector@@AEBVbCString@@@Z
?IsInMovingState@Entity@@QEBA_NXZ
?IsInMovingState@PSCharacterMovement@@QEBA_NXZ
?IsInParade@PSCombatSystem@@QEAA_NW4gECombatParadeType@@AEBVbCVector@@@Z
?IsInProcessingRange@PSNavigation@@QEBA_NXZ
?IsInState@PSStateGraph@@QEAA_NAEBVbCString@@@Z
?IsInTestMode@World@@QEBA_NXZ
?IsInteractObject@Entity@@QEBA_NXZ
?IsItem@Entity@@QEBA_NXZ
?IsJumping@Entity@@QEBA_NXZ
?IsJumping@PSCharacterMovement@@QEBA_NXZ
?IsKeyPressed@Input@@QEBA_NW4gEActionKey@@@Z
?IsLevitating@Entity@@QEBA_NXZ
?IsLevitating@PSCharacterMovement@@QEBA_NXZ
?IsLoading@GUI2@@QEBA_NXZ
?IsLocked@PSLock@@QEBA_NXZ
?IsMemberOfParty@PSParty@@QEBA_NVEntity@@@Z
?IsMissionItem@PSItem@@QEBA_NXZ
?IsMoveInteruptable@PSCombatSystem@@QEAA_NXZ
?IsNPC@Entity@@QEBA_NXZ
?IsObsolete@QuestManager@@SA_NAEBVbCString@@@Z
?IsOpen@QuestManager@@SA_NAEBVbCString@@@Z
?IsPaused@World@@QEBA_NXZ
?IsPermanent@PSInventory@@QEBA_NH@Z
?IsPermanent@Tutorial@@QEBA_NVbCString@@@Z
?IsPlayer@Entity@@QEBA_NXZ
?IsPoisoned@PSNpc@@QEBA_NXZ
?IsPowerRaiseEnabled@PSCombatSystem@@QEBA_NXZ
?IsPrefetching@World@@QEAA_NXZ
?IsProcessingRangeEntered@Entity@@QEBA_NXZ
?IsReady@Entity@@QEBA_NXZ
?IsRunning@Entity@@QEBA_NXZ
?IsRunning@InfoSystem@@SA_NXZ
?IsRunning@PSCharacterMovement@@QEBA_NXZ
?IsRunning@QuestManager@@SA_NAEBVbCString@@@Z
?IsRunning@Tutorial@@QEBA_NVbCString@@@Z
?IsRuntimeEffectStarted@PSEffect@@QEAA_NAEBVbCString@@@Z
?IsSaveAllowed@World@@QEBA_NXZ
?IsSideAttacksEnabled@PSCombatSystem@@QEBA_NXZ
?IsSneaking@Entity@@QEBA_NXZ
?IsSneaking@PSCharacterMovement@@QEBA_NXZ
?IsSprinting@Entity@@QEBA_NXZ
?IsSprinting@PSCharacterMovement@@QEBA_NXZ
?IsStackEquiped@PSInventory@@QEBA_NH@Z
?IsStanding@Entity@@QEBA_NXZ
?IsStanding@PSCharacterMovement@@QEBA_NXZ
?IsStumbling@PSCombatSystem@@QEBA_NXZ
?IsSucceeded@QuestManager@@SA_NAEBVbCString@@@Z
?IsSwimming@Entity@@QEBA_NXZ
?IsSwimming@PSCharacterMovement@@QEBA_NXZ
?IsTalking@PSDialog@@QEBA_NXZ
?IsTeleportingMode@GUI2@@QEAA_NXZ
?IsTemplateEntity@Entity@@QEBA_NXZ
?IsTestModeEnabled@Entity@@SA_NXZ
?IsToFar@PSCombatSystem@@QEBA_NMM@Z
?IsToNear@PSCombatSystem@@QEBA_NMM@Z
?IsToNearMeleeDistance@PSCombatSystem@@QEBA_NMM@Z
?IsTravelling@PSNavigation@@QEBA_NXZ
?IsUnlocked@PSLock@@QEBA_NXZ
?IsValid@PSAIZone@@QEBA_NXZ
?IsValid@PSAnchor@@QEBA_NXZ
?IsValid@PSAnimation@@QEBA_NXZ
?IsValid@PSArea@@QEBA_NXZ
?IsValid@PSArena@@QEBA_NXZ
?IsValid@PSBook@@QEBA_NXZ
?IsValid@PSCastInfo@@QEBA_NXZ
?IsValid@PSCharacterMovement@@QEBA_NXZ
?IsValid@PSClock@@QEBA_NXZ
?IsValid@PSCollisionShape@@QEBA_NXZ
?IsValid@PSCombatSystem@@QEBA_NXZ
?IsValid@PSDamage@@QEBA_NXZ
?IsValid@PSDialog@@QEBA_NXZ
?IsValid@PSDoor@@QEBA_NXZ
?IsValid@PSEffect@@QEBA_NXZ
?IsValid@PSInteraction@@QEBA_NXZ
?IsValid@PSInventory@@QEBA_NXZ
?IsValid@PSItem@@QEBA_NXZ
?IsValid@PSLetter@@QEBA_NXZ
?IsValid@PSLock@@QEBA_NXZ
?IsValid@PSMap@@QEBA_NXZ
?IsValid@PSMover@@QEBA_NXZ
?IsValid@PSNavigation@@QEBA_NXZ
?IsValid@PSNpc@@QEBA_NXZ
?IsValid@PSParticle@@QEBA_NXZ
?IsValid@PSParty@@QEBA_NXZ
?IsValid@PSProjectile@@QEBA_NXZ
?IsValid@PSRecipe@@QEBA_NXZ
?IsValid@PSRigidBody@@QEBA_NXZ
?IsValid@PSRoutine@@QEBA_NXZ
?IsValid@PSSkills@@QEBA_NXZ
?IsValid@PSStateGraph@@QEBA_NXZ
?IsValid@PSStrip@@QEBA_NXZ
?IsValid@Template@@QEBA_NXZ
?IsVisible@GUI2@@QEBA_NW4gEHudPage@@@Z
?Kill@Entity@@QEAAXXZ
?LiftUpToMinHeightAndMoveFwd@PSCharacterMovement@@QEAAXMMM_N@Z
?LoadGame@World@@QEAAXAEBVbCUnicodeString@@H@Z
?LootSelections@PSInventory@@QEAA_NAEAVEntity@@@Z
?MergeStacks@PSInventory@@QEAAXXZ
?ModalAcceptResolution@GUI2@@QEAAHXZ
?ModalActionNoSave@GUI2@@QEAAHVbCUnicodeString@@@Z
?ModalActionWait@GUI2@@QEAAHVbCUnicodeString@@@Z
?ModalChangeBack@GUI2@@QEAAHVbCUnicodeString@@@Z
?ModalClosePage@GUI2@@QEAAHW4gEHudPage@@@Z
?ModalControllerReturn@GUI2@@QEAAHVbCUnicodeString@@@Z
?ModalDelete@GUI2@@QEAAHVbCUnicodeString@@@Z
?ModalLoad@GUI2@@QEAAHVbCUnicodeString@@@Z
?ModalNewGame@GUI2@@QEAAHXZ
?ModalOverride@GUI2@@QEAAHVbCUnicodeString@@@Z
?ModalOverrideAutoSave@GUI2@@QEAAHVbCUnicodeString@@@Z
?ModalPadUnavailable@GUI2@@QEAAHXZ
?ModalQuitGame@GUI2@@QEAAHXZ
?ModalResetKeyboard@GUI2@@QEAAHXZ
?ModalReturn@GUI2@@QEAAHVbCUnicodeString@@@Z
?ModalSave@GUI2@@QEAAHVbCUnicodeString@@@Z
?ModalSign@GUI2@@QEAAHVbCUnicodeString@@@Z
?ModalSignBack@GUI2@@QEAAHVbCUnicodeString@@@Z
?ModalStackAccept@GUI2@@QEAAHHVbCUnicodeString@@@Z
?ModalStackAmount@GUI2@@QEAAHHHAEAHVbCUnicodeString@@@Z
?ModalWait@GUI2@@QEAAHVbCUnicodeString@@@Z
?ModalWaitLoop@GUI2@@QEAAHVbCUnicodeString@@@Z
?ModifyProperty@Achievement@@QEAAJHHJ@Z
?ModifyProperty@Achievement@@QEAAMHHM@Z
?ModifyProperty@Achievement@@QEAANHHN@Z
?ModifyProperty@Achievement@@QEAA_JHH_J@Z
?ModifyPropertyEx@Achievement@@QEAAJHHJJHPEAUXUSER_ACHIEVEMENT@@@Z
?ModifyPropertyEx@Achievement@@QEAAMHHMMHPEAUXUSER_ACHIEVEMENT@@@Z
?ModifyPropertyEx@Achievement@@QEAANHHNNHPEAUXUSER_ACHIEVEMENT@@@Z
?ModifyPropertyEx@Achievement@@QEAA_JHH_J0HPEAUXUSER_ACHIEVEMENT@@@Z
?MoveTo@Entity@@QEAAXAEBV1@@Z
?MoveTo@Entity@@QEAAXAEBVbCMatrix@@@Z
?MoveToPointOfImpact@PSProjectile@@QEAA?AVbCVector@@_J_N@Z
?NeedsDeathAnimation@PSAnimation@@QEBA_NXZ
?NewGame@World@@QEAAXXZ
?OnCommandCompleted@InfoSystem@@SA_N_N@Z
?OnEnter@QuestManager@@SA_NAEBVEntity@@AEBVbCString@@@Z
?OnHandleDeadByFall@Achievement@@QEAAXXZ
?OnHandleDeadByTideworm@Achievement@@QEAAXXZ
?OnHandleDialogInfo@Achievement@@QEAAXAEBVbCString@@@Z
?OnHandleForgeWeapon@Achievement@@QEAAXXZ
?OnHandleItemAmountChange@Achievement@@QEAAXAEBVbCString@@W4gEItemUseType@@HH@Z
?OnHandleJokeSpell@Achievement@@QEAAXXZ
?OnHandleLeverInteract@Achievement@@QEAAX_NAEBVbCString@@@Z
?OnHandleLockpick@Achievement@@QEAAXXZ
?OnHandleNPCKilled@Achievement@@QEAAXVEntity@@@Z
?OnHandlePickpocket@Achievement@@QEAAXXZ
?OnHandleQuestSuccess@Achievement@@QEAAXAEBVbCString@@@Z
?OnHandleRaiseTreasure@Achievement@@QEAAXXZ
?OnHandleSkillBaseChange@Achievement@@QEAAXW4gESkill@@JJ@Z
?OnLeave@QuestManager@@SA_NAEBVEntity@@AEBVbCString@@@Z
?OnNPCDefeated@QuestManager@@SA_NAEBVEntity@@@Z
?OnNPCKilled@QuestManager@@SA_NAEBVEntity@@@Z
?Open@GUI2@@QEAA_NW4gEHudPage@@@Z
?OpenAlchemy@GUI2@@QEAA_NXZ
?OpenAltar@GUI2@@QEAA_NXZ
?OpenAnvil@GUI2@@QEAA_NXZ
?OpenCooking@GUI2@@QEAA_NXZ
?OpenCoolWeapon@GUI2@@QEAA_NXZ
?OpenForge@GUI2@@QEAA_NXZ
?OpenFrying@GUI2@@QEAA_NXZ
?OpenGoldsmith@GUI2@@QEAA_NXZ
?OpenGrindStone@GUI2@@QEAA_NXZ
?OpenLoot@GUI2@@QEAA_NXZ
?OpenPickpocket@GUI2@@QEAA_NK@Z
?OpenQuest@QuestManager@@SA_NAEBVbCString@@@Z
?OpenWriteScroll@GUI2@@QEAA_NXZ
?Pause@World@@QEAAXXZ
?PauseAnimation@PSMover@@QEAA_NVbCString@@_N@Z
?PauseControllers@PSAnimation@@QEAAX_NM@Z
?Pick@ScriptDestinationCollector@@QEAA?AVEntity@@W4gEInteractionUseType@@M@Z
?PickFirstValidChoice@ScriptDestinationCollector@@QEAA?AVEntity@@XZ
?PickRandomChoice@ScriptDestinationCollector@@QEAA?AVEntity@@XZ
?PlaceOnGround@PSCharacterMovement@@QEAAXAEBVbCVector@@_N@Z
?PlayBodyAni@PSAnimation@@QEAA_NVbCString@@_N@Z
?PlayBodyPartAni@PSAnimation@@AEAA_NPEAVeCBodyPart_PS@@AEBVbCString@@_N@Z
?PlayFacialAni@PSAnimation@@QEAA_NVbCString@@_N@Z
?PlayVideo@GUI2@@QEAAXAEBVbCString@@_N@Z
?PlayerUseQuickSlot@PSInteraction@@QEAA_NH@Z
?PlayerUseStack@PSInteraction@@QEAA_NH@Z
?Prefetch@World@@QEAAXAEBVbCVector@@@Z
?Prefetch@World@@QEAAXXZ
?PrefetchResource@Entity@@SA_NVbCString@@@Z
?PrintGameLog@GUI2@@QEAAXAEBVbCUnicodeString@@W4gELogMessageType@@_NPEAD@Z
?PrintGameLogF@GUI2@@QEAAXW4gELogMessageType@@PEBDZZ
?PrintItemLog@GUI2@@QEAAXVEntity@@H@Z
?ProcessWorldTorchTimer@Entity@@SAHXZ
?PullTo@PSAnimation@@QEAAXVbCVector@@M@Z
?PutToGround@PSCharacterMovement@@QEAAXXZ
?QuickLoad@World@@QEAAXXZ
?QuickSave@World@@QEAAXXZ
?ReAttach@Entity@@QEAAXXZ
?Reactivate@PSAnimation@@QEAAXXZ
?ReadConfigUser@Tutorial@@QEBA_NXZ
?RefreshFocusEntity@Focus@@QEAA?AVEntity@@W4gEDirection@@@Z
?RefreshFocusEntity@Focus@@QEAA?AVEntity@@XZ
?RefreshFocusPoint@Focus@@QEAA?AVbCVector@@XZ
?RefreshSaveGameImage@World@@QEAAXAEBVbCString@@@Z
?RefreshSaveGameList@World@@QEAAXXZ
?RemoveActorFlag@PSRigidBody@@QEAAXW4eEPhysicObjectFlag@@@Z
?RemoveAttachment@PSAnimation@@QEAA_NVEntity@@@Z
?RemoveBodyFlag@PSRigidBody@@QEAAXW4eERigidbody_Flag@@@Z
?RemoveEntity@PSMap@@QEAA_NAEBVbCString@@0@Z
?RemoveFromParty@PSParty@@QEAA_NVEntity@@@Z
?RemoveGameVariable@InfoSystem@@SA_NAEBVbCString@@@Z
?RemoveQuest@PSMap@@QEAA_NAEBVbCString@@@Z
?RemoveQuestActor@QuestManager@@SA_NAEBVbCString@@0W4gEQuestActor@@@Z
?Request@Music@@QEAAXVbCString@@HM@Z
?RequestActiveStatus@PSCombatSystem@@QEAA_NXZ
?Reset@PSNavigation@@QEBAXXZ
?ResetAll@PSNavigation@@QEBAXXZ
?ResetFallDistance@PSCharacterMovement@@QEAAXXZ
?ResetInteractAnimation@Entity@@QEAAXMM@Z
?ResetSlideDistance@PSCharacterMovement@@QEAAXXZ
?ResetWorldTorchTimer@Entity@@SAXH@Z
?RestoreResolution@GUI2@@QEAA_NXZ
?RestoreStaticPose@PSAnimation@@QEAAXXZ
?RestoreUserPageMode@GUI2@@QEBAXXZ
?RestoreWorldTorch@Entity@@SAXXZ
?Resume@World@@QEAAXXZ
?ReturnZS_Talk@GUI2@@QEAA_NXZ
?RevertPlayingAni@Entity@@QEAAXM@Z
?RunQuest@QuestManager@@SA_NAEBVbCString@@@Z
?SaveCameraDump@Entity@@SA_NVbCUnicodeString@@0@Z
?SaveConfiguration@World@@QEAAXXZ
?SaveGame@World@@QEAAXAEBVbCUnicodeString@@H@Z
?SaveGameExists@World@@QEBA_NAEBVbCString@@@Z
?SaveStaticPose@PSAnimation@@QEAAXXZ
?SaveStatistics@World@@QEAAXXZ
?SaySVM@ScriptCommentManager@@QEAA_NVEntity@@0W4ECommentType@@VbCString@@@Z
?SelectNextMove@PSCombatSystem@@QEBA_NW4gECombatMove@@@Z
?SendAbort@GUI2@@QEAA_NW4gEHudPage@@@Z
?SendGameMessage@GUI2@@QEAA_NH_J0W4gEHudPage@@_N@Z
?SendGetSaveGameSelect@GUI2@@QEAA_NAEAVbCUnicodeString@@W4gEHudPage@@@Z
?SendLockpickInfo@GUI2@@QEAA_NVEntity@@HW4gELockCombi@@@Z
?SendLoot@GUI2@@QEAA_NVEntity@@HW4gEHudPage@@@Z
?SendSaveGameChanged@GUI2@@QEAA_NW4gEHudPage@@@Z
?SendSetSaveGameSelect@GUI2@@QEAA_NAEBVbCUnicodeString@@W4gEHudPage@@@Z
?SetAIZoneGroup@Entity@@QEAAXAEAVbCString@@@Z
?SetAIZoneGuild@Entity@@QEAAXW4gEGuild@@@Z
?SetAIZoneSecurityLevelFunc@Entity@@QEAAXAEAVbCString@@@Z
?SetAcrobat@PSSkills@@QEAAXHW4gESkillModifier@@@Z
?SetActionKeyScript@Input@@QEAAXAEBVeCScriptProxyScript@@@Z
?SetActionTarget@PSRoutine@@QEAAXAEAVEntity@@@Z
?SetActorFrozen@PSAnimation@@QEAAX_N@Z
?SetAdditionalMovementVelo@PSCharacterMovement@@QEAAXAEBVbCVector@@MMM@Z
?SetAlchemy@PSSkills@@QEAAXHW4gESkillModifier@@@Z
?SetAlignmentLookAt@PSCharacterMovement@@QEAAXAEBVbCVector@@@Z
?SetAlignmentSpeed@PSCharacterMovement@@QEAAXM@Z
?SetAlignmentTarget@Entity@@QEAAXAEBV1@@Z
?SetAlignmentTarget@PSCharacterMovement@@QEAAXAEBVEntity@@M@Z
?SetAlpha@Entity@@QEAAXM@Z
?SetAmount@PSInventory@@QEAAXHAEBH@Z
?SetAmount@PSItem@@QEAAXK@Z
?SetAngularVelocity@PSRigidBody@@QEAAXAEBVbCVector@@@Z
?SetAniState@PSRoutine@@QEAAXW4gEAniState@@0@Z
?SetBase@PSSkills@@QEAAXW4gESkill@@HW4gESkillModifier@@@Z
?SetBurned@Entity@@QEAAX_N@Z
?SetCameraTarget@Entity@@SAXAEBV1@0_NAEBVbCVector@@10M@Z
?SetChildMode@InfoSystem@@SAX_N@Z
?SetCircle@PSSkills@@QEAAXHW4gESkillModifier@@@Z
?SetClimbBeginPlayed@PSCharacterMovement@@QEAAX_N@Z
?SetClimbLoopPlayed@PSCharacterMovement@@QEAAX_N@Z
?SetCollisionGroup@Entity@@QEAAXW4eECollisionGroup@@@Z
?SetCombatAxe@PSSkills@@QEAAXHW4gESkillModifier@@@Z
?SetCombatBow@PSSkills@@QEAAXHW4gESkillModifier@@@Z
?SetCombatCrossBow@PSSkills@@QEAAXHW4gESkillModifier@@@Z
?SetCombatStaff@PSSkills@@QEAAXHW4gESkillModifier@@@Z
?SetCombatSword@PSSkills@@QEAAXHW4gESkillModifier@@@Z
?SetCommand@InfComAttack@@QEAAXPEAVgCInfoCommand@@@Z
?SetCommand@InfComHeal@@QEAAXPEAVgCInfoCommand@@@Z
?SetCommand@InfComInfoWait@@QEAAXPEAVgCInfoCommand@@@Z
?SetCommand@InfComPickPocket@@QEAAXPEAVgCInfoCommand@@@Z
?SetCommand@InfComRunAIScript@@QEAAXPEAVgCInfoCommand@@@Z
?SetCommand@InfComSay@@QEAAXPEAVgCInfoCommand@@@Z
?SetCommand@InfComSayConfirm@@QEAAXPEAVgCInfoCommand@@@Z
?SetCommand@InfComSayHoldingPosition@@QEAAXPEAVgCInfoCommand@@@Z
?SetCommand@InfComSayKeepItUp@@QEAAXPEAVgCInfoCommand@@@Z
?SetCommand@InfComSaySVM@@QEAAXPEAVgCInfoCommand@@@Z
?SetCommand@InfComSaySound@@QEAAXPEAVgCInfoCommand@@@Z
?SetCommand@InfComSetSectorStatus@@QEAAXPEAVgCInfoCommand@@@Z
?SetCommand@InfComSleep@@QEAAXPEAVgCInfoCommand@@@Z
?SetCommand@InfComThink@@QEAAXPEAVgCInfoCommand@@@Z
?SetCommand@InfComUse@@QEAAXPEAVgCInfoCommand@@@Z
?SetCrossHairSize@GUI2@@QEAAXM@Z
?SetCurrentAniDirection@Entity@@QEAAXW4gEDirection@@@Z
?SetCurrentAttacker@PSNpc@@QEAAXAEBVEntity@@@Z
?SetCurrentCameraByName@Entity@@SAXAEBVbCString@@_N@Z
?SetCurrentCanInteractScript@PSInteraction@@QEAAXAEAVeCScriptProxyScript@@@Z
?SetCurrentChapter@Entity@@SAXK@Z
?SetCurrentDestinationPoint@PSNavigation@@QEAA_NAEAVEntity@@@Z
?SetCurrentInteractScript@PSInteraction@@QEAAXAEAVgCScriptProxyAIFunction@@@Z
?SetCurrentPreInteractScript@PSInteraction@@QEAAXAEAVgCScriptProxyAIFunction@@@Z
?SetCurrentTarget@PSCombatSystem@@QEAA_NAEBVEntity@@@Z
?SetCurrentTarget@PSNpc@@QEAAXAEBVEntity@@@Z
?SetDCCEnabled@PSNavigation@@QEAAX_N@Z
?SetDCCRadius@PSNavigation@@QEAAXM@Z
?SetDay@PSClock@@QEBAXH@Z
?SetDebugMode@PSAnimation@@QEAAX_N@Z
?SetDexterity@PSSkills@@QEAAXHW4gESkillModifier@@@Z
?SetDialogRoles@Entity@@SAXAEBV1@0@Z
?SetEnable@Tutorial@@QEAAX_N@Z
?SetEnableLogMessages@GUI2@@QEAAX_N@Z
?SetExperience@PSSkills@@QEAAXHW4gESkillModifier@@@Z
?SetFactor@PSClock@@QEBAXM@Z
?SetFireball@PSSkills@@QEAAXHW4gESkillModifier@@@Z
?SetFocusEntity@Focus@@QEAAXVEntity@@@Z
?SetFocusMode@Focus@@QEAAXVbCString@@@Z
?SetForcedAlignmentTarget@Entity@@QEAAXAEBV1@@Z
?SetForcedAlignmentTarget@PSCharacterMovement@@QEAAXAEBVEntity@@@Z
?SetFrost@PSSkills@@QEAAXHW4gESkillModifier@@@Z
?SetFrozen@Entity@@QEAAX_N@Z
?SetGameVariable@InfoSystem@@SA_NAEBVbCString@@H@Z
?SetGeneratedPlunder@PSInventory@@QEAAX_N@Z
?SetGeneratedTrade@PSInventory@@QEAAX_N@Z
?SetGoalPose@PSCharacterMovement@@QEAAXAEBVbCMatrix@@@Z
?SetGroundBias@PSCharacterMovement@@QEAAXAEBVEntity@@@Z
?SetGroundBias@PSCharacterMovement@@QEAAXM@Z
?SetGuardPoint@PSNpc@@QEBA_NAEBVEntity@@@Z
?SetHighlighted@Entity@@QEAAX_N@Z
?SetHitPoints@PSSkills@@QEAAXHW4gESkillModifier@@@Z
?SetHitPointsMax@PSSkills@@QEAAXHW4gESkillModifier@@@Z
?SetHour@PSClock@@QEBAXH@Z
?SetIntelligence@PSSkills@@QEAAXHW4gESkillModifier@@@Z
?SetIsSleeping@PSRigidBody@@QEAAX_N@Z
?SetLastAmbientWasLoop@PSAnimation@@QEAAX_N@Z
?SetLastAnimationVariation@PSAnimation@@QEAAXH@Z
?SetLastAttacker@PSNpc@@QEAAXAEBVEntity@@@Z
?SetLearnPoints@PSSkills@@QEAAXHW4gESkillModifier@@@Z
?SetLevel@PSSkills@@QEAAXHW4gESkillModifier@@@Z
?SetLinearVelocity@Entity@@QEAAXAEBVbCVector@@@Z
?SetLinearVelocity@PSRigidBody@@QEAAXAEBVbCVector@@@Z
?SetLocalCallback@PSRoutine@@QEAAXVbCString@@@Z
?SetLockpick@PSSkills@@QEAAXHW4gESkillModifier@@@Z
?SetLookAtTarget@Entity@@QEAAXAEBV1@@Z
?SetManaPoints@PSSkills@@QEAAXHW4gESkillModifier@@@Z
?SetManaPointsMax@PSSkills@@QEAAXHW4gESkillModifier@@@Z
?SetMaxSelectLimit@PSInventory@@QEAAXXZ
?SetMaxSelection@PSInventory@@QEAAXXZ
?SetMinSelectLimit@PSInventory@@QEAAXXZ
?SetMinSelection@PSInventory@@QEAAXXZ
?SetMining@PSSkills@@QEAAXHW4gESkillModifier@@@Z
?SetMinute@PSClock@@QEBAXH@Z
?SetMissile@PSSkills@@QEAAXHW4gESkillModifier@@@Z
?SetModification@PSSkills@@QEAAXW4gESkill@@HW4gESkillModifier@@@Z
?SetMoneyAmount@PSInventory@@QEAAXH@Z
?SetMonth@PSClock@@QEBAXH@Z
?SetMovementConstraints@Input@@QEAAXM@Z
?SetMovementGoal@PSCharacterMovement@@QEAAXAEBVEntity@@@Z
?SetMovementGoal@PSCharacterMovement@@QEAAXAEBVbCMatrix@@@Z
?SetMovementGoal@PSCharacterMovement@@QEAAXAEBVbCVector@@@Z
?SetMovementMode@Entity@@QEAAXW4gECharMovementMode@@@Z
?SetMovementMode@PSCharacterMovement@@QEAAXW4gECharMovementMode@@@Z
?SetMusicVolume@Music@@QEAAXM@Z
?SetName@Entity@@QEAAXAEBVbCString@@@Z
?SetNextMove@PSCombatSystem@@QEBAXW4gECombatMove@@@Z
?SetOffsetPose@Focus@@QEAAXAEBVbCMatrix@@@Z
?SetOnEnterWaterScript@PSNavigation@@QEAAXAEBVeCScriptProxyScript@@@Z
?SetOnLeaveWaterScript@PSNavigation@@QEAAXAEBVeCScriptProxyScript@@@Z
?SetOnWaterScript@PSNavigation@@QEAAXAEBVeCScriptProxyScript@@@Z
?SetOwner@PSInteraction@@QEAA_NAEBVEntity@@@Z
?SetPageMode@GUI2@@QEAAXAEBW4gEPageMode@@_N@Z
?SetPartyLeader@PSParty@@QEAA_NVEntity@@@Z
?SetPartyName@PSParty@@QEAA_NVbCString@@@Z
?SetPendingRefreshRate@GUI2@@QEAAXH@Z
?SetPendingResolution@GUI2@@QEAAXH@Z
?SetPickpocket@PSSkills@@QEAAXHW4gESkillModifier@@@Z
?SetPlayingTime@Entity@@SAXM@Z
?SetPose@Entity@@QEAAXAEBVbCMatrix@@@Z
?SetPose@PSRigidBody@@QEAAXVbCMatrix@@@Z
?SetPosition@PSRigidBody@@QEAAXVbCVector@@@Z
?SetProperty@Achievement@@QEAAXHHJ@Z
?SetProperty@Achievement@@QEAAXHHM@Z
?SetProperty@Achievement@@QEAAXHHN@Z
?SetProperty@Achievement@@QEAAXHH_J@Z
?SetPropertySetAttribute@Entity@@QEAAXAEBVbCString@@00@Z
?SetProtBlunt@PSSkills@@QEAAXHW4gESkillModifier@@@Z
?SetProtEdge@PSSkills@@QEAAXHW4gESkillModifier@@@Z
?SetProtFire@PSSkills@@QEAAXHW4gESkillModifier@@@Z
?SetProtIce@PSSkills@@QEAAXHW4gESkillModifier@@@Z
?SetProtMagic@PSSkills@@QEAAXHW4gESkillModifier@@@Z
?SetProtPoint@PSSkills@@QEAAXHW4gESkillModifier@@@Z
?SetRelaxingPoint@PSNavigation@@QEAA_NAEAVEntity@@@Z
?SetRestorePlayerCombatMode@Entity@@SAXW4gECombatMode@@@Z
?SetRotation@PSRigidBody@@QEAAXVbCQuaternion@@@Z
?SetRoutine@PSNavigation@@QEAA_NAEBVbCString@@@Z
?SetScribe@PSSkills@@QEAAXHW4gESkillModifier@@@Z
?SetSectorStatus@World@@QEAA_NAEBVbCString@@_N@Z
?SetSelectLimit@PSInventory@@QEAAXHAEBH@Z
?SetSelection@PSInventory@@QEAAXHAEBH@Z
?SetShooter@PSProjectile@@QEAAXAEBVEntity@@@Z
?SetShowSkeleton@PSAnimation@@QEAAX_N@Z
?SetSleepingPoint@PSNavigation@@QEAA_NAEAVEntity@@@Z
?SetSmith@PSSkills@@QEAAXHW4gESkillModifier@@@Z
?SetSneak@PSSkills@@QEAAXHW4gESkillModifier@@@Z
?SetSpell@PSInteraction@@QEAAXAEBVEntity@@@Z
?SetStackType@PSInventory@@QEAAXHW4gEStackType@@@Z
?SetState@PSRoutine@@QEAAXVbCString@@@Z
?SetStateTime@PSRoutine@@QEAAXM@Z
?SetStatusEffectDuration@PSNpc@@QEAAXW4gEStatusEffect@@K@Z
?SetStatusEffectName@PSNpc@@QEAAXW4gEStatusEffect@@VbCString@@@Z
?SetStatusEffectTime@PSNpc@@QEAAXW4gEStatusEffect@@K@Z
?SetStatusEffectUserData@PSNpc@@QEAAXW4gEStatusEffect@@K@Z
?SetStrength@PSSkills@@QEAAXHW4gESkillModifier@@@Z
?SetTarget@PSProjectile@@QEAAXAEBVEntity@@@Z
?SetTargetWeight@PSAnimation@@QEAAXMW4eEMotionType@eAnimShared@@M@Z
?SetTask@PSRoutine@@QEAAXVbCString@@@Z
?SetTaskCallback@PSRoutine@@QEAAXVbCString@@@Z
?SetTaskTime@PSRoutine@@QEAAXM@Z
?SetTeleportingMode@GUI2@@QEAAX_N@Z
?SetTestMode@ScriptActionTimer@@QEAAX_N@Z
?SetTrophy@PSSkills@@QEAAXHW4gESkillModifier@@@Z
?SetVelocity@PSProjectile@@QEAAXAEBVbCVector@@@Z
?SetWorkingPoint@PSNavigation@@QEAA_NAEAVEntity@@@Z
?SetWorldTime@Entity@@SAXM@Z
?SetWorldTime@PSClock@@QEBAXM@Z
?SetWorldTorch@Entity@@SAXAEBV1@@Z
?SetYear@PSClock@@QEBAXH@Z
?SetZS_TalkState@GUI2@@QEAAXXZ
?Shoot@PSProjectile@@QEAAXAEAVEntity@@@Z
?Show@GUI2@@QEAA_NW4gEHudPage@@_N@Z
?ShowAchievementsUI@Achievement@@QEAA_NH@Z
?ShowConsole@GUI2@@QEAAX_N@Z
?ShowCrossHair@GUI2@@QEAAX_N@Z
?ShowPicture@GUI2@@QEAAXAEBVbCString@@@Z
?ShowPropertyEditor@GUI2@@QEAA_NVEntity@@_N@Z
?ShowSubtitle@GUI2@@QEAAXAEBVbCUnicodeString@@@Z
?SortEntites@Entity@@KAHPEBX0@Z
?SortEntities@ScriptDestinationCollector@@KAHPEBX0@Z
?SortEntityListByDistanceTo@Entity@@SAXAEAV?$bTObjArray@VEntity@@@@AEBV1@@Z
?SortStacks@PSInventory@@QEAAXXZ
?Spawn@Entity@@SA?AV1@VTemplate@@AEBVbCMatrix@@_N@Z
?Spawn@Entity@@SA?AV1@VTemplate@@V1@_NW4gEDirection@@@Z
?SplitStack@PSInventory@@QEAAHHH@Z
?StackToID@PSInventory@@QEBAKH@Z
?Start@PSEffect@@QEAAXXZ
?StartAnimation@PSMover@@QEAA_NVbCString@@@Z
?StartComboMove@PSCombatSystem@@QEBA_NW4gECombatMove@@@Z
?StartComment@Entity@@QEBA_NAEBV1@@Z
?StartComment@InfoSystem@@SA_NAEBVEntity@@0@Z
?StartDialogCamera@Entity@@SAXAEBV1@0@Z
?StartEffect@EffectSystem@@SA?AVEffect@@AEBVbCString@@AEBVEntity@@1@Z
?StartEffect@EffectSystem@@SA?AVEffect@@AEBVbCString@@AEBVEntity@@@Z
?StartEffect@EffectSystem@@SA?AVEffect@@AEBVbCString@@AEBVbCMatrix@@@Z
?StartEffect@EffectSystem@@SA?AVEffect@@AEBVbCString@@AEBVbCMatrix@@AEBVEntity@@@Z
?StartEffect@EffectSystem@@SA?AVEffect@@AEBVbCString@@AEBVbCVector@@@Z
?StartEffect@EffectSystem@@SA?AVEffect@@AEBVbCString@@AEBVbCVector@@AEBVEntity@@@Z
?StartEffect@PSEffect@@QEAA_NAEBVbCString@@_N@Z
?StartEvent@Tutorial@@QEAA_NVbCString@@_N@Z
?StartFacialAni@Entity@@QEAAXVbCString@@@Z
?StartFixCam@Entity@@SAXAEBVbCMatrix@@AEBVbCVector@@_NMMMMMMMM2@Z
?StartFixCam@Entity@@SAXAEBVbCMatrix@@MMMMM_NMMMMMMMM1@Z
?StartGoto@Entity@@QEAA_NAEAV1@W4gEWalkMode@@@Z
?StartGoto@Entity@@QEAA_NAEBVbCVector@@W4gEWalkMode@@@Z
?StartGoto@PSNavigation@@QEAA_NAEAVEntity@@0W4gEWalkMode@@@Z
?StartGoto@PSNavigation@@QEAA_NAEAVEntity@@AEBVbCVector@@W4gEWalkMode@@@Z
?StartImageEffect@EffectSystem@@SA_NAEBVbCString@@MMM@Z
?StartInfoSystem@InfoSystem@@SA_NAEBVEntity@@0@Z
?StartMove@PSCombatSystem@@QEBA_NW4gECombatMove@@@Z
?StartOutput@Entity@@QEAAXVbCString@@W4gEOutputType@@@Z
?StartOutput@PSRoutine@@QEAAXVbCString@@W4gEOutputType@@@Z
?StartOverlay@Music@@QEAAXVbCString@@@Z
?StartPlayAni@Entity@@QEAAXVbCString@@H_NM1W4eEMotionType@eAnimShared@@@Z
?StartPlayAniEx@Entity@@QEAAXAEBVbCString@@H_N1M1@Z
?StartPlayOverlayAni@Entity@@QEAAXVbCString@@H_NM@Z
?StartRuntimeEffect@PSEffect@@QEAA_NAEBVbCString@@@Z
?StartSay@Entity@@QEAAXAEAV1@VbCString@@_N2@Z
?StartSayEx@Entity@@QEAAXAEAV1@VbCString@@1_N2@Z
?StartSaySVM@Entity@@QEAAXAEAV1@VbCString@@_N2@Z
?StartStateMenu@GUI2@@QEAAXXZ
?StartStumble@PSCombatSystem@@QEBA_NVEntity@@@Z
?StartStumble@PSCombatSystem@@QEBA_NW4gECombatMove@@VEntity@@@Z
?StartStumble@PSCombatSystem@@QEBA_NW4gECombatMove@@VbCVector@@1@Z
?StartStumble@PSCombatSystem@@QEBA_NW4gECombatMove@@VbCVector@@@Z
?StartTakeOver@Entity@@QEAAXXZ
?StartTalk@GUI2@@QEAA_NVEntity@@VbCString@@@Z
?StartTurnTo@Entity@@QEAA_NAEBV1@@Z
?Stop@Music@@QEAAXXZ
?Stop@PSEffect@@QEAAXXZ
?StopAICombatMove@PSRoutine@@QEAAXXZ
?StopAIGoto@PSRoutine@@QEAAX_N@Z
?StopAIOutput@PSRoutine@@QEAAXXZ
?StopAIPlayAnimation@PSRoutine@@QEAAXXZ
?StopAIWait@PSRoutine@@QEAAXXZ
?StopAll@PSMover@@QEAAXXZ
?StopAllRuntimeEffects@PSEffect@@QEAA_N_N@Z
?StopAni@PSAnimation@@QEAAXHM@Z
?StopAnimation@PSMover@@QEAA_NVbCString@@@Z
?StopBodyAni@PSAnimation@@QEAA_N_N@Z
?StopBodyPartAni@PSAnimation@@AEAA_NPEAVeCBodyPart_PS@@_N@Z
?StopCurrentCombo@PSCombatSystem@@QEBA_NXZ
?StopCurrentEvent@Tutorial@@QEAAX_N@Z
?StopCurrentMove@PSCombatSystem@@QEAA_NXZ
?StopEffect@EffectSystem@@SA_NAEBVEffect@@_N@Z
?StopEffect@PSEffect@@QEAAX_N@Z
?StopEvent@Tutorial@@QEAAXVbCString@@_N@Z
?StopFacialAni@Entity@@QEAAXXZ
?StopFacialAni@PSAnimation@@QEAA_N_N@Z
?StopFixCam@Entity@@SAXXZ
?StopGoto@Entity@@QEAAXXZ
?StopImageEffect@EffectSystem@@SA_NXZ
?StopMovement@PSCharacterMovement@@QEBAXXZ
?StopOutput@Entity@@QEAAXXZ
?StopOutput@PSRoutine@@QEAAXXZ
?StopOverlay@Music@@QEAAXXZ
?StopPlayAni@Entity@@QEAAXXZ
?StopPlayOverlayAni@Entity@@QEAAXXZ
?StopRuntimeEffect@PSEffect@@QEAA_NAEBVbCString@@_N@Z
?StopTalk@GUI2@@QEAAXXZ
?SucceedQuest@QuestManager@@SA_NAEBVbCString@@@Z
?SwapHoldSlots@PSInventory@@QEAAXXZ
?SwapSlots@PSInventory@@IEAAXW4gESlot@@0@Z
?Synthesize@PSInventory@@QEAAHAEBVEntity@@H@Z
?Teleport@Entity@@QEAA_NAEBV1@@Z
?Teleport@Entity@@QEAA_NAEBVbCString@@@Z
?ToggleEntityDebug@GUI2@@QEAAXXZ
?TogglePause@World@@QEAAXXZ
?TradeSelections@PSInventory@@QEAA_NAEAVEntity@@@Z
?TransferAmountTo@PSInventory@@QEAA_NHHAEAVEntity@@@Z
?Trigger@Entity@@QEAAXV1@@Z
?UnApplyModSkills@PSItem@@QEAAXAEAVEntity@@@Z
?UnEquipStack@PSInventory@@QEAA_NH@Z
?UnEquipStackFromSlot@PSInventory@@QEAA_NW4gEEquipSlot@@@Z
?UnTrigger@Entity@@QEAAXV1@@Z
?UpdateEntityLists@Entity@@KAXXZ
?UpdateGotoMovementMode@PSNavigation@@QEAA_NW4gEWalkMode@@@Z
?UpdateScreenShot@World@@QEAAXXZ
?UpdateVisibility@PSInventory@@QEAAXXZ
?UseAmbientVariationExclusionForNextAnimation@PSAnimation@@QEAAXXZ
?UseStack@PSInventory@@QEAA_NH@Z
?WasKeyPressedThisFrame@Input@@QEBA_NW4gEActionKey@@@Z
?WriteAchievements@Achievement@@QEAA_NHPEAUXUSER_ACHIEVEMENT@@@Z
?WriteConfigUser@Tutorial@@QEBA_NXZ
?ms_arrEntities@Entity@@2V?$bTObjArray@VEntity@@@@A
?ms_arrNPCs@Entity@@2V?$bTObjArray@VEntity@@@@A
?ms_u32LastFrame@Entity@@2KA
?s_InfComAttack@InfoSystem@@1VInfComAttack@@A
?s_InfComHeal@InfoSystem@@1VInfComHeal@@A
?s_InfComInfoWait@InfoSystem@@1VInfComInfoWait@@A
?s_InfComPickPocket@InfoSystem@@1VInfComPickPocket@@A
?s_InfComRunAIScript@InfoSystem@@1VInfComRunAIScript@@A
?s_InfComSay@InfoSystem@@1VInfComSay@@A
?s_InfComSayConfirm@InfoSystem@@1VInfComSayConfirm@@A
?s_InfComSayHoldingPosition@InfoSystem@@1VInfComSayHoldingPosition@@A
?s_InfComSayKeepItUp@InfoSystem@@1VInfComSayKeepItUp@@A
?s_InfComSaySVM@InfoSystem@@1VInfComSaySVM@@A
?s_InfComSaySound@InfoSystem@@1VInfComSaySound@@A
?s_InfComSetSectorStatus@InfoSystem@@1VInfComSetSectorStatus@@A
?s_InfComSleep@InfoSystem@@1VInfComSleep@@A
?s_InfComThink@InfoSystem@@1VInfComThink@@A
?s_InfComUse@InfoSystem@@1VInfComUse@@A
ActionTimer
CommentManager
FX
IS
None
achievement
focus
g_strAction_Aim
g_strAction_Alchemy
g_strAction_Altar
g_strAction_Ambient
g_strAction_Anvil
g_strAction_Applaud
g_strAction_ArmsCrossed
g_strAction_Attack
g_strAction_BabeAmbient
g_strAction_BabeHandsOnHips
g_strAction_Barbecue
g_strAction_Berserker
g_strAction_Bookstand
g_strAction_BreakDoor
g_strAction_ButtonPushIn
g_strAction_Cauldron
g_strAction_CheckFloor
g_strAction_CheckWall
g_strAction_CleanFloor
g_strAction_ClimbHigh
g_strAction_ClimbLow
g_strAction_ClimbMid
g_strAction_Cock
g_strAction_ConsumeApple
g_strAction_ConsumeBread
g_strAction_ConsumeJar
g_strAction_ConsumeJoint
g_strAction_ConsumeMeat
g_strAction_ConsumePotion
g_strAction_ConsumeStew
g_strAction_CoolWeapon
g_strAction_Dance
g_strAction_Dead
g_strAction_DeadBack
g_strAction_Die
g_strAction_DigGround
g_strAction_DoorClose
g_strAction_DoorOpen
g_strAction_Down
g_strAction_DownBack
g_strAction_DrinkWater
g_strAction_DrinkWaterBarrel
g_strAction_Drop
g_strAction_Eat
g_strAction_Enjoy
g_strAction_Fall
g_strAction_Fan
g_strAction_FieldWork
g_strAction_Finished
g_strAction_FlameSword
g_strAction_FocusCast
g_strAction_Forge
g_strAction_Fry
g_strAction_Goldsmith
g_strAction_GrindStone
g_strAction_Guard
g_strAction_HandsOnHips
g_strAction_Heal
g_strAction_Hold
g_strAction_HoldLeft
g_strAction_HoldOrcBoulder
g_strAction_HoldRight
g_strAction_Jump
g_strAction_JumpUpHigh
g_strAction_JumpUpLow
g_strAction_JumpUpMid
g_strAction_Kneel
g_strAction_Laugh
g_strAction_LeverDraw
g_strAction_LeverFlip
g_strAction_Levitate
g_strAction_LieKnockDown
g_strAction_LiftOrcBoulder
g_strAction_LizardBook
g_strAction_Lockpick
g_strAction_Lumberjack
g_strAction_MagicOpen
g_strAction_MagicOrb
g_strAction_MediumHeal
g_strAction_MinorHeal
g_strAction_None
g_strAction_OpenChest
g_strAction_OpenCupboard
g_strAction_OrcDrum
g_strAction_Pee
g_strAction_PickGround
g_strAction_PickOre
g_strAction_PirateTreasure
g_strAction_PlayFlute
g_strAction_PlayGuitar
g_strAction_Plunder
g_strAction_PracticeMagic
g_strAction_PracticeStaff
g_strAction_Protection
g_strAction_RakeField
g_strAction_Reach
g_strAction_Reload
g_strAction_Repair
g_strAction_Roar
g_strAction_SawLog
g_strAction_Say
g_strAction_SecretRingPull
g_strAction_SitBathtub
g_strAction_SitBench
g_strAction_SitGround
g_strAction_SitKnockDown
g_strAction_SitStool
g_strAction_SitThrone
g_strAction_SleepBed
g_strAction_SleepGround
g_strAction_Slide
g_strAction_Stand
g_strAction_Stoneplate
g_strAction_Stove
g_strAction_Summon
g_strAction_SummonLight
g_strAction_Summoned
g_strAction_Take
g_strAction_TakeHover
g_strAction_Telekinesis
g_strAction_TelekinesisPull
g_strAction_TelekinesisPush
g_strAction_Think
g_strAction_TiltOrcBoulder
g_strAction_Transfer
g_strAction_TransformBeast
g_strAction_TransformNautilus
g_strAction_Use
g_strAction_Warn
g_strAction_Waterpipe
g_strAction_WinchRelease
g_strAction_WinchSpin
g_strAction_WriteScroll
g_strPhase_Aim
g_strPhase_Ambient
g_strPhase_Angry
g_strPhase_Approve
g_strPhase_Beg
g_strPhase_Begin
g_strPhase_BeginHard
g_strPhase_End
g_strPhase_Fail
g_strPhase_First
g_strPhase_Hit
g_strPhase_Jump
g_strPhase_Loop
g_strPhase_Nervous
g_strPhase_Point
g_strPhase_Preach
g_strPhase_Proud
g_strPhase_Raise
g_strPhase_Read
g_strPhase_Recover
g_strPhase_Run
g_strPhase_Sad
g_strPhase_Stand
g_strPhase_Third
g_strPhase_Thoughtful
g_strPhase_Threaten
gui2
input
music
tutorial
world