EXPORTS
??0CSteamAchievements@@QEAA@XZ
??0eCAIHelperAdmin@@QEAA@AEBV0@@Z
??0eCAIHelperAdmin@@QEAA@XZ
??0gCAIHelper_FreePoint_PS@@QEAA@AEBV0@@Z
??0gCAIHelper_FreePoint_PS@@QEAA@XZ
??0gCAIHelper_Label_PS@@QEAA@AEBV0@@Z
??0gCAIHelper_Label_PS@@QEAA@XZ
??0gCAIZone_PS@@QEAA@AEBV0@@Z
??0gCAIZone_PS@@QEAA@XZ
??0gCAchievement@@QEAA@AEBV0@@Z
??0gCAchievement@@QEAA@XZ
??0gCAchievementAdmin@@QEAA@AEBV0@@Z
??0gCAchievementAdmin@@QEAA@XZ
??0gCActionAdmin@@QEAA@AEBV0@@Z
??0gCActionAdmin@@QEAA@XZ
??0gCAnchor_PS@@QEAA@AEBV0@@Z
??0gCAnchor_PS@@QEAA@XZ
??0gCArena_PS@@QEAA@AEBV0@@Z
??0gCArena_PS@@QEAA@XZ
??0gCBaseDropData@@QEAA@AEBV0@@Z
??0gCBaseDropData@@QEAA@HPEAVeCGuiWindow2@@AEBVeCEntityProxy@@@Z
??0gCBookLocString@@QEAA@$$QEAV0@@Z
??0gCBookLocString@@QEAA@AEBV0@@Z
??0gCBookLocString@@QEAA@XZ
??0gCBook_PS@@QEAA@AEBV0@@Z
??0gCBook_PS@@QEAA@XZ
??0gCCameraAdmin@@QEAA@AEBV0@@Z
??0gCCameraAdmin@@QEAA@XZ
??0gCCastInfo_PS@@QEAA@AEBV0@@Z
??0gCCastInfo_PS@@QEAA@XZ
??0gCCharacterControl@@QEAA@AEBV0@@Z
??0gCCharacterControl@@QEAA@XZ
??0gCCharacterMovement_PS@@QEAA@AEBV0@@Z
??0gCCharacterMovement_PS@@QEAA@XZ
??0gCCharacterSensor@@QEAA@AEBV0@@Z
??0gCCharacterSensor@@QEAA@XZ
??0gCClock_PS@@QEAA@AEBV0@@Z
??0gCClock_PS@@QEAA@XZ
??0gCCollisionCircle_PS@@QEAA@AEBV0@@Z
??0gCCollisionCircle_PS@@QEAA@XZ
??0gCCollisionCircle_PSObj@@QEAA@AEBV0@@Z
??0gCCollisionCircle_PSObj@@QEAA@XZ
??0gCCombatAI@@QEAA@AEBV0@@Z
??0gCCombatAI@@QEAA@XZ
??0gCCombatAIMelee@@QEAA@AEBV0@@Z
??0gCCombatAIMelee@@QEAA@XZ
??0gCCombatAIRanged@@QEAA@AEBV0@@Z
??0gCCombatAIRanged@@QEAA@XZ
??0gCCombatAdmin@@QEAA@AEBV0@@Z
??0gCCombatAdmin@@QEAA@XZ
??0gCCombatMove@@QEAA@AEBV0@@Z
??0gCCombatMove@@QEAA@XZ
??0gCCombatMoveAim@@QEAA@AEBV0@@Z
??0gCCombatMoveAim@@QEAA@XZ
??0gCCombatMoveComboSwitch@@QEAA@AEBV0@@Z
??0gCCombatMoveComboSwitch@@QEAA@XZ
??0gCCombatMoveFinishing@@QEAA@AEBV0@@Z
??0gCCombatMoveFinishing@@QEAA@XZ
??0gCCombatMoveMelee@@QEAA@AEBV0@@Z
??0gCCombatMoveMelee@@QEAA@XZ
??0gCCombatMoveOverlayStumble@@QEAA@AEBV0@@Z
??0gCCombatMoveOverlayStumble@@QEAA@XZ
??0gCCombatMoveParade@@QEAA@AEBV0@@Z
??0gCCombatMoveParade@@QEAA@XZ
??0gCCombatMoveReload@@QEAA@AEBV0@@Z
??0gCCombatMoveReload@@QEAA@XZ
??0gCCombatMoveScriptState@@QEAA@AEBV0@@Z
??0gCCombatMoveScriptState@@QEAA@XZ
??0gCCombatMoveShoot@@QEAA@AEBV0@@Z
??0gCCombatMoveShoot@@QEAA@XZ
??0gCCombatMoveStumble@@QEAA@AEBV0@@Z
??0gCCombatMoveStumble@@QEAA@XZ
??0gCCombatObject@@QEAA@AEBV0@@Z
??0gCCombatObject@@QEAA@XZ
??0gCCombatSpecies@@QEAA@AEBV0@@Z
??0gCCombatSpecies@@QEAA@XZ
??0gCCombatStyle@@QEAA@AEBV0@@Z
??0gCCombatStyle@@QEAA@XZ
??0gCCombatStyleAniPose@@QEAA@AEBV0@@Z
??0gCCombatStyleAniPose@@QEAA@XZ
??0gCCombatStyleMelee@@QEAA@AEBV0@@Z
??0gCCombatStyleMelee@@QEAA@XZ
??0gCCombatStyleRanged@@QEAA@AEBV0@@Z
??0gCCombatStyleRanged@@QEAA@XZ
??0gCCombatStyleWeaponConfig@@QEAA@AEBV0@@Z
??0gCCombatStyleWeaponConfig@@QEAA@XZ
??0gCCombatSystem_PS@@QEAA@AEBV0@@Z
??0gCCombatSystem_PS@@QEAA@XZ
??0gCCombatWeaponConfig@@QEAA@AEBV0@@Z
??0gCCombatWeaponConfig@@QEAA@W4gEItemUseType@@0@Z
??0gCCombatWeaponConfig@@QEAA@XZ
??0gCCraftIngredient@@QEAA@AEBV0@@Z
??0gCCraftIngredient@@QEAA@XZ
??0gCDamage_PS@@QEAA@AEBV0@@Z
??0gCDamage_PS@@QEAA@XZ
??0gCDatabase@@QEAA@AEBV0@@Z
??0gCDatabase@@QEAA@XZ
??0gCDialog_PS@@QEAA@AEBV0@@Z
??0gCDialog_PS@@QEAA@XZ
??0gCDoor_PS@@QEAA@AEBV0@@Z
??0gCDoor_PS@@QEAA@XZ
??0gCDummyCollectorAdmin@@QEAA@AEBV0@@Z
??0gCDummyCollectorAdmin@@QEAA@XZ
??0gCDummyCollectorAnchor@@QEAA@AEAVeCDynamicEntity@@@Z
??0gCDummyCollectorAnchor@@QEAA@AEBV0@@Z
??0gCDummyCollectorBase@@IEAA@AEAVeCDynamicEntity@@@Z
??0gCDummyCollectorBase@@QEAA@AEBV0@@Z
??0gCDummyCollectorCollisionCircle@@QEAA@AEAVeCDynamicEntity@@@Z
??0gCDummyCollectorCollisionCircle@@QEAA@AEBV0@@Z
??0gCDummyCollectorDoor@@QEAA@AEAVeCDynamicEntity@@@Z
??0gCDummyCollectorDoor@@QEAA@AEBV0@@Z
??0gCDummyCollectorDynamicCollisionCircle@@QEAA@AEAVeCDynamicEntity@@@Z
??0gCDummyCollectorDynamicCollisionCircle@@QEAA@AEBV0@@Z
??0gCDummyCollectorEntity@@QEAA@AEAVeCDynamicEntity@@@Z
??0gCDummyCollectorEntity@@QEAA@AEBV0@@Z
??0gCDummyCollectorFreepoint@@QEAA@AEAVeCDynamicEntity@@@Z
??0gCDummyCollectorFreepoint@@QEAA@AEBV0@@Z
??0gCDummyCollectorNavOffset@@QEAA@AEAVeCDynamicEntity@@@Z
??0gCDummyCollectorNavOffset@@QEAA@AEBV0@@Z
??0gCDummyCollectorNavPath@@QEAA@AEAVeCDynamicEntity@@@Z
??0gCDummyCollectorNavPath@@QEAA@AEBV0@@Z
??0gCDummyCollectorNavZone@@QEAA@AEAVeCDynamicEntity@@@Z
??0gCDummyCollectorNavZone@@QEAA@AEBV0@@Z
??0gCDummyCollectorNegZone@@QEAA@AEAVeCDynamicEntity@@@Z
??0gCDummyCollectorNegZone@@QEAA@AEBV0@@Z
??0gCDummyCollectorPSet_Base@@IEAA@AEAVeCDynamicEntity@@@Z
??0gCDummyCollectorPSet_Base@@QEAA@AEBV0@@Z
??0gCDummyCollectorPrefPath@@QEAA@AEAVeCDynamicEntity@@@Z
??0gCDummyCollectorPrefPath@@QEAA@AEBV0@@Z
??0gCDummyVisualBase_PS@@QEAA@AEBV0@@Z
??0gCDummyVisualBase_PS@@QEAA@XZ
??0gCDynamicCollisionCircle_PS@@QEAA@AEBV0@@Z
??0gCDynamicCollisionCircle_PS@@QEAA@XZ
??0gCDynamicLayer@@QEAA@AEBV0@@Z
??0gCDynamicLayer@@QEAA@XZ
??0gCEditorEntityPropertySet@@QEAA@AEBV0@@Z
??0gCEditorEntityPropertySet@@QEAA@XZ
??0gCEffect@@QEAA@AEBV0@@Z
??0gCEffect@@QEAA@XZ
??0gCEffectCommand@@QEAA@AEBV0@@Z
??0gCEffectCommand@@QEAA@XZ
??0gCEffectCommandEarthquake@@QEAA@AEBV0@@Z
??0gCEffectCommandEarthquake@@QEAA@XZ
??0gCEffectCommandEntity@@QEAA@$$QEAV0@@Z
??0gCEffectCommandEntity@@QEAA@AEBV0@@Z
??0gCEffectCommandEntity@@QEAA@XZ
??0gCEffectCommandKillEntity@@QEAA@AEBV0@@Z
??0gCEffectCommandKillEntity@@QEAA@XZ
??0gCEffectCommandKillEntityRange@@QEAA@AEBV0@@Z
??0gCEffectCommandKillEntityRange@@QEAA@XZ
??0gCEffectCommandModifyEntity@@QEAA@AEBV0@@Z
??0gCEffectCommandModifyEntity@@QEAA@XZ
??0gCEffectCommandPlaySound@@QEAA@AEBV0@@Z
??0gCEffectCommandPlaySound@@QEAA@XZ
??0gCEffectCommandPlayVoice@@QEAA@AEBV0@@Z
??0gCEffectCommandPlayVoice@@QEAA@XZ
??0gCEffectCommandRunScript@@QEAA@AEBV0@@Z
??0gCEffectCommandRunScript@@QEAA@XZ
??0gCEffectCommandSaySVM@@QEAA@AEBV0@@Z
??0gCEffectCommandSaySVM@@QEAA@XZ
??0gCEffectCommandSequence2@@QEAA@AEBV0@@Z
??0gCEffectCommandSequence2@@QEAA@XZ
??0gCEffectCommandSpawnEntity@@QEAA@AEBV0@@Z
??0gCEffectCommandSpawnEntity@@QEAA@XZ
??0gCEffectCommandSpawnEntityList@@QEAA@AEBV0@@Z
??0gCEffectCommandSpawnEntityList@@QEAA@XZ
??0gCEffectCommandSpawnEntitySwitch@@QEAA@AEBV0@@Z
??0gCEffectCommandSpawnEntitySwitch@@QEAA@XZ
??0gCEffectCommandStartImageEffect@@QEAA@AEBV0@@Z
??0gCEffectCommandStartImageEffect@@QEAA@XZ
??0gCEffectCommandTriggerEntity@@QEAA@AEBV0@@Z
??0gCEffectCommandTriggerEntity@@QEAA@XZ
??0gCEffectModule@@QEAA@AEBV0@@Z
??0gCEffectModule@@QEAA@XZ
??0gCEffectSystem@@QEAA@AEBV0@@Z
??0gCEffectSystem@@QEAA@XZ
??0gCEffect_PS@@QEAA@AEBV0@@Z
??0gCEffect_PS@@QEAA@XZ
??0gCEntityDummyVisual_PS@@QEAA@AEBV0@@Z
??0gCEntityDummyVisual_PS@@QEAA@XZ
??0gCEquipslotDropData@@QEAA@AEBV0@@Z
??0gCEquipslotDropData@@QEAA@W4gEEquipSlot@@H@Z
??0gCFlightPathBallistic@@QEAA@AEBV0@@Z
??0gCFlightPathBallistic@@QEAA@XZ
??0gCFlightPathBase@@QEAA@AEBV0@@Z
??0gCFlightPathBase@@QEAA@XZ
??0gCFlightPathSeeking@@QEAA@AEBV0@@Z
??0gCFlightPathSeeking@@QEAA@XZ
??0gCFocusModule2@@QEAA@XZ
??0gCGUIEntityRenderer@@IEAA@XZ
??0gCGUIEntityRenderer@@QEAA@AEBV0@@Z
??0gCGUIFilter@@QEAA@$$QEAV0@@Z
??0gCGUIFilter@@QEAA@AEBV0@@Z
??0gCGUIFilter@@QEAA@AEBVbCString@@AEBW4gEGUIFilterType@@@Z
??0gCGUIFilter@@QEAA@XZ
??0gCGameApp@@QEAA@XZ
??0gCGameScript_PS@@QEAA@AEBV0@@Z
??0gCGameScript_PS@@QEAA@XZ
??0gCHUDFileManager@@AEAA@XZ
??0gCHUDFileManager@@QEAA@AEBV0@@Z
??0gCHudDialog2@@QEAA@AEBV0@@Z
??0gCHudDialog2@@QEAA@XZ
??0gCHudModule2@@QEAA@AEBV0@@Z
??0gCHudModule2@@QEAA@XZ
??0gCHudPage2@@QEAA@AEBV0@@Z
??0gCHudPage2@@QEAA@XZ
??0gCHudPopUp2@@QEAA@AEBV0@@Z
??0gCHudPopUp2@@QEAA@XZ
??0gCHudResolutionManager2@@AEAA@XZ
??0gCHudSystem2@@QEAA@AEBV0@@Z
??0gCHudSystem2@@QEAA@XZ
??0gCInfo@@QEAA@AEBV0@@Z
??0gCInfo@@QEAA@XZ
??0gCInfoCommand@@QEAA@AEBV0@@Z
??0gCInfoCommand@@QEAA@XZ
??0gCInfoCommandAddInfoSystemEndScript@@QEAA@AEBV0@@Z
??0gCInfoCommandAddInfoSystemEndScript@@QEAA@XZ
??0gCInfoCommandAddLogText@@QEAA@AEBV0@@Z
??0gCInfoCommandAddLogText@@QEAA@XZ
??0gCInfoCommandAddNPCInfo@@QEAA@AEBV0@@Z
??0gCInfoCommandAddNPCInfo@@QEAA@XZ
??0gCInfoCommandAddQuestActor@@QEAA@AEBV0@@Z
??0gCInfoCommandAddQuestActor@@QEAA@XZ
??0gCInfoCommandAttack@@QEAA@AEBV0@@Z
??0gCInfoCommandAttack@@QEAA@XZ
??0gCInfoCommandBack@@QEAA@AEBV0@@Z
??0gCInfoCommandBack@@QEAA@XZ
??0gCInfoCommandBoostAttribs@@QEAA@AEBV0@@Z
??0gCInfoCommandBoostAttribs@@QEAA@XZ
??0gCInfoCommandClearGameEvent@@QEAA@AEBV0@@Z
??0gCInfoCommandClearGameEvent@@QEAA@XZ
??0gCInfoCommandCloseQuest@@QEAA@AEBV0@@Z
??0gCInfoCommandCloseQuest@@QEAA@XZ
??0gCInfoCommandCreateItem@@QEAA@AEBV0@@Z
??0gCInfoCommandCreateItem@@QEAA@XZ
??0gCInfoCommandDescription@@QEAA@AEBV0@@Z
??0gCInfoCommandDescription@@QEAA@XZ
??0gCInfoCommandDestroyItem@@QEAA@AEBV0@@Z
??0gCInfoCommandDestroyItem@@QEAA@XZ
??0gCInfoCommandDoLoot@@QEAA@AEBV0@@Z
??0gCInfoCommandDoLoot@@QEAA@XZ
??0gCInfoCommandDoTrade@@QEAA@AEBV0@@Z
??0gCInfoCommandDoTrade@@QEAA@XZ
??0gCInfoCommandEnd@@QEAA@AEBV0@@Z
??0gCInfoCommandEnd@@QEAA@XZ
??0gCInfoCommandEndGame@@QEAA@AEBV0@@Z
??0gCInfoCommandEndGame@@QEAA@XZ
??0gCInfoCommandFullStop@@QEAA@AEBV0@@Z
??0gCInfoCommandFullStop@@QEAA@XZ
??0gCInfoCommandGive@@QEAA@AEBV0@@Z
??0gCInfoCommandGive@@QEAA@XZ
??0gCInfoCommandGiveXP@@QEAA@AEBV0@@Z
??0gCInfoCommandGiveXP@@QEAA@XZ
??0gCInfoCommandHeal@@QEAA@AEBV0@@Z
??0gCInfoCommandHeal@@QEAA@XZ
??0gCInfoCommandInfoWait@@QEAA@AEBV0@@Z
??0gCInfoCommandInfoWait@@QEAA@XZ
??0gCInfoCommandKillNPC@@QEAA@AEBV0@@Z
??0gCInfoCommandKillNPC@@QEAA@XZ
??0gCInfoCommandMoveTo@@QEAA@AEBV0@@Z
??0gCInfoCommandMoveTo@@QEAA@XZ
??0gCInfoCommandPickPocket@@QEAA@AEBV0@@Z
??0gCInfoCommandPickPocket@@QEAA@XZ
??0gCInfoCommandPlayMusic@@QEAA@AEBV0@@Z
??0gCInfoCommandPlayMusic@@QEAA@XZ
??0gCInfoCommandRemoveNPC@@QEAA@AEBV0@@Z
??0gCInfoCommandRemoveNPC@@QEAA@XZ
??0gCInfoCommandRemoveNPCInfo@@QEAA@AEBV0@@Z
??0gCInfoCommandRemoveNPCInfo@@QEAA@XZ
??0gCInfoCommandRemoveQuestActor@@QEAA@AEBV0@@Z
??0gCInfoCommandRemoveQuestActor@@QEAA@XZ
??0gCInfoCommandRunAIScript@@QEAA@AEBV0@@Z
??0gCInfoCommandRunAIScript@@QEAA@XZ
??0gCInfoCommandRunInfo@@QEAA@AEBV0@@Z
??0gCInfoCommandRunInfo@@QEAA@XZ
??0gCInfoCommandRunQuest@@QEAA@AEBV0@@Z
??0gCInfoCommandRunQuest@@QEAA@XZ
??0gCInfoCommandRunScript@@QEAA@AEBV0@@Z
??0gCInfoCommandRunScript@@QEAA@XZ
??0gCInfoCommandSay@@QEAA@AEBV0@@Z
??0gCInfoCommandSay@@QEAA@XZ
??0gCInfoCommandSayConfirm@@QEAA@AEBV0@@Z
??0gCInfoCommandSayConfirm@@QEAA@XZ
??0gCInfoCommandSayHoldingPosition@@QEAA@AEBV0@@Z
??0gCInfoCommandSayHoldingPosition@@QEAA@XZ
??0gCInfoCommandSayKeepItUp@@QEAA@AEBV0@@Z
??0gCInfoCommandSayKeepItUp@@QEAA@XZ
??0gCInfoCommandSaySVM@@QEAA@AEBV0@@Z
??0gCInfoCommandSaySVM@@QEAA@XZ
??0gCInfoCommandSaySound@@QEAA@AEBV0@@Z
??0gCInfoCommandSaySound@@QEAA@XZ
??0gCInfoCommandSetGameEvent@@QEAA@AEBV0@@Z
??0gCInfoCommandSetGameEvent@@QEAA@XZ
??0gCInfoCommandSetGuardStatus@@QEAA@AEBV0@@Z
??0gCInfoCommandSetGuardStatus@@QEAA@XZ
??0gCInfoCommandSetMobEnabled@@QEAA@AEBV0@@Z
??0gCInfoCommandSetMobEnabled@@QEAA@XZ
??0gCInfoCommandSetPartyEnabled@@QEAA@AEBV0@@Z
??0gCInfoCommandSetPartyEnabled@@QEAA@XZ
??0gCInfoCommandSetRelaxingPoint@@QEAA@AEBV0@@Z
??0gCInfoCommandSetRelaxingPoint@@QEAA@XZ
??0gCInfoCommandSetRoutine@@QEAA@AEBV0@@Z
??0gCInfoCommandSetRoutine@@QEAA@XZ
??0gCInfoCommandSetSectorStatus@@QEAA@AEBV0@@Z
??0gCInfoCommandSetSectorStatus@@QEAA@XZ
??0gCInfoCommandSetSlaveryEnabled@@QEAA@AEBV0@@Z
??0gCInfoCommandSetSlaveryEnabled@@QEAA@XZ
??0gCInfoCommandSetSleepingPoint@@QEAA@AEBV0@@Z
??0gCInfoCommandSetSleepingPoint@@QEAA@XZ
??0gCInfoCommandSetTeachEnabled@@QEAA@AEBV0@@Z
??0gCInfoCommandSetTeachEnabled@@QEAA@XZ
??0gCInfoCommandSetTradeEnabled@@QEAA@AEBV0@@Z
??0gCInfoCommandSetTradeEnabled@@QEAA@XZ
??0gCInfoCommandSetWorkingPoint@@QEAA@AEBV0@@Z
??0gCInfoCommandSetWorkingPoint@@QEAA@XZ
??0gCInfoCommandShowPicture@@QEAA@AEBV0@@Z
??0gCInfoCommandShowPicture@@QEAA@XZ
??0gCInfoCommandShowSubtitle@@QEAA@AEBV0@@Z
??0gCInfoCommandShowSubtitle@@QEAA@XZ
??0gCInfoCommandSleep@@QEAA@AEBV0@@Z
??0gCInfoCommandSleep@@QEAA@XZ
??0gCInfoCommandStartEffect@@QEAA@AEBV0@@Z
??0gCInfoCommandStartEffect@@QEAA@XZ
??0gCInfoCommandStartFixCamera@@QEAA@AEBV0@@Z
??0gCInfoCommandStartFixCamera@@QEAA@XZ
??0gCInfoCommandStartTutorial@@QEAA@AEBV0@@Z
??0gCInfoCommandStartTutorial@@QEAA@XZ
??0gCInfoCommandStopFixCamera@@QEAA@AEBV0@@Z
??0gCInfoCommandStopFixCamera@@QEAA@XZ
??0gCInfoCommandSucceedQuest@@QEAA@AEBV0@@Z
??0gCInfoCommandSucceedQuest@@QEAA@XZ
??0gCInfoCommandTeach@@QEAA@AEBV0@@Z
??0gCInfoCommandTeach@@QEAA@XZ
??0gCInfoCommandTeleportNPC@@QEAA@AEBV0@@Z
??0gCInfoCommandTeleportNPC@@QEAA@XZ
??0gCInfoCommandThink@@QEAA@AEBV0@@Z
??0gCInfoCommandThink@@QEAA@XZ
??0gCInfoCommandTrigger@@QEAA@AEBV0@@Z
??0gCInfoCommandTrigger@@QEAA@XZ
??0gCInfoCommandUse@@QEAA@AEBV0@@Z
??0gCInfoCommandUse@@QEAA@XZ
??0gCInfoCommandWear@@QEAA@AEBV0@@Z
??0gCInfoCommandWear@@QEAA@XZ
??0gCInfoCondition@@QEAA@AEBV0@@Z
??0gCInfoCondition@@QEAA@XZ
??0gCInfoConditionCanTeachSkill@@QEAA@AEBV0@@Z
??0gCInfoConditionCanTeachSkill@@QEAA@XZ
??0gCInfoConditionItemAmount@@QEAA@AEBV0@@Z
??0gCInfoConditionItemAmount@@QEAA@XZ
??0gCInfoConditionNPCStatus@@QEAA@AEBV0@@Z
??0gCInfoConditionNPCStatus@@QEAA@XZ
??0gCInfoConditionOwnerInArea@@QEAA@AEBV0@@Z
??0gCInfoConditionOwnerInArea@@QEAA@XZ
??0gCInfoConditionOwnerNearEntity@@QEAA@AEBV0@@Z
??0gCInfoConditionOwnerNearEntity@@QEAA@XZ
??0gCInfoConditionPlayerKnows@@QEAA@AEBV0@@Z
??0gCInfoConditionPlayerKnows@@QEAA@XZ
??0gCInfoConditionPlayerNotKnows@@QEAA@AEBV0@@Z
??0gCInfoConditionPlayerNotKnows@@QEAA@XZ
??0gCInfoConditionQuestStatus@@QEAA@AEBV0@@Z
??0gCInfoConditionQuestStatus@@QEAA@XZ
??0gCInfoConditionScript@@QEAA@AEBV0@@Z
??0gCInfoConditionScript@@QEAA@XZ
??0gCInfoConditionSkillValue@@QEAA@AEBV0@@Z
??0gCInfoConditionSkillValue@@QEAA@XZ
??0gCInfoConditionTeachEnabled@@QEAA@AEBV0@@Z
??0gCInfoConditionTeachEnabled@@QEAA@XZ
??0gCInfoDropData@@QEAA@AEBV0@@Z
??0gCInfoDropData@@QEAA@PEBVgCInfo@@@Z
??0gCInfoLocString@@QEAA@$$QEAV0@@Z
??0gCInfoLocString@@QEAA@AEBV0@@Z
??0gCInfoLocString@@QEAA@XZ
??0gCInfoModule@@QEAA@AEBV0@@Z
??0gCInfoModule@@QEAA@XZ
??0gCInfoSystem@@QEAA@AEBV0@@Z
??0gCInfoSystem@@QEAA@XZ
??0gCInteraction@@QEAA@AEBV0@@Z
??0gCInteraction@@QEAA@XZ
??0gCInteractionAdmin@@QEAA@AEBV0@@Z
??0gCInteractionAdmin@@QEAA@XZ
??0gCInteractionSlot@@QEAA@AEBV0@@Z
??0gCInteractionSlot@@QEAA@XZ
??0gCInteraction_PS@@QEAA@AEBV0@@Z
??0gCInteraction_PS@@QEAA@XZ
??0gCInventoryDropData@@IEAA@IPEAVeCEntity@@PEAVeCGuiWindow2@@@Z
??0gCInventoryDropData@@QEAA@AEBV0@@Z
??0gCInventoryList@@QEAA@AEBV0@@Z
??0gCInventoryList@@QEAA@XZ
??0gCInventoryListener@@QEAA@$$QEAV0@@Z
??0gCInventoryListener@@QEAA@AEBV0@@Z
??0gCInventoryListener@@QEAA@XZ
??0gCInventorySlot@@QEAA@AEBV0@@Z
??0gCInventorySlot@@QEAA@XZ
??0gCInventoryStack@@QEAA@AEBV0@@Z
??0gCInventoryStack@@QEAA@XZ
??0gCInventory_PS@@QEAA@AEBV0@@Z
??0gCInventory_PS@@QEAA@XZ
??0gCItem_PS@@QEAA@AEBV0@@Z
??0gCItem_PS@@QEAA@XZ
??0gCIterator@gCInteractionAdmin@@QEAA@W4gEInteractionUseType@@@Z
??0gCIterator@gCInteractionAdmin@@QEAA@XZ
??0gCLayerBase@@QEAA@AEBV0@@Z
??0gCLayerBase@@QEAA@XZ
??0gCLetterLocString@@QEAA@$$QEAV0@@Z
??0gCLetterLocString@@QEAA@AEBV0@@Z
??0gCLetterLocString@@QEAA@XZ
??0gCLetter_PS@@QEAA@AEBV0@@Z
??0gCLetter_PS@@QEAA@XZ
??0gCLock_PS@@QEAA@AEBV0@@Z
??0gCLock_PS@@QEAA@XZ
??0gCMapEntry@@QEAA@$$QEAV0@@Z
??0gCMapEntry@@QEAA@AEBV0@@Z
??0gCMapEntry@@QEAA@AEBVbCString@@0@Z
??0gCMapEntry@@QEAA@XZ
??0gCMapInfo_PS@@QEAA@AEBV0@@Z
??0gCMapInfo_PS@@QEAA@XZ
??0gCMapLocString@@QEAA@$$QEAV0@@Z
??0gCMapLocString@@QEAA@AEBV0@@Z
??0gCMapLocString@@QEAA@XZ
??0gCMap_PS@@QEAA@AEBV0@@Z
??0gCMap_PS@@QEAA@XZ
??0gCModifySkill@@QEAA@$$QEAV0@@Z
??0gCModifySkill@@QEAA@AEBV0@@Z
??0gCModifySkill@@QEAA@W4gESkill@@HW4gESkillModifier@@@Z
??0gCModifySkill@@QEAA@XZ
??0gCMusicModule2@@QEAA@AEBV0@@Z
??0gCMusicModule2@@QEAA@XZ
??0gCNPCInfoLocString@@QEAA@$$QEAV0@@Z
??0gCNPCInfoLocString@@QEAA@AEBV0@@Z
??0gCNPCInfoLocString@@QEAA@XZ
??0gCNPC_PS@@QEAA@AEBV0@@Z
??0gCNPC_PS@@QEAA@XZ
??0gCNavHelper_PS@@QEAA@AEBV0@@Z
??0gCNavHelper_PS@@QEAA@XZ
??0gCNavOffset_PS@@QEAA@AEBV0@@Z
??0gCNavOffset_PS@@QEAA@XZ
??0gCNavPath_PS@@QEAA@AEBV0@@Z
??0gCNavPath_PS@@QEAA@XZ
??0gCNavZone_PS@@QEAA@AEBV0@@Z
??0gCNavZone_PS@@QEAA@XZ
??0gCNavigationAdmin@@QEAA@AEBV0@@Z
??0gCNavigationAdmin@@QEAA@XZ
??0gCNavigationMap@@QEAA@AEBV0@@Z
??0gCNavigationMap@@QEAA@XZ
??0gCNavigationMapCompiler@@QEAA@AEAVgCNavigationMap@@@Z
??0gCNavigationMapCompiler@@QEAA@AEBV0@@Z
??0gCNavigationMapNavigator@@QEAA@AEAVgCNavigationMap@@@Z
??0gCNavigationMapNavigator@@QEAA@AEBV0@@Z
??0gCNavigationMapTester@@QEAA@AEAVgCNavigationMap@@@Z
??0gCNavigationMapTester@@QEAA@AEBV0@@Z
??0gCNavigation_PS@@QEAA@AEBV0@@Z
??0gCNavigation_PS@@QEAA@XZ
??0gCNegZone_PS@@QEAA@AEBV0@@Z
??0gCNegZone_PS@@QEAA@XZ
??0gCNegZone_PSObj@@QEAA@AEBV0@@Z
??0gCNegZone_PSObj@@QEAA@XZ
??0gCPartyAdmin@@QEAA@AEBV0@@Z
??0gCPartyAdmin@@QEAA@XZ
??0gCParty_PS@@QEAA@AEBV0@@Z
??0gCParty_PS@@QEAA@XZ
??0gCPlayList@@QEAA@AEBV0@@Z
??0gCPlayList@@QEAA@XZ
??0gCPrefPath_PS@@QEAA@AEBV0@@Z
??0gCPrefPath_PS@@QEAA@XZ
??0gCPrefPath_PSObj@@QEAA@AEBV0@@Z
??0gCPrefPath_PSObj@@QEAA@XZ
??0gCProject@@QEAA@AEBV0@@Z
??0gCProject@@QEAA@XZ
??0gCProjectile2_PS@@QEAA@AEBV0@@Z
??0gCProjectile2_PS@@QEAA@XZ
??0gCPropertyDummyVisual_PS@@QEAA@AEBV0@@Z
??0gCPropertyDummyVisual_PS@@QEAA@XZ
??0gCQuest@@QEAA@AEBV0@@Z
??0gCQuest@@QEAA@XZ
??0gCQuestActor@@QEAA@$$QEAV0@@Z
??0gCQuestActor@@QEAA@AEBV0@@Z
??0gCQuestActor@@QEAA@AEBVbCString@@W4gEQuestActor@@@Z
??0gCQuestActor@@QEAA@XZ
??0gCQuestLocString@@QEAA@$$QEAV0@@Z
??0gCQuestLocString@@QEAA@AEBV0@@Z
??0gCQuestLocString@@QEAA@XZ
??0gCQuestLogFrame2@@QEAA@AEBV0@@Z
??0gCQuestLogFrame2@@QEAA@XZ
??0gCQuestManager@@QEAA@AEBV0@@Z
??0gCQuestManager@@QEAA@XZ
??0gCRecipe_PS@@QEAA@AEBV0@@Z
??0gCRecipe_PS@@QEAA@XZ
??0gCRuntimeInfo@@QEAA@AEBV0@@Z
??0gCRuntimeInfo@@QEAA@XZ
??0gCSaveGame@@QEAA@AEBV0@@Z
??0gCSaveGame@@QEAA@XZ
??0gCSaveGameManager@@QEAA@XZ
??0gCScriptAdmin@@QEAA@XZ
??0gCScriptProcessingUnit@@IEAA@AEBV0@@Z
??0gCScriptProcessingUnit@@QEAA@XZ
??0gCScriptProxyAICallback@@QEAA@AEBV0@@Z
??0gCScriptProxyAICallback@@QEAA@AEBVbCString@@@Z
??0gCScriptProxyAICallback@@QEAA@PEAUeSScriptBase@@@Z
??0gCScriptProxyAICallback@@QEAA@XZ
??0gCScriptProxyAIFunction@@QEAA@AEBV0@@Z
??0gCScriptProxyAIFunction@@QEAA@AEBVbCString@@@Z
??0gCScriptProxyAIFunction@@QEAA@PEAUeSScriptBase@@@Z
??0gCScriptProxyAIFunction@@QEAA@XZ
??0gCScriptProxyAIState@@QEAA@AEBV0@@Z
??0gCScriptProxyAIState@@QEAA@AEBVbCString@@@Z
??0gCScriptProxyAIState@@QEAA@PEAUeSScriptBase@@@Z
??0gCScriptProxyAIState@@QEAA@XZ
??0gCScriptRoutine_PS@@QEAA@AEBV0@@Z
??0gCScriptRoutine_PS@@QEAA@XZ
??0gCSector@@QEAA@AEBV0@@Z
??0gCSector@@QEAA@XZ
??0gCSectorPersistence_PS@@QEAA@AEBV0@@Z
??0gCSectorPersistence_PS@@QEAA@XZ
??0gCSession@@AEAA@AEBV0@@Z
??0gCSession@@QEAA@XZ
??0gCSessionCheats@@QEAA@AEBV0@@Z
??0gCSessionCheats@@QEAA@XZ
??0gCSessionInfo@@QEAA@AEBV0@@Z
??0gCSessionInfo@@QEAA@XZ
??0gCShortcutDropData@@QEAA@AEBV0@@Z
??0gCShortcutDropData@@QEAA@HH@Z
??0gCSkillRange@@QEAA@$$QEAV0@@Z
??0gCSkillRange@@QEAA@AEBV0@@Z
??0gCSkillRange@@QEAA@W4gESkill@@HH@Z
??0gCSkillRange@@QEAA@XZ
??0gCSkillValue@@QEAA@$$QEAV0@@Z
??0gCSkillValue@@QEAA@AEBV0@@Z
??0gCSkillValue@@QEAA@W4gESkill@@H@Z
??0gCSkillValue@@QEAA@XZ
??0gCSkillValueBase@@QEAA@$$QEAV0@@Z
??0gCSkillValueBase@@QEAA@AEBV0@@Z
??0gCSkillValueBase@@QEAA@XZ
??0gCSkills_PS@@QEAA@AEBV0@@Z
??0gCSkills_PS@@QEAA@XZ
??0gCSpinButton@@QEAA@$$QEAV0@@Z
??0gCSpinButton@@QEAA@AEBV0@@Z
??0gCSpinButton@@QEAA@XZ
??0gCStateGraphAction@@QEAA@AEBV0@@Z
??0gCStateGraphAction@@QEAA@XZ
??0gCStateGraphActionCallScript@@QEAA@AEBV0@@Z
??0gCStateGraphActionCallScript@@QEAA@XZ
??0gCStateGraphActionEventDispatcher@@QEAA@AEBV0@@Z
??0gCStateGraphActionEventDispatcher@@QEAA@XZ
??0gCStateGraphActionFollowState@@QEAA@AEBV0@@Z
??0gCStateGraphActionFollowState@@QEAA@XZ
??0gCStateGraphActionPauseAni@@QEAA@AEBV0@@Z
??0gCStateGraphActionPauseAni@@QEAA@XZ
??0gCStateGraphActionPlayAni@@QEAA@AEBV0@@Z
??0gCStateGraphActionPlayAni@@QEAA@XZ
??0gCStateGraphActionStartEffect@@QEAA@AEBV0@@Z
??0gCStateGraphActionStartEffect@@QEAA@XZ
??0gCStateGraphActionStop@@QEAA@AEBV0@@Z
??0gCStateGraphActionStop@@QEAA@XZ
??0gCStateGraphActionTrigger@@QEAA@AEBV0@@Z
??0gCStateGraphActionTrigger@@QEAA@XZ
??0gCStateGraphActionTriggerState@@QEAA@AEBV0@@Z
??0gCStateGraphActionTriggerState@@QEAA@XZ
??0gCStateGraphActionUnTrigger@@QEAA@AEBV0@@Z
??0gCStateGraphActionUnTrigger@@QEAA@XZ
??0gCStateGraphActionVisibility@@QEAA@AEBV0@@Z
??0gCStateGraphActionVisibility@@QEAA@XZ
??0gCStateGraphActionWait@@QEAA@AEBV0@@Z
??0gCStateGraphActionWait@@QEAA@XZ
??0gCStateGraphEventFilter@@QEAA@AEBV0@@Z
??0gCStateGraphEventFilter@@QEAA@XZ
??0gCStateGraphEventFilterCollisionShape@@QEAA@AEBV0@@Z
??0gCStateGraphEventFilterCollisionShape@@QEAA@XZ
??0gCStateGraphEventFilterDamageAmount@@QEAA@AEBV0@@Z
??0gCStateGraphEventFilterDamageAmount@@QEAA@XZ
??0gCStateGraphEventFilterIsEntity@@QEAA@AEBV0@@Z
??0gCStateGraphEventFilterIsEntity@@QEAA@XZ
??0gCStateGraphEventFilterIsNPC@@QEAA@AEBV0@@Z
??0gCStateGraphEventFilterIsNPC@@QEAA@XZ
??0gCStateGraphEventFilterIsPlayer@@QEAA@AEBV0@@Z
??0gCStateGraphEventFilterIsPlayer@@QEAA@XZ
??0gCStateGraphEventFilterScript@@QEAA@AEBV0@@Z
??0gCStateGraphEventFilterScript@@QEAA@XZ
??0gCStateGraphEventFilterTemplate@@QEAA@AEBV0@@Z
??0gCStateGraphEventFilterTemplate@@QEAA@XZ
??0gCStateGraphState@@QEAA@AEBV0@@Z
??0gCStateGraphState@@QEAA@XZ
??0gCStateGraphTransition@@QEAA@AEBV0@@Z
??0gCStateGraphTransition@@QEAA@XZ
??0gCStateGraph_PS@@QEAA@AEBV0@@Z
??0gCStateGraph_PS@@QEAA@XZ
??0gCSvmAdmin@@AEAA@AEBV0@@Z
??0gCSvmAdmin@@AEAA@XZ
??0gCSvmGroup@@QEAA@AEBV0@@Z
??0gCSvmGroup@@QEAA@XZ
??0gCSvmItem@@QEAA@AEBV0@@Z
??0gCSvmItem@@QEAA@XZ
??0gCSvmVoice@@QEAA@AEBV0@@Z
??0gCSvmVoice@@QEAA@XZ
??0gCTutorialAdmin@@QEAA@AEBV0@@Z
??0gCTutorialAdmin@@QEAA@XZ
??0gCTutorialEvent@@QEAA@AEBV0@@Z
??0gCTutorialEvent@@QEAA@XZ
??0gCTutorialHint@@QEAA@AEBV0@@Z
??0gCTutorialHint@@QEAA@XZ
??0gCTutorialHintCollection@@QEAA@AEBV0@@Z
??0gCTutorialHintCollection@@QEAA@XZ
??0gCWaterSubZone_PS@@QEAA@AEBV0@@Z
??0gCWaterSubZone_PS@@QEAA@XZ
??0gCWaterZone_PS@@QEAA@AEBV0@@Z
??0gCWaterZone_PS@@QEAA@XZ
??0gCWorkspace@@QEAA@AEBV0@@Z
??0gCWorkspace@@QEAA@XZ
??0gCWorld@@QEAA@AEBV0@@Z
??0gCWorld@@QEAA@XZ
??0gCWorldEventSource@@AEAA@XZ
??0gCWrittenDropData@@QEAA@AEBV0@@Z
??0gCWrittenDropData@@QEAA@AEBVbCUnicodeString@@@Z
??0gSEffectOptions@@QEAA@XZ
??0gSGameOptions@@QEAA@XZ
??0gSMapGenerate@@QEAA@$$QEAU0@@Z
??0gSMapGenerate@@QEAA@AEBU0@@Z
??0gSMapGenerate@@QEAA@XZ
??0gSMapMarker@@QEAA@$$QEAU0@@Z
??0gSMapMarker@@QEAA@AEBU0@@Z
??0gSMapMarker@@QEAA@XZ
??1CSteamAchievements@@QEAA@XZ
??1eCAIHelperAdmin@@UEAA@XZ
??1gCAIHelper_FreePoint_PS@@UEAA@XZ
??1gCAIHelper_Label_PS@@UEAA@XZ
??1gCAIZone_PS@@UEAA@XZ
??1gCAchievement@@UEAA@XZ
??1gCAchievementAdmin@@UEAA@XZ
??1gCActionAdmin@@UEAA@XZ
??1gCAnchor_PS@@UEAA@XZ
??1gCArena_PS@@UEAA@XZ
??1gCBaseDropData@@UEAA@XZ
??1gCBookLocString@@QEAA@XZ
??1gCBook_PS@@UEAA@XZ
??1gCCameraAdmin@@UEAA@XZ
??1gCCastInfo_PS@@UEAA@XZ
??1gCCharacterControl@@UEAA@XZ
??1gCCharacterMovement_PS@@UEAA@XZ
??1gCCharacterSensor@@UEAA@XZ
??1gCClock_PS@@UEAA@XZ
??1gCCollisionCircle_PS@@UEAA@XZ
??1gCCollisionCircle_PSObj@@UEAA@XZ
??1gCCombatAI@@UEAA@XZ
??1gCCombatAIMelee@@UEAA@XZ
??1gCCombatAIRanged@@UEAA@XZ
??1gCCombatAdmin@@UEAA@XZ
??1gCCombatMove@@UEAA@XZ
??1gCCombatMoveAim@@UEAA@XZ
??1gCCombatMoveComboSwitch@@UEAA@XZ
??1gCCombatMoveFinishing@@UEAA@XZ
??1gCCombatMoveMelee@@UEAA@XZ
??1gCCombatMoveOverlayStumble@@UEAA@XZ
??1gCCombatMoveParade@@UEAA@XZ
??1gCCombatMoveReload@@UEAA@XZ
??1gCCombatMoveScriptState@@UEAA@XZ
??1gCCombatMoveShoot@@UEAA@XZ
??1gCCombatMoveStumble@@UEAA@XZ
??1gCCombatObject@@UEAA@XZ
??1gCCombatSpecies@@UEAA@XZ
??1gCCombatStyle@@UEAA@XZ
??1gCCombatStyleAniPose@@UEAA@XZ
??1gCCombatStyleMelee@@UEAA@XZ
??1gCCombatStyleRanged@@UEAA@XZ
??1gCCombatStyleWeaponConfig@@UEAA@XZ
??1gCCombatSystem_PS@@UEAA@XZ
??1gCCombatWeaponConfig@@UEAA@XZ
??1gCCraftIngredient@@UEAA@XZ
??1gCDamage_PS@@UEAA@XZ
??1gCDatabase@@UEAA@XZ
??1gCDialog_PS@@UEAA@XZ
??1gCDoor_PS@@UEAA@XZ
??1gCDummyCollectorAdmin@@UEAA@XZ
??1gCDummyCollectorAnchor@@UEAA@XZ
??1gCDummyCollectorBase@@UEAA@XZ
??1gCDummyCollectorCollisionCircle@@UEAA@XZ
??1gCDummyCollectorDoor@@UEAA@XZ
??1gCDummyCollectorDynamicCollisionCircle@@UEAA@XZ
??1gCDummyCollectorEntity@@UEAA@XZ
??1gCDummyCollectorFreepoint@@UEAA@XZ
??1gCDummyCollectorNavOffset@@UEAA@XZ
??1gCDummyCollectorNavPath@@UEAA@XZ
??1gCDummyCollectorNavZone@@UEAA@XZ
??1gCDummyCollectorNegZone@@UEAA@XZ
??1gCDummyCollectorPSet_Base@@UEAA@XZ
??1gCDummyCollectorPrefPath@@UEAA@XZ
??1gCDummyVisualBase_PS@@UEAA@XZ
??1gCDynamicCollisionCircle_PS@@UEAA@XZ
??1gCDynamicLayer@@UEAA@XZ
??1gCEditorEntityPropertySet@@UEAA@XZ
??1gCEffect@@UEAA@XZ
??1gCEffectCommand@@UEAA@XZ
??1gCEffectCommandEarthquake@@UEAA@XZ
??1gCEffectCommandEntity@@UEAA@XZ
??1gCEffectCommandKillEntity@@UEAA@XZ
??1gCEffectCommandKillEntityRange@@UEAA@XZ
??1gCEffectCommandModifyEntity@@UEAA@XZ
??1gCEffectCommandPlaySound@@UEAA@XZ
??1gCEffectCommandPlayVoice@@UEAA@XZ
??1gCEffectCommandRunScript@@UEAA@XZ
??1gCEffectCommandSaySVM@@UEAA@XZ
??1gCEffectCommandSequence2@@UEAA@XZ
??1gCEffectCommandSpawnEntity@@UEAA@XZ
??1gCEffectCommandSpawnEntityList@@UEAA@XZ
??1gCEffectCommandSpawnEntitySwitch@@UEAA@XZ
??1gCEffectCommandStartImageEffect@@UEAA@XZ
??1gCEffectCommandTriggerEntity@@UEAA@XZ
??1gCEffectModule@@UEAA@XZ
??1gCEffectSystem@@UEAA@XZ
??1gCEffect_PS@@UEAA@XZ
??1gCEntityDummyVisual_PS@@UEAA@XZ
??1gCEquipslotDropData@@UEAA@XZ
??1gCFlightPathBallistic@@UEAA@XZ
??1gCFlightPathBase@@UEAA@XZ
??1gCFlightPathSeeking@@UEAA@XZ
??1gCFocusModule2@@UEAA@XZ
??1gCGUIEntityRenderer@@MEAA@XZ
??1gCGUIFilter@@UEAA@XZ
??1gCGameApp@@UEAA@XZ
??1gCGameScript_PS@@UEAA@XZ
??1gCHUDFileManager@@EEAA@XZ
??1gCHudDialog2@@UEAA@XZ
??1gCHudModule2@@UEAA@XZ
??1gCHudPage2@@UEAA@XZ
??1gCHudPopUp2@@UEAA@XZ
??1gCHudResolutionManager2@@QEAA@XZ
??1gCHudSystem2@@UEAA@XZ
??1gCInfo@@UEAA@XZ
??1gCInfoCommand@@UEAA@XZ
??1gCInfoCommandAddInfoSystemEndScript@@UEAA@XZ
??1gCInfoCommandAddLogText@@UEAA@XZ
??1gCInfoCommandAddNPCInfo@@UEAA@XZ
??1gCInfoCommandAddQuestActor@@UEAA@XZ
??1gCInfoCommandAttack@@UEAA@XZ
??1gCInfoCommandBack@@UEAA@XZ
??1gCInfoCommandBoostAttribs@@UEAA@XZ
??1gCInfoCommandClearGameEvent@@UEAA@XZ
??1gCInfoCommandCloseQuest@@UEAA@XZ
??1gCInfoCommandCreateItem@@UEAA@XZ
??1gCInfoCommandDescription@@UEAA@XZ
??1gCInfoCommandDestroyItem@@UEAA@XZ
??1gCInfoCommandDoLoot@@UEAA@XZ
??1gCInfoCommandDoTrade@@UEAA@XZ
??1gCInfoCommandEnd@@UEAA@XZ
??1gCInfoCommandEndGame@@UEAA@XZ
??1gCInfoCommandFullStop@@UEAA@XZ
??1gCInfoCommandGive@@UEAA@XZ
??1gCInfoCommandGiveXP@@UEAA@XZ
??1gCInfoCommandHeal@@UEAA@XZ
??1gCInfoCommandInfoWait@@UEAA@XZ
??1gCInfoCommandKillNPC@@UEAA@XZ
??1gCInfoCommandMoveTo@@UEAA@XZ
??1gCInfoCommandPickPocket@@UEAA@XZ
??1gCInfoCommandPlayMusic@@UEAA@XZ
??1gCInfoCommandRemoveNPC@@UEAA@XZ
??1gCInfoCommandRemoveNPCInfo@@UEAA@XZ
??1gCInfoCommandRemoveQuestActor@@UEAA@XZ
??1gCInfoCommandRunAIScript@@UEAA@XZ
??1gCInfoCommandRunInfo@@UEAA@XZ
??1gCInfoCommandRunQuest@@UEAA@XZ
??1gCInfoCommandRunScript@@UEAA@XZ
??1gCInfoCommandSay@@UEAA@XZ
??1gCInfoCommandSayConfirm@@UEAA@XZ
??1gCInfoCommandSayHoldingPosition@@UEAA@XZ
??1gCInfoCommandSayKeepItUp@@UEAA@XZ
??1gCInfoCommandSaySVM@@UEAA@XZ
??1gCInfoCommandSaySound@@UEAA@XZ
??1gCInfoCommandSetGameEvent@@UEAA@XZ
??1gCInfoCommandSetGuardStatus@@UEAA@XZ
??1gCInfoCommandSetMobEnabled@@UEAA@XZ
??1gCInfoCommandSetPartyEnabled@@UEAA@XZ
??1gCInfoCommandSetRelaxingPoint@@UEAA@XZ
??1gCInfoCommandSetRoutine@@UEAA@XZ
??1gCInfoCommandSetSectorStatus@@UEAA@XZ
??1gCInfoCommandSetSlaveryEnabled@@UEAA@XZ
??1gCInfoCommandSetSleepingPoint@@UEAA@XZ
??1gCInfoCommandSetTeachEnabled@@UEAA@XZ
??1gCInfoCommandSetTradeEnabled@@UEAA@XZ
??1gCInfoCommandSetWorkingPoint@@UEAA@XZ
??1gCInfoCommandShowPicture@@UEAA@XZ
??1gCInfoCommandShowSubtitle@@UEAA@XZ
??1gCInfoCommandSleep@@UEAA@XZ
??1gCInfoCommandStartEffect@@UEAA@XZ
??1gCInfoCommandStartFixCamera@@UEAA@XZ
??1gCInfoCommandStartTutorial@@UEAA@XZ
??1gCInfoCommandStopFixCamera@@UEAA@XZ
??1gCInfoCommandSucceedQuest@@UEAA@XZ
??1gCInfoCommandTeach@@UEAA@XZ
??1gCInfoCommandTeleportNPC@@UEAA@XZ
??1gCInfoCommandThink@@UEAA@XZ
??1gCInfoCommandTrigger@@UEAA@XZ
??1gCInfoCommandUse@@UEAA@XZ
??1gCInfoCommandWear@@UEAA@XZ
??1gCInfoCondition@@UEAA@XZ
??1gCInfoConditionCanTeachSkill@@UEAA@XZ
??1gCInfoConditionItemAmount@@UEAA@XZ
??1gCInfoConditionNPCStatus@@UEAA@XZ
??1gCInfoConditionOwnerInArea@@UEAA@XZ
??1gCInfoConditionOwnerNearEntity@@UEAA@XZ
??1gCInfoConditionPlayerKnows@@UEAA@XZ
??1gCInfoConditionPlayerNotKnows@@UEAA@XZ
??1gCInfoConditionQuestStatus@@UEAA@XZ
??1gCInfoConditionScript@@UEAA@XZ
??1gCInfoConditionSkillValue@@UEAA@XZ
??1gCInfoConditionTeachEnabled@@UEAA@XZ
??1gCInfoDropData@@UEAA@XZ
??1gCInfoLocString@@QEAA@XZ
??1gCInfoModule@@UEAA@XZ
??1gCInfoSystem@@UEAA@XZ
??1gCInteraction@@UEAA@XZ
??1gCInteractionAdmin@@UEAA@XZ
??1gCInteractionSlot@@UEAA@XZ
??1gCInteraction_PS@@UEAA@XZ
??1gCInventoryDropData@@UEAA@XZ
??1gCInventoryList@@UEAA@XZ
??1gCInventorySlot@@UEAA@XZ
??1gCInventoryStack@@UEAA@XZ
??1gCInventory_PS@@UEAA@XZ
??1gCItem_PS@@UEAA@XZ
??1gCLayerBase@@UEAA@XZ
??1gCLetterLocString@@QEAA@XZ
??1gCLetter_PS@@UEAA@XZ
??1gCLock_PS@@UEAA@XZ
??1gCMapEntry@@UEAA@XZ
??1gCMapInfo_PS@@UEAA@XZ
??1gCMapLocString@@QEAA@XZ
??1gCMap_PS@@UEAA@XZ
??1gCModifySkill@@UEAA@XZ
??1gCMusicModule2@@UEAA@XZ
??1gCNPCInfoLocString@@QEAA@XZ
??1gCNPC_PS@@UEAA@XZ
??1gCNavHelper_PS@@UEAA@XZ
??1gCNavOffset_PS@@UEAA@XZ
??1gCNavPath_PS@@UEAA@XZ
??1gCNavZone_PS@@UEAA@XZ
??1gCNavigationAdmin@@UEAA@XZ
??1gCNavigationMap@@UEAA@XZ
??1gCNavigationMapCompiler@@UEAA@XZ
??1gCNavigationMapNavigator@@UEAA@XZ
??1gCNavigationMapTester@@UEAA@XZ
??1gCNavigation_PS@@UEAA@XZ
??1gCNegZone_PS@@UEAA@XZ
??1gCNegZone_PSObj@@UEAA@XZ
??1gCPartyAdmin@@UEAA@XZ
??1gCParty_PS@@UEAA@XZ
??1gCPlayList@@QEAA@XZ
??1gCPrefPath_PS@@UEAA@XZ
??1gCPrefPath_PSObj@@UEAA@XZ
??1gCProject@@UEAA@XZ
??1gCProjectile2_PS@@UEAA@XZ
??1gCPropertyDummyVisual_PS@@UEAA@XZ
??1gCQuest@@UEAA@XZ
??1gCQuestActor@@UEAA@XZ
??1gCQuestLocString@@QEAA@XZ
??1gCQuestLogFrame2@@UEAA@XZ
??1gCQuestManager@@UEAA@XZ
??1gCRecipe_PS@@UEAA@XZ
??1gCRuntimeInfo@@UEAA@XZ
??1gCSaveGame@@QEAA@XZ
??1gCSaveGameManager@@QEAA@XZ
??1gCScriptAdmin@@UEAA@XZ
??1gCScriptProcessingUnit@@UEAA@XZ
??1gCScriptProxyAICallback@@QEAA@XZ
??1gCScriptProxyAIFunction@@QEAA@XZ
??1gCScriptProxyAIState@@QEAA@XZ
??1gCScriptRoutine_PS@@UEAA@XZ
??1gCSector@@UEAA@XZ
??1gCSectorPersistence_PS@@UEAA@XZ
??1gCSession@@UEAA@XZ
??1gCSessionCheats@@UEAA@XZ
??1gCSessionInfo@@UEAA@XZ
??1gCShortcutDropData@@UEAA@XZ
??1gCSkillRange@@UEAA@XZ
??1gCSkillValue@@UEAA@XZ
??1gCSkillValueBase@@UEAA@XZ
??1gCSkills_PS@@UEAA@XZ
??1gCSpinButton@@UEAA@XZ
??1gCStateGraphAction@@UEAA@XZ
??1gCStateGraphActionCallScript@@UEAA@XZ
??1gCStateGraphActionEventDispatcher@@UEAA@XZ
??1gCStateGraphActionFollowState@@UEAA@XZ
??1gCStateGraphActionPauseAni@@UEAA@XZ
??1gCStateGraphActionPlayAni@@UEAA@XZ
??1gCStateGraphActionStartEffect@@UEAA@XZ
??1gCStateGraphActionStop@@UEAA@XZ
??1gCStateGraphActionTrigger@@UEAA@XZ
??1gCStateGraphActionTriggerState@@UEAA@XZ
??1gCStateGraphActionUnTrigger@@UEAA@XZ
??1gCStateGraphActionVisibility@@UEAA@XZ
??1gCStateGraphActionWait@@UEAA@XZ
??1gCStateGraphEventFilter@@UEAA@XZ
??1gCStateGraphEventFilterCollisionShape@@UEAA@XZ
??1gCStateGraphEventFilterDamageAmount@@UEAA@XZ
??1gCStateGraphEventFilterIsEntity@@UEAA@XZ
??1gCStateGraphEventFilterIsNPC@@UEAA@XZ
??1gCStateGraphEventFilterIsPlayer@@UEAA@XZ
??1gCStateGraphEventFilterScript@@UEAA@XZ
??1gCStateGraphEventFilterTemplate@@UEAA@XZ
??1gCStateGraphState@@UEAA@XZ
??1gCStateGraphTransition@@UEAA@XZ
??1gCStateGraph_PS@@UEAA@XZ
??1gCSvmAdmin@@QEAA@XZ
??1gCSvmGroup@@QEAA@XZ
??1gCSvmItem@@QEAA@XZ
??1gCSvmVoice@@QEAA@XZ
??1gCTutorialAdmin@@UEAA@XZ
??1gCTutorialEvent@@UEAA@XZ
??1gCTutorialHint@@UEAA@XZ
??1gCTutorialHintCollection@@UEAA@XZ
??1gCWaterSubZone_PS@@UEAA@XZ
??1gCWaterZone_PS@@UEAA@XZ
??1gCWorkspace@@UEAA@XZ
??1gCWorld@@UEAA@XZ
??1gCWorldEventSource@@AEAA@XZ
??1gCWrittenDropData@@UEAA@XZ
??1gSEffectOptions@@QEAA@XZ
??1gSGameOptions@@QEAA@XZ
??1gSMapGenerate@@QEAA@XZ
??1gSMapMarker@@QEAA@XZ
??2gCNavigationAdmin@@SAPEAX_KPEBD11H@Z
??2gCNavigationMap@@SAPEAX_KPEBD11H@Z
??2gCNavigationMapCompiler@@SAPEAX_KPEBD11H@Z
??2gCNavigationMapNavigator@@SAPEAX_KPEBD11H@Z
??4eCAIHelperAdmin@@QEAAAEAV0@AEBV0@@Z
??4gCAIHelper_FreePoint_PS@@QEAAAEAV0@AEBV0@@Z
??4gCAIHelper_Label_PS@@QEAAAEAV0@AEBV0@@Z
??4gCAIZone_PS@@QEAAAEAV0@AEBV0@@Z
??4gCAchievement@@QEAAAEAV0@AEBV0@@Z
??4gCAchievementAdmin@@QEAAAEAV0@AEBV0@@Z
??4gCActionAdmin@@QEAAAEAV0@AEBV0@@Z
??4gCAnchor_PS@@QEAAAEAV0@AEBV0@@Z
??4gCArena_PS@@QEAAAEAV0@AEBV0@@Z
??4gCBaseDropData@@QEAAAEAV0@AEBV0@@Z
??4gCBookLocString@@QEAAAEAV0@$$QEAV0@@Z
??4gCBookLocString@@QEAAAEAV0@AEBV0@@Z
??4gCBook_PS@@QEAAAEAV0@AEBV0@@Z
??4gCCameraAdmin@@QEAAAEAV0@AEBV0@@Z
??4gCCastInfo_PS@@QEAAAEAV0@AEBV0@@Z
??4gCCharacterControl@@QEAAAEAV0@AEBV0@@Z
??4gCCharacterMovement_PS@@QEAAAEAV0@AEBV0@@Z
??4gCCharacterSensor@@QEAAAEAV0@AEBV0@@Z
??4gCClock_PS@@QEAAAEAV0@AEBV0@@Z
??4gCCollisionCircle_PS@@QEAAAEAV0@AEBV0@@Z
??4gCCollisionCircle_PSObj@@QEAAAEAV0@AEBV0@@Z
??4gCCombatAI@@QEAAAEAV0@AEBV0@@Z
??4gCCombatAIMelee@@QEAAAEAV0@AEBV0@@Z
??4gCCombatAIRanged@@QEAAAEAV0@AEBV0@@Z
??4gCCombatAdmin@@QEAAAEAV0@AEBV0@@Z
??4gCCombatMove@@QEAAAEAV0@AEBV0@@Z
??4gCCombatMoveAim@@QEAAAEAV0@AEBV0@@Z
??4gCCombatMoveComboSwitch@@QEAAAEAV0@AEBV0@@Z
??4gCCombatMoveFinishing@@QEAAAEAV0@AEBV0@@Z
??4gCCombatMoveMelee@@QEAAAEAV0@AEBV0@@Z
??4gCCombatMoveOverlayStumble@@QEAAAEAV0@AEBV0@@Z
??4gCCombatMoveParade@@QEAAAEAV0@AEBV0@@Z
??4gCCombatMoveReload@@QEAAAEAV0@AEBV0@@Z
??4gCCombatMoveScriptState@@QEAAAEAV0@AEBV0@@Z
??4gCCombatMoveShoot@@QEAAAEAV0@AEBV0@@Z
??4gCCombatMoveStumble@@QEAAAEAV0@AEBV0@@Z
??4gCCombatObject@@QEAAAEAV0@AEBV0@@Z
??4gCCombatSpecies@@QEAAAEAV0@AEBV0@@Z
??4gCCombatStyle@@QEAAAEAV0@AEBV0@@Z
??4gCCombatStyleAniPose@@QEAAAEAV0@AEBV0@@Z
??4gCCombatStyleMelee@@QEAAAEAV0@AEBV0@@Z
??4gCCombatStyleRanged@@QEAAAEAV0@AEBV0@@Z
??4gCCombatStyleWeaponConfig@@QEAAAEAV0@AEBV0@@Z
??4gCCombatSystem_PS@@QEAAAEAV0@AEBV0@@Z
??4gCCombatWeaponConfig@@QEAAAEAV0@AEBV0@@Z
??4gCCraftIngredient@@QEAAAEAV0@AEBV0@@Z
??4gCDamage_PS@@QEAAAEAV0@AEBV0@@Z
??4gCDatabase@@QEAAAEAV0@AEBV0@@Z
??4gCDialog_PS@@QEAAAEAV0@AEBV0@@Z
??4gCDoor_PS@@QEAAAEAV0@AEBV0@@Z
??4gCDummyCollectorAdmin@@QEAAAEAV0@AEBV0@@Z
??4gCDummyCollectorAnchor@@QEAAAEAV0@AEBV0@@Z
??4gCDummyCollectorBase@@QEAAAEAV0@AEBV0@@Z
??4gCDummyCollectorCollisionCircle@@QEAAAEAV0@AEBV0@@Z
??4gCDummyCollectorDoor@@QEAAAEAV0@AEBV0@@Z
??4gCDummyCollectorDynamicCollisionCircle@@QEAAAEAV0@AEBV0@@Z
??4gCDummyCollectorEntity@@QEAAAEAV0@AEBV0@@Z
??4gCDummyCollectorFreepoint@@QEAAAEAV0@AEBV0@@Z
??4gCDummyCollectorNavOffset@@QEAAAEAV0@AEBV0@@Z
??4gCDummyCollectorNavPath@@QEAAAEAV0@AEBV0@@Z
??4gCDummyCollectorNavZone@@QEAAAEAV0@AEBV0@@Z
??4gCDummyCollectorNegZone@@QEAAAEAV0@AEBV0@@Z
??4gCDummyCollectorPSet_Base@@QEAAAEAV0@AEBV0@@Z
??4gCDummyCollectorPrefPath@@QEAAAEAV0@AEBV0@@Z
??4gCDummyVisualBase_PS@@QEAAAEAV0@AEBV0@@Z
??4gCDynamicCollisionCircle_PS@@QEAAAEAV0@AEBV0@@Z
??4gCDynamicLayer@@QEAAAEAV0@AEBV0@@Z
??4gCEditorEntityPropertySet@@QEAAAEAV0@AEBV0@@Z
??4gCEffect@@QEAAAEAV0@AEBV0@@Z
??4gCEffectCommand@@QEAAAEAV0@AEBV0@@Z
??4gCEffectCommandEarthquake@@QEAAAEAV0@AEBV0@@Z
??4gCEffectCommandEntity@@QEAAAEAV0@$$QEAV0@@Z
??4gCEffectCommandEntity@@QEAAAEAV0@AEBV0@@Z
??4gCEffectCommandKillEntity@@QEAAAEAV0@AEBV0@@Z
??4gCEffectCommandKillEntityRange@@QEAAAEAV0@AEBV0@@Z
??4gCEffectCommandModifyEntity@@QEAAAEAV0@AEBV0@@Z
??4gCEffectCommandPlaySound@@QEAAAEAV0@AEBV0@@Z
??4gCEffectCommandPlayVoice@@QEAAAEAV0@AEBV0@@Z
??4gCEffectCommandRunScript@@QEAAAEAV0@AEBV0@@Z
??4gCEffectCommandSaySVM@@QEAAAEAV0@AEBV0@@Z
??4gCEffectCommandSequence2@@QEAAAEAV0@AEBV0@@Z
??4gCEffectCommandSpawnEntity@@QEAAAEAV0@AEBV0@@Z
??4gCEffectCommandSpawnEntityList@@QEAAAEAV0@AEBV0@@Z
??4gCEffectCommandSpawnEntitySwitch@@QEAAAEAV0@AEBV0@@Z
??4gCEffectCommandStartImageEffect@@QEAAAEAV0@AEBV0@@Z
??4gCEffectCommandTriggerEntity@@QEAAAEAV0@AEBV0@@Z
??4gCEffectModule@@QEAAAEAV0@AEBV0@@Z
??4gCEffectSystem@@QEAAAEAV0@AEBV0@@Z
??4gCEffect_PS@@QEAAAEAV0@AEBV0@@Z
??4gCEntityDummyVisual_PS@@QEAAAEAV0@AEBV0@@Z
??4gCEquipslotDropData@@QEAAAEAV0@AEBV0@@Z
??4gCFlightPathBallistic@@QEAAAEAV0@AEBV0@@Z
??4gCFlightPathBase@@QEAAAEAV0@AEBV0@@Z
??4gCFlightPathSeeking@@QEAAAEAV0@AEBV0@@Z
??4gCGUIEntityRenderer@@QEAAAEAV0@AEBV0@@Z
??4gCGUIFilter@@QEAAAEAV0@$$QEAV0@@Z
??4gCGUIFilter@@QEAAAEAV0@AEBV0@@Z
??4gCGameApp@@QEAAAEAV0@AEBV0@@Z
??4gCGameScript_PS@@QEAAAEAV0@AEBV0@@Z
??4gCHUDFileManager@@QEAAAEAV0@AEBV0@@Z
??4gCHudDialog2@@QEAAAEAV0@AEBV0@@Z
??4gCHudModule2@@QEAAAEAV0@AEBV0@@Z
??4gCHudPage2@@QEAAAEAV0@AEBV0@@Z
??4gCHudPopUp2@@QEAAAEAV0@AEBV0@@Z
??4gCHudSystem2@@QEAAAEAV0@AEBV0@@Z
??4gCInfo@@QEAAAEAV0@AEBV0@@Z
??4gCInfoCommand@@QEAAAEAV0@AEBV0@@Z
??4gCInfoCommandAddInfoSystemEndScript@@QEAAAEAV0@AEBV0@@Z
??4gCInfoCommandAddLogText@@QEAAAEAV0@AEBV0@@Z
??4gCInfoCommandAddNPCInfo@@QEAAAEAV0@AEBV0@@Z
??4gCInfoCommandAddQuestActor@@QEAAAEAV0@AEBV0@@Z
??4gCInfoCommandAttack@@QEAAAEAV0@AEBV0@@Z
??4gCInfoCommandBack@@QEAAAEAV0@AEBV0@@Z
??4gCInfoCommandBoostAttribs@@QEAAAEAV0@AEBV0@@Z
??4gCInfoCommandClearGameEvent@@QEAAAEAV0@AEBV0@@Z
??4gCInfoCommandCloseQuest@@QEAAAEAV0@AEBV0@@Z
??4gCInfoCommandCreateItem@@QEAAAEAV0@AEBV0@@Z
??4gCInfoCommandDescription@@QEAAAEAV0@AEBV0@@Z
??4gCInfoCommandDestroyItem@@QEAAAEAV0@AEBV0@@Z
??4gCInfoCommandDoLoot@@QEAAAEAV0@AEBV0@@Z
??4gCInfoCommandDoTrade@@QEAAAEAV0@AEBV0@@Z
??4gCInfoCommandEnd@@QEAAAEAV0@AEBV0@@Z
??4gCInfoCommandEndGame@@QEAAAEAV0@AEBV0@@Z
??4gCInfoCommandFullStop@@QEAAAEAV0@AEBV0@@Z
??4gCInfoCommandGive@@QEAAAEAV0@AEBV0@@Z
??4gCInfoCommandGiveXP@@QEAAAEAV0@AEBV0@@Z
??4gCInfoCommandHeal@@QEAAAEAV0@AEBV0@@Z
??4gCInfoCommandInfoWait@@QEAAAEAV0@AEBV0@@Z
??4gCInfoCommandKillNPC@@QEAAAEAV0@AEBV0@@Z
??4gCInfoCommandMoveTo@@QEAAAEAV0@AEBV0@@Z
??4gCInfoCommandPickPocket@@QEAAAEAV0@AEBV0@@Z
??4gCInfoCommandPlayMusic@@QEAAAEAV0@AEBV0@@Z
??4gCInfoCommandRemoveNPC@@QEAAAEAV0@AEBV0@@Z
??4gCInfoCommandRemoveNPCInfo@@QEAAAEAV0@AEBV0@@Z
??4gCInfoCommandRemoveQuestActor@@QEAAAEAV0@AEBV0@@Z
??4gCInfoCommandRunAIScript@@QEAAAEAV0@AEBV0@@Z
??4gCInfoCommandRunInfo@@QEAAAEAV0@AEBV0@@Z
??4gCInfoCommandRunQuest@@QEAAAEAV0@AEBV0@@Z
??4gCInfoCommandRunScript@@QEAAAEAV0@AEBV0@@Z
??4gCInfoCommandSay@@QEAAAEAV0@AEBV0@@Z
??4gCInfoCommandSayConfirm@@QEAAAEAV0@AEBV0@@Z
??4gCInfoCommandSayHoldingPosition@@QEAAAEAV0@AEBV0@@Z
??4gCInfoCommandSayKeepItUp@@QEAAAEAV0@AEBV0@@Z
??4gCInfoCommandSaySVM@@QEAAAEAV0@AEBV0@@Z
??4gCInfoCommandSaySound@@QEAAAEAV0@AEBV0@@Z
??4gCInfoCommandSetGameEvent@@QEAAAEAV0@AEBV0@@Z
??4gCInfoCommandSetGuardStatus@@QEAAAEAV0@AEBV0@@Z
??4gCInfoCommandSetMobEnabled@@QEAAAEAV0@AEBV0@@Z
??4gCInfoCommandSetPartyEnabled@@QEAAAEAV0@AEBV0@@Z
??4gCInfoCommandSetRelaxingPoint@@QEAAAEAV0@AEBV0@@Z
??4gCInfoCommandSetRoutine@@QEAAAEAV0@AEBV0@@Z
??4gCInfoCommandSetSectorStatus@@QEAAAEAV0@AEBV0@@Z
??4gCInfoCommandSetSlaveryEnabled@@QEAAAEAV0@AEBV0@@Z
??4gCInfoCommandSetSleepingPoint@@QEAAAEAV0@AEBV0@@Z
??4gCInfoCommandSetTeachEnabled@@QEAAAEAV0@AEBV0@@Z
??4gCInfoCommandSetTradeEnabled@@QEAAAEAV0@AEBV0@@Z
??4gCInfoCommandSetWorkingPoint@@QEAAAEAV0@AEBV0@@Z
??4gCInfoCommandShowPicture@@QEAAAEAV0@AEBV0@@Z
??4gCInfoCommandShowSubtitle@@QEAAAEAV0@AEBV0@@Z
??4gCInfoCommandSleep@@QEAAAEAV0@AEBV0@@Z
??4gCInfoCommandStartEffect@@QEAAAEAV0@AEBV0@@Z
??4gCInfoCommandStartFixCamera@@QEAAAEAV0@AEBV0@@Z
??4gCInfoCommandStartTutorial@@QEAAAEAV0@AEBV0@@Z
??4gCInfoCommandStopFixCamera@@QEAAAEAV0@AEBV0@@Z
??4gCInfoCommandSucceedQuest@@QEAAAEAV0@AEBV0@@Z
??4gCInfoCommandTeach@@QEAAAEAV0@AEBV0@@Z
??4gCInfoCommandTeleportNPC@@QEAAAEAV0@AEBV0@@Z
??4gCInfoCommandThink@@QEAAAEAV0@AEBV0@@Z
??4gCInfoCommandTrigger@@QEAAAEAV0@AEBV0@@Z
??4gCInfoCommandUse@@QEAAAEAV0@AEBV0@@Z
??4gCInfoCommandWear@@QEAAAEAV0@AEBV0@@Z
??4gCInfoCondition@@QEAAAEAV0@AEBV0@@Z
??4gCInfoConditionCanTeachSkill@@QEAAAEAV0@AEBV0@@Z
??4gCInfoConditionItemAmount@@QEAAAEAV0@AEBV0@@Z
??4gCInfoConditionNPCStatus@@QEAAAEAV0@AEBV0@@Z
??4gCInfoConditionOwnerInArea@@QEAAAEAV0@AEBV0@@Z
??4gCInfoConditionOwnerNearEntity@@QEAAAEAV0@AEBV0@@Z
??4gCInfoConditionPlayerKnows@@QEAAAEAV0@AEBV0@@Z
??4gCInfoConditionPlayerNotKnows@@QEAAAEAV0@AEBV0@@Z
??4gCInfoConditionQuestStatus@@QEAAAEAV0@AEBV0@@Z
??4gCInfoConditionScript@@QEAAAEAV0@AEBV0@@Z
??4gCInfoConditionSkillValue@@QEAAAEAV0@AEBV0@@Z
??4gCInfoConditionTeachEnabled@@QEAAAEAV0@AEBV0@@Z
??4gCInfoDropData@@QEAAAEAV0@AEBV0@@Z
??4gCInfoLocString@@QEAAAEAV0@$$QEAV0@@Z
??4gCInfoLocString@@QEAAAEAV0@AEBV0@@Z
??4gCInfoModule@@QEAAAEAV0@AEBV0@@Z
??4gCInfoSystem@@QEAAAEAV0@AEBV0@@Z
??4gCInteraction@@QEAAAEAV0@AEBV0@@Z
??4gCInteractionAdmin@@QEAAAEAV0@AEBV0@@Z
??4gCInteractionSlot@@QEAAAEAV0@AEBV0@@Z
??4gCInteraction_PS@@QEAAAEAV0@AEBV0@@Z
??4gCInventoryDropData@@QEAAAEAV0@AEBV0@@Z
??4gCInventoryList@@QEAAAEAV0@AEBV0@@Z
??4gCInventoryListener@@QEAAAEAV0@$$QEAV0@@Z
??4gCInventoryListener@@QEAAAEAV0@AEBV0@@Z
??4gCInventorySlot@@QEAAAEAV0@AEBV0@@Z
??4gCInventoryStack@@QEAAAEAV0@AEBV0@@Z
??4gCInventory_PS@@QEAAAEAV0@AEBV0@@Z
??4gCItem_PS@@QEAAAEAV0@AEBV0@@Z
??4gCIterator@gCInteractionAdmin@@QEAAAEAV01@AEBV01@@Z
??4gCLayerBase@@QEAAAEAV0@AEBV0@@Z
??4gCLetterLocString@@QEAAAEAV0@$$QEAV0@@Z
??4gCLetterLocString@@QEAAAEAV0@AEBV0@@Z
??4gCLetter_PS@@QEAAAEAV0@AEBV0@@Z
??4gCLock_PS@@QEAAAEAV0@AEBV0@@Z
??4gCMapEntry@@QEAAAEAV0@$$QEAV0@@Z
??4gCMapEntry@@QEAAAEAV0@AEBV0@@Z
??4gCMapInfo_PS@@QEAAAEAV0@AEBV0@@Z
??4gCMapLocString@@QEAAAEAV0@$$QEAV0@@Z
??4gCMapLocString@@QEAAAEAV0@AEBV0@@Z
??4gCMap_PS@@QEAAAEAV0@AEBV0@@Z
??4gCModifySkill@@QEAAAEAV0@$$QEAV0@@Z
??4gCModifySkill@@QEAAAEAV0@AEBV0@@Z
??4gCMusicModule2@@QEAAAEAV0@AEBV0@@Z
??4gCNPCInfoLocString@@QEAAAEAV0@$$QEAV0@@Z
??4gCNPCInfoLocString@@QEAAAEAV0@AEBV0@@Z
??4gCNPC_PS@@QEAAAEAV0@AEBV0@@Z
??4gCNavHelper_PS@@QEAAAEAV0@AEBV0@@Z
??4gCNavOffset_PS@@QEAAAEAV0@AEBV0@@Z
??4gCNavPath_PS@@QEAAAEAV0@AEBV0@@Z
??4gCNavZone_PS@@QEAAAEAV0@AEBV0@@Z
??4gCNavigationAdmin@@QEAAAEAV0@AEBV0@@Z
??4gCNavigationMap@@QEAAAEAV0@AEBV0@@Z
??4gCNavigation_PS@@QEAAAEAV0@AEBV0@@Z
??4gCNegZone_PS@@QEAAAEAV0@AEBV0@@Z
??4gCNegZone_PSObj@@QEAAAEAV0@AEBV0@@Z
??4gCPartyAdmin@@QEAAAEAV0@AEBV0@@Z
??4gCParty_PS@@QEAAAEAV0@AEBV0@@Z
??4gCPlayList@@QEAAAEAV0@AEBV0@@Z
??4gCPrefPath_PS@@QEAAAEAV0@AEBV0@@Z
??4gCPrefPath_PSObj@@QEAAAEAV0@AEBV0@@Z
??4gCProject@@QEAAAEAV0@AEBV0@@Z
??4gCProjectile2_PS@@QEAAAEAV0@AEBV0@@Z
??4gCPropertyDummyVisual_PS@@QEAAAEAV0@AEBV0@@Z
??4gCQuest@@QEAAAEAV0@AEBV0@@Z
??4gCQuestActor@@QEAAAEAV0@$$QEAV0@@Z
??4gCQuestActor@@QEAAAEAV0@AEBV0@@Z
??4gCQuestLocString@@QEAAAEAV0@$$QEAV0@@Z
??4gCQuestLocString@@QEAAAEAV0@AEBV0@@Z
??4gCQuestLogFrame2@@QEAAAEAV0@AEBV0@@Z
??4gCQuestManager@@QEAAAEAV0@AEBV0@@Z
??4gCRecipe_PS@@QEAAAEAV0@AEBV0@@Z
??4gCRuntimeInfo@@QEAAAEAV0@AEBV0@@Z
??4gCSaveGame@@QEAAAEAV0@AEBV0@@Z
??4gCSaveGameManager@@QEAAAEAV0@AEBV0@@Z
??4gCScriptProcessingUnit@@IEAAAEBV0@AEBV0@@Z
??4gCScriptProxyAICallback@@QEAAAEAV0@AEBV0@@Z
??4gCScriptProxyAIFunction@@QEAAAEAV0@AEBV0@@Z
??4gCScriptProxyAIState@@QEAAAEAV0@AEBV0@@Z
??4gCSector@@QEAAAEAV0@AEBV0@@Z
??4gCSectorPersistence_PS@@QEAAAEAV0@AEBV0@@Z
??4gCSessionCheats@@QEAAAEAV0@AEBV0@@Z
??4gCSessionInfo@@QEAAAEAV0@AEBV0@@Z
??4gCShortcutDropData@@QEAAAEAV0@AEBV0@@Z
??4gCSkillRange@@QEAAAEAV0@$$QEAV0@@Z
??4gCSkillRange@@QEAAAEAV0@AEBV0@@Z
??4gCSkillValue@@QEAAAEAV0@$$QEAV0@@Z
??4gCSkillValue@@QEAAAEAV0@AEBV0@@Z
??4gCSkillValueBase@@QEAAAEAV0@$$QEAV0@@Z
??4gCSkillValueBase@@QEAAAEAV0@AEBV0@@Z
??4gCSkills_PS@@QEAAAEAV0@AEBV0@@Z
??4gCSpinButton@@QEAAAEAV0@$$QEAV0@@Z
??4gCSpinButton@@QEAAAEAV0@AEBV0@@Z
??4gCStateGraphAction@@QEAAAEAV0@AEBV0@@Z
??4gCStateGraphActionCallScript@@QEAAAEAV0@AEBV0@@Z
??4gCStateGraphActionEventDispatcher@@QEAAAEAV0@AEBV0@@Z
??4gCStateGraphActionFollowState@@QEAAAEAV0@AEBV0@@Z
??4gCStateGraphActionPauseAni@@QEAAAEAV0@AEBV0@@Z
??4gCStateGraphActionPlayAni@@QEAAAEAV0@AEBV0@@Z
??4gCStateGraphActionStartEffect@@QEAAAEAV0@AEBV0@@Z
??4gCStateGraphActionStop@@QEAAAEAV0@AEBV0@@Z
??4gCStateGraphActionTrigger@@QEAAAEAV0@AEBV0@@Z
??4gCStateGraphActionTriggerState@@QEAAAEAV0@AEBV0@@Z
??4gCStateGraphActionUnTrigger@@QEAAAEAV0@AEBV0@@Z
??4gCStateGraphActionVisibility@@QEAAAEAV0@AEBV0@@Z
??4gCStateGraphActionWait@@QEAAAEAV0@AEBV0@@Z
??4gCStateGraphEventFilter@@QEAAAEAV0@AEBV0@@Z
??4gCStateGraphEventFilterCollisionShape@@QEAAAEAV0@AEBV0@@Z
??4gCStateGraphEventFilterDamageAmount@@QEAAAEAV0@AEBV0@@Z
??4gCStateGraphEventFilterIsEntity@@QEAAAEAV0@AEBV0@@Z
??4gCStateGraphEventFilterIsNPC@@QEAAAEAV0@AEBV0@@Z
??4gCStateGraphEventFilterIsPlayer@@QEAAAEAV0@AEBV0@@Z
??4gCStateGraphEventFilterScript@@QEAAAEAV0@AEBV0@@Z
??4gCStateGraphEventFilterTemplate@@QEAAAEAV0@AEBV0@@Z
??4gCStateGraphState@@QEAAAEAV0@AEBV0@@Z
??4gCStateGraphTransition@@QEAAAEAV0@AEBV0@@Z
??4gCStateGraph_PS@@QEAAAEAV0@AEBV0@@Z
??4gCSvmAdmin@@AEAAAEAV0@AEBV0@@Z
??4gCSvmGroup@@QEAAAEAV0@AEBV0@@Z
??4gCSvmItem@@QEAAAEAV0@AEBV0@@Z
??4gCSvmVoice@@QEAAAEAV0@AEBV0@@Z
??4gCTutorialAdmin@@QEAAAEAV0@AEBV0@@Z
??4gCTutorialEvent@@QEAAAEAV0@AEBV0@@Z
??4gCTutorialHint@@QEAAAEAV0@AEBV0@@Z
??4gCTutorialHintCollection@@QEAAAEAV0@AEBV0@@Z
??4gCWaterSubZone_PS@@QEAAAEAV0@AEBV0@@Z
??4gCWaterZone_PS@@QEAAAEAV0@AEBV0@@Z
??4gCWorkspace@@QEAAAEAV0@AEBV0@@Z
??4gCWorld@@QEAAAEAV0@AEBV0@@Z
??4gCWrittenDropData@@QEAAAEAV0@AEBV0@@Z
??4gSMapGenerate@@QEAAAEAU0@$$QEAU0@@Z
??4gSMapGenerate@@QEAAAEAU0@AEBU0@@Z
??4gSMapMarker@@QEAAAEAU0@$$QEAU0@@Z
??4gSMapMarker@@QEAAAEAU0@AEBU0@@Z
??8gCAchievement@@QEBA_NAEBV0@@Z
??8gCCombatStyleAniPose@@QEBA_NAEBV0@@Z
??8gCCombatStyleWeaponConfig@@QEBA_NAEBV0@@Z
??8gCCombatWeaponConfig@@QEBA_NAEBV0@@Z
??8gCCraftIngredient@@QEBA_NAEBV0@@Z
??8gCFlightPathBallistic@@QEBA_NAEBV0@@Z
??8gCFlightPathBase@@QEBA_NAEBV0@@Z
??8gCFlightPathSeeking@@QEBA_NAEBV0@@Z
??8gCGUIFilter@@QEBA_NAEBV0@@Z
??8gCInteractionSlot@@QEBA_NAEBV0@@Z
??8gCIterator@gCInteractionAdmin@@QEBA_NAEBV01@@Z
??8gCMapEntry@@QEBA_NAEBV0@@Z
??8gCModifySkill@@QEBA_NAEBV0@@Z
??8gCQuestActor@@QEBA_NAEBV0@@Z
??8gCSkillRange@@QEBA_NAEBV0@@Z
??8gCSkillValue@@QEBA_NAEBV0@@Z
??8gCTutorialEvent@@QEBA_NAEBV0@@Z
??8gCTutorialHint@@QEBA_NAEBV0@@Z
??8gCTutorialHintCollection@@QEBA_NAEBV0@@Z
??8gCWaterSubZone_PS@@QEBA_NAEBV0@@Z
??9gCIterator@gCInteractionAdmin@@QEBA_NAEBV01@@Z
??AgCEffectCommandSequence2@@QEBAPEAVgCEffectCommand@@H@Z
??DgCIterator@gCInteractionAdmin@@QEAAAEAPEAVgCInteraction_PS@@XZ
??DgCIterator@gCInteractionAdmin@@QEBAAEAPEBVgCInteraction_PS@@XZ
??EgCIterator@gCInteractionAdmin@@QEAA?AV01@H@Z
??EgCIterator@gCInteractionAdmin@@QEAAAEAV01@XZ
??_7eCAIHelperAdmin@@6B@
??_7gCAIHelper_FreePoint_PS@@6B@
??_7gCAIHelper_Label_PS@@6B@
??_7gCAIZone_PS@@6B@
??_7gCAchievement@@6B@
??_7gCAchievementAdmin@@6B@
??_7gCActionAdmin@@6BeCEngineComponentBase@@@
??_7gCActionAdmin@@6BeIInputReceiver@@@
??_7gCAnchor_PS@@6B@
??_7gCArena_PS@@6B@
??_7gCBaseDropData@@6BCFXUnknown@@@
??_7gCBaseDropData@@6BIFFUnknown@@@
??_7gCBookLocString@@6B@
??_7gCBook_PS@@6B@
??_7gCCameraAdmin@@6B@
??_7gCCastInfo_PS@@6B@
??_7gCCharacterControl@@6B@
??_7gCCharacterMovement_PS@@6B@
??_7gCCharacterSensor@@6B@
??_7gCClock_PS@@6B@
??_7gCCollisionCircle_PS@@6B@
??_7gCCollisionCircle_PSObj@@6B@
??_7gCCombatAI@@6B@
??_7gCCombatAIMelee@@6B@
??_7gCCombatAIRanged@@6B@
??_7gCCombatAdmin@@6B@
??_7gCCombatMove@@6B@
??_7gCCombatMoveAim@@6B@
??_7gCCombatMoveComboSwitch@@6B@
??_7gCCombatMoveFinishing@@6B@
??_7gCCombatMoveMelee@@6B@
??_7gCCombatMoveOverlayStumble@@6B@
??_7gCCombatMoveParade@@6B@
??_7gCCombatMoveReload@@6B@
??_7gCCombatMoveScriptState@@6B@
??_7gCCombatMoveShoot@@6B@
??_7gCCombatMoveStumble@@6B@
??_7gCCombatObject@@6B@
??_7gCCombatSpecies@@6B@
??_7gCCombatStyle@@6B@
??_7gCCombatStyleAniPose@@6B@
??_7gCCombatStyleMelee@@6B@
??_7gCCombatStyleRanged@@6B@
??_7gCCombatStyleWeaponConfig@@6B@
??_7gCCombatSystem_PS@@6B@
??_7gCCombatWeaponConfig@@6B@
??_7gCCraftIngredient@@6B@
??_7gCDamage_PS@@6B@
??_7gCDatabase@@6B@
??_7gCDialog_PS@@6B@
??_7gCDoor_PS@@6B@
??_7gCDummyCollectorAdmin@@6B@
??_7gCDummyCollectorAnchor@@6B@
??_7gCDummyCollectorBase@@6B@
??_7gCDummyCollectorCollisionCircle@@6B@
??_7gCDummyCollectorDoor@@6B@
??_7gCDummyCollectorDynamicCollisionCircle@@6B@
??_7gCDummyCollectorEntity@@6B@
??_7gCDummyCollectorFreepoint@@6B@
??_7gCDummyCollectorNavOffset@@6B@
??_7gCDummyCollectorNavPath@@6B@
??_7gCDummyCollectorNavZone@@6B@
??_7gCDummyCollectorNegZone@@6B@
??_7gCDummyCollectorPSet_Base@@6B@
??_7gCDummyCollectorPrefPath@@6B@
??_7gCDummyVisualBase_PS@@6B@
??_7gCDynamicCollisionCircle_PS@@6B@
??_7gCDynamicLayer@@6B@
??_7gCEditorEntityPropertySet@@6B@
??_7gCEffect@@6B@
??_7gCEffectCommand@@6B@
??_7gCEffectCommandEarthquake@@6B@
??_7gCEffectCommandEntity@@6B@
??_7gCEffectCommandKillEntity@@6B@
??_7gCEffectCommandKillEntityRange@@6B@
??_7gCEffectCommandModifyEntity@@6B@
??_7gCEffectCommandPlaySound@@6B@
??_7gCEffectCommandPlayVoice@@6B@
??_7gCEffectCommandRunScript@@6B@
??_7gCEffectCommandSaySVM@@6B@
??_7gCEffectCommandSequence2@@6B@
??_7gCEffectCommandSpawnEntity@@6B@
??_7gCEffectCommandSpawnEntityList@@6B@
??_7gCEffectCommandSpawnEntitySwitch@@6B@
??_7gCEffectCommandStartImageEffect@@6B@
??_7gCEffectCommandTriggerEntity@@6B@
??_7gCEffectModule@@6B@
??_7gCEffectSystem@@6B@
??_7gCEffect_PS@@6B@
??_7gCEntityDummyVisual_PS@@6B@
??_7gCEquipslotDropData@@6BCFXUnknown@@@
??_7gCEquipslotDropData@@6BIFFUnknown@@@
??_7gCFlightPathBallistic@@6B@
??_7gCFlightPathBase@@6B@
??_7gCFlightPathSeeking@@6B@
??_7gCFocusModule2@@6B@
??_7gCGUIEntityRenderer@@6B@
??_7gCGUIFilter@@6B@
??_7gCGameApp@@6B@
??_7gCGameScript_PS@@6B@
??_7gCHUDFileManager@@6B@
??_7gCHudDialog2@@6B@
??_7gCHudDialog2@@6BIFFUnknown@@@
??_7gCHudDialog2@@6BeCDocObject@@@
??_7gCHudModule2@@6B@
??_7gCHudPage2@@6B@
??_7gCHudPage2@@6BIFFUnknown@@@
??_7gCHudPage2@@6BeCDocObject@@@
??_7gCHudPopUp2@@6B@
??_7gCHudPopUp2@@6BIFFUnknown@@@
??_7gCHudPopUp2@@6BeCDocObject@@@
??_7gCHudSystem2@@6B@
??_7gCInfo@@6B@
??_7gCInfoCommand@@6B@
??_7gCInfoCommandAddInfoSystemEndScript@@6B@
??_7gCInfoCommandAddLogText@@6B@
??_7gCInfoCommandAddNPCInfo@@6B@
??_7gCInfoCommandAddQuestActor@@6B@
??_7gCInfoCommandAttack@@6B@
??_7gCInfoCommandBack@@6B@
??_7gCInfoCommandBoostAttribs@@6B@
??_7gCInfoCommandClearGameEvent@@6B@
??_7gCInfoCommandCloseQuest@@6B@
??_7gCInfoCommandCreateItem@@6B@
??_7gCInfoCommandDescription@@6B@
??_7gCInfoCommandDestroyItem@@6B@
??_7gCInfoCommandDoLoot@@6B@
??_7gCInfoCommandDoTrade@@6B@
??_7gCInfoCommandEnd@@6B@
??_7gCInfoCommandEndGame@@6B@
??_7gCInfoCommandFullStop@@6B@
??_7gCInfoCommandGive@@6B@
??_7gCInfoCommandGiveXP@@6B@
??_7gCInfoCommandHeal@@6B@
??_7gCInfoCommandInfoWait@@6B@
??_7gCInfoCommandKillNPC@@6B@
??_7gCInfoCommandMoveTo@@6B@
??_7gCInfoCommandPickPocket@@6B@
??_7gCInfoCommandPlayMusic@@6B@
??_7gCInfoCommandRemoveNPC@@6B@
??_7gCInfoCommandRemoveNPCInfo@@6B@
??_7gCInfoCommandRemoveQuestActor@@6B@
??_7gCInfoCommandRunAIScript@@6B@
??_7gCInfoCommandRunInfo@@6B@
??_7gCInfoCommandRunQuest@@6B@
??_7gCInfoCommandRunScript@@6B@
??_7gCInfoCommandSay@@6B@
??_7gCInfoCommandSayConfirm@@6B@
??_7gCInfoCommandSayHoldingPosition@@6B@
??_7gCInfoCommandSayKeepItUp@@6B@
??_7gCInfoCommandSaySVM@@6B@
??_7gCInfoCommandSaySound@@6B@
??_7gCInfoCommandSetGameEvent@@6B@
??_7gCInfoCommandSetGuardStatus@@6B@
??_7gCInfoCommandSetMobEnabled@@6B@
??_7gCInfoCommandSetPartyEnabled@@6B@
??_7gCInfoCommandSetRelaxingPoint@@6B@
??_7gCInfoCommandSetRoutine@@6B@
??_7gCInfoCommandSetSectorStatus@@6B@
??_7gCInfoCommandSetSlaveryEnabled@@6B@
??_7gCInfoCommandSetSleepingPoint@@6B@
??_7gCInfoCommandSetTeachEnabled@@6B@
??_7gCInfoCommandSetTradeEnabled@@6B@
??_7gCInfoCommandSetWorkingPoint@@6B@
??_7gCInfoCommandShowPicture@@6B@
??_7gCInfoCommandShowSubtitle@@6B@
??_7gCInfoCommandSleep@@6B@
??_7gCInfoCommandStartEffect@@6B@
??_7gCInfoCommandStartFixCamera@@6B@
??_7gCInfoCommandStartTutorial@@6B@
??_7gCInfoCommandStopFixCamera@@6B@
??_7gCInfoCommandSucceedQuest@@6B@
??_7gCInfoCommandTeach@@6B@
??_7gCInfoCommandTeleportNPC@@6B@
??_7gCInfoCommandThink@@6B@
??_7gCInfoCommandTrigger@@6B@
??_7gCInfoCommandUse@@6B@
??_7gCInfoCommandWear@@6B@
??_7gCInfoCondition@@6B@
??_7gCInfoConditionCanTeachSkill@@6B@
??_7gCInfoConditionItemAmount@@6B@
??_7gCInfoConditionNPCStatus@@6B@
??_7gCInfoConditionOwnerInArea@@6B@
??_7gCInfoConditionOwnerNearEntity@@6B@
??_7gCInfoConditionPlayerKnows@@6B@
??_7gCInfoConditionPlayerNotKnows@@6B@
??_7gCInfoConditionQuestStatus@@6B@
??_7gCInfoConditionScript@@6B@
??_7gCInfoConditionSkillValue@@6B@
??_7gCInfoConditionTeachEnabled@@6B@
??_7gCInfoDropData@@6BCFXUnknown@@@
??_7gCInfoDropData@@6BIFFUnknown@@@
??_7gCInfoLocString@@6B@
??_7gCInfoModule@@6B@
??_7gCInfoSystem@@6B@
??_7gCInteraction@@6B@
??_7gCInteractionAdmin@@6B@
??_7gCInteractionSlot@@6B@
??_7gCInteraction_PS@@6B@
??_7gCInventoryDropData@@6BCFXUnknown@@@
??_7gCInventoryDropData@@6BIFFUnknown@@@
??_7gCInventoryList@@6BIFFUnknown@@@
??_7gCInventoryList@@6BeCDocObject@@@
??_7gCInventoryList@@6BeCGuiListCtrl2@@@
??_7gCInventoryList@@6BgCInventoryListener@@@
??_7gCInventoryListener@@6B@
??_7gCInventorySlot@@6B@
??_7gCInventoryStack@@6B@
??_7gCInventory_PS@@6BeCEntityPropertySet@@@
??_7gCInventory_PS@@6BgCInventoryListener@@@
??_7gCItem_PS@@6B@
??_7gCLayerBase@@6B@
??_7gCLetterLocString@@6B@
??_7gCLetter_PS@@6B@
??_7gCLock_PS@@6B@
??_7gCMapEntry@@6B@
??_7gCMapInfo_PS@@6B@
??_7gCMapLocString@@6B@
??_7gCMap_PS@@6B@
??_7gCModifySkill@@6B@
??_7gCMusicModule2@@6B@
??_7gCNPCInfoLocString@@6B@
??_7gCNPC_PS@@6B@
??_7gCNavHelper_PS@@6B@
??_7gCNavOffset_PS@@6B@
??_7gCNavPath_PS@@6B@
??_7gCNavZone_PS@@6B@
??_7gCNavigationAdmin@@6B@
??_7gCNavigationMap@@6B@
??_7gCNavigationMapCompiler@@6B@
??_7gCNavigationMapNavigator@@6B@
??_7gCNavigationMapTester@@6B@
??_7gCNavigation_PS@@6B@
??_7gCNegZone_PS@@6B@
??_7gCNegZone_PSObj@@6B@
??_7gCPartyAdmin@@6B@
??_7gCParty_PS@@6B@
??_7gCPrefPath_PS@@6B@
??_7gCPrefPath_PSObj@@6B@
??_7gCProject@@6B@
??_7gCProjectile2_PS@@6B@
??_7gCPropertyDummyVisual_PS@@6B@
??_7gCQuest@@6B@
??_7gCQuestActor@@6B@
??_7gCQuestLocString@@6B@
??_7gCQuestLogFrame2@@6B@
??_7gCQuestLogFrame2@@6BIFFUnknown@@@
??_7gCQuestLogFrame2@@6BeCDocObject@@@
??_7gCQuestManager@@6B@
??_7gCRecipe_PS@@6B@
??_7gCRuntimeInfo@@6B@
??_7gCScriptAdmin@@6B@
??_7gCScriptProcessingUnit@@6B@
??_7gCScriptProxyAICallback@@6B@
??_7gCScriptProxyAIFunction@@6B@
??_7gCScriptProxyAIState@@6B@
??_7gCScriptRoutine_PS@@6B@
??_7gCSector@@6B@
??_7gCSectorPersistence_PS@@6B@
??_7gCSession@@6B@
??_7gCSessionCheats@@6B@
??_7gCSessionInfo@@6B@
??_7gCShortcutDropData@@6BCFXUnknown@@@
??_7gCShortcutDropData@@6BIFFUnknown@@@
??_7gCSkillRange@@6B@
??_7gCSkillValue@@6B@
??_7gCSkillValueBase@@6B@
??_7gCSkills_PS@@6B@
??_7gCSpinButton@@6B@
??_7gCSpinButton@@6BIFFUnknown@@@
??_7gCSpinButton@@6BeCDocObject@@@
??_7gCStateGraphAction@@6B@
??_7gCStateGraphActionCallScript@@6B@
??_7gCStateGraphActionEventDispatcher@@6B@
??_7gCStateGraphActionFollowState@@6B@
??_7gCStateGraphActionPauseAni@@6B@
??_7gCStateGraphActionPlayAni@@6B@
??_7gCStateGraphActionStartEffect@@6B@
??_7gCStateGraphActionStop@@6B@
??_7gCStateGraphActionTrigger@@6B@
??_7gCStateGraphActionTriggerState@@6B@
??_7gCStateGraphActionUnTrigger@@6B@
??_7gCStateGraphActionVisibility@@6B@
??_7gCStateGraphActionWait@@6B@
??_7gCStateGraphEventFilter@@6B@
??_7gCStateGraphEventFilterCollisionShape@@6B@
??_7gCStateGraphEventFilterDamageAmount@@6B@
??_7gCStateGraphEventFilterIsEntity@@6B@
??_7gCStateGraphEventFilterIsNPC@@6B@
??_7gCStateGraphEventFilterIsPlayer@@6B@
??_7gCStateGraphEventFilterScript@@6B@
??_7gCStateGraphEventFilterTemplate@@6B@
??_7gCStateGraphState@@6B@
??_7gCStateGraphTransition@@6B@
??_7gCStateGraph_PS@@6B@
??_7gCTutorialAdmin@@6B@
??_7gCTutorialEvent@@6B@
??_7gCTutorialHint@@6B@
??_7gCTutorialHintCollection@@6B@
??_7gCWaterSubZone_PS@@6B@
??_7gCWaterZone_PS@@6B@
??_7gCWorkspace@@6B@
??_7gCWorld@@6B@
??_7gCWrittenDropData@@6BCFXUnknown@@@
??_7gCWrittenDropData@@6BIFFUnknown@@@
??_8gCBaseDropData@@7BCFXUnknown@@@
??_8gCBaseDropData@@7BIFFGuiDataObject2@@@
??_8gCEquipslotDropData@@7BCFXUnknown@@@
??_8gCEquipslotDropData@@7BIFFGuiDataObject2@@@
??_8gCHudDialog2@@7B@
??_8gCHudPage2@@7B@
??_8gCHudPopUp2@@7B@
??_8gCInfoDropData@@7BCFXUnknown@@@
??_8gCInfoDropData@@7BIFFGuiDataObject2@@@
??_8gCInventoryDropData@@7BCFXUnknown@@@
??_8gCInventoryDropData@@7BIFFGuiDataObject2@@@
??_8gCInventoryList@@7B@
??_8gCQuestLogFrame2@@7B@
??_8gCShortcutDropData@@7BCFXUnknown@@@
??_8gCShortcutDropData@@7BIFFGuiDataObject2@@@
??_8gCSpinButton@@7B@
??_8gCWrittenDropData@@7BCFXUnknown@@@
??_8gCWrittenDropData@@7BIFFGuiDataObject2@@@
??_FgCBaseDropData@@QEAAXXZ
??_FgCEquipslotDropData@@QEAAXXZ
??_FgCShortcutDropData@@QEAAXXZ
?AIContinueRoutine@gCScriptProcessingUnit@@QEAAXXZ
?AIContinueRoutine@gCScriptRoutine_PS@@QEAAXXZ
?AIFullStop@gCScriptProcessingUnit@@QEAAXW4gEAIInstruction@1@@Z
?AIFullStop@gCScriptRoutine_PS@@QEAAXXZ
?AIGetLocalCallback@gCScriptProcessingUnit@@QEBA?AVbCString@@XZ
?AIGetLocalCallback@gCScriptRoutine_PS@@QEBA?AVbCString@@XZ
?AIGetStatePosition@gCScriptProcessingUnit@@QEAAHXZ
?AIGetStateTime@gCScriptProcessingUnit@@QEAAMXZ
?AIGetTaskCallback@gCScriptProcessingUnit@@QEBA?AVbCString@@XZ
?AIGetTaskCallback@gCScriptRoutine_PS@@QEBA?AVbCString@@XZ
?AIGetTaskPosition@gCScriptProcessingUnit@@QEAAHXZ
?AIGetTaskTime@gCScriptProcessingUnit@@QEAAMXZ
?AISetExitScript@gCScriptProcessingUnit@@QEAAXVbCString@@@Z
?AISetLocalCallback@gCScriptProcessingUnit@@QEAAXVbCString@@@Z
?AISetLocalCallback@gCScriptRoutine_PS@@QEAAXAEBVbCString@@@Z
?AISetState@gCScriptProcessingUnit@@QEAAXVbCString@@@Z
?AISetState@gCScriptRoutine_PS@@QEAAXAEBVbCString@@@Z
?AISetStatePosition@gCScriptProcessingUnit@@QEAAXH@Z
?AISetStateTime@gCScriptProcessingUnit@@QEAAXM@Z
?AISetStateTime@gCScriptRoutine_PS@@QEAAXM@Z
?AISetTask@gCScriptProcessingUnit@@QEAAXVbCString@@_N@Z
?AISetTask@gCScriptRoutine_PS@@QEAAXAEBVbCString@@@Z
?AISetTaskCallback@gCScriptProcessingUnit@@QEAAXVbCString@@@Z
?AISetTaskCallback@gCScriptRoutine_PS@@QEAAXAEBVbCString@@@Z
?AISetTaskPosition@gCScriptProcessingUnit@@QEAAXH@Z
?AISetTaskTime@gCScriptProcessingUnit@@QEAAXM@Z
?AISetTaskTime@gCScriptRoutine_PS@@QEAAXM@Z
?AIStopCombatMove@gCScriptRoutine_PS@@QEAAXXZ
?AIStopGoto@gCScriptRoutine_PS@@QEAAX_N@Z
?AIStopOutput@gCScriptRoutine_PS@@QEAAXXZ
?AIStopPlayAnimation@gCScriptRoutine_PS@@QEAAXXZ
?AIStopWait@gCScriptRoutine_PS@@QEAAXXZ
?AbortOverlay@gCMusicModule2@@AEAAXXZ
?AcceptResolution@gCHudResolutionManager2@@QEAAXXZ
?AccessAIDelay@gCScriptRoutine_PS@@QEAAAEAJXZ
?AccessAIFunction@gCCombatMoveScriptState@@QEAAAEAVgCScriptProxyAIFunction@@XZ
?AccessAIMode@gCScriptRoutine_PS@@QEAAAEAV?$bTPropertyContainer@W4gEAIMode@@@@XZ
?AccessAIScriptName@gCInfoCommandRunAIScript@@QEAAAEAVbCString@@XZ
?AccessAchieved@gCAchievement@@QEAAAEA_NXZ
?AccessAction@gCCombatMoveMelee@@QEAAAEAV?$bTPropertyContainer@W4gECombatAction@@@@XZ
?AccessActionString@gCScriptRoutine_PS@@QEAAAEAVbCString@@XZ
?AccessActionTarget@gCScriptRoutine_PS@@QEAAAEAVeCEntityProxy@@XZ
?AccessActivationTime_Day@gCQuest@@QEAAAEAKXZ
?AccessActivationTime_Hour@gCQuest@@QEAAAEAKXZ
?AccessActivationTime_Year@gCQuest@@QEAAAEAKXZ
?AccessActiveAttacker@gCCombatSystem_PS@@QEAAAEAVeCEntityProxy@@XZ
?AccessActiveFightAI@gCCombatStyle@@QEAAAEAVbCString@@XZ
?AccessActiveFightAI@gCCombatSystem_PS@@QEAAAEAVbCString@@XZ
?AccessActiveWorld@gCProject@@QEAAAEAVbCString@@XZ
?AccessActor@gCInfoCommandAddQuestActor@@QEAAAEAVgCQuestActor@@XZ
?AccessActor@gCInfoCommandRemoveQuestActor@@QEAAAEAVgCQuestActor@@XZ
?AccessActor@gCQuestActor@@QEAAAEAVeCEntityStringProxy@@XZ
?AccessActorType@gCQuestActor@@QEAAAEAV?$bTPropertyContainer@W4gEQuestActor@@@@XZ
?AccessActors@gCQuest@@QEAAAEAV?$bTObjArray@VgCQuestActor@@@@XZ
?AccessAggressiveness@gCCombatAIMelee@@QEAAAEAMXZ
?AccessAgressor@gCDamage_PS@@QEAAAEAVeCEntityProxy@@XZ
?AccessAim@gCCombatStyleRanged@@QEAAAEAVbCString@@XZ
?AccessAlignToTarget@gCCombatMoveMelee@@QEAAAEAV?$bTPropertyContainer@W4gEAlignToTarget@@@@XZ
?AccessAlpha@gCStateGraphActionVisibility@@QEAAAEAMXZ
?AccessAmbientAction@gCScriptRoutine_PS@@QEAAAEAV?$bTPropertyContainer@W4gEAmbientAction@@@@XZ
?AccessAmount@gCInfoCommandCreateItem@@QEAAAEAKXZ
?AccessAmount@gCInfoCommandDestroyItem@@QEAAAEAKXZ
?AccessAmount@gCInfoCommandGive@@QEAAAEAKXZ
?AccessAmount@gCInfoCommandGiveXP@@QEAAAEAKXZ
?AccessAmount@gCItem_PS@@QEAAAEAKXZ
?AccessAmount@gCSkillValue@@QEAAAEAJXZ
?AccessAnchorType@gCAnchor_PS@@QEAAAEAV?$bTPropertyContainer@W4gEAnchorType@@@@XZ
?AccessAniDirection@gCNavOffset_PS@@QEAAAEAV?$bTValArray@W4gEDirection@@@@XZ
?AccessAniDuration@gCCombatMoveShoot@@QEAAAEAMXZ
?AccessAniPose@gCCombatStyle@@QEAAAEAVgCCombatStyleAniPose@@XZ
?AccessAniState@gCScriptRoutine_PS@@QEAAAEAV?$bTPropertyContainer@W4gEAniState@@@@XZ
?AccessAnimation@gCStateGraphActionPauseAni@@QEAAAEAVbCString@@XZ
?AccessAnimation@gCStateGraphActionPlayAni@@QEAAAEAVbCString@@XZ
?AccessAnimationBearing@gCNPC_PS@@QEAAAEAVbCString@@XZ
?AccessAnimationFile@gCCombatMoveFinishing@@QEAAAEAVbCString@@XZ
?AccessAnimationFile@gCCombatMoveMelee@@QEAAAEAVbCString@@XZ
?AccessAnimationFile@gCCombatMoveOverlayStumble@@QEAAAEAVbCString@@XZ
?AccessAnimationFile@gCCombatMoveStumble@@QEAAAEAVbCString@@XZ
?AccessAnimationFileDown@gCCombatMoveShoot@@QEAAAEAVbCString@@XZ
?AccessAnimationFileFwd@gCCombatMoveShoot@@QEAAAEAVbCString@@XZ
?AccessAnimationFileUp@gCCombatMoveShoot@@QEAAAEAVbCString@@XZ
?AccessApplyGravity@gCCharacterMovement_PS@@QEAAAEA_NXZ
?AccessArcherEffect@gCCombatMoveAim@@QEAAAEAVbCString@@XZ
?AccessAreaPropertyName@gCInfoConditionOwnerInArea@@QEAAAEAVbCString@@XZ
?AccessAttachedSlotScript@gCInteraction_PS@@QEAAAEAVeCScriptProxyScript@@XZ
?AccessAttack@gCCombatStyle@@QEAAAEAVbCString@@XZ
?AccessAttackLeft@gCCombatStyleMelee@@QEAAAEAVbCString@@XZ
?AccessAttackRight@gCCombatStyleMelee@@QEAAAEAVbCString@@XZ
?AccessAttackSec@gCCombatStyleMelee@@QEAAAEAVbCString@@XZ
?AccessAttackSec@gCCombatStyleRanged@@QEAAAEAVbCString@@XZ
?AccessAttackSpeed@gCCombatAIMelee@@QEAAAEAMXZ
?AccessAttackSpeed@gCCombatAIRanged@@QEAAAEAMXZ
?AccessAttackStumble@gCCombatStyleMelee@@QEAAAEAVbCString@@XZ
?AccessAttackStumbleLeft@gCCombatStyleMelee@@QEAAAEAVbCString@@XZ
?AccessAttackStumbleRight@gCCombatStyleMelee@@QEAAAEAVbCString@@XZ
?AccessAttackStumbleType@gCCombatMoveMelee@@QEAAAEAV?$bTPropertyContainer@W4gECombatAttackStumble@@@@XZ
?AccessAttackType@gCCombatMoveMelee@@QEAAAEAV?$bTPropertyContainer@W4gECombatParadeType@@@@XZ
?AccessAttackType@gCCombatStyle@@QEAAAEAV?$bTPropertyContainer@W4gECombatParadeType@@@@XZ
?AccessAttitudeLock@gCNPC_PS@@QEAAAEAV?$bTPropertyContainer@W4gEAttitude@@@@XZ
?AccessAuthorColor@gCQuestLogFrame2@@QEAAAEAVbCByteAlphaColor@@XZ
?AccessAutoRejoin@gCParty_PS@@QEAAAEA_NXZ
?AccessAutoTrigger@gCTutorialEvent@@QEAAAEA_NXZ
?AccessBackTrail@gCNavigation_PS@@QEAAAEAV?$bTObjArray@UgSTrailElement@gCNavigation_PS@@@@XZ
?AccessBackwardSpeedMax@gCCharacterMovement_PS@@QEAAAEAMXZ
?AccessBestDistance@gCInfoCommandStartFixCamera@@QEAAAEAMXZ
?AccessBlendAniDuration@gCCombatMoveParade@@QEAAAEAMXZ
?AccessBlendAnimations@gCCombatMoveShoot@@QEAAAEA_NXZ
?AccessBlendInAnimationFile@gCCombatMoveParade@@QEAAAEAVbCString@@XZ
?AccessBlendInTime@gCCombatMoveFinishing@@QEAAAEAMXZ
?AccessBlendInTime@gCCombatMoveMelee@@QEAAAEAMXZ
?AccessBlendInTime@gCCombatMoveOverlayStumble@@QEAAAEAMXZ
?AccessBlendInTime@gCCombatMoveParade@@QEAAAEAMXZ
?AccessBlendInTime@gCCombatMoveShoot@@QEAAAEAMXZ
?AccessBlendInTime@gCCombatMoveStumble@@QEAAAEAMXZ
?AccessBlendInTime@gCEffectCommandStartImageEffect@@QEAAAEAMXZ
?AccessBlendOutTime@gCCombatMoveOverlayStumble@@QEAAAEAMXZ
?AccessBlendOutTime@gCCombatMoveParade@@QEAAAEAMXZ
?AccessBlendOutTime@gCEffectCommandStartImageEffect@@QEAAAEAMXZ
?AccessBoneName@gCEffectCommandPlaySound@@QEAAAEAVbCString@@XZ
?AccessBoneName@gCEffectCommandSpawnEntity@@QEAAAEAVbCString@@XZ
?AccessBoneName@gCEffectCommandSpawnEntityList@@QEAAAEAVbCString@@XZ
?AccessBoneName@gCEffectCommandSpawnEntitySwitch@@QEAAAEAVbCString@@XZ
?AccessBoostTarget@gCInfoCommandBoostAttribs@@QEAAAEAV?$bTPropertyContainer@W4gEBoostTarget@@@@XZ
?AccessBottomToleranz@gCNavPath_PS@@QEAAAEAMXZ
?AccessBottomToleranz@gCNavZone_PS@@QEAAAEAMXZ
?AccessBowAnimationFile@gCCombatMoveAim@@QEAAAEAVbCString@@XZ
?AccessBowAnimationFile@gCCombatMoveReload@@QEAAAEAVbCString@@XZ
?AccessBowEffect@gCCombatMoveAim@@QEAAAEAVbCString@@XZ
?AccessBraveryOverride@gCNPC_PS@@QEAAAEAV?$bTPropertyContainer@W4gEBraveryOverride@@@@XZ
?AccessCalcRotation@gCMapInfo_PS@@QEAAAEA_NXZ
?AccessCameraEffectName@gCEffectCommandEarthquake@@QEAAAEAVbCString@@XZ
?AccessCameraPitchAngle@gCInfoCommandStartFixCamera@@QEAAAEAMXZ
?AccessCameraPosition@gCInfoCommandStartFixCamera@@QEAAAEAVbCString@@XZ
?AccessCameraTarget@gCInfoCommandStartFixCamera@@QEAAAEAVbCString@@XZ
?AccessCameraYawAngle@gCInfoCommandStartFixCamera@@QEAAAEAMXZ
?AccessCanAttachSlotScript@gCInteraction_PS@@QEAAAEAVeCScriptProxyScript@@XZ
?AccessCanBePushedWhileIdle@gCCharacterMovement_PS@@QEAAAEA_NXZ
?AccessCanEquipScript@gCItem_PS@@QEAAAEAVeCScriptProxyScript@@XZ
?AccessCanInteractScript@gCInteraction@@QEAAAEAVeCScriptProxyScript@@XZ
?AccessCanStrafe@gCCombatSpecies@@QEAAAEA_NXZ
?AccessCanUse@gCMap_PS@@QEAAAEAVeCScriptProxyScript@@XZ
?AccessCancelledQuestScript@gCQuest@@QEAAAEAVeCScriptProxyScript@@XZ
?AccessCastAmmo@gCCastInfo_PS@@QEAAAEAVeCTemplateEntityProxy@@XZ
?AccessCastFail@gCCastInfo_PS@@QEAAAEAVeCTemplateEntityProxy@@XZ
?AccessCastInfo@gCCastInfo_PS@@QEAAAEAVbCString@@XZ
?AccessCastItem@gCCastInfo_PS@@QEAAAEAVeCTemplateEntityProxy@@XZ
?AccessCategory@gCItem_PS@@QEAAAEAV?$bTPropertyContainer@W4gEItemCategory@@@@XZ
?AccessCategoryFilter@gCInventoryList@@QEAAAEAVeCScriptProxyScript@@XZ
?AccessCharacter@gCInventoryList@@QEAAAEAV?$bTPropertyContainer@W4gESpecialEntity@@@@XZ
?AccessCheatGodEnabled@gCSessionCheats@@QEAAAEA_NXZ
?AccessCheatInvisibleEnabled@gCSessionCheats@@QEAAAEA_NXZ
?AccessCircleCount@gCCollisionCircle_PS@@QEAAAEAKXZ
?AccessClearChildren@gCInfo@@QEAAAEA_NXZ
?AccessClimbFlightForwardTime@gCCharacterMovement_PS@@QEAAAEAMXZ
?AccessClimbFlightGravity@gCCharacterMovement_PS@@QEAAAEAMXZ
?AccessClimbFrontDepth1@gCCharacterMovement_PS@@QEAAAEAMXZ
?AccessClimbFrontDepth2@gCCharacterMovement_PS@@QEAAAEAMXZ
?AccessClimbFrontDepth3@gCCharacterMovement_PS@@QEAAAEAMXZ
?AccessClimbHeightHigh@gCCharacterMovement_PS@@QEAAAEAMXZ
?AccessClimbHeightLow@gCCharacterMovement_PS@@QEAAAEAMXZ
?AccessClimbHeightMid@gCCharacterMovement_PS@@QEAAAEAMXZ
?AccessClimbHeightMin@gCCharacterMovement_PS@@QEAAAEAMXZ
?AccessClimbTargetGroundAngleMax@gCCharacterMovement_PS@@QEAAAEAMXZ
?AccessClusteredCollisionCirclePSObj@gCCollisionCircle_PSObj@@QEAAPEAV?$bTValArray@PEAVgCCollisionCircle_PSObj@@@@AEBVbCPropertyID@@@Z
?AccessCombatHitRangeOffset@gCItem_PS@@QEAAAEAMXZ
?AccessCombatMode@gCCombatStyle@@QEAAAEAV?$bTPropertyContainer@W4gECombatMode@@@@XZ
?AccessCombatSpecies@gCCombatSystem_PS@@QEAAAEAVbCString@@XZ
?AccessCombatWalkMode@gCCombatAI@@QEAAAEAV?$bTPropertyContainer@W4gEWalkMode@@@@XZ
?AccessCombo@gCCombatMoveMelee@@QEAAAEAVbCString@@XZ
?AccessComboAttack@gCCombatMoveAim@@QEAAAEAVbCString@@XZ
?AccessComboAttack@gCCombatMoveShoot@@QEAAAEAVbCString@@XZ
?AccessComboAttackBeginTime@gCCombatMoveAim@@QEAAAEAVbCRange1@@XZ
?AccessComboBegin@gCCombatMoveMelee@@QEAAAEAMXZ
?AccessComboEnd@gCCombatMoveMelee@@QEAAAEAMXZ
?AccessComboLeft@gCCombatMoveMelee@@QEAAAEAVbCString@@XZ
?AccessComboMoves@gCCombatMoveComboSwitch@@QEAAAEAV?$bTObjArray@VgCCombatMoveSwitch@@@@XZ
?AccessComboParade@gCCombatMoveMelee@@QEAAAEAV?$bTPropertyContainer@W4gECombatComboParade@@@@XZ
?AccessComboPower@gCCombatMoveMelee@@QEAAAEAVbCString@@XZ
?AccessComboRight@gCCombatMoveMelee@@QEAAAEAVbCString@@XZ
?AccessComboSec@gCCombatMoveMelee@@QEAAAEAVbCString@@XZ
?AccessCommandTime@gCScriptRoutine_PS@@QEAAAEAJXZ
?AccessCommands@gCEffectCommandSequence2@@QEAAAEAV?$bTRefPropertyArray@PEAVgCEffectCommand@@@@XZ
?AccessCompareOperation@gCInfoConditionSkillValue@@QEAAAEAV?$bTPropertyContainer@W4gECompareOperation@@@@XZ
?AccessCompleted@gCTutorialEvent@@QEAAAEAVeCScriptProxyScript@@XZ
?AccessCondType@gCInfoConditionQuestStatus@@QEAAAEAV?$bTPropertyContainer@W4gEInfoCondType@@@@XZ
?AccessCondition@gCTutorialEvent@@QEAAAEAVeCScriptProxyScript@@XZ
?AccessConditionType@gCInfo@@QEAAAEAV?$bTPropertyContainer@W4gEInfoCondType@@@@XZ
?AccessConsumeItem@gCCastInfo_PS@@QEAAAEA_NXZ
?AccessCoolDown@gCEffectCommandEarthquake@@QEAAAEAMXZ
?AccessCoordinateSystem@gCEffectCommandPlaySound@@QEAAAEAV?$bTPropertyContainer@W4gEEffectLink@@@@XZ
?AccessCoordinateSystem@gCEffectCommandSpawnEntity@@QEAAAEAV?$bTPropertyContainer@W4gEEffectLink@@@@XZ
?AccessCoordinateSystem@gCEffectCommandSpawnEntityList@@QEAAAEAV?$bTPropertyContainer@W4gEEffectLink@@@@XZ
?AccessCoordinateSystem@gCEffectCommandSpawnEntitySwitch@@QEAAAEAV?$bTPropertyContainer@W4gEEffectLink@@@@XZ
?AccessCorrectedPose@gCDynamicCollisionCircle_PS@@QEAAAEAV?$bTValArray@VbCMotion@@@@XZ
?AccessCostFactor@gCNavPath_PS@@QEAAAEAMXZ
?AccessCostFactor@gCNavZone_PS@@QEAAAEAMXZ
?AccessCounterAttack@gCCombatStyleMelee@@QEAAAEAVbCString@@XZ
?AccessCounterParade@gCCombatStyleMelee@@QEAAAEAVbCString@@XZ
?AccessCoveringPoint@gCWaterSubZone_PS@@QEAAAEAV?$bTValArray@VbCVector@@@@XZ
?AccessCraft@gCRecipe_PS@@QEAAAEAV?$bTPropertyContainer@W4gERecipeCategory@@@@XZ
?AccessCraftIngredients@gCRecipe_PS@@QEAAAEAV?$bTObjArray@VgCCraftIngredient@@@@XZ
?AccessCreatorTemplate@gCStateGraphEventFilterTemplate@@QEAAAEAVeCTemplateEntityProxy@@XZ
?AccessCredits@gCAchievement@@QEAAAEAKXZ
?AccessCurrentAniDirection@gCNavigation_PS@@QEAAAEAW4gEDirection@@XZ
?AccessCurrentAttackerEntity@gCNPC_PS@@QEAAAEAVeCEntityProxy@@XZ
?AccessCurrentBreakBlock@gCScriptRoutine_PS@@QEAAAEAJXZ
?AccessCurrentDestination@gCNavigation_PS@@QEAAAEAV?$bTValArray@VbCVector@@@@XZ
?AccessCurrentDestinationID@gCNavigation_PS@@QEAAAEAV?$bTValArray@VbCPropertyID@@@@XZ
?AccessCurrentDestinationPointProxy@gCNavigation_PS@@QEAAAEAVeCEntityProxy@@XZ
?AccessCurrentInfoCommandIndex@gCInfo@@QEAAAEAHXZ
?AccessCurrentInterPose@gCNavigation_PS@@QEAAAEAV?$bTValArray@VbCMotion@@@@XZ
?AccessCurrentNavPath@gCNavigation_PS@@QEAAAEAV?$bTValArray@PEAVgCNavPath_PS@@@@XZ
?AccessCurrentRoutine@gCNavigation_PS@@QEAAAEAJXZ
?AccessCurrentState@gCScriptRoutine_PS@@QEAAAEAVbCString@@XZ
?AccessCurrentTargetEntity@gCNPC_PS@@QEAAAEAVeCEntityProxy@@XZ
?AccessCurrentTask@gCScriptRoutine_PS@@QEAAAEAVbCString@@XZ
?AccessCurrentZoneEntityProxy@gCNavigation_PS@@QEAAAEAVeCEntityProxy@@XZ
?AccessDamageAmount@gCDamage_PS@@QEAAAEAJXZ
?AccessDamageAmount@gCStateGraphEventFilterDamageAmount@@QEAAAEAHXZ
?AccessDamageBonus@gCDamage_PS@@QEAAAEAJXZ
?AccessDamageCalculationType@gCNPC_PS@@QEAAAEAV?$bTPropertyContainer@W4gEDamageCalculationType@@@@XZ
?AccessDamageMultiplier@gCDamage_PS@@QEAAAEAMXZ
?AccessDamageScript@gCDamage_PS@@QEAAAEAVeCScriptProxyScript@@XZ
?AccessDamageScript@gCInteraction_PS@@QEAAAEAVeCScriptProxyScript@@XZ
?AccessDamageType@gCDamage_PS@@QEAAAEAV?$bTPropertyContainer@W4gEDamageType@@@@XZ
?AccessDay@gCClock_PS@@QEAAAEAKXZ
?AccessDaysPlayed@gCClock_PS@@QEAAAEAKXZ
?AccessDeactivationVelocity@gCFlightPathBallistic@@QEAAAEAMXZ
?AccessDecay@gCEffectCommandKillEntity@@QEAAAEA_NXZ
?AccessDecay@gCEffectCommandKillEntityRange@@QEAAAEA_NXZ
?AccessDecayMode@gCEffect_PS@@QEAAAEAV?$bTPropertyContainer@W4gEEffectDecayMode@@@@XZ
?AccessDefaultCtrlID@gCHudPage2@@QEAAAEAGXZ
?AccessDefaultMarkerImage@gCMap_PS@@QEAAAEAVeCGuiBitmapProxy2@@XZ
?AccessDefaultRadius@gCCollisionCircle_PS@@QEAAAEAMXZ
?AccessDefaultState@gCStateGraph_PS@@QEAAAEAVbCString@@XZ
?AccessDefaultTip@gCHudPopUp2@@QEAAAEA_NXZ
?AccessDefeatedByPlayer@gCNPC_PS@@QEAAAEA_NXZ
?AccessDeliveryEntities@gCQuest@@QEAAAEAV?$bTObjArray@UgSDeliveryEntity@gCQuest@@@@XZ
?AccessDemoRelevant@gCSector@@QEAAAEA_NXZ
?AccessDepthRange@gCWaterZone_PS@@QEAAAEAMXZ
?AccessDescription@gCAchievement@@QEAAAEAVeCLocString@@XZ
?AccessDescription@gCInfoCommandAddNPCInfo@@QEAAAEAVgCNPCInfoLocString@@XZ
?AccessDescription@gCTutorialEvent@@QEAAAEAVeCLocString@@XZ
?AccessDesiredDistanceToTarget@gCCombatMoveFinishing@@QEAAAEAMXZ
?AccessDestination@gCNavigation_PS@@QEAAAEAV?$bTValArray@VbCMotion@@@@XZ
?AccessDestinationEntity@gCQuest@@QEAAAEAVbCString@@XZ
?AccessDetachedSlotScript@gCInteraction_PS@@QEAAAEAVeCScriptProxyScript@@XZ
?AccessDifficulty@gCInfoCommandPickPocket@@QEAAAEAKXZ
?AccessDifficulty@gCLock_PS@@QEAAAEAHXZ
?AccessDisableInput@gCHudPage2@@QEAAAEA_NXZ
?AccessDisableRotation@gCCharacterMovement_PS@@QEAAAEA_NXZ
?AccessDisableTranslation@gCCharacterMovement_PS@@QEAAAEA_NXZ
?AccessDiscovered@gCNPC_PS@@QEAAAEA_NXZ
?AccessDispatchEventSource@gCStateGraphActionEventDispatcher@@QEAAAEA_NXZ
?AccessDistToPlayer@gCEffectCommandSequence2@@QEAAAEAMXZ
?AccessDistanceToImpact@gCProjectile2_PS@@QEAAAEAMXZ
?AccessDoHeightCorrection@gCCharacterMovement_PS@@QEAAAEA_NXZ
?AccessDoUntrigger@gCInfoCommandTrigger@@QEAAAEA_NXZ
?AccessDontStopFallAngleMin@gCCharacterMovement_PS@@QEAAAEAMXZ
?AccessDropped@gCItem_PS@@QEAAAEA_NXZ
?AccessDummy@gCEffectCommandEntity@@QEAAAEAHXZ
?AccessDuration@gCEffectCommandRunScript@@QEAAAEAMXZ
?AccessDuration@gCEffectCommandStartImageEffect@@QEAAAEAMXZ
?AccessDuration@gCTutorialEvent@@QEAAAEAHXZ
?AccessEffect@gCEffect_PS@@QEAAAEAVbCString@@XZ
?AccessEffect@gCStateGraphActionStartEffect@@QEAAAEAVbCString@@XZ
?AccessEffectDuration@gCEffectCommandEarthquake@@QEAAAEAMXZ
?AccessEffectHigh@gCEffect_PS@@QEAAAEAVbCString@@XZ
?AccessEffectMaterial@gCItem_PS@@QEAAAEAVbCString@@XZ
?AccessEffectMaterial@gCNPC_PS@@QEAAAEAVbCString@@XZ
?AccessEffectMaterial@gCWaterZone_PS@@QEAAAEAVbCString@@XZ
?AccessEffectMedium@gCEffect_PS@@QEAAAEAVbCString@@XZ
?AccessEffectName@gCInfoCommandStartEffect@@QEAAAEAVbCString@@XZ
?AccessEffectOffset@gCCombatMoveParade@@QEAAAEAVbCVector@@XZ
?AccessEffectSpecies@gCNPC_PS@@QEAAAEAVbCString@@XZ
?AccessEffectWeight@gCEffectCommandEarthquake@@QEAAAEAMXZ
?AccessElevationAngle@gCCombatMoveAim@@QEAAAEAVbCRange1@@XZ
?AccessElevationAngle@gCCombatMoveShoot@@QEAAAEAVbCRange1@@XZ
?AccessEnableAttackSec@gCCombatStyleMelee@@QEAAAEA_NXZ
?AccessEnablePowerRaise@gCCombatStyleMelee@@QEAAAEA_NXZ
?AccessEnableSideAttacks@gCCombatStyleMelee@@QEAAAEA_NXZ
?AccessEnableSpining@gCProjectile2_PS@@QEAAAEA_NXZ
?AccessEnableSweepTest@gCProjectile2_PS@@QEAAAEA_NXZ
?AccessEnabled@gCEffect_PS@@QEAAAEA_NXZ
?AccessEnabledAsObstacle@gCCollisionCircle_PS@@QEAAAEA_NXZ
?AccessEnabledOnStartup@gCSector@@QEAAAEA_NXZ
?AccessEndAttackTimestamp@gCScriptRoutine_PS@@QEAAAEAMXZ
?AccessEndChapter@gCInfo@@QEAAAEAJXZ
?AccessEndChapter@gCQuest@@QEAAAEAJXZ
?AccessEndDialogTimestamp@gCDialog_PS@@QEAAAEAMXZ
?AccessEnterROIScript@gCInteraction_PS@@QEAAAEAVeCScriptProxyScript@@XZ
?AccessEnterScript@gCStateGraphActionCallScript@@QEAAAEAVeCScriptProxyScript@@XZ
?AccessEntity1@gCInfoCommand@@QEAAAEAVbCString@@XZ
?AccessEntity1@gCInfoCommandAttack@@QEAAAEAVbCString@@XZ
?AccessEntity1@gCInfoCommandBoostAttribs@@QEAAAEAVbCString@@XZ
?AccessEntity1@gCInfoCommandCreateItem@@QEAAAEAVbCString@@XZ
?AccessEntity1@gCInfoCommandDestroyItem@@QEAAAEAVbCString@@XZ
?AccessEntity1@gCInfoCommandDoLoot@@QEAAAEAVbCString@@XZ
?AccessEntity1@gCInfoCommandDoTrade@@QEAAAEAVbCString@@XZ
?AccessEntity1@gCInfoCommandFullStop@@QEAAAEAVbCString@@XZ
?AccessEntity1@gCInfoCommandGive@@QEAAAEAVbCString@@XZ
?AccessEntity1@gCInfoCommandHeal@@QEAAAEAVbCString@@XZ
?AccessEntity1@gCInfoCommandMoveTo@@QEAAAEAVbCString@@XZ
?AccessEntity1@gCInfoCommandSetGuardStatus@@QEAAAEAVbCString@@XZ
?AccessEntity1@gCInfoCommandSetMobEnabled@@QEAAAEAVbCString@@XZ
?AccessEntity1@gCInfoCommandSetPartyEnabled@@QEAAAEAVbCString@@XZ
?AccessEntity1@gCInfoCommandSetRelaxingPoint@@QEAAAEAVbCString@@XZ
?AccessEntity1@gCInfoCommandSetRoutine@@QEAAAEAVbCString@@XZ
?AccessEntity1@gCInfoCommandSetSlaveryEnabled@@QEAAAEAVbCString@@XZ
?AccessEntity1@gCInfoCommandSetSleepingPoint@@QEAAAEAVbCString@@XZ
?AccessEntity1@gCInfoCommandSetTeachEnabled@@QEAAAEAVbCString@@XZ
?AccessEntity1@gCInfoCommandSetTradeEnabled@@QEAAAEAVbCString@@XZ
?AccessEntity1@gCInfoCommandSetWorkingPoint@@QEAAAEAVbCString@@XZ
?AccessEntity1@gCInfoCommandSleep@@QEAAAEAVbCString@@XZ
?AccessEntity1@gCInfoCommandStartEffect@@QEAAAEAVbCString@@XZ
?AccessEntity1@gCInfoCommandTeach@@QEAAAEAVbCString@@XZ
?AccessEntity1@gCInfoCommandUse@@QEAAAEAVbCString@@XZ
?AccessEntity1@gCInfoCommandWear@@QEAAAEAVbCString@@XZ
?AccessEntity2@gCInfoCommand@@QEAAAEAVbCString@@XZ
?AccessEntity2@gCInfoCommandAttack@@QEAAAEAVbCString@@XZ
?AccessEntity2@gCInfoCommandDoLoot@@QEAAAEAVbCString@@XZ
?AccessEntity2@gCInfoCommandDoTrade@@QEAAAEAVbCString@@XZ
?AccessEntity2@gCInfoCommandGive@@QEAAAEAVbCString@@XZ
?AccessEntity2@gCInfoCommandHeal@@QEAAAEAVbCString@@XZ
?AccessEntity2@gCInfoCommandMoveTo@@QEAAAEAVbCString@@XZ
?AccessEntity2@gCInfoCommandSetRelaxingPoint@@QEAAAEAVbCString@@XZ
?AccessEntity2@gCInfoCommandSetSleepingPoint@@QEAAAEAVbCString@@XZ
?AccessEntity2@gCInfoCommandSetWorkingPoint@@QEAAAEAVbCString@@XZ
?AccessEntity@gCInfoConditionOwnerNearEntity@@QEAAAEAVeCEntityStringProxy@@XZ
?AccessEntity@gCInfoConditionSkillValue@@QEAAAEAVbCString@@XZ
?AccessEntity@gCMapEntry@@QEAAAEAVeCEntityStringProxy@@XZ
?AccessEntity@gCStateGraphEventFilterIsEntity@@QEAAAEAVeCEntityProxy@@XZ
?AccessEntityIndex@gCEffectCommandKillEntity@@QEAAAEAHXZ
?AccessEntityIndex@gCEffectCommandModifyEntity@@QEAAAEAHXZ
?AccessEntityIndex@gCEffectCommandSpawnEntity@@QEAAAEAHXZ
?AccessEntityIndex@gCEffectCommandSpawnEntitySwitch@@QEAAAEAHXZ
?AccessEntityIndex@gCEffectCommandTriggerEntity@@QEAAAEAHXZ
?AccessEntityLayers@gCSector@@QEAAAEAV?$bTRefPtrArray@PEAVgCDynamicLayer@@@@XZ
?AccessEntityType@gCDynamicLayer@@QEAAAEAV?$bTPropertyContainer@W4gEEntityType@@@@XZ
?AccessEquipScript@gCItem_PS@@QEAAAEAVeCScriptProxyScript@@XZ
?AccessEquipSlot@gCInventoryStack@@QEAAAEAV?$bTPropertyContainer@W4gEEquipSlot@@@@XZ
?AccessEvade@gCNavigation_PS@@QEAAAEAV?$bTValArray@VbCVector@@@@XZ
?AccessEventFailed@gCTutorialEvent@@QEAAAEAVbCString@@XZ
?AccessEventFilter@gCStateGraphAction@@QEAAAEAV?$bTRefPtrArray@PEAVgCStateGraphEventFilter@@@@XZ
?AccessEventSuccess@gCTutorialEvent@@QEAAAEAVbCString@@XZ
?AccessEventType@gCStateGraphAction@@QEAAAEAV?$bTPropertyContainer@W4gEStateGraphEventType@@@@XZ
?AccessExitROIScript@gCInteraction_PS@@QEAAAEAVeCScriptProxyScript@@XZ
?AccessExitScript@gCStateGraphActionCallScript@@QEAAAEAVeCScriptProxyScript@@XZ
?AccessExperiencePoints@gCQuest@@QEAAAEAKXZ
?AccessFOV@gCInfoCommandStartFixCamera@@QEAAAEAMXZ
?AccessFOVChangeSpeed@gCInfoCommandStartFixCamera@@QEAAAEAMXZ
?AccessFaceNormal@gCWaterSubZone_PS@@QEAAAEAVbCVector@@XZ
?AccessFactor@gCClock_PS@@QEAAAEAMXZ
?AccessFadeTime@gCStateGraphActionVisibility@@QEAAAEAMXZ
?AccessFailedQuestScript@gCQuest@@QEAAAEAVeCScriptProxyScript@@XZ
?AccessFallDownMinGroundDist@gCCharacterMovement_PS@@QEAAAEAMXZ
?AccessFallOff@gCEffectCommandPlaySound@@QEAAAEAV?$bTPropertyContainer@W4eEAudioChannelFallOff@@@@XZ
?AccessFallOff@gCEffectCommandPlayVoice@@QEAAAEAV?$bTPropertyContainer@W4eEAudioChannelFallOff@@@@XZ
?AccessFallSteerScaleFactor@gCCharacterMovement_PS@@QEAAAEAMXZ
?AccessFallVelocity@gCCharacterMovement_PS@@QEAAAEAMXZ
?AccessFallXZDecceleration@gCCharacterMovement_PS@@QEAAAEAMXZ
?AccessFallXZDeccelerationWarmUpTime@gCCharacterMovement_PS@@QEAAAEAMXZ
?AccessFallbackAniState@gCScriptRoutine_PS@@QEAAAEAV?$bTPropertyContainer@W4gEAniState@@@@XZ
?AccessFallbackStyle@gCCombatStyleAniPose@@QEAAAEAVbCString@@XZ
?AccessFastModifier@gCCharacterMovement_PS@@QEAAAEAMXZ
?AccessFightAIMode@gCCombatSystem_PS@@QEAAAEAV?$bTPropertyContainer@W4gECombatFightAIMode@@@@XZ
?AccessFightVoice@gCCombatSystem_PS@@QEAAAEAVbCString@@XZ
?AccessFileName@gCInfoCommandShowPicture@@QEAAAEAVbCString@@XZ
?AccessFilterScript@gCGUIFilter@@QEAAAEAVbCString@@XZ
?AccessFilterType@gCGUIFilter@@QEAAAEAV?$bTPropertyContainer@W4gEGUIFilterType@@@@XZ
?AccessFinishedQuests@gCQuest@@QEAAAEAV?$bTObjArray@VbCString@@@@XZ
?AccessFinishing@gCCombatStyleMelee@@QEAAAEAVbCString@@XZ
?AccessFinishingDuration@gCCombatMoveFinishing@@QEAAAEAMXZ
?AccessFlightPathBallistic@gCProjectile2_PS@@QEAAAEAVgCFlightPathBallistic@@XZ
?AccessFlightPathSeeking@gCProjectile2_PS@@QEAAAEAVgCFlightPathSeeking@@XZ
?AccessFlightPathType@gCProjectile2_PS@@QEAAAEAV?$bTPropertyContainer@W4gEFlightPathType@@@@XZ
?AccessFocusMode@gCCastInfo_PS@@QEAAAEAVbCString@@XZ
?AccessFocusNameBone@gCInteraction_PS@@QEAAAEAVbCString@@XZ
?AccessFocusNameType@gCInteraction_PS@@QEAAAEAV?$bTPropertyContainer@W4gEFocusNameType@@@@XZ
?AccessFocusPriority@gCInteraction_PS@@QEAAAEAV?$bTPropertyContainer@W4gEFocusPriority@@@@XZ
?AccessFocusPriorityScript@gCInteraction_PS@@QEAAAEAVeCScriptProxyScript@@XZ
?AccessFocusViewOffset@gCInteraction_PS@@QEAAAEAVbCVector@@XZ
?AccessFocusWorldOffset@gCInteraction_PS@@QEAAAEAVbCVector@@XZ
?AccessFolder@gCInfo@@QEAAAEAVbCString@@XZ
?AccessFollowAnimationFile@gCCombatMoveShoot@@QEAAAEAVbCString@@XZ
?AccessFollowAnimationFileP0@gCCombatMoveMelee@@QEAAAEAVbCString@@XZ
?AccessFollowAnimationFileP1@gCCombatMoveMelee@@QEAAAEAVbCString@@XZ
?AccessFollowAnimationFileP2@gCCombatMoveMelee@@QEAAAEAVbCString@@XZ
?AccessFollowMove@gCCombatMoveShoot@@QEAAAEAVbCString@@XZ
?AccessFollowMoveP0@gCCombatMoveFinishing@@QEAAAEAVbCString@@XZ
?AccessFollowMoveP0@gCCombatMoveMelee@@QEAAAEAVbCString@@XZ
?AccessFollowMoveP1@gCCombatMoveFinishing@@QEAAAEAVbCString@@XZ
?AccessFollowMoveP1@gCCombatMoveMelee@@QEAAAEAVbCString@@XZ
?AccessFollowMoveP2@gCCombatMoveFinishing@@QEAAAEAVbCString@@XZ
?AccessFollowMoveP2@gCCombatMoveMelee@@QEAAAEAVbCString@@XZ
?AccessFollowStateName@gCStateGraphActionFollowState@@QEAAAEAVbCString@@XZ
?AccessForce@gCCombatMoveMelee@@QEAAAEAMXZ
?AccessForceCameraReset@gCInfoCommandStartFixCamera@@QEAAAEA_NXZ
?AccessForceGroundAlignment@gCCharacterMovement_PS@@QEAAAEA_NXZ
?AccessForwardSpeedMax@gCCharacterMovement_PS@@QEAAAEAMXZ
?AccessFriendlyName@gCAchievement@@QEAAAEAVbCString@@XZ
?AccessGameEvent@gCInfoCommandClearGameEvent@@QEAAAEAVbCString@@XZ
?AccessGameEvent@gCInfoCommandSetGameEvent@@QEAAAEAVbCString@@XZ
?AccessGender@gCNPC_PS@@QEAAAEAV?$bTPropertyContainer@W4gEGender@@@@XZ
?AccessGeneratedPlunder@gCInventory_PS@@QEAAAEA_NXZ
?AccessGeneratedTrade@gCInventory_PS@@QEAAAEA_NXZ
?AccessGesture@gCInfoCommandPickPocket@@QEAAAEAV?$bTPropertyContainer@W4gEInfoGesture@@@@XZ
?AccessGesture@gCInfoCommandSay@@QEAAAEAV?$bTPropertyContainer@W4gEInfoGesture@@@@XZ
?AccessGesture@gCInfoCommandSaySVM@@QEAAAEAV?$bTPropertyContainer@W4gEInfoGesture@@@@XZ
?AccessGesture@gCInfoCommandThink@@QEAAAEAV?$bTPropertyContainer@W4gEInfoGesture@@@@XZ
?AccessGoldCost@gCInfo@@QEAAAEAJXZ
?AccessGoldValue@gCItem_PS@@QEAAAEAJXZ
?AccessGravity@gCFlightPathBallistic@@QEAAAEAMXZ
?AccessGroundBias@gCInteraction_PS@@QEAAAEA_NXZ
?AccessGroundSlopeTransInertia@gCCharacterMovement_PS@@QEAAAEAMXZ
?AccessGroup@gCAIZone_PS@@QEAAAEAVbCString@@XZ
?AccessGroup@gCNPC_PS@@QEAAAEAVbCString@@XZ
?AccessGroup@gCStateGraphEventFilterCollisionShape@@QEAAAEAV?$bTPropertyContainer@W4eEShapeGroup@@@@XZ
?AccessGuardPoint@gCNPC_PS@@QEAAAEAVeCEntityProxy@@XZ
?AccessGuardStatus@gCInfoCommandSetGuardStatus@@QEAAAEAV?$bTPropertyContainer@W4gEGuardStatus@@@@XZ
?AccessGuardStatus@gCNPC_PS@@QEAAAEAV?$bTPropertyContainer@W4gEGuardStatus@@@@XZ
?AccessGuideWalkMode@gCNavigation_PS@@QEAAAEAV?$bTPropertyContainer@W4gEWalkMode@@@@XZ
?AccessGuideWalkMode@gCQuest@@QEAAAEAV?$bTPropertyContainer@W4gEWalkMode@@@@XZ
?AccessGuild@gCAIZone_PS@@QEAAAEAV?$bTPropertyContainer@W4gEGuild@@@@XZ
?AccessGuild@gCNPC_PS@@QEAAAEAV?$bTPropertyContainer@W4gEGuild@@@@XZ
?AccessHeader@gCBook_PS@@QEAAAEAVgCBookLocString@@XZ
?AccessHeader@gCLetter_PS@@QEAAAEAVgCLetterLocString@@XZ
?AccessHintCondition@gCTutorialHint@@QEAAAEAVeCScriptProxyScript@@XZ
?AccessHintImage@gCTutorialHint@@QEAAAEAVeCGuiBitmapProxy2@@XZ
?AccessHintText@gCTutorialHint@@QEAAAEAVeCLocString@@XZ
?AccessHints@gCTutorialHintCollection@@QEAAAEAV?$bTObjArray@VgCTutorialHint@@@@XZ
?AccessHitBone@gCDamage_PS@@QEAAAEAHXZ
?AccessHitDirection@gCCombatMoveMelee@@QEAAAEAV?$bTPropertyContainer@W4gECombatHitDirection@@@@XZ
?AccessHitDirection@gCScriptRoutine_PS@@QEAAAEAV?$bTPropertyContainer@W4gEHitDirection@@@@XZ
?AccessHitDistanceOffset@gCCombatMoveMelee@@QEAAAEAMXZ
?AccessHitEffectOffset@gCCombatMoveMelee@@QEAAAEAMXZ
?AccessHitPoint@gCCombatMoveFinishing@@QEAAAEAMXZ
?AccessHitRange@gCCombatStyleMelee@@QEAAAEAMXZ
?AccessHitScript@gCCombatMoveFinishing@@QEAAAEAVeCScriptProxyScript@@XZ
?AccessHitSlomoDuration@gCCombatMoveMelee@@QEAAAEAMXZ
?AccessHitSufferRadius@gCCombatSpecies@@QEAAAEAMXZ
?AccessHoldDuration@gCCombatMoveParade@@QEAAAEAMXZ
?AccessHoldOffset@gCItem_PS@@QEAAAEAVbCVector@@XZ
?AccessHoldType@gCItem_PS@@QEAAAEAV?$bTPropertyContainer@W4gEItemHoldType@@@@XZ
?AccessHour@gCClock_PS@@QEAAAEAKXZ
?AccessID@gCAchievement@@QEAAAEAKXZ
?AccessIcon@gCInventoryList@@QEAAAEAV?$bTPropertyContainer@W4gEIcon@@@@XZ
?AccessIconImage@gCItem_PS@@QEAAAEAVeCGuiBitmapProxy2@@XZ
?AccessIgnoreTutorialEventCondition@gCInfoCommandStartTutorial@@QEAAAEA_NXZ
?AccessImage@gCMap_PS@@QEAAAEAVeCGuiBitmapProxy2@@XZ
?AccessImageEffect@gCEffectCommandStartImageEffect@@QEAAAEAVbCString@@XZ
?AccessImageID@gCAchievement@@QEAAAEAKXZ
?AccessImgSecretName@gCAchievementAdmin@@QEAAAEAVbCString@@XZ
?AccessImgUnachievedName@gCAchievementAdmin@@QEAAAEAVbCString@@XZ
?AccessInDialog@gCEffectCommandPlaySound@@QEAAAEA_NXZ
?AccessInDialog@gCEffectCommandPlayVoice@@QEAAAEA_NXZ
?AccessInDialog@gCEffectCommandSaySVM@@QEAAAEA_NXZ
?AccessInfo@gCInfoCommandRunInfo@@QEAAAEAVbCString@@XZ
?AccessInfoColor@gCQuestLogFrame2@@QEAAAEAVbCByteAlphaColor@@XZ
?AccessInfoGiven@gCInfo@@QEAAAEA_NXZ
?AccessInfoIsRunnig@gCInfo@@QEAAAEA_NXZ
?AccessInnerRadius@gCEffectCommandEarthquake@@QEAAAEAMXZ
?AccessInteractScript@gCInteraction@@QEAAAEAVgCScriptProxyAIFunction@@XZ
?AccessInteractionCounter@gCInteraction_PS@@QEAAAEAHXZ
?AccessIntersectScript@gCInteraction_PS@@QEAAAEAVeCScriptProxyScript@@XZ
?AccessInteruptCurrentState@gCStateGraphActionFollowState@@QEAAAEA_NXZ
?AccessInteruptable@gCCombatMoveOverlayStumble@@QEAAAEA_NXZ
?AccessInteruptableBegin@gCCombatMoveMelee@@QEAAAEAMXZ
?AccessIntuition@gCCombatAIMelee@@QEAAAEAMXZ
?AccessIsCompleted@gCTutorialEvent@@QEAAAEA_NXZ
?AccessIsCurrentStatus@gCInfoConditionQuestStatus@@QEAAAEA_NXZ
?AccessIsDangerousWeapon@gCItem_PS@@QEAAAEA_NXZ
?AccessIsInteruptable@gCCombatMoveMelee@@QEAAAEA_NXZ
?AccessIsOnDestinationTimeStamp@gCNavigation_PS@@QEAAAEAKXZ
?AccessIsPermanent@gCTutorialEvent@@QEAAAEA_NXZ
?AccessIsQuadruped@gCCharacterMovement_PS@@QEAAAEA_NXZ
?AccessItem@gCInfoCommandCreateItem@@QEAAAEAVeCTemplateEntityProxy@@XZ
?AccessItem@gCInfoCommandDestroyItem@@QEAAAEAVeCTemplateEntityProxy@@XZ
?AccessItem@gCInfoCommandGive@@QEAAAEAVeCTemplateEntityProxy@@XZ
?AccessItem@gCInfoCommandUse@@QEAAAEAVeCTemplateEntityProxy@@XZ
?AccessItem@gCInfoCommandWear@@QEAAAEAVeCTemplateEntityProxy@@XZ
?AccessItem@gCInfoConditionItemAmount@@QEAAAEAVeCTemplateEntityProxy@@XZ
?AccessItem@gCInteractionSlot@@QEAAAEAVeCEntityProxy@@XZ
?AccessItemAmount@gCCraftIngredient@@QEAAAEAKXZ
?AccessItemAmount@gCInfoConditionItemAmount@@QEAAAEAKXZ
?AccessItemInventory@gCItem_PS@@QEAAAEAVeCTemplateEntityProxy@@XZ
?AccessItemLinkFrame@gCCombatMoveReload@@QEAAAEAMXZ
?AccessItemTemplate@gCCraftIngredient@@QEAAAEAVeCTemplateEntityProxy@@XZ
?AccessItemWorld@gCItem_PS@@QEAAAEAVeCTemplateEntityProxy@@XZ
?AccessItems@gCEffectCommandPlaySound@@QEAAAEAV?$bTObjArray@UgSEffectCommandPlaySoundItem@@@@XZ
?AccessItems@gCEffectCommandSpawnEntityList@@QEAAAEAV?$bTObjArray@UgSEffectCommandSpawnEntityListItem@@@@XZ
?AccessItems@gCEffectCommandSpawnEntitySwitch@@QEAAAEAV?$bTObjArray@UgSEffectCommandSpawnEntitySwitchItem@@@@XZ
?AccessJumpBack@gCCombatSpecies@@QEAAAEAVbCString@@XZ
?AccessJumpFlightGravity@gCCharacterMovement_PS@@QEAAAEAMXZ
?AccessJumpFrontSpeedFactor@gCCharacterMovement_PS@@QEAAAEAMXZ
?AccessJumpHeight@gCCharacterMovement_PS@@QEAAAEAMXZ
?AccessJumpRotationCtrlFactor@gCCharacterMovement_PS@@QEAAAEAMXZ
?AccessJumpTranslationCtrlFactor@gCCharacterMovement_PS@@QEAAAEAMXZ
?AccessKey@gCLock_PS@@QEAAAEAVeCTemplateEntityProxy@@XZ
?AccessLastAIMode@gCScriptRoutine_PS@@QEAAAEAV?$bTPropertyContainer@W4gEAIMode@@@@XZ
?AccessLastAttackerEntity@gCNPC_PS@@QEAAAEAVeCEntityProxy@@XZ
?AccessLastClimbTestReport@gCCharacterMovement_PS@@QEAAPEAUgSClimbTestReport@1@XZ
?AccessLastCommentTimestamp@gCNPC_PS@@QEAAAEAMXZ
?AccessLastDistToGuardPoint@gCNPC_PS@@QEAAAEAMXZ
?AccessLastDistToTarget@gCNPC_PS@@QEAAAEAMXZ
?AccessLastFallVelocity@gCCharacterMovement_PS@@QEAAAEAMXZ
?AccessLastFightAgainstPlayer@gCNPC_PS@@QEAAAEAV?$bTPropertyContainer@W4gEFight@@@@XZ
?AccessLastFightTimestamp@gCNPC_PS@@QEAAAEAMXZ
?AccessLastFramePose@gCDynamicCollisionCircle_PS@@QEAAAEAVbCMotion@@XZ
?AccessLastObstacleID@gCNavigation_PS@@QEAAAEAVbCPropertyID@@XZ
?AccessLastPlayerAR@gCNPC_PS@@QEAAAEAV?$bTPropertyContainer@W4gEReason@@@@XZ
?AccessLastPlayerComment@gCNPC_PS@@QEAAAEAV?$bTPropertyContainer@W4gEComment@@@@XZ
?AccessLastPlayerCrime@gCNPC_PS@@QEAAAEAV?$bTPropertyContainer@W4gECrime@@@@XZ
?AccessLastReason@gCNPC_PS@@QEAAAEAV?$bTPropertyContainer@W4gEReason@@@@XZ
?AccessLastTask@gCScriptRoutine_PS@@QEAAAEAVbCString@@XZ
?AccessLastUseableNavigationPosition@gCNavigation_PS@@QEAAAEAVbCVector@@XZ
?AccessLastUseableNavigationZoneIsPath@gCNavigation_PS@@QEAAAEA_NXZ
?AccessLastUseableNavigationZoneProxy@gCNavigation_PS@@QEAAAEAVeCEntityProxy@@XZ
?AccessLastZoneEntityProxy@gCNavigation_PS@@QEAAAEAVeCEntityProxy@@XZ
?AccessLearnPointCost@gCInfo@@QEAAAEAJXZ
?AccessLeftFistItem@gCCombatSpecies@@QEAAAEAVeCTemplateEntityProxy@@XZ
?AccessLeftText@gCBook_PS@@QEAAAEAVgCBookLocString@@XZ
?AccessLeftUseType@gCCombatWeaponConfig@@QEAAAEAV?$bTPropertyContainer@W4gEItemUseType@@@@XZ
?AccessLevitationFallVelo@gCCharacterMovement_PS@@QEAAAEAMXZ
?AccessLevitationMaxUpwardMove@gCCharacterMovement_PS@@QEAAAEAMXZ
?AccessLevitationModifier@gCCharacterMovement_PS@@QEAAAEAMXZ
?AccessLevitationUpVelo@gCCharacterMovement_PS@@QEAAAEAMXZ
?AccessLinkInnerArea@gCNavPath_PS@@QEAAAEA_NXZ
?AccessLinkInnerArea@gCNavZone_PS@@QEAAAEA_NXZ
?AccessLinkInnerBottomArea@gCNavPath_PS@@QEAAAEA_NXZ
?AccessLinkInnerBottomArea@gCNavZone_PS@@QEAAAEA_NXZ
?AccessLinkInnerTopArea@gCNavPath_PS@@QEAAAEA_NXZ
?AccessLinkInnerTopArea@gCNavZone_PS@@QEAAAEA_NXZ
?AccessLinkedToEntityProxy@gCNavHelper_PS@@QEAAAEAVeCEntityProxy@@XZ
?AccessLinkedToSecondEntityProxy@gCNavHelper_PS@@QEAAAEAVeCEntityProxy@@XZ
?AccessListener@gCInfoCommandPickPocket@@QEAAAEAVbCString@@XZ
?AccessListener@gCInfoCommandSay@@QEAAAEAVbCString@@XZ
?AccessListener@gCInfoCommandSayConfirm@@QEAAAEAVbCString@@XZ
?AccessListener@gCInfoCommandSayHoldingPosition@@QEAAAEAVbCString@@XZ
?AccessListener@gCInfoCommandSayKeepItUp@@QEAAAEAVbCString@@XZ
?AccessListener@gCInfoCommandSaySVM@@QEAAAEAVbCString@@XZ
?AccessLocation@gCInfoCommandAddNPCInfo@@QEAAAEAV?$bTPropertyContainer@W4gEInfoLocation@@@@XZ
?AccessLocation@gCInfoCommandRemoveNPCInfo@@QEAAAEAV?$bTPropertyContainer@W4gEInfoLocation@@@@XZ
?AccessLocationInfo@gCQuest@@QEAAAEAV?$bTPropertyContainer@W4gEInfoLocation@@@@XZ
?AccessLockAIInterrupt@gCScriptRoutine_PS@@QEAAAEA_NXZ
?AccessLockAIResult@gCScriptRoutine_PS@@QEAAAEA_NXZ
?AccessLogText@gCQuest@@QEAAAEAV?$bTObjArray@USLogEntry@gCQuest@@@@XZ
?AccessLogTopic@gCQuest@@QEAAAEAVgCQuestLocString@@XZ
?AccessLoopMode@gCEffect_PS@@QEAAAEAV?$bTPropertyContainer@W4gEEffectLoopMode@@@@XZ
?AccessLoopSound@gCEffectCommandPlaySound@@QEAAAEA_NXZ
?AccessLostQuestScript@gCQuest@@QEAAAEAVeCScriptProxyScript@@XZ
?AccessLowerDuration@gCCombatMoveAim@@QEAAAEAVbCRange1@@XZ
?AccessMainSortID@gCInfo@@QEAAAEAJXZ
?AccessManaCost@gCCastInfo_PS@@QEAAAEAJXZ
?AccessMapBottomRight@gCMap_PS@@QEAAAEAVbCVector2@@XZ
?AccessMapImage@gCMapInfo_PS@@QEAAAEAVeCGuiBitmapProxy2@@XZ
?AccessMapTopLeft@gCMap_PS@@QEAAAEAVbCVector2@@XZ
?AccessMarker@gCMap_PS@@QEAAAEAV?$bTObjArray@VgCMapEntry@@@@XZ
?AccessMaterial@gCStateGraphEventFilterCollisionShape@@QEAAAEAV?$bTPropertyContainer@W4eEShapeMaterial@@@@XZ
?AccessMaxDistance@gCCombatAI@@QEAAAEAMXZ
?AccessMaxDistance@gCEffectCommandPlaySound@@QEAAAEAMXZ
?AccessMaxDistance@gCEffectCommandPlayVoice@@QEAAAEAMXZ
?AccessMaxDistance@gCInfoCommandStartFixCamera@@QEAAAEAMXZ
?AccessMaxDistanceToTarget@gCCombatMoveFinishing@@QEAAAEAMXZ
?AccessMaxEntityIndex@gCEffectCommandKillEntityRange@@QEAAAEAHXZ
?AccessMaxNumRepeats@gCEffect_PS@@QEAAAEAVbCRange1@@XZ
?AccessMaxUsers@gCAnchor_PS@@QEAAAEAKXZ
?AccessMaxValue@gCSkillRange@@QEAAAEAJXZ
?AccessMaxVariationCount@gCEffectCommandSaySVM@@QEAAAEAHXZ
?AccessMaxWaitDuration@gCCombatAI@@QEAAAEAMXZ
?AccessMaxWalkDuration@gCCombatAI@@QEAAAEAMXZ
?AccessMaxX@gCWaterSubZone_PS@@QEAAAEAMXZ
?AccessMaxZ@gCWaterSubZone_PS@@QEAAAEAMXZ
?AccessMeleeDistanceRadius@gCCombatSpecies@@QEAAAEAMXZ
?AccessMinDistance@gCCombatAI@@QEAAAEAMXZ
?AccessMinDistance@gCEffectCommandPlaySound@@QEAAAEAMXZ
?AccessMinDistance@gCEffectCommandPlayVoice@@QEAAAEAMXZ
?AccessMinDistance@gCInfoCommandStartFixCamera@@QEAAAEAMXZ
?AccessMinEntityIndex@gCEffectCommandKillEntityRange@@QEAAAEAHXZ
?AccessMinValue@gCSkillRange@@QEAAAEAJXZ
?AccessMinWaitDuration@gCCombatAI@@QEAAAEAMXZ
?AccessMinWalkDuration@gCCombatAI@@QEAAAEAMXZ
?AccessMinX@gCWaterSubZone_PS@@QEAAAEAMXZ
?AccessMinZ@gCWaterSubZone_PS@@QEAAAEAMXZ
?AccessMinute@gCClock_PS@@QEAAAEAKXZ
?AccessMissionItem@gCItem_PS@@QEAAAEA_NXZ
?AccessMobEnabled@gCDialog_PS@@QEAAAEA_NXZ
?AccessMobEnabled@gCInfoCommandSetMobEnabled@@QEAAAEA_NXZ
?AccessModifier@gCModifySkill@@QEAAAEAV?$bTPropertyContainer@W4gESkillModifier@@@@XZ
?AccessModifySkills@gCItem_PS@@QEAAAEAV?$bTObjArray@VgCModifySkill@@@@XZ
?AccessModifySkillsSuccess@gCQuest@@QEAAAEAV?$bTObjArray@VgCModifySkill@@@@XZ
?AccessMoveAcceleration@gCCharacterMovement_PS@@QEAAAEAMXZ
?AccessMoveAcceleration@gCInfoCommandStartFixCamera@@QEAAAEAMXZ
?AccessMoveCombatAction@gCCombatMoveScriptState@@QEAAAEAV?$bTPropertyContainer@W4gECombatAction@@@@XZ
?AccessMoveDecceleration@gCCharacterMovement_PS@@QEAAAEAMXZ
?AccessMoveDecceleration@gCInfoCommandStartFixCamera@@QEAAAEAMXZ
?AccessMoveDuration@gCCombatMoveFinishing@@QEAAAEAMXZ
?AccessMoveDuration@gCCombatMoveMelee@@QEAAAEAMXZ
?AccessMoveDuration@gCCombatMoveStumble@@QEAAAEAMXZ
?AccessMoveGoBack@gCCombatStyle@@QEAAAEAVbCString@@XZ
?AccessMoveGoFwd@gCCombatStyle@@QEAAAEAVbCString@@XZ
?AccessMoveGoLeft@gCCombatStyle@@QEAAAEAVbCString@@XZ
?AccessMoveGoRight@gCCombatStyle@@QEAAAEAVbCString@@XZ
?AccessMoveGoTo@gCCombatStyle@@QEAAAEAVbCString@@XZ
?AccessMoveSpeedMax@gCInfoCommandStartFixCamera@@QEAAAEAMXZ
?AccessMoveStormTo@gCCombatStyleMelee@@QEAAAEAVbCString@@XZ
?AccessMoveWait@gCCombatStyle@@QEAAAEAVbCString@@XZ
?AccessMovementBegin@gCCombatMoveFinishing@@QEAAAEAMXZ
?AccessMovementBegin@gCCombatMoveMelee@@QEAAAEAMXZ
?AccessMovementBegin@gCCombatMoveStumble@@QEAAAEAMXZ
?AccessMovementDirection@gCCombatMoveMelee@@QEAAAEAMXZ
?AccessMovementDistance@gCCombatMoveMelee@@QEAAAEAMXZ
?AccessMovementDistance@gCCombatMoveStumble@@QEAAAEAMXZ
?AccessMovementDuration@gCCombatMoveOverlayStumble@@QEAAAEAMXZ
?AccessMovementEnd@gCCombatMoveFinishing@@QEAAAEAMXZ
?AccessMovementEnd@gCCombatMoveMelee@@QEAAAEAMXZ
?AccessMovementEnd@gCCombatMoveStumble@@QEAAAEAMXZ
?AccessMovementFadeIn@gCCombatMoveOverlayStumble@@QEAAAEAMXZ
?AccessMovementFadeOut@gCCombatMoveOverlayStumble@@QEAAAEAMXZ
?AccessMovementVelocity@gCCombatMoveOverlayStumble@@QEAAAEAMXZ
?AccessNPC@gCInfoCommandAddNPCInfo@@QEAAAEAVbCString@@XZ
?AccessNPC@gCInfoCommandKillNPC@@QEAAAEAVbCString@@XZ
?AccessNPC@gCInfoCommandRemoveNPC@@QEAAAEAVbCString@@XZ
?AccessNPC@gCInfoCommandRemoveNPCInfo@@QEAAAEAVbCString@@XZ
?AccessNPC@gCInfoCommandTeleportNPC@@QEAAAEAVbCString@@XZ
?AccessNPCEvadeSwitch@gCNavigation_PS@@QEAAAEAUgSObstacleEvadeSwitch@1@XZ
?AccessName@gCCombatObject@@QEAAAEAVbCString@@XZ
?AccessName@gCInfo@@QEAAAEAVbCString@@XZ
?AccessName@gCSessionInfo@@QEAAAEAVbCString@@XZ
?AccessName@gCStateGraphState@@QEAAAEAVbCString@@XZ
?AccessNavTestResult@gCAIHelper_FreePoint_PS@@QEAAAEAV?$bTPropertyContainer@W4gENavTestResult@@@@XZ
?AccessNavTestResult@gCNavOffset_PS@@QEAAAEAV?$bTPropertyContainer@W4gENavTestResult@@@@XZ
?AccessNavTestResult@gCNavPath_PS@@QEAAAEAV?$bTPropertyContainer@W4gENavTestResult@@@@XZ
?AccessNavTestResult@gCNavZone_PS@@QEAAAEAV?$bTPropertyContainer@W4gENavTestResult@@@@XZ
?AccessNavTestResult@gCNegZone_PS@@QEAAAEAV?$bTPropertyContainer@W4gENavTestResult@@@@XZ
?AccessNavTestResult@gCNegZone_PSObj@@QEAAAEAW4gENavTestResult@@XZ
?AccessNavTestResult@gCPrefPath_PS@@QEAAAEAV?$bTPropertyContainer@W4gENavTestResult@@@@XZ
?AccessNavTestResult@gCPrefPath_PSObj@@QEAAAEAW4gENavTestResult@@XZ
?AccessNavZoneEntityID@gCNegZone_PSObj@@QEAAAEAVbCPropertyID@@XZ
?AccessNavZoneEntityID@gCPrefPath_PSObj@@QEAAAEAVbCPropertyID@@XZ
?AccessNavZoneEntityIDs@gCCollisionCircle_PSObj@@QEAAAEAV?$bTValArray@VbCPropertyID@@@@XZ
?AccessNext@gCNavigation_PS@@QEAAAEAV?$bTValArray@VbCMotion@@@@XZ
?AccessNumHoursPlayed@gCSessionInfo@@QEAAAEAMXZ
?AccessObsoleteQuestScript@gCQuest@@QEAAAEAVeCScriptProxyScript@@XZ
?AccessObstacleEvadeSwitch@gCNavigation_PS@@QEAAAEAUgSObstacleEvadeSwitch@1@XZ
?AccessOffset@gCCollisionCircle_PS@@QEAAAEAV?$bTValArray@VbCVector@@@@XZ
?AccessOffset@gCEffectCommandPlaySound@@QEAAAEAVbCVector@@XZ
?AccessOffset@gCEffectCommandSpawnEntity@@QEAAAEAVbCMotion@@XZ
?AccessOffset@gCEffectCommandSpawnEntityList@@QEAAAEAVbCMotion@@XZ
?AccessOffset@gCEffectCommandSpawnEntitySwitch@@QEAAAEAVbCMotion@@XZ
?AccessOffset@gCEffect_PS@@QEAAAEAVbCVector@@XZ
?AccessOffset@gCInteractionSlot@@QEAAAEAVbCMatrix@@XZ
?AccessOffset@gCStateGraphActionStartEffect@@QEAAAEAVbCVector@@XZ
?AccessOffsetCircle@gCNavOffset_PS@@QEAAAEA_NXZ
?AccessOffsetPose@gCNavOffset_PS@@QEAAAEAV?$bTValArray@VbCMotion@@@@XZ
?AccessOnAbort@gCHudDialog2@@QEAAAEAVeCScriptProxyScript@@XZ
?AccessOnCalcAimAngle@gCCombatMoveAim@@QEAAAEAVeCScriptProxyScript@@XZ
?AccessOnCalcAimStretch@gCCombatMoveAim@@QEAAAEAVeCScriptProxyScript@@XZ
?AccessOnCalcShootAngle@gCCombatMoveShoot@@QEAAAEAVeCScriptProxyScript@@XZ
?AccessOnContact@gCWaterZone_PS@@QEAAAEAVeCScriptProxyScript@@XZ
?AccessOnDragEnter@gCInventoryList@@QEAAAEAVeCScriptProxyScript@@XZ
?AccessOnDrop@gCInventoryList@@QEAAAEAVeCScriptProxyScript@@XZ
?AccessOnEnterState@gCStateGraph_PS@@QEAAAEAVeCScriptProxyScript@@XZ
?AccessOnEnterWater@gCNavigation_PS@@QEAAAEAVeCScriptProxyScript@@XZ
?AccessOnEscape@gCHudDialog2@@QEAAAEAVeCScriptProxyScript@@XZ
?AccessOnExitState@gCStateGraph_PS@@QEAAAEAVeCScriptProxyScript@@XZ
?AccessOnGameEnd@gCGameScript_PS@@QEAAAEAVeCScriptProxyScript@@XZ
?AccessOnGameInit@gCGameScript_PS@@QEAAAEAVeCScriptProxyScript@@XZ
?AccessOnGamePauseEnd@gCGameScript_PS@@QEAAAEAVeCScriptProxyScript@@XZ
?AccessOnGamePauseProcess@gCGameScript_PS@@QEAAAEAVeCScriptProxyScript@@XZ
?AccessOnGamePauseStart@gCGameScript_PS@@QEAAAEAVeCScriptProxyScript@@XZ
?AccessOnGameProcess@gCGameScript_PS@@QEAAAEAVeCScriptProxyScript@@XZ
?AccessOnGameStart@gCGameScript_PS@@QEAAAEAVeCScriptProxyScript@@XZ
?AccessOnGetFAIWeight@gCCombatMoveReload@@QEAAAEAVeCScriptProxyScript@@XZ
?AccessOnGetFAIWeight@gCCombatMoveScriptState@@QEAAAEAVeCScriptProxyScript@@XZ
?AccessOnGetFAIWeight@gCCombatMoveShoot@@QEAAAEAVeCScriptProxyScript@@XZ
?AccessOnGetSpeedFactor@gCCombatMoveAim@@QEAAAEAVeCScriptProxyScript@@XZ
?AccessOnGetSpeedFactor@gCCombatMoveReload@@QEAAAEAVeCScriptProxyScript@@XZ
?AccessOnGetSpeedFactor@gCCombatMoveShoot@@QEAAAEAVeCScriptProxyScript@@XZ
?AccessOnHitScript@gCProjectile2_PS@@QEAAAEAVeCScriptProxyScript@@XZ
?AccessOnInit@gCHudDialog2@@QEAAAEAVeCScriptProxyScript@@XZ
?AccessOnIntersectScript@gCProjectile2_PS@@QEAAAEAVeCScriptProxyScript@@XZ
?AccessOnItemClick@gCInventoryList@@QEAAAEAVeCScriptProxyScript@@XZ
?AccessOnItemDoubleClick@gCInventoryList@@QEAAAEAVeCScriptProxyScript@@XZ
?AccessOnKeyDown@gCHudDialog2@@QEAAAEAVeCScriptProxyScript@@XZ
?AccessOnKeyDown@gCInventoryList@@QEAAAEAVeCScriptProxyScript@@XZ
?AccessOnLButtonDown@gCHudDialog2@@QEAAAEAVeCScriptProxyScript@@XZ
?AccessOnLeaveWater@gCNavigation_PS@@QEAAAEAVeCScriptProxyScript@@XZ
?AccessOnLinkItem@gCCombatMoveReload@@QEAAAEAVeCScriptProxyScript@@XZ
?AccessOnLockStatusChanged@gCLock_PS@@QEAAAEAVeCScriptProxyScript@@XZ
?AccessOnMButtonDown@gCHudDialog2@@QEAAAEAVeCScriptProxyScript@@XZ
?AccessOnRButtonDown@gCHudDialog2@@QEAAAEAVeCScriptProxyScript@@XZ
?AccessOnShoot@gCCombatMoveShoot@@QEAAAEAVeCScriptProxyScript@@XZ
?AccessOnSpin@gCSpinButton@@QEAAAEAVeCScriptProxyScript@@XZ
?AccessOnStackChanged@gCInventoryList@@QEAAAEAVeCScriptProxyScript@@XZ
?AccessOnStartAutoCombo@gCCombatMoveShoot@@QEAAAEAVeCScriptProxyScript@@XZ
?AccessOnWater@gCNavigation_PS@@QEAAAEAVeCScriptProxyScript@@XZ
?AccessOnWheelDown@gCHudDialog2@@QEAAAEAVeCScriptProxyScript@@XZ
?AccessOnWheelUp@gCHudDialog2@@QEAAAEAVeCScriptProxyScript@@XZ
?AccessOnX1ButtonDown@gCHudDialog2@@QEAAAEAVeCScriptProxyScript@@XZ
?AccessOnX2ButtonDown@gCHudDialog2@@QEAAAEAVeCScriptProxyScript@@XZ
?AccessOnlyPlayerAsTarget@gCNavPath_PS@@QEAAAEA_NXZ
?AccessOriginImportName@gCDynamicLayer@@QEAAAEAVbCString@@XZ
?AccessOther@gCEffectCommandRunScript@@QEAAAEAVbCString@@XZ
?AccessOther@gCInfoCommandAddInfoSystemEndScript@@QEAAAEAVbCString@@XZ
?AccessOther@gCInfoCommandRunAIScript@@QEAAAEAVbCString@@XZ
?AccessOther@gCInfoCommandRunScript@@QEAAAEAVbCString@@XZ
?AccessOther@gCInfoConditionScript@@QEAAAEAVbCString@@XZ
?AccessOtherType@gCEffectCommandRunScript@@QEAAAEAV?$bTPropertyContainer@W4gEEffectScriptOtherType@@@@XZ
?AccessOtherType@gCInfoCommandRunScript@@QEAAAEAV?$bTPropertyContainer@W4gEOtherType@@@@XZ
?AccessOuterRadius@gCEffectCommandEarthquake@@QEAAAEAMXZ
?AccessOverlay@gCMapEntry@@QEAAAEAVeCGuiBitmapProxy2@@XZ
?AccessOverlayAnimations@gCCombatMoveShoot@@QEAAAEA_NXZ
?AccessOverlayBlend@gCCombatMoveParade@@QEAAAEA_NXZ
?AccessOverlayClient@gCQuest@@QEAAAEAVeCGuiBitmapProxy2@@XZ
?AccessOverlayTarget@gCQuest@@QEAAAEAVeCGuiBitmapProxy2@@XZ
?AccessOverwriteAttackType@gCCombatMoveMelee@@QEAAAEA_NXZ
?AccessOvlDisabled@gCInventoryList@@QEAAAEAVeCGuiBitmapProxy2@@XZ
?AccessOvlEquipslot@gCInventoryList@@QEAAAEAVeCGuiBitmapProxy2@@XZ
?AccessOvlQuickslot@gCInventoryList@@QEAAAEAVeCGuiBitmapProxy2@@XZ
?AccessOwner@gCInfo@@QEAAAEAVbCString@@XZ
?AccessOwner@gCInfoConditionItemAmount@@QEAAAEAVeCEntityStringProxy@@XZ
?AccessOwner@gCInteraction_PS@@QEAAAEAVeCEntityProxy@@XZ
?AccessPageControl@gCHudPage2@@QEAAAEAVeCScriptProxyScript@@XZ
?AccessPageID@gCHudPage2@@QEAAAEAV?$bTPropertyContainer@W4gEHudPage@@@@XZ
?AccessParade1@gCCombatStyleMelee@@QEAAAEAVbCString@@XZ
?AccessParade@gCCombatStyleMelee@@QEAAAEAVbCString@@XZ
?AccessParadeAngle@gCCombatMoveParade@@QEAAAEAMXZ
?AccessParadeReaction@gCCombatMoveMelee@@QEAAAEAV?$bTPropertyContainer@W4gECombatMove@@@@XZ
?AccessParadeStumble@gCCombatStyleMelee@@QEAAAEAVbCString@@XZ
?AccessParadeStumbleHeavy@gCCombatStyleMelee@@QEAAAEAVbCString@@XZ
?AccessParadeType@gCCombatStyle@@QEAAAEAV?$bTPropertyContainer@W4gECombatParadeType@@@@XZ
?AccessParam@gCEffectCommandRunScript@@QEAAAEAHXZ
?AccessParam@gCInfoCommandAddInfoSystemEndScript@@QEAAAEAHXZ
?AccessParam@gCInfoCommandRunAIScript@@QEAAAEAHXZ
?AccessParam@gCInfoCommandRunScript@@QEAAAEAHXZ
?AccessParam@gCInfoConditionScript@@QEAAAEAHXZ
?AccessParamType@gCEffectCommandRunScript@@QEAAAEAV?$bTPropertyContainer@W4gEEffectScriptParamType@@@@XZ
?AccessParent@gCInfo@@QEAAAEAVbCString@@XZ
?AccessPartyArea@gCParty_PS@@QEAAAEAVbCString@@XZ
?AccessPartyEnabled@gCDialog_PS@@QEAAAEA_NXZ
?AccessPartyEnabled@gCInfoCommandSetPartyEnabled@@QEAAAEA_NXZ
?AccessPartyMemberType@gCParty_PS@@QEAAAEAV?$bTPropertyContainer@W4gEPartyMemberType@@@@XZ
?AccessPassed@gCNavigation_PS@@QEAAAEAV?$bTValArray@VbCVector@@@@XZ
?AccessPassiveFightAI@gCCombatStyle@@QEAAAEAVbCString@@XZ
?AccessPassiveFightAI@gCCombatSystem_PS@@QEAAAEAVbCString@@XZ
?AccessPatrolIndex@gCAnchor_PS@@QEAAAEAKXZ
?AccessPause@gCStateGraphActionPauseAni@@QEAAAEA_NXZ
?AccessPauseAnimation@gCStateGraphActionPlayAni@@QEAAAEA_NXZ
?AccessPermanent@gCInfo@@QEAAAEA_NXZ
?AccessPermanent@gCItem_PS@@QEAAAEA_NXZ
?AccessPhaseDurationCounterAttack@gCCombatMoveMelee@@QEAAAEAMXZ
?AccessPhaseDurationCounterParade@gCCombatMoveMelee@@QEAAAEAMXZ
?AccessPhaseDurationHit@gCCombatMoveMelee@@QEAAAEAMXZ
?AccessPhaseDurationHoover@gCCombatMoveMelee@@QEAAAEAMXZ
?AccessPhaseDurationParade@gCCombatMoveMelee@@QEAAAEAMXZ
?AccessPhaseDurationPowerRaise@gCCombatMoveMelee@@QEAAAEAMXZ
?AccessPhaseDurationRaise@gCCombatMoveMelee@@QEAAAEAMXZ
?AccessPhaseDurationRecover@gCCombatMoveMelee@@QEAAAEAMXZ
?AccessPhaseDurationStrafe@gCCombatMoveMelee@@QEAAAEAMXZ
?AccessPhases@gCCombatMoveMelee@@QEAAAEAV?$bTObjArray@VgCCombatMoveMeleePhase@@@@XZ
?AccessPickedPocket@gCDialog_PS@@QEAAAEA_NXZ
?AccessPivotOffset@gCProjectile2_PS@@QEAAAEAMXZ
?AccessPivotStuckOffset@gCProjectile2_PS@@QEAAAEAMXZ
?AccessPlayerHasCheated@gCSessionInfo@@QEAAAEA_NXZ
?AccessPlayerHoldScript@gCCombatMoveParade@@QEAAAEAVeCScriptProxyScript@@XZ
?AccessPlayerKnows@gCInfoConditionPlayerKnows@@QEAAAEAVbCString@@XZ
?AccessPlayerNotKnows@gCInfoConditionPlayerNotKnows@@QEAAAEAVbCString@@XZ
?AccessPlayerOnly@gCEffectCommandSequence2@@QEAAAEA_NXZ
?AccessPlayerRotationLimit@gCCombatMoveMelee@@QEAAAEAVbCVector2@@XZ
?AccessPlayerWeaponTimestamp@gCNPC_PS@@QEAAAEAMXZ
?AccessPoint@gCNavPath_PS@@QEAAAEAV?$bTValArray@VbCVector@@@@XZ
?AccessPoint@gCNavZone_PS@@QEAAAEAV?$bTValArray@VbCVector@@@@XZ
?AccessPoint@gCNegZone_PS@@QEAAAEAV?$bTValArray@VbCVector@@@@XZ
?AccessPoint@gCPrefPath_PS@@QEAAAEAV?$bTValArray@VbCVector@@@@XZ
?AccessPointRadius@gCPrefPath_PS@@QEAAAEAV?$bTValArray@M@@XZ
?AccessPose@gCCombatStyleAniPose@@QEAAAEAV?$bTPropertyContainer@W4gECombatPose@@@@XZ
?AccessPostInteractScript@gCInteraction@@QEAAAEAVeCScriptProxyScript@@XZ
?AccessPreInteractScript@gCInteraction@@QEAAAEAVgCScriptProxyAIFunction@@XZ
?AccessPrecision@gCCombatAIRanged@@QEAAAEAMXZ
?AccessPriority@gCMap_PS@@QEAAAEAKXZ
?AccessProbAttack@gCCombatAIMelee@@QEAAAEAMXZ
?AccessProbAttack@gCCombatAIRanged@@QEAAAEAMXZ
?AccessProbAttackSec@gCCombatAIMelee@@QEAAAEAMXZ
?AccessProbComboAttack@gCCombatAIMelee@@QEAAAEAMXZ
?AccessProbComboAttack@gCCombatAIRanged@@QEAAAEAMXZ
?AccessProbCounterAttack@gCCombatAIMelee@@QEAAAEAMXZ
?AccessProbCounterParade@gCCombatAIMelee@@QEAAAEAMXZ
?AccessProbHoldDistance@gCCombatAIMelee@@QEAAAEAMXZ
?AccessProbHoldDistance@gCCombatAIRanged@@QEAAAEAMXZ
?AccessProbMistake@gCCombatAIMelee@@QEAAAEAMXZ
?AccessProbParade@gCCombatAIMelee@@QEAAAEAMXZ
?AccessProbRestlessly@gCCombatAIMelee@@QEAAAEAMXZ
?AccessProbRestlessly@gCCombatAIRanged@@QEAAAEAMXZ
?AccessProbStormAttack@gCCombatAIMelee@@QEAAAEAMXZ
?AccessProbStrafe@gCCombatAIMelee@@QEAAAEAMXZ
?AccessProbWait@gCCombatAIMelee@@QEAAAEAMXZ
?AccessProbWait@gCCombatAIRanged@@QEAAAEAMXZ
?AccessProcessScript@gCEffectCommandRunScript@@QEAAAEAVeCScriptProxyScript@@XZ
?AccessProcessScript@gCStateGraphActionCallScript@@QEAAAEAVeCScriptProxyScript@@XZ
?AccessProjectile@gCCombatMoveShoot@@QEAAAEAVeCTemplateEntityProxy@@XZ
?AccessProperty@gCEffectCommandModifyEntity@@QEAAAEAVbCString@@XZ
?AccessPropertySet@gCEffectCommandModifyEntity@@QEAAAEAV?$bTPropertyContainer@W4eEPropertySetType@@@@XZ
?AccessPurchaseModifier@gCDialog_PS@@QEAAAEAMXZ
?AccessQuadrupedSlopeInertia@gCCharacterMovement_PS@@QEAAAEAMXZ
?AccessQuest@gCInfo@@QEAAAEAVbCString@@XZ
?AccessQuest@gCInfoConditionQuestStatus@@QEAAAEAVbCString@@XZ
?AccessQuestName@gCInfoCommandAddLogText@@QEAAAEAVbCString@@XZ
?AccessQuestName@gCInfoCommandAddQuestActor@@QEAAAEAVbCString@@XZ
?AccessQuestName@gCInfoCommandCloseQuest@@QEAAAEAVbCString@@XZ
?AccessQuestName@gCInfoCommandRemoveQuestActor@@QEAAAEAVbCString@@XZ
?AccessQuestName@gCInfoCommandRunQuest@@QEAAAEAVbCString@@XZ
?AccessQuestName@gCInfoCommandSucceedQuest@@QEAAAEAVbCString@@XZ
?AccessQuickSlot@gCInventoryStack@@QEAAAEAHXZ
?AccessRadius@gCCollisionCircle_PS@@QEAAAEAV?$bTValArray@M@@XZ
?AccessRadius@gCDynamicCollisionCircle_PS@@QEAAAEAMXZ
?AccessRadius@gCNavPath_PS@@QEAAAEAV?$bTValArray@M@@XZ
?AccessRadius@gCNavZone_PS@@QEAAAEAMXZ
?AccessRadius@gCNegZone_PS@@QEAAAEAMXZ
?AccessRadius@gCPrefPath_PS@@QEAAAEAMXZ
?AccessRadiusOffset@gCNavZone_PS@@QEAAAEAVbCVector@@XZ
?AccessRadiusOffset@gCNegZone_PS@@QEAAAEAVbCVector@@XZ
?AccessRadiusOffset@gCPrefPath_PS@@QEAAAEAVbCVector@@XZ
?AccessRadiusOffset@gCWaterSubZone_PS@@QEAAAEAVbCVector@@XZ
?AccessRaiseDuration@gCCombatMoveAim@@QEAAAEAVbCRange1@@XZ
?AccessRange@gCEffectCommandKillEntityRange@@QEAAAEAV?$bTPropertyContainer@W4gEEffectKillRange@@@@XZ
?AccessRansacked@gCNPC_PS@@QEAAAEA_NXZ
?AccessReachedTargetEntityProxy@gCNavigation_PS@@QEAAAEAVeCEntityProxy@@XZ
?AccessReason@gCInfoCommandAttack@@QEAAAEAVbCString@@XZ
?AccessReason@gCNPC_PS@@QEAAAEAV?$bTPropertyContainer@W4gEReason@@@@XZ
?AccessRelaxedAnimationFile@gCCombatMoveAim@@QEAAAEAVbCString@@XZ
?AccessReload@gCCombatStyleRanged@@QEAAAEAVbCString@@XZ
?AccessReloadAnimationFile@gCCombatMoveReload@@QEAAAEAVbCString@@XZ
?AccessReloadDuration@gCCombatMoveReload@@QEAAAEAVbCRange1@@XZ
?AccessRepeatProbability@gCEffect_PS@@QEAAAEAVbCRange1@@XZ
?AccessRequiredSkill@gCCombatStyleWeaponConfig@@QEAAAEAVgCSkillValue@@XZ
?AccessRequiredSkills@gCItem_PS@@QEAAAEAV?$bTObjArray@VgCSkillValue@@@@XZ
?AccessRequiredSkills@gCRecipe_PS@@QEAAAEAV?$bTObjArray@VgCSkillValue@@@@XZ
?AccessResultAmount@gCRecipe_PS@@QEAAAEAKXZ
?AccessResultItem@gCRecipe_PS@@QEAAAEAVeCTemplateEntityProxy@@XZ
?AccessResultingAniState@gCCombatMoveStumble@@QEAAAEAV?$bTPropertyContainer@W4gEAniState@@@@XZ
?AccessRightFistItem@gCCombatSpecies@@QEAAAEAVeCTemplateEntityProxy@@XZ
?AccessRightText@gCBook_PS@@QEAAAEAVgCBookLocString@@XZ
?AccessRightUseType@gCCombatWeaponConfig@@QEAAAEAV?$bTPropertyContainer@W4gEItemUseType@@@@XZ
?AccessRoleDescription@gCNPC_PS@@QEAAAEAVbCString@@XZ
?AccessRollOffPreset@gCEffectCommandPlaySound@@QEAAAEAVbCString@@XZ
?AccessRollOffPreset@gCEffectCommandPlayVoice@@QEAAAEAVbCString@@XZ
?AccessRoomChangedScript@gCInteraction_PS@@QEAAAEAVeCScriptProxyScript@@XZ
?AccessRotationAcceleration@gCInfoCommandStartFixCamera@@QEAAAEAMXZ
?AccessRotationDecceleration@gCInfoCommandStartFixCamera@@QEAAAEAMXZ
?AccessRotationSpeedMax@gCInfoCommandStartFixCamera@@QEAAAEAMXZ
?AccessRoutine@gCScriptRoutine_PS@@QEAAAEAVeCScriptProxyScript@@XZ
?AccessRoutineChanged@gCScriptRoutine_PS@@QEAAAEA_NXZ
?AccessRoutineName@gCInfoCommandSetRoutine@@QEAAAEAVbCString@@XZ
?AccessRoutineTask@gCInteraction_PS@@QEAAAEAVgCScriptProxyAIState@@XZ
?AccessRoutines@gCNavigation_PS@@QEAAAEAV?$bTObjArray@UgSRoutine@gCNavigation_PS@@@@XZ
?AccessRunningQuestScript@gCQuest@@QEAAAEAVeCScriptProxyScript@@XZ
?AccessRunningTimeDays@gCQuest@@QEAAAEAKXZ
?AccessRunningTimeHours@gCQuest@@QEAAAEAKXZ
?AccessRunningTimeYears@gCQuest@@QEAAAEAKXZ
?AccessSVMID@gCEffectCommandSaySVM@@QEAAAEAVbCString@@XZ
?AccessSVMID@gCInfoCommandPickPocket@@QEAAAEAVbCString@@XZ
?AccessSVMID@gCInfoCommandSaySVM@@QEAAAEAVbCString@@XZ
?AccessSVMText@gCInfoCommandPickPocket@@QEAAAEAVgCInfoLocString@@XZ
?AccessSaleModifier@gCDialog_PS@@QEAAAEAMXZ
?AccessSample@gCEffectCommandPlayVoice@@QEAAAEAVbCString@@XZ
?AccessSaveGameRelevant@gCSector@@QEAAAEA_NXZ
?AccessScript@gCInfoCommandAddInfoSystemEndScript@@QEAAAEAVeCScriptProxyScript@@XZ
?AccessScript@gCInfoCommandRunScript@@QEAAAEAVeCScriptProxyScript@@XZ
?AccessScript@gCStateGraphEventFilterScript@@QEAAAEAVeCScriptProxyScript@@XZ
?AccessScriptName@gCInfoConditionScript@@QEAAAEAVbCString@@XZ
?AccessSecond@gCClock_PS@@QEAAAEAKXZ
?AccessSecondaryNPC@gCInfoConditionNPCStatus@@QEAAAEAVeCEntityStringProxy@@XZ
?AccessSecondaryNPCStatus@gCInfoConditionNPCStatus@@QEAAAEAV?$bTPropertyContainer@W4gEInfoNPCStatus@@@@XZ
?AccessSecondsBetweenRepeats@gCEffect_PS@@QEAAAEAVbCRange1@@XZ
?AccessSecondsPlayed@gCClock_PS@@QEAAAEAKXZ
?AccessSecretDesc@gCAchievementAdmin@@QEAAAEAVeCLocString@@XZ
?AccessSecretName@gCAchievementAdmin@@QEAAAEAVeCLocString@@XZ
?AccessSectorEnabled@gCInfoCommandSetSectorStatus@@QEAAAEA_NXZ
?AccessSectorName@gCInfoCommandSetSectorStatus@@QEAAAEAVbCString@@XZ
?AccessSecurityLevelFunc@gCAIZone_PS@@QEAAAEAVeCScriptProxyScript@@XZ
?AccessSelf@gCInfoCommandAddInfoSystemEndScript@@QEAAAEAVbCString@@XZ
?AccessSelf@gCInfoCommandRunAIScript@@QEAAAEAVbCString@@XZ
?AccessSelf@gCInfoCommandRunScript@@QEAAAEAVbCString@@XZ
?AccessSelf@gCInfoConditionScript@@QEAAAEAVbCString@@XZ
?AccessSensorAdvanceDuration@gCCharacterMovement_PS@@QEAAAEAMXZ
?AccessSensorAffectsDirection@gCCharacterMovement_PS@@QEAAAEA_NXZ
?AccessSensorInertia@gCCharacterMovement_PS@@QEAAAEAMXZ
?AccessSensorMinSlideAngle@gCCharacterMovement_PS@@QEAAAEAMXZ
?AccessSensorPosition@gCCharacterMovement_PS@@QEAAAEAVbCVector@@XZ
?AccessShootDuration@gCCombatMoveShoot@@QEAAAEAVbCRange1@@XZ
?AccessShootEffect@gCProjectile2_PS@@QEAAAEAVbCString@@XZ
?AccessShootPoint@gCCombatMoveShoot@@QEAAAEAMXZ
?AccessShootScript@gCProjectile2_PS@@QEAAAEAVeCScriptProxyScript@@XZ
?AccessShotPower@gCCombatMoveShoot@@QEAAAEAMXZ
?AccessShowAlways@gCTutorialEvent@@QEAAAEA_NXZ
?AccessShowUnachieved@gCAchievement@@QEAAAEA_NXZ
?AccessSilent@gCQuest@@QEAAAEA_NXZ
?AccessSituation@gCInfoCommandPlayMusic@@QEAAAEAVbCString@@XZ
?AccessSkill@gCSkillValueBase@@QEAAAEAV?$bTPropertyContainer@W4gESkill@@@@XZ
?AccessSkillValue@gCInfoConditionSkillValue@@QEAAAEAVgCSkillValue@@XZ
?AccessSlaveryEnabled@gCDialog_PS@@QEAAAEA_NXZ
?AccessSlaveryEnabled@gCInfoCommandSetSlaveryEnabled@@QEAAAEA_NXZ
?AccessSlideSpeed@gCCharacterMovement_PS@@QEAAAEAMXZ
?AccessSlomoBegin@gCCombatMoveMelee@@QEAAAEAMXZ
?AccessSlomoEnd@gCCombatMoveMelee@@QEAAAEAMXZ
?AccessSlomoTimeScale@gCCombatMoveMelee@@QEAAAEAMXZ
?AccessSlots@gCInteraction_PS@@QEAAAEAV?$bTObjArray@VgCInteractionSlot@@@@XZ
?AccessSlowModifier@gCCharacterMovement_PS@@QEAAAEAMXZ
?AccessSneakModifier@gCCharacterMovement_PS@@QEAAAEAMXZ
?AccessSniper@gCCombatStyleRanged@@QEAAAEAVbCString@@XZ
?AccessSortID@gCInfo@@QEAAAEAKXZ
?AccessSortValue@gCItem_PS@@QEAAAEAJXZ
?AccessSortValue@gCTutorialEvent@@QEAAAEAKXZ
?AccessSoundName@gCInfoCommandSaySound@@QEAAAEAVbCString@@XZ
?AccessSpeaker@gCInfoCommandPickPocket@@QEAAAEAVbCString@@XZ
?AccessSpeaker@gCInfoCommandSay@@QEAAAEAVbCString@@XZ
?AccessSpeaker@gCInfoCommandSayConfirm@@QEAAAEAVbCString@@XZ
?AccessSpeaker@gCInfoCommandSayHoldingPosition@@QEAAAEAVbCString@@XZ
?AccessSpeaker@gCInfoCommandSayKeepItUp@@QEAAAEAVbCString@@XZ
?AccessSpeaker@gCInfoCommandSaySVM@@QEAAAEAVbCString@@XZ
?AccessSpeaker@gCInfoCommandSaySound@@QEAAAEAVbCString@@XZ
?AccessSpeaker@gCInfoCommandThink@@QEAAAEAVbCString@@XZ
?AccessSpecialEffect@gCCombatMoveMelee@@QEAAAEAVbCString@@XZ
?AccessSpecialEffectBegin@gCCombatMoveMelee@@QEAAAEAMXZ
?AccessSpecies@gCNPC_PS@@QEAAAEAV?$bTPropertyContainer@W4gESpecies@@@@XZ
?AccessSpell@gCInteraction_PS@@QEAAAEAVeCTemplateEntityProxy@@XZ
?AccessSpell@gCItem_PS@@QEAAAEAVeCTemplateEntityProxy@@XZ
?AccessSpellTarget@gCNPC_PS@@QEAAAEAVeCEntityProxy@@XZ
?AccessSpinBuddy@gCSpinButton@@QEAAAEAGXZ
?AccessSpinSlave@gCSpinButton@@QEAAAEAGXZ
?AccessSpinType@gCSpinButton@@QEAAAEAV?$bTPropertyContainer@W4gESpinButtonType@@@@XZ
?AccessSpiningSpeed@gCProjectile2_PS@@QEAAAEAVbCVector@@XZ
?AccessSquareRadius@gCWaterSubZone_PS@@QEAAAEAMXZ
?AccessStartChapter@gCInfo@@QEAAAEAJXZ
?AccessStartChapter@gCQuest@@QEAAAEAJXZ
?AccessStartPosition@gCNavigation_PS@@QEAAAEAVbCVector@@XZ
?AccessStartScript@gCEffectCommandRunScript@@QEAAAEAVeCScriptProxyScript@@XZ
?AccessStartTask@gCCastInfo_PS@@QEAAAEAVbCString@@XZ
?AccessStartVelocity@gCProjectile2_PS@@QEAAAEAMXZ
?AccessState@gCSession@@QEAAAEAV?$bTPropertyContainer@W4gESession_State@@@@XZ
?AccessStatePosition@gCScriptRoutine_PS@@QEAAAEAJXZ
?AccessStateTime@gCScriptRoutine_PS@@QEAAAEAMXZ
?AccessStates@gCStateGraph_PS@@QEAAAEAV?$bTRefPtrArray@PEAVgCStateGraphState@@@@XZ
?AccessStatic@gCEffect_PS@@QEAAAEA_NXZ
?AccessStatus@gCArena_PS@@QEAAAEAV?$bTPropertyContainer@W4gEArenaStatus@@@@XZ
?AccessStatus@gCDoor_PS@@QEAAAEAV?$bTPropertyContainer@W4gEDoorStatus@@@@XZ
?AccessStatus@gCLock_PS@@QEAAAEAV?$bTPropertyContainer@W4gELockStatus@@@@XZ
?AccessStatus@gCQuest@@QEAAAEAV?$bTPropertyContainer@W4gEQuestStatus@@@@XZ
?AccessSteepGroundAngleMax@gCCharacterMovement_PS@@QEAAAEAMXZ
?AccessSteepGroundAngleMin@gCCharacterMovement_PS@@QEAAAEAMXZ
?AccessStepHeight@gCCharacterMovement_PS@@QEAAAEAMXZ
?AccessStopAnimation@gCStateGraphActionPlayAni@@QEAAAEA_NXZ
?AccessStopEffect@gCStateGraphActionStartEffect@@QEAAAEA_NXZ
?AccessStopMode@gCEffect_PS@@QEAAAEAV?$bTPropertyContainer@W4gEEffectStopMode@@@@XZ
?AccessStopScript@gCEffectCommandRunScript@@QEAAAEAVeCScriptProxyScript@@XZ
?AccessStormAttack@gCCombatStyleMelee@@QEAAAEAVbCString@@XZ
?AccessStrafeAttackLeft@gCCombatStyleMelee@@QEAAAEAVbCString@@XZ
?AccessStrafeAttackRight@gCCombatStyleMelee@@QEAAAEAVbCString@@XZ
?AccessStrafeLeft@gCCombatSpecies@@QEAAAEAVbCString@@XZ
?AccessStrafeRight@gCCombatSpecies@@QEAAAEAVbCString@@XZ
?AccessStrafeSpeedMax@gCCharacterMovement_PS@@QEAAAEAMXZ
?AccessStretchDuration@gCCombatMoveAim@@QEAAAEAVbCRange1@@XZ
?AccessStretchedAnimationFile@gCCombatMoveAim@@QEAAAEAVbCString@@XZ
?AccessStumble@gCCombatSpecies@@QEAAAEAVbCString@@XZ
?AccessStumbleBack@gCCombatSpecies@@QEAAAEAVbCString@@XZ
?AccessStumbleDead@gCCombatSpecies@@QEAAAEAVbCString@@XZ
?AccessStumbleDeadBack@gCCombatSpecies@@QEAAAEAVbCString@@XZ
?AccessStumbleDown@gCCombatSpecies@@QEAAAEAVbCString@@XZ
?AccessStumbleDownBack@gCCombatSpecies@@QEAAAEAVbCString@@XZ
?AccessStumbleDuration@gCCombatMoveOverlayStumble@@QEAAAEAMXZ
?AccessStumbleDuration@gCCombatMoveStumble@@QEAAAEAMXZ
?AccessStumbleHeavy@gCCombatSpecies@@QEAAAEAVbCString@@XZ
?AccessStumbleLight@gCCombatSpecies@@QEAAAEAVbCString@@XZ
?AccessStumbleOverlay@gCCombatSpecies@@QEAAAEAVbCString@@XZ
?AccessStumbleOverlayHeavy@gCCombatSpecies@@QEAAAEAVbCString@@XZ
?AccessStumbleOverlayLight@gCCombatSpecies@@QEAAAEAVbCString@@XZ
?AccessStumbleReaction@gCCombatMoveMelee@@QEAAAEAV?$bTPropertyContainer@W4gECombatMove@@@@XZ
?AccessSubZones@gCWaterZone_PS@@QEAAAEAV?$bTObjArray@VgCWaterSubZone_PS@@@@XZ
?AccessSucceededQuestScript@gCQuest@@QEAAAEAVeCScriptProxyScript@@XZ
?AccessSweepTestRadius@gCProjectile2_PS@@QEAAAEAMXZ
?AccessTalkedToPlayer@gCDialog_PS@@QEAAAEA_NXZ
?AccessTarget@gCInfoCommandTeleportNPC@@QEAAAEAVbCString@@XZ
?AccessTargetEntity@gCFlightPathSeeking@@QEAAAEAVeCEntityProxy@@XZ
?AccessTargetEntity@gCInfoCommandTrigger@@QEAAAEAVbCString@@XZ
?AccessTargetHour@gCInfoCommandSleep@@QEAAAEAKXZ
?AccessTargetMode@gCEffect_PS@@QEAAAEAV?$bTPropertyContainer@W4gEEffectTargetMode@@@@XZ
?AccessTargetOffset@gCInfoCommandStartFixCamera@@QEAAAEAVbCVector@@XZ
?AccessTargetScript@gCEffect_PS@@QEAAAEAVeCScriptProxyScript@@XZ
?AccessTaskPosition@gCScriptRoutine_PS@@QEAAAEAJXZ
?AccessTaskTime@gCScriptRoutine_PS@@QEAAAEAMXZ
?AccessTeachEnabled@gCDialog_PS@@QEAAAEA_NXZ
?AccessTeachEnabled@gCInfoCommandSetTeachEnabled@@QEAAAEA_NXZ
?AccessTeachEnabled@gCInfoConditionTeachEnabled@@QEAAAEA_NXZ
?AccessTeachSkill@gCInfoCommandTeach@@QEAAAEAVgCSkillValue@@XZ
?AccessTeachSkill@gCInfoConditionCanTeachSkill@@QEAAAEAVgCSkillValue@@XZ
?AccessTeachSkills@gCDialog_PS@@QEAAAEAV?$bTObjArray@VgCSkillRange@@@@XZ
?AccessTemplate@gCCombatObject@@QEAAAEAVbCString@@XZ
?AccessTemplate@gCInventorySlot@@QEAAAEAVeCTemplateEntityProxy@@XZ
?AccessTemplateEntity@gCEffectCommandSpawnEntity@@QEAAAEAVeCTemplateEntityProxy@@XZ
?AccessText@gCInfoCommand@@QEAAAEAVeCLocString@@XZ
?AccessText@gCInfoCommandAddLogText@@QEAAAEAVgCInfoLocString@@XZ
?AccessText@gCInfoCommandDescription@@QEAAAEAVgCInfoLocString@@XZ
?AccessText@gCInfoCommandPickPocket@@QEAAAEAVgCInfoLocString@@XZ
?AccessText@gCInfoCommandSay@@QEAAAEAVgCInfoLocString@@XZ
?AccessText@gCInfoCommandSaySVM@@QEAAAEAVgCInfoLocString@@XZ
?AccessText@gCInfoCommandShowSubtitle@@QEAAAEAVgCInfoLocString@@XZ
?AccessText@gCInfoCommandThink@@QEAAAEAVgCInfoLocString@@XZ
?AccessText@gCLetter_PS@@QEAAAEAVgCLetterLocString@@XZ
?AccessTextColor@gCQuestLogFrame2@@QEAAAEAVbCByteAlphaColor@@XZ
?AccessTime@gCInfoCommandInfoWait@@QEAAAEAKXZ
?AccessTimeOffset@gCEffectCommand@@QEAAAEAMXZ
?AccessTimeOffset@gCStateGraphActionPauseAni@@QEAAAEAMXZ
?AccessTimeOffset@gCStateGraphActionPlayAni@@QEAAAEAMXZ
?AccessTimeOffset@gCStateGraphActionStartEffect@@QEAAAEAMXZ
?AccessTimeOffset@gCStateGraphActionStop@@QEAAAEAMXZ
?AccessTimeOffset@gCStateGraphActionTrigger@@QEAAAEAMXZ
?AccessTimeOffset@gCStateGraphActionTriggerState@@QEAAAEAMXZ
?AccessTimeOffset@gCStateGraphActionUnTrigger@@QEAAAEAMXZ
?AccessTimeOffset@gCStateGraphActionVisibility@@QEAAAEAMXZ
?AccessTimeOut@gCHudDialog2@@QEAAAEAKXZ
?AccessTimeOutResult@gCHudDialog2@@QEAAAEAHXZ
?AccessTimeOutStatic@gCHudDialog2@@QEAAAEAGXZ
?AccessTitle@gCAchievement@@QEAAAEAVeCLocString@@XZ
?AccessTitle@gCMap_PS@@QEAAAEAVeCLocString@@XZ
?AccessToolTip@gCMapInfo_PS@@QEAAAEAVeCLocString@@XZ
?AccessTopToleranz@gCNavPath_PS@@QEAAAEAMXZ
?AccessTopToleranz@gCNavZone_PS@@QEAAAEAMXZ
?AccessTouchEventFilter@gCStateGraph_PS@@QEAAAEAV?$bTRefPropertyArray@PEAVgCStateGraphEventFilter@@@@XZ
?AccessTouchScript@gCInteraction_PS@@QEAAAEAVeCScriptProxyScript@@XZ
?AccessTradeEnabled@gCDialog_PS@@QEAAAEA_NXZ
?AccessTradeEnabled@gCInfoCommandSetTradeEnabled@@QEAAAEA_NXZ
?AccessTreatWaterAsSolid@gCCharacterMovement_PS@@QEAAAEA_NXZ
?AccessTriggerEndHour@gCClock_PS@@QEAAAEAKXZ
?AccessTriggerEventFilter@gCStateGraph_PS@@QEAAAEAV?$bTRefPropertyArray@PEAVgCStateGraphEventFilter@@@@XZ
?AccessTriggerOnExit@gCStateGraphActionUnTrigger@@QEAAAEA_NXZ
?AccessTriggerScript@gCInteraction_PS@@QEAAAEAVeCScriptProxyScript@@XZ
?AccessTriggerStartHour@gCClock_PS@@QEAAAEAKXZ
?AccessTriggerStateName@gCStateGraphActionTriggerState@@QEAAAEAVbCString@@XZ
?AccessTriggerStateTargetIndex@gCStateGraphActionTriggerState@@QEAAAEAJXZ
?AccessTriggerTargetIndex@gCStateGraphActionEventDispatcher@@QEAAAEAJXZ
?AccessTriggerTargetIndex@gCStateGraphActionTrigger@@QEAAAEAJXZ
?AccessTriggerTargetIndex@gCStateGraphActionUnTrigger@@QEAAAEAJXZ
?AccessTriggerTargets@gCStateGraph_PS@@QEAAAEAV?$bTObjArray@VeCEntityProxy@@@@XZ
?AccessTurnAcceleration@gCCharacterMovement_PS@@QEAAAEAMXZ
?AccessTurnDecceleration@gCCharacterMovement_PS@@QEAAAEAMXZ
?AccessTurnSpeedMax@gCCharacterMovement_PS@@QEAAAEAMXZ
?AccessTurnSpeedModifier@gCCharacterMovement_PS@@QEAAAEAMXZ
?AccessTutorialEventName@gCInfoCommandStartTutorial@@QEAAAEAVbCString@@XZ
?AccessType@gCCollisionCircle_PS@@QEAAAEAV?$bTPropertyContainer@W4gENavObstacleType@@@@XZ
?AccessType@gCInfo@@QEAAAEAV?$bTPropertyContainer@W4gEInfoType@@@@XZ
?AccessType@gCInfoCommandAddNPCInfo@@QEAAAEAV?$bTPropertyContainer@W4gEInfoNPCType@@@@XZ
?AccessType@gCInfoCommandRemoveNPCInfo@@QEAAAEAV?$bTPropertyContainer@W4gEInfoNPCType@@@@XZ
?AccessType@gCInteraction@@QEAAAEAV?$bTPropertyContainer@W4gEInteractionType@@@@XZ
?AccessType@gCInventoryStack@@QEAAAEAV?$bTPropertyContainer@W4gEStackType@@@@XZ
?AccessType@gCQuest@@QEAAAEAV?$bTPropertyContainer@W4gEQuestType@@@@XZ
?AccessUnEquipScript@gCItem_PS@@QEAAAEAVeCScriptProxyScript@@XZ
?AccessUnTriggerOnExit@gCStateGraphActionTrigger@@QEAAAEA_NXZ
?AccessUnachieved@gCAchievement@@QEAAAEAVeCLocString@@XZ
?AccessUnderWaterDepth@gCNavigation_PS@@QEAAAEAMXZ
?AccessUnlimitedHeight@gCNavPath_PS@@QEAAAEA_NXZ
?AccessUntouchScript@gCInteraction_PS@@QEAAAEAVeCScriptProxyScript@@XZ
?AccessUntriggerScript@gCInteraction_PS@@QEAAAEAVeCScriptProxyScript@@XZ
?AccessUseAnimationName@gCInfoCommandUse@@QEAAAEAVbCString@@XZ
?AccessUseMaxRepeats@gCEffect_PS@@QEAAAEA_NXZ
?AccessUseRollOffPreset@gCEffectCommandPlaySound@@QEAAAEA_NXZ
?AccessUseRollOffPreset@gCEffectCommandPlayVoice@@QEAAAEA_NXZ
?AccessUseType@gCInteraction_PS@@QEAAAEAV?$bTPropertyContainer@W4gEInteractionUseType@@@@XZ
?AccessUseType@gCItem_PS@@QEAAAEAV?$bTPropertyContainer@W4gEItemUseType@@@@XZ
?AccessUseVolumeFromPreset@gCEffectCommandPlaySound@@QEAAAEA_NXZ
?AccessUseVolumeFromPreset@gCEffectCommandPlayVoice@@QEAAAEA_NXZ
?AccessUseWadeMovement@gCWaterZone_PS@@QEAAAEA_NXZ
?AccessValue@gCEffectCommandModifyEntity@@QEAAAEAVbCString@@XZ
?AccessVelocityLoss@gCFlightPathBallistic@@QEAAAEAMXZ
?AccessVisitedNavClusters@gCNavigation_PS@@QEAAAEAV?$bTObjArray@UgSVisitedNavCluster@gCNavigation_PS@@@@XZ
?AccessVoice@gCNPC_PS@@QEAAAEAVbCString@@XZ
?AccessVolume@gCEffectCommandPlaySound@@QEAAAEAMXZ
?AccessVolume@gCEffectCommandPlayVoice@@QEAAAEAMXZ
?AccessWait@gCStateGraphActionCallScript@@QEAAAEA_NXZ
?AccessWait@gCStateGraphActionPlayAni@@QEAAAEA_NXZ
?AccessWait@gCStateGraphActionStartEffect@@QEAAAEA_NXZ
?AccessWaitTime@gCStateGraphActionWait@@QEAAAEAMXZ
?AccessWaitWhileTouching@gCStateGraphActionWait@@QEAAAEA_NXZ
?AccessWaitWhileTriggered@gCStateGraphActionWait@@QEAAAEA_NXZ
?AccessWaiting@gCParty_PS@@QEAAAEA_NXZ
?AccessWalkDownSpeedScale@gCCharacterMovement_PS@@QEAAAEAMXZ
?AccessWantedPose@gCDynamicCollisionCircle_PS@@QEAAAEAVbCMotion@@XZ
?AccessWarmUp@gCEffectCommandEarthquake@@QEAAAEAMXZ
?AccessWaterDeathDepth@gCCharacterMovement_PS@@QEAAAEAMXZ
?AccessWaterWadeDepth@gCCharacterMovement_PS@@QEAAAEAMXZ
?AccessWeaponConfigs@gCCombatStyle@@QEAAAEAV?$bTObjArray@VgCCombatStyleWeaponConfig@@@@XZ
?AccessWeaponSide@gCCombatMoveMelee@@QEAAAEAV?$bTPropertyContainer@W4gECombatMoveSide@@@@XZ
?AccessWeaponSide@gCCombatMoveParade@@QEAAAEAV?$bTPropertyContainer@W4gECombatMoveSide@@@@XZ
?AccessWishedTargetEntityProxy@gCNavigation_PS@@QEAAAEAVeCEntityProxy@@XZ
?AccessWonQuestScript@gCQuest@@QEAAAEAVeCScriptProxyScript@@XZ
?AccessWorlds@gCProject@@QEAAAEAV?$bTRefPtrArray@PEAVgCWorld@@@@XZ
?AccessYear@gCClock_PS@@QEAAAEAKXZ
?AccessZoneAEntityProxy@gCNavPath_PS@@QEAAAEAVeCEntityProxy@@XZ
?AccessZoneAIntersectionCenter@gCNavPath_PS@@QEAAAEAVbCVector@@XZ
?AccessZoneAIntersectionMargin1@gCNavPath_PS@@QEAAAEAVbCVector@@XZ
?AccessZoneAIntersectionMargin2@gCNavPath_PS@@QEAAAEAVbCVector@@XZ
?AccessZoneBEntityProxy@gCNavPath_PS@@QEAAAEAVeCEntityProxy@@XZ
?AccessZoneBIntersectionCenter@gCNavPath_PS@@QEAAAEAVbCVector@@XZ
?AccessZoneBIntersectionMargin1@gCNavPath_PS@@QEAAAEAVbCVector@@XZ
?AccessZoneBIntersectionMargin2@gCNavPath_PS@@QEAAAEAVbCVector@@XZ
?AccessZoneEntityProxies@gCCollisionCircle_PS@@QEAAAEAV?$bTObjArray@VeCEntityProxy@@@@XZ
?AccessZoneEntityProxy@gCNegZone_PS@@QEAAAEAVeCEntityProxy@@XZ
?AccessZoneEntityProxy@gCPrefPath_PS@@QEAAAEAVeCEntityProxy@@XZ
?AccessZoneIsCCW@gCNavZone_PS@@QEAAAEA_NXZ
?AccessZoneIsCCW@gCNegZone_PS@@QEAAAEA_NXZ
?Activate@gCWorkspace@@QEAAXXZ
?Activate@gCWorld@@UEAA_NXZ
?ActivateFreeNavigationJump@gCCharacterMovement_PS@@QEAAXAEBV?$bTValArray@VbCMotion@@@@@Z
?ActivateFreeNavigationJump@gCNavigation_PS@@IEAA_NAEBVbCVector@@_NAEAH@Z
?ActivateNextFreeGoal@gCNavigation_PS@@IEAA_NPEAVeCGeometryEntity@@@Z
?AddAction@gCStateGraphState@@QEAA_NPEAVgCStateGraphAction@@@Z
?AddAndAccessClusteredCollisionCirclePSObj@gCCollisionCircle_PSObj@@QEAAAEAV?$bTValArray@PEAVgCCollisionCircle_PSObj@@@@AEBVbCPropertyID@@@Z
?AddAutodetectEntrys@gCGameApp@@IEAAXAEAV?$bTValArray@_K@@KAEBVbCString@@@Z
?AddChildInfo@gCInfo@@QEAAXPEAV1@@Z
?AddCollisionCircleOffset@gCCollisionCircle_PSObj@@QEAAXAEAV?$bTValArray@VbCMotion@@@@AEBVbCVector@@1_N@Z
?AddCollisionCircleOffset@gCNavZone_PS@@QEAAXAEAV?$bTValArray@VbCMotion@@@@AEBVbCVector@@1_N@Z
?AddCollisionCircleOffset@gCNavigationMapNavigator@@IEAAXAEAV?$bTValArray@VbCMotion@@@@AEBVbCVector@@1_N@Z
?AddEntitiesFromCollection@gCDummyCollectorAdmin@@IEAAXPEAVgCDummyCollectorBase@@@Z
?AddEntitiesFromCollections@gCDummyCollectorAdmin@@IEAAXXZ
?AddFightAI@gCCombatSpecies@@QEAAXPEAVgCCombatAI@@@Z
?AddGroup@gCSvmAdmin@@QEAAHAEBVbCString@@@Z
?AddIndexInPropertySet@gCDummyCollectorAnchor@@MEAA?AW4bEResult@@HHHH@Z
?AddIndexInPropertySet@gCDummyCollectorCollisionCircle@@MEAA?AW4bEResult@@HHHH@Z
?AddIndexInPropertySet@gCDummyCollectorDoor@@MEAA?AW4bEResult@@HHHH@Z
?AddIndexInPropertySet@gCDummyCollectorDynamicCollisionCircle@@MEAA?AW4bEResult@@HHHH@Z
?AddIndexInPropertySet@gCDummyCollectorFreepoint@@MEAA?AW4bEResult@@HHHH@Z
?AddIndexInPropertySet@gCDummyCollectorNavOffset@@MEAA?AW4bEResult@@HHHH@Z
?AddIndexInPropertySet@gCDummyCollectorNavPath@@MEAA?AW4bEResult@@HHHH@Z
?AddIndexInPropertySet@gCDummyCollectorNavZone@@MEAA?AW4bEResult@@HHHH@Z
?AddIndexInPropertySet@gCDummyCollectorNegZone@@MEAA?AW4bEResult@@HHHH@Z
?AddIndexInPropertySet@gCDummyCollectorPrefPath@@MEAA?AW4bEResult@@HHHH@Z
?AddInfoSystemEndScript@gCInfoSystem@@QEAA_NAEAUgSInfoSytemEndScript@1@@Z
?AddInteractPoint@gCAnchor_PS@@IEAAXPEAVgCInteraction_PS@@@Z
?AddInteraction@gCInteraction_PS@@QEAAXPEAVgCInteraction@@@Z
?AddInteractionInROI@gCInteractionAdmin@@QEAA_NPEAVgCInteraction_PS@@@Z
?AddInventoryListener@gCQuest@@QEAA_NXZ
?AddInventoryListeners@gCQuestManager@@QEAA_NXZ
?AddLeftAndRightAngle@gCNavZone_PS@@IEAA?AW4bEResult@@AEBVbCVector@@0AEAM1@Z
?AddLeftAndRightAngle@gCNegZone_PS@@QEAA?AW4bEResult@@AEAVbCVector@@0AEAM1@Z
?AddLeftAndRightAngle@gCNegZone_PSObj@@IEAA?AW4bEResult@@AEAVbCVector@@0AEAM1@Z
?AddListener@gCInventory_PS@@UEAAXPEAVgCInventoryListener@@@Z
?AddMove@gCCombatSpecies@@QEAAXPEAVgCCombatMove@@@Z
?AddNPCInfo@gCInfoSystem@@QEAAXAEBUgSNPCInfo@@@Z
?AddNewPropertySetMember@gCDummyCollectorPSet_Base@@IEAA?AW4bEResult@@AEAVeCDynamicEntity@@AEAPEAV3@HHH@Z
?AddProfileTicks@gCScriptAdmin@@QEAAXK@Z
?AddPropertySetMember@gCDummyCollectorAdmin@@QEAA?AW4bEResult@@W4eEPropertySetType@@AEAVeCDynamicEntity@@AEAPEAV4@HHH@Z
?AddPropertySetMember@gCDummyCollectorAnchor@@UEAA?AW4bEResult@@AEAVeCDynamicEntity@@AEAPEAV3@HHH@Z
?AddPropertySetMember@gCDummyCollectorCollisionCircle@@UEAA?AW4bEResult@@AEAVeCDynamicEntity@@AEAPEAV3@HHH@Z
?AddPropertySetMember@gCDummyCollectorDoor@@UEAA?AW4bEResult@@AEAVeCDynamicEntity@@AEAPEAV3@HHH@Z
?AddPropertySetMember@gCDummyCollectorDynamicCollisionCircle@@UEAA?AW4bEResult@@AEAVeCDynamicEntity@@AEAPEAV3@HHH@Z
?AddPropertySetMember@gCDummyCollectorFreepoint@@UEAA?AW4bEResult@@AEAVeCDynamicEntity@@AEAPEAV3@HHH@Z
?AddPropertySetMember@gCDummyCollectorNavOffset@@UEAA?AW4bEResult@@AEAVeCDynamicEntity@@AEAPEAV3@HHH@Z
?AddPropertySetMember@gCDummyCollectorNavPath@@UEAA?AW4bEResult@@AEAVeCDynamicEntity@@AEAPEAV3@HHH@Z
?AddPropertySetMember@gCDummyCollectorNavZone@@UEAA?AW4bEResult@@AEAVeCDynamicEntity@@AEAPEAV3@HHH@Z
?AddPropertySetMember@gCDummyCollectorNegZone@@UEAA?AW4bEResult@@AEAVeCDynamicEntity@@AEAPEAV3@HHH@Z
?AddPropertySetMember@gCDummyCollectorPrefPath@@UEAA?AW4bEResult@@AEAVeCDynamicEntity@@AEAPEAV3@HHH@Z
?AddQuest@gCQuestManager@@QEAA_NPEAVgCQuest@@AEBVbCString@@@Z
?AddQuestByType@gCQuestManager@@IEAAXPEAVgCQuest@@@Z
?AddRef@gCBaseDropData@@UEAAKXZ
?AddRef@gCInfoDropData@@UEAAKXZ
?AddScreenMessage@gCGUIEntityRenderer@@QEAA_NPEBVeCGeometryEntity@@AEBVbCVector@@1AEBVbCUnicodeString@@_NKM@Z
?AddSpecies@gCCombatAdmin@@QEAAXPEAVgCCombatSpecies@@AEBVbCString@@@Z
?AddStyle@gCCombatSpecies@@QEAAXPEAVgCCombatStyle@@@Z
?AddSvm@gCSvmAdmin@@QEAAHAEBVbCString@@@Z
?AddTalkedToBy@gCDialog_PS@@QEAAHPEAVeCEntity@@@Z
?AddToCurrentVelocity@gCCharacterMovement_PS@@IEAAXAEBVbCVector@@_N@Z
?AddToDatabase@gCDatabase@@IEAA_NAEBVbCString@@_N@Z
?AddToParty@gCParty_PS@@QEAA_NAEBVeCEntityProxy@@@Z
?AddToRemovedNativeEntityList@gCWorld@@QEAAXPEAVeCEntity@@@Z
?AddTrack@gCPlayList@@QEAAXAEBVbCString@@@Z
?AddTransition@gCStateGraphState@@QEAA_NPEAV1@@Z
?AddVoice@gCSvmAdmin@@QEAAHAEBVbCString@@@Z
?AdvanceProgressItem@gCWorldEventSource@@QEAAXAEAUgSWorldEventLoad@@@Z
?AdvanceProgressItem@gCWorldEventSource@@QEAAXAEAUgSWorldEventLoad@@AEBVbCString@@@Z
?AdvanceProgressPass@gCWorldEventSource@@QEAAXAEAUgSWorldEventLoad@@H@Z
?AdvanceProgressPass@gCWorldEventSource@@QEAAXAEAUgSWorldEventLoad@@HAEBVbCString@@@Z
?AnalogInput@gCActionAdmin@@UEAAXKH@Z
?Apply@gCDummyCollectorAnchor@@UEAA?AW4bEResult@@AEAVeCDynamicEntity@@@Z
?Apply@gCDummyCollectorAnchor@@UEAA?AW4bEResult@@AEBVbCBox@@@Z
?Apply@gCDummyCollectorCollisionCircle@@UEAA?AW4bEResult@@AEAVeCDynamicEntity@@@Z
?Apply@gCDummyCollectorCollisionCircle@@UEAA?AW4bEResult@@AEBVbCBox@@@Z
?Apply@gCDummyCollectorDoor@@UEAA?AW4bEResult@@AEAVeCDynamicEntity@@@Z
?Apply@gCDummyCollectorDoor@@UEAA?AW4bEResult@@AEBVbCBox@@@Z
?Apply@gCDummyCollectorDynamicCollisionCircle@@UEAA?AW4bEResult@@AEAVeCDynamicEntity@@@Z
?Apply@gCDummyCollectorDynamicCollisionCircle@@UEAA?AW4bEResult@@AEBVbCBox@@@Z
?Apply@gCDummyCollectorEntity@@UEAA?AW4bEResult@@AEAVeCDynamicEntity@@@Z
?Apply@gCDummyCollectorEntity@@UEAA?AW4bEResult@@AEBVbCBox@@@Z
?Apply@gCDummyCollectorEntity@@UEAA?AW4bEResult@@XZ
?Apply@gCDummyCollectorFreepoint@@UEAA?AW4bEResult@@AEAVeCDynamicEntity@@@Z
?Apply@gCDummyCollectorFreepoint@@UEAA?AW4bEResult@@AEBVbCBox@@@Z
?Apply@gCDummyCollectorNavOffset@@UEAA?AW4bEResult@@AEAVeCDynamicEntity@@@Z
?Apply@gCDummyCollectorNavOffset@@UEAA?AW4bEResult@@AEBVbCBox@@@Z
?Apply@gCDummyCollectorNavPath@@UEAA?AW4bEResult@@AEAVeCDynamicEntity@@@Z
?Apply@gCDummyCollectorNavPath@@UEAA?AW4bEResult@@AEBVbCBox@@@Z
?Apply@gCDummyCollectorNavZone@@UEAA?AW4bEResult@@AEAVeCDynamicEntity@@@Z
?Apply@gCDummyCollectorNavZone@@UEAA?AW4bEResult@@AEBVbCBox@@@Z
?Apply@gCDummyCollectorNegZone@@UEAA?AW4bEResult@@AEAVeCDynamicEntity@@@Z
?Apply@gCDummyCollectorNegZone@@UEAA?AW4bEResult@@AEBVbCBox@@@Z
?Apply@gCDummyCollectorPSet_Base@@UEAA?AW4bEResult@@XZ
?Apply@gCDummyCollectorPrefPath@@UEAA?AW4bEResult@@AEAVeCDynamicEntity@@@Z
?Apply@gCDummyCollectorPrefPath@@UEAA?AW4bEResult@@AEBVbCBox@@@Z
?ApplyConfiguration@gCActionAdmin@@UEAAXXZ
?ApplyConfiguration@gCEffectModule@@UEAAXXZ
?ApplyConfiguration@gCEffectSystem@@QEAAXXZ
?ApplyConfiguration@gCFocusModule2@@UEAAXXZ
?ApplyDefaults@gCEffect_PS@@IEAAXXZ
?ApplyDefaults@gCInventorySlot@@IEAAXXZ
?ApplyDefaults@gCInventoryStack@@IEAAXXZ
?ApplyHardResolution@gCHudResolutionManager2@@QEAA_NKK@Z
?ApplyModSkills@gCItem_PS@@QEBAXPEAVeCEntity@@@Z
?ApplyPropertySet@gCDummyCollectorPSet_Base@@IEAA?AW4bEResult@@AEBVbCBox@@AEBW4eEPropertySetType@@@Z
?ApplyResolution@gCHudResolutionManager2@@QEAA_NXZ
?ApplySkillModifyValue@gCSkills_PS@@QEAAXAEBVgCSkillValue@@@Z
?ApplySkillModifyValues@gCSkills_PS@@QEAAXAEBV?$bTObjArray@VgCSkillValue@@@@@Z
?AreChildInfosAvailable@gCInfoSystem@@QEAA_NAEBVgCInfo@@@Z
?AreConditionsFulfilled@gCInfo@@QEAA_NXZ
?AreFinishedQuestsFinished@gCQuest@@QEBA_NXZ
?AreInfosForFinishedQuestsAvailable@gCQuest@@QEBA_NXZ
?AreOnlyEndInfosAvailable@gCInfoSystem@@IEBA_NXZ
?AssureItems@gCInventory_PS@@QEAAHAEBVbCPropertyID@@KW4gEStackType@@@Z
?AssureItems@gCRuntimeInfo@@QEAAHPEAVeCEntity@@VbCPropertyID@@HW4gEStackType@@@Z
?Attach@gCInteractionSlot@@QEAAPEAVeCEntity@@PEAVgCInteraction_PS@@PEAVeCTemplateEntity@@@Z
?Attach@gCInteraction_PS@@QEAAPEAVeCEntity@@PEAVeCTemplateEntity@@@Z
?AttachItemToSekelton@gCInventorySlot@@KA_NPEAVeCEntity@@0W4gESlot@@@Z
?AttachToBone@gCProjectile2_PS@@QEAA_NPEAVeCEntity@@PEAUgSHitInfo@1@@Z
?AutoBenchmark@gCGameApp@@IEAA?AW4bEResult@@XZ
?AutoDetection@gCGameApp@@IEAA?AW4bEResult@@XZ
?AutoFocusItem@gCInventoryList@@QEAAXXZ
?BackupFiles@gCSector@@QEAA_NAEBVbCString@@H_N1AEAV?$bTObjArray@VbCString@@@@@Z
?BackupFiles@gCWorld@@QEAA_NAEBVbCString@@H_N11@Z
?BackupFilesExists@gCSector@@QEAA_NAEBVbCString@@H@Z
?BackupFilesExists@gCWorld@@QEAA_NAEBVbCString@@HPEAVbCDateTime@@@Z
?BeginInteraction@gCInteraction@@QEAA_NPEAVeCEntity@@H@Z
?BeginInteraction@gCInteraction_PS@@QEAA_NPEAVeCEntity@@W4gEInteractionType@@H@Z
?BeginPrefetch@gCHUDFileManager@@AEAAXXZ
?BeginProgress@gCHUDFileManager@@AEAAXXZ
?BeginStatusEffect@gCNPC_PS@@QEAA_NAEBUgSNPCStatusEffect@@K@Z
?BlockAllDummyVisuals@gCDummyCollectorPSet_Base@@IEAA?AW4bEResult@@H@Z
?BuildClusterLists@gCNavZone_PS@@QEAA?AW4bEResult@@XZ
?BuildLists@gCNavigationMapCompiler@@IEAA?AW4bEResult@@AEAV?$bTObjArray@VbCString@@@@0@Z
?BuildMap@gCNavigationMapCompiler@@IEAA?AW4bEResult@@XZ
?BuildMapInfosByOwners@gCInfoSystem@@IEAAXXZ
?BuildResolutions@gCHudResolutionManager2@@AEAAXXZ
?BuildUserOptions@gCGameApp@@IEAA?AW4bEResult@@K@Z
?CacheOut@gCFocusModule2@@QEAAXAEAVgCDeferredFocusCollector2@@@Z
?CacheOut@gCFocusModule2@@QEAAXAEAVgCDeferredFocusIndicator2@@@Z
?CalcAbsHeightDiffFlagAndPrioFlag@gCNavPath_PS@@QEAAMAEBVbCVector@@AEA_N1@Z
?CalcAbsHeightDiffFlagAndPrioFlag@gCNavZone_PS@@QEAAMAEBVbCVector@@AEA_N1@Z
?CalcAltStandInterPose@gCDynamicCollisionCircle_PS@@QEAA?AVbCMotion@@PEBV1@H@Z
?CalcAngleSumStakeA@gCNegZone_PSObj@@IEAAMAEAH@Z
?CalcAngleSumStakeB@gCNegZone_PSObj@@IEAAMAEAH@Z
?CalcAniVelocity@gCCharacterMovement_PS@@IEAAXXZ
?CalcDistToGoal@gCCharacterMovement_PS@@IEAAX_N@Z
?CalcEvadeForFrontalMeeting@gCDynamicCollisionCircle_PS@@QEAAXPEAV1@0AEBVbCVector@@1_N22@Z
?CalcEvadeForOverhaul@gCDynamicCollisionCircle_PS@@QEAAXPEAV1@0AEBVbCVector@@1_N2@Z
?CalcEvadeForStandardMeeting@gCDynamicCollisionCircle_PS@@QEAAXPEAV1@0AEBVbCVector@@1_N2@Z
?CalcGroundSlopeTransScale@gCCharacterMovement_PS@@IEAAXXZ
?CalcLines@gCQuestLogFrame2@@AEAAXAEBV?$bTObjArray@USLogEntry@gCQuest@@@@AEAH1@Z
?CalcMarkerData@gCMap_PS@@QEBA_NHAEAM00@Z
?CalcMoveDir@gCCombatMoveMelee@@QEBA?AVbCVector@@PEAVgCCombatSystem_PS@@@Z
?CalcMoveInterPose@gCDynamicCollisionCircle_PS@@QEAAXAEBVbCVector@@PEAV1@0_N22@Z
?CalcNearestPathPoint@gCNavPath_PS@@QEAA?AVbCVector@@AEBV2@@Z
?CalcNewRotationAngleAndVelocity@gCCharacterMovement_PS@@IEAAXAEBVbCVector@@0MAEAM1_N@Z
?CalcNewWantedPose@gCDynamicCollisionCircle_PS@@QEAAXM@Z
?CalcNextSteps@gCCharacterMovement_PS@@IEAAXXZ
?CalcPathHeights@gCNavPath_PS@@QEAA?AW4bEResult@@XZ
?CalcPreferedStandInterPose@gCDynamicCollisionCircle_PS@@QEAA?AVbCMotion@@AEBVbCVector@@PEBV1@PEBVeCEntity@@PEAVgCNavigation_PS@@_N@Z
?CalcQuadrupedDistances@gCCharacterMovement_PS@@IEAAXXZ
?CalcShootPower@gCCombatMoveAim@@AEAAMPEAUgSCombatMoveInstance@@@Z
?CalcTextRect@gCGUIEntityRenderer@@IEAA_NPEAVeCGuiDevice2@@AEBVbCMatrix@@AEBVbCVector@@2AEBVbCUnicodeString@@AEAVbCRect@@AEAM@Z
?CalcZoneHeights@gCNavZone_PS@@QEAA?AW4bEResult@@XZ
?CalculateEvade@gCCollisionCircle_PSObj@@QEAA?AW4bEResult@@AEBVbCStretch@@MH@Z
?CalculatePathZoneIntersections@gCNavigationMapCompiler@@IEAA?AW4bEResult@@XZ
?CalculateTargetPositionOffset@gCCameraAdmin@@IEAA?AVbCVector@@AEBVbCMatrix@@@Z
?CallAIFunction@gCScriptProcessingUnit@@QEAA_NAEBVgCScriptProxyAIFunction@@AEAV?$bTObjStack@UgScriptRunTimeSingleState@@@@PEAV1@PEAUgSArgsForScriptBase@@@Z
?CallAIFunction@gCScriptProcessingUnit@@QEAA_NAEBVgCScriptProxyAIFunction@@PEAUgSArgsForScriptBase@@@Z
?CallHitScript@gCProjectile2_PS@@QEAAXAEAUgSHitInfo@1@@Z
?CallOnEnterScript@gCStateGraph_PS@@IEAA_NXZ
?CallOnExitScript@gCStateGraph_PS@@IEAA_NXZ
?CallScript@gCScriptAdmin@@IEAA_JAEBVbCString@@PEAVeCEntity@@1_J@Z
?CallScript@gCScriptAdmin@@MEAA_JPEAUgSScript@@PEAVeCEntity@@1_J@Z
?CallScriptFromScript@gCScriptAdmin@@IEAA_JAEBVbCString@@PEAX1_J@Z
?CallScriptFromScript@gCScriptAdmin@@IEAA_JPEAUgSScript@@PEAX1_J@Z
?CallTheNextOnProcessRoutine@gCNavigationAdmin@@QEAAXXZ
?CanAlignTarget@gCCombatMoveMelee@@QEBA_NPEAVgCCombatSystem_PS@@PEAVeCGeometryEntity@@@Z
?CanAttach@gCInteractionSlot@@QEBA_NPEAVgCInteraction_PS@@PEAVeCTemplateEntity@@@Z
?CanAttach@gCInteraction_PS@@QEBA_NPEAVeCTemplateEntity@@@Z
?CanBeHeightCorrected@gCCharacterMovement_PS@@QEBA_NM@Z
?CanBufferNextMove@gCCombatMoveMelee@@UEBA_NPEAUgSCombatMoveInstance@@W4gECombatMove@@@Z
?CanCorrectTarget@gCNavigationAdmin@@QEAA_NPEAVgCNavigation_PS@@AEBVbCVector@@_N@Z
?CanCorrectTarget@gCNavigationMap@@QEAA_NPEAVgCNavigation_PS@@AEBVbCVector@@_N@Z
?CanCorrectTarget@gCNavigation_PS@@QEAA_NAEBVbCVector@@@Z
?CanCounterCurrentTarget@gCCombatSystem_PS@@QEBA_NW4gECombatMove@@@Z
?CanCounterMove@gCCombatMove@@UEBA_NPEAVgCCombatSystem_PS@@0W4gECombatMove@@@Z
?CanCounterMove@gCCombatMoveMelee@@UEBA_NPEAVgCCombatSystem_PS@@0W4gECombatMove@@@Z
?CanEquipStackToSlot@gCInventory_PS@@QEAA_NHW4gEEquipSlot@@@Z
?CanEvade@gCNavigationAdmin@@QEAA_NAEBVeCEntity@@AEBVbCVector@@_N@Z
?CanEvade@gCNavigationMapNavigator@@QEAA_NAEBVeCEntity@@AEBVbCVector@@_N@Z
?CanFallDown@gCCharacterMovement_PS@@QEBA_NXZ
?CanGoToState@gCStateGraph_PS@@QEAA_NAEBVbCString@@@Z
?CanGoto@gCNavigationAdmin@@QEAA_NAEBVeCEntity@@0_N11@Z
?CanGoto@gCNavigationAdmin@@QEAA_NAEBVeCEntity@@AEBVbCVector@@_N2@Z
?CanGoto@gCNavigationMapNavigator@@QEAA_NAEBVeCEntity@@0_N11@Z
?CanGoto@gCNavigationMapNavigator@@QEAA_NAEBVeCEntity@@AEBVbCVector@@PEBV2@_N33@Z
?CanInteractWith@gCInteraction@@QEBA_NPEAVeCEntity@@H@Z
?CanInteractWith@gCInteraction_PS@@QEBA_NPEAVeCEntity@@W4gEInteractionType@@H@Z
?CanJump@gCCharacterMovement_PS@@QEBA_NXZ
?CanLoad@gCSaveGameManager@@QEAA_NAEBVbCString@@@Z
?CanMerge@gCInventoryStack@@QEBA_NAEBV1@@Z
?CanParade@gCCombatMove@@IEBA_NW4gECombatParadeType@@0@Z
?CanPlayerMove@gCSession@@QEBA_NXZ
?CanSensorCorrectDirection@gCCharacterMovement_PS@@QEBA_NXZ
?CanSlide@gCCharacterMovement_PS@@QEBA_NXZ
?CanStandAtGoal@gCCharacterMovement_PS@@QEBA_NAEBVbCMotion@@_N11@Z
?CanStartComboMove@gCCombatMove@@UEBA_NPEAUgSCombatMoveInstance@@W4gECombatMove@@@Z
?CanStartComboMove@gCCombatMoveAim@@UEBA_NPEAUgSCombatMoveInstance@@W4gECombatMove@@@Z
?CanStartComboMove@gCCombatMoveMelee@@UEBA_NPEAUgSCombatMoveInstance@@W4gECombatMove@@@Z
?CanStartComboMove@gCCombatMoveParade@@UEBA_NPEAUgSCombatMoveInstance@@W4gECombatMove@@@Z
?CanStartComboMove@gCCombatMoveShoot@@UEBA_NPEAUgSCombatMoveInstance@@W4gECombatMove@@@Z
?CanStartEvent@gCTutorialAdmin@@IEBA_NPEAVgCTutorialEvent@@@Z
?CanUse@gCMap_PS@@QEBA_NXZ
?CanWalkOnFloor@gCCharacterMovement_PS@@QEBA_NAEBVbCVector@@@Z
?CanWalkToGoal@gCCharacterMovement_PS@@QEAA_NAEBVbCMotion@@PEAVeCGeometryEntity@@AEAVgCMovementWayDescription@1@_N@Z
?CancelNavigation@gCNavigationMapNavigator@@IEAAXPEAVgCNavigation_PS@@_N1W4gEGotoStatus@@@Z
?ChangeItemAmount@gCInventory_PS@@QEAAHHH@Z
?ChangeKeyEntry@gCActionAdmin@@QEAAXW4eEScanCode@@0W4gEActionKey@@@Z
?CheckAllControlledDCCs@gCNavigationAdmin@@IEAA?AW4bEResult@@HPEAVgCNavigation_PS@@PEAVgCDynamicCollisionCircle_PS@@_N@Z
?CheckChangedMovementStates@gCCharacterMovement_PS@@QEAAXXZ
?CheckCharacterGotStuck@gCCharacterMovement_PS@@QEAAXXZ
?CheckDeliveryEntitiesStatus@gCQuest@@QEAAXXZ
?CheckFlightPath@gCProjectile2_PS@@QEAA_NAEBVbCVector@@0@Z
?CheckFlightPathSweep@gCProjectile2_PS@@QEAA_NAEBVbCVector@@0@Z
?CheckSlideSpace@gCCharacterMovement_PS@@QEBA_NAEBVbCVector@@@Z
?CheckTriggeredDeliveryEntitiesStatusChecks@gCQuestManager@@QEAAXXZ
?ClearAllCollections@gCDummyCollectorAdmin@@QEAAXXZ
?ClearCollection@gCDummyCollectorEntity@@UEAA?AW4bEResult@@XZ
?ClearCollection@gCDummyCollectorPSet_Base@@UEAA?AW4bEResult@@XZ
?ClearDefaultItems@gCInventory_PS@@IEAA_NXZ
?ClearGameEvent@gCHUDFileManager@@AEAAXXZ
?ClearGameLog@gCHudSystem2@@QEAA_NXZ
?ClearGameVariables@gCInfoSystem@@QEAAXXZ
?ClearKeyEntries@gCActionAdmin@@IEAAXXZ
?ClearPath@gCStateGraph_PS@@QEAA_NXZ
?ClearScriptGameList@gCScriptAdmin@@QEAAXXZ
?ClearSystemSector@gCWorld@@QEAA?AW4eEResult@eCProcessibleElement@@XZ
?ClearVolatileFrameStates@gCCharacterControl@@IEAAXXZ
?ClearVolatileFrameStates@gCCharacterMovement_PS@@IEAAXXZ
?ClearVolatileFrameStates@gCCharacterSensor@@IEAAXXZ
?Clone@gCInfoCommand@@UEBAPEAV1@XZ
?Clone@gCInfoCondition@@UEBAPEAV1@XZ
?CloneDialog@gCHudSystem2@@QEAAPEAVgCHudDialog2@@AEBVbCString@@@Z
?CloneFrame@gCHudSystem2@@QEAAPEAVeCGuiFrame2@@AEBVbCString@@@Z
?Close@gCHudSystem2@@QEAA_NW4gEHudPage@@_N@Z
?CloseQuest@gCQuestManager@@QEAA_NAEBVbCString@@_N@Z
?CloseQuest@gCQuestManager@@QEAA_NPEAVgCQuest@@_N@Z
?CloseQuests@gCQuestManager@@QEAAXW4gEQuestType@@AEBVbCString@@@Z
?Collect@gCDummyCollectorAnchor@@UEAA?AW4bEResult@@AEAVeCDynamicEntity@@@Z
?Collect@gCDummyCollectorAnchor@@UEAA?AW4bEResult@@AEBVbCBox@@@Z
?Collect@gCDummyCollectorCollisionCircle@@UEAA?AW4bEResult@@AEAVeCDynamicEntity@@@Z
?Collect@gCDummyCollectorCollisionCircle@@UEAA?AW4bEResult@@AEBVbCBox@@@Z
?Collect@gCDummyCollectorDoor@@UEAA?AW4bEResult@@AEAVeCDynamicEntity@@@Z
?Collect@gCDummyCollectorDoor@@UEAA?AW4bEResult@@AEBVbCBox@@@Z
?Collect@gCDummyCollectorDynamicCollisionCircle@@UEAA?AW4bEResult@@AEAVeCDynamicEntity@@@Z
?Collect@gCDummyCollectorDynamicCollisionCircle@@UEAA?AW4bEResult@@AEBVbCBox@@@Z
?Collect@gCDummyCollectorEntity@@UEAA?AW4bEResult@@AEAVeCDynamicEntity@@@Z
?Collect@gCDummyCollectorEntity@@UEAA?AW4bEResult@@AEBVbCBox@@@Z
?Collect@gCDummyCollectorFreepoint@@UEAA?AW4bEResult@@AEAVeCDynamicEntity@@@Z
?Collect@gCDummyCollectorFreepoint@@UEAA?AW4bEResult@@AEBVbCBox@@@Z
?Collect@gCDummyCollectorNavOffset@@UEAA?AW4bEResult@@AEAVeCDynamicEntity@@@Z
?Collect@gCDummyCollectorNavOffset@@UEAA?AW4bEResult@@AEBVbCBox@@@Z
?Collect@gCDummyCollectorNavPath@@UEAA?AW4bEResult@@AEAVeCDynamicEntity@@@Z
?Collect@gCDummyCollectorNavPath@@UEAA?AW4bEResult@@AEBVbCBox@@@Z
?Collect@gCDummyCollectorNavZone@@UEAA?AW4bEResult@@AEAVeCDynamicEntity@@@Z
?Collect@gCDummyCollectorNavZone@@UEAA?AW4bEResult@@AEBVbCBox@@@Z
?Collect@gCDummyCollectorNegZone@@UEAA?AW4bEResult@@AEAVeCDynamicEntity@@@Z
?Collect@gCDummyCollectorNegZone@@UEAA?AW4bEResult@@AEBVbCBox@@@Z
?Collect@gCDummyCollectorPrefPath@@UEAA?AW4bEResult@@AEAVeCDynamicEntity@@@Z
?Collect@gCDummyCollectorPrefPath@@UEAA?AW4bEResult@@AEBVbCBox@@@Z
?CollectAutomatic@gCDummyCollectorAdmin@@IEAAXAEBVbCVector@@M@Z
?CollectAutomatic@gCDummyCollectorBase@@UEAA?AW4bEResult@@AEBVbCVector@@M@Z
?CollectAutomatic@gCDummyCollectorCollisionCircle@@UEAA?AW4bEResult@@AEBVbCVector@@M@Z
?CollectAutomatic@gCDummyCollectorNegZone@@UEAA?AW4bEResult@@AEBVbCVector@@M@Z
?CollectAutomatic@gCDummyCollectorPrefPath@@UEAA?AW4bEResult@@AEBVbCVector@@M@Z
?CollectContexts@gCSector@@QEBAXAEAV?$bTValArray@PEAVeCContextBase@@@@@Z
?CollectEntity@gCDummyCollectorAdmin@@IEAAXAEAVeCDynamicEntity@@@Z
?CollectPSObjects@gCDummyCollectorCollisionCircle@@IEAA?AW4bEResult@@AEAV?$bTPtrArray@PEAVgCCollisionCircle_PSObj@@@@@Z
?CollectPSObjects@gCDummyCollectorNegZone@@IEAA?AW4bEResult@@AEAV?$bTPtrArray@PEAVgCNegZone_PSObj@@@@@Z
?CollectPSObjects@gCDummyCollectorPrefPath@@IEAA?AW4bEResult@@AEAV?$bTPtrArray@PEAVgCPrefPath_PSObj@@@@@Z
?CollectProcessingRange@gCDummyCollectorAdmin@@IEAAXXZ
?CollectPropertySets@gCDummyCollectorPSet_Base@@IEAA?AW4bEResult@@AEAVeCDynamicEntity@@AEBW4eEPropertySetType@@@Z
?CollectPropertySets@gCDummyCollectorPSet_Base@@IEAA?AW4bEResult@@AEBVbCBox@@AEBW4eEPropertySetType@@@Z
?CollectSaveGameConflicts@gCSector@@QEBAXAEAV?$bTValArray@UgSSaveGameConflict@@@@@Z
?CollectSaveGameConflicts@gCWorld@@QEBAXAEAV?$bTValArray@UgSSaveGameConflict@@@@@Z
?CollectSaveGameEntities@gCDynamicLayer@@QEBAXAEAV?$bTValArray@PEAVeCEntity@@@@@Z
?CollectSectors@gCSectorPersistence_PS@@QEAA_NXZ
?Compare@gCInventoryStack@@QEBAHAEBV1@@Z
?Compare@gCItem_PS@@QEBAHAEBV1@AEBVgCInventory_PS@@@Z
?CompareFocusName@gCInventoryStack@@IEBAHAEBV1@@Z
?CompareItems@gCEffectCommandSequence2@@KAHPEBX0@Z
?CompareResolutions@gCHudResolutionManager2@@CAHPEAXPEBX1@Z
?CompareTo@gCRecipe_PS@@QEBAHAEBV1@@Z
?CompileNavigationScene@gCNavigationAdmin@@QEAA?AW4bEResult@@_NVbCString@@0@Z
?CompileStaticNavigationScene@gCNavigationMapCompiler@@QEAA?AW4bEResult@@_NAEBVbCString@@0@Z
?ComposeID@gCInfoLocString@@UEBA?AVbCString@@AEBV2@@Z
?ConnectCharacter@gCInventoryList@@QEAA_NXZ
?ConsumeItems@gCInventory_PS@@QEAA_NHK@Z
?ContainsContent@gCMap_PS@@QEBA_NXZ
?ContainsEntity@gCMap_PS@@QEBA_NAEBV?$bTObjArray@VgCMapEntry@@@@@Z
?ContainsEntity@gCMap_PS@@QEBA_NAEBVbCString@@@Z
?ContainsEntity@gCMap_PS@@QEBA_NH@Z
?ContainsEntity@gCSector@@IEBA_NPEBVeCEntity@@AEBV2@@Z
?ContainsEntity@gCSector@@QEBA_NAEBVeCEntity@@@Z
?ContainsPosition@gCPrefPath_PSObj@@QEAA_NAEBVbCVector@@@Z
?ContainsQuest@gCMap_PS@@QEBA_NAEBVbCString@@@Z
?ContributeFloorActions@gCCharacterMovement_PS@@IEAAXXZ
?ContributeFloorMovements@gCCharacterMovement_PS@@IEAAXXZ
?CopyActionsFrom@gCStateGraphState@@IEAA_NPEBV1@_N@Z
?CopyCheckFailed@gCSession@@QEBA_NXZ
?CopyEventFilterFrom@gCStateGraphAction@@IEAA_NPEBV1@_N@Z
?CopyFileToBackup@gCSector@@KAXAEBVbCString@@0AEAV?$bTObjArray@VbCString@@@@@Z
?CopyFrom@gCCollisionCircle_PSObj@@QEAA?AW4bEResult@@AEBV1@@Z
?CopyFrom@gCNegZone_PSObj@@QEAA?AW4bEResult@@AEBV1@@Z
?CopyFrom@gCPrefPath_PSObj@@QEAA?AW4bEResult@@AEBV1@@Z
?CopyFrom@gCSession@@UEAAXAEBV1@@Z
?CopyFrom@gCSessionCheats@@UEAAXAEBV1@@Z
?CopyFrom@gCSessionInfo@@UEAAXAEBV1@@Z
?CopyStatesFrom@gCStateGraph_PS@@IEAA_NPEBV1@_N@Z
?CopyThumbnail@gCSaveGame@@AEAAXPEAVeCGfxImageData@@@Z
?CopyWay@gCNavigationMapNavigator@@IEAAXAEB_NAEBUgSNavArea@gCNavigationMapTypes@@AEBV?$bTPtrArray@PEAUgSNavWay@gCNavigationMapTypes@@@@AEAV?$bTObjArray@UgSWayAreaElement@gCNavigationMapTypes@@@@@Z
?CopyWithoutThumbnail@gCSaveGame@@QEAAXAEBV1@@Z
?CorrectDCCPositions@gCNavigationMapNavigator@@QEAA?AW4bEResult@@PEAVgCNavigationAdmin@@HPEAVgCNavigation_PS@@PEAVgCDynamicCollisionCircle_PS@@12@Z
?CorrectGoalMiss@gCCharacterMovement_PS@@IEAA_NXZ
?CountNavPathDeadEnds@gCNavigationMapTester@@IEAAKAEBVgCNavPath_PS@@AEAVbCPropertyID@@1@Z
?CounterTargets@gCCombatMoveMelee@@QEAA_NPEAUgSCombatMoveInstanceMelee@1@@Z
?Create@eCAIHelperAdmin@@UEAA?AW4bEResult@@XZ
?Create@gCAIHelper_FreePoint_PS@@UEAA?AW4bEResult@@XZ
?Create@gCAIHelper_Label_PS@@UEAA?AW4bEResult@@XZ
?Create@gCAIZone_PS@@UEAA?AW4bEResult@@XZ
?Create@gCActionAdmin@@UEAA?AW4bEResult@@XZ
?Create@gCAnchor_PS@@UEAA?AW4bEResult@@XZ
?Create@gCArena_PS@@UEAA?AW4bEResult@@XZ
?Create@gCBook_PS@@UEAA?AW4bEResult@@XZ
?Create@gCCameraAdmin@@UEAA?AW4bEResult@@XZ
?Create@gCCastInfo_PS@@UEAA?AW4bEResult@@XZ
?Create@gCCharacterControl@@UEAA?AW4bEResult@@XZ
?Create@gCCharacterMovement_PS@@UEAA?AW4bEResult@@XZ
?Create@gCCharacterSensor@@UEAA?AW4bEResult@@XZ
?Create@gCClock_PS@@UEAA?AW4bEResult@@XZ
?Create@gCCollisionCircle_PS@@UEAA?AW4bEResult@@XZ
?Create@gCCombatAI@@UEAA?AW4bEResult@@XZ
?Create@gCCombatAIMelee@@UEAA?AW4bEResult@@XZ
?Create@gCCombatAIRanged@@UEAA?AW4bEResult@@XZ
?Create@gCCombatAdmin@@UEAA?AW4bEResult@@XZ
?Create@gCCombatMove@@UEAA?AW4bEResult@@XZ
?Create@gCCombatMoveAim@@UEAA?AW4bEResult@@XZ
?Create@gCCombatMoveComboSwitch@@UEAA?AW4bEResult@@XZ
?Create@gCCombatMoveFinishing@@UEAA?AW4bEResult@@XZ
?Create@gCCombatMoveMelee@@UEAA?AW4bEResult@@XZ
?Create@gCCombatMoveOverlayStumble@@UEAA?AW4bEResult@@XZ
?Create@gCCombatMoveParade@@UEAA?AW4bEResult@@XZ
?Create@gCCombatMoveReload@@UEAA?AW4bEResult@@XZ
?Create@gCCombatMoveScriptState@@UEAA?AW4bEResult@@XZ
?Create@gCCombatMoveShoot@@UEAA?AW4bEResult@@XZ
?Create@gCCombatMoveStumble@@UEAA?AW4bEResult@@XZ
?Create@gCCombatSpecies@@UEAA?AW4bEResult@@XZ
?Create@gCCombatStyle@@UEAA?AW4bEResult@@XZ
?Create@gCCombatStyleMelee@@UEAA?AW4bEResult@@XZ
?Create@gCCombatStyleRanged@@UEAA?AW4bEResult@@XZ
?Create@gCCombatSystem_PS@@UEAA?AW4bEResult@@XZ
?Create@gCDamage_PS@@UEAA?AW4bEResult@@XZ
?Create@gCDatabase@@QEAA?AW4bEResult@@AEAVgCWorkspace@@AEBVbCString@@@Z
?Create@gCDialog_PS@@UEAA?AW4bEResult@@XZ
?Create@gCDoor_PS@@UEAA?AW4bEResult@@XZ
?Create@gCDummyCollectorAdmin@@UEAA?AW4bEResult@@XZ
?Create@gCDynamicCollisionCircle_PS@@UEAA?AW4bEResult@@XZ
?Create@gCDynamicLayer@@UEAA?AW4bEResult@@XZ
?Create@gCDynamicLayer@@UEAA?AW4eEResult@eCProcessibleElement@@AEAVgCSector@@AEBVbCString@@W4gEEntityType@@@Z
?Create@gCEditorEntityPropertySet@@UEAA?AW4bEResult@@XZ
?Create@gCEffect_PS@@UEAA?AW4bEResult@@XZ
?Create@gCFlightPathBallistic@@UEAA?AW4bEResult@@XZ
?Create@gCFlightPathBase@@UEAA?AW4bEResult@@XZ
?Create@gCFlightPathSeeking@@UEAA?AW4bEResult@@XZ
?Create@gCGUIEntityRenderer@@QEAA_NXZ
?Create@gCGameApp@@MEAA?AW4bEResult@@XZ
?Create@gCGameScript_PS@@UEAA?AW4bEResult@@XZ
?Create@gCHudDialog2@@UEAA_NAEBVbCString@@AEBVbCPoint@@PEAVIFFGuiWnd2@@@Z
?Create@gCHudPage2@@UEAA_NAEBVbCString@@AEBVbCPoint@@PEAVIFFGuiWnd2@@@Z
?Create@gCHudSystem2@@QEAA_NXZ
?Create@gCInfo@@UEAA?AW4bEResult@@XZ
?Create@gCInteraction@@UEAA?AW4bEResult@@XZ
?Create@gCInteraction_PS@@UEAA?AW4bEResult@@XZ
?Create@gCInventory_PS@@UEAA?AW4bEResult@@XZ
?Create@gCItem_PS@@UEAA?AW4bEResult@@XZ
?Create@gCLetter_PS@@UEAA?AW4bEResult@@XZ
?Create@gCLock_PS@@UEAA?AW4bEResult@@XZ
?Create@gCMapInfo_PS@@UEAA?AW4bEResult@@XZ
?Create@gCMap_PS@@UEAA?AW4bEResult@@XZ
?Create@gCNPC_PS@@UEAA?AW4bEResult@@XZ
?Create@gCNavHelper_PS@@UEAA?AW4bEResult@@XZ
?Create@gCNavOffset_PS@@UEAA?AW4bEResult@@XZ
?Create@gCNavPath_PS@@UEAA?AW4bEResult@@XZ
?Create@gCNavZone_PS@@UEAA?AW4bEResult@@XZ
?Create@gCNavigationAdmin@@UEAA?AW4bEResult@@XZ
?Create@gCNavigation_PS@@UEAA?AW4bEResult@@XZ
?Create@gCNegZone_PS@@UEAA?AW4bEResult@@XZ
?Create@gCPartyAdmin@@UEAA?AW4bEResult@@XZ
?Create@gCParty_PS@@UEAA?AW4bEResult@@XZ
?Create@gCPrefPath_PS@@UEAA?AW4bEResult@@XZ
?Create@gCProject@@QEAA?AW4eEResult@eCProcessibleElement@@AEAVgCWorkspace@@AEBVbCString@@@Z
?Create@gCProject@@UEAA?AW4bEResult@@XZ
?Create@gCProjectile2_PS@@UEAA?AW4bEResult@@XZ
?Create@gCQuest@@UEAA?AW4bEResult@@XZ
?Create@gCQuestManager@@UEAA?AW4bEResult@@XZ
?Create@gCRecipe_PS@@UEAA?AW4bEResult@@XZ
?Create@gCRuntimeInfo@@QEAAXXZ
?Create@gCSaveGame@@AEAAXAEBVbCUnicodeString@@AEBVbCString@@PEAVeCGfxImageData@@PEAUgSSaveGameData@@@Z
?Create@gCScriptAdmin@@UEAA?AW4bEResult@@XZ
?Create@gCScriptRoutine_PS@@UEAA?AW4bEResult@@XZ
?Create@gCSector@@QEAA?AW4eEResult@eCProcessibleElement@@AEAVgCWorld@@AEBVbCString@@1@Z
?Create@gCSector@@UEAA?AW4bEResult@@XZ
?Create@gCSectorPersistence_PS@@UEAA?AW4bEResult@@XZ
?Create@gCSession@@UEAA?AW4bEResult@@XZ
?Create@gCSessionCheats@@UEAA?AW4bEResult@@XZ
?Create@gCSessionInfo@@UEAA?AW4bEResult@@XZ
?Create@gCSkills_PS@@UEAA?AW4bEResult@@XZ
?Create@gCStateGraphAction@@UEAA?AW4bEResult@@XZ
?Create@gCStateGraphActionCallScript@@UEAA?AW4bEResult@@XZ
?Create@gCStateGraphActionEventDispatcher@@UEAA?AW4bEResult@@XZ
?Create@gCStateGraphActionFollowState@@UEAA?AW4bEResult@@XZ
?Create@gCStateGraphActionPauseAni@@UEAA?AW4bEResult@@XZ
?Create@gCStateGraphActionPlayAni@@UEAA?AW4bEResult@@XZ
?Create@gCStateGraphActionStartEffect@@UEAA?AW4bEResult@@XZ
?Create@gCStateGraphActionStop@@UEAA?AW4bEResult@@XZ
?Create@gCStateGraphActionTrigger@@UEAA?AW4bEResult@@XZ
?Create@gCStateGraphActionTriggerState@@UEAA?AW4bEResult@@XZ
?Create@gCStateGraphActionUnTrigger@@UEAA?AW4bEResult@@XZ
?Create@gCStateGraphActionVisibility@@UEAA?AW4bEResult@@XZ
?Create@gCStateGraphActionWait@@UEAA?AW4bEResult@@XZ
?Create@gCStateGraphEventFilter@@UEAA?AW4bEResult@@XZ
?Create@gCStateGraphEventFilterCollisionShape@@UEAA?AW4bEResult@@XZ
?Create@gCStateGraphEventFilterDamageAmount@@UEAA?AW4bEResult@@XZ
?Create@gCStateGraphEventFilterIsEntity@@UEAA?AW4bEResult@@XZ
?Create@gCStateGraphEventFilterIsNPC@@UEAA?AW4bEResult@@XZ
?Create@gCStateGraphEventFilterIsPlayer@@UEAA?AW4bEResult@@XZ
?Create@gCStateGraphEventFilterScript@@UEAA?AW4bEResult@@XZ
?Create@gCStateGraphEventFilterTemplate@@UEAA?AW4bEResult@@XZ
?Create@gCStateGraphState@@UEAA?AW4bEResult@@XZ
?Create@gCStateGraphTransition@@QEAAXXZ
?Create@gCStateGraph_PS@@UEAA?AW4bEResult@@XZ
?Create@gCWaterZone_PS@@UEAA?AW4bEResult@@XZ
?Create@gCWorkspace@@QEAA?AW4bEResult@@AEBVbCString@@@Z
?Create@gCWorld@@QEAA?AW4eEResult@eCProcessibleElement@@AEAVgCProject@@AEBVbCString@@@Z
?Create@gCWorld@@UEAA?AW4bEResult@@XZ
?CreateAxisEntry@gCActionAdmin@@IEAAXW4eERawInputAxis@@W4gEActionAxis@@@Z
?CreateCameraEntity@gCCameraAdmin@@QEAAXXZ
?CreateChildEntity@gCWorld@@QEAAPEAVeCEntity@@PEAV2@@Z
?CreateChildEntityFromTemplate@gCWorld@@QEAAPEAVeCEntity@@PEAV2@PEAVeCTemplateEntity@@@Z
?CreateCollisionCirclePSObject@gCDynamicCollisionCircle_PS@@QEAAXPEAVgCNavZone_PS@@@Z
?CreateComboData@gCCombatMove@@UEAAPEAUgSComboData@@PEAUgSCombatMoveInstance@@@Z
?CreateComboData@gCCombatMoveAim@@UEAAPEAUgSComboData@@PEAUgSCombatMoveInstance@@@Z
?CreateComboData@gCCombatMoveMelee@@UEAAPEAUgSComboData@@PEAUgSCombatMoveInstance@@@Z
?CreateDebugKeyEntry@gCActionAdmin@@IEAAXW4eEScanCode@@AEBVbCString@@@Z
?CreateDefaultActionMap@gCActionAdmin@@QEAAXXZ
?CreateDependantPSets@gCCharacterMovement_PS@@IEAAXXZ
?CreateDependantShapes@gCCharacterMovement_PS@@QEAAXXZ
?CreateDragData@gCInventoryList@@MEAAPEAVIFFGuiDataObject2@@XZ
?CreateDummyEntities@gCDummyCollectorAdmin@@IEAAXXZ
?CreateDynamicEntity@gCDynamicLayer@@QEAAPEAVeCDynamicEntity@@AEBV?$bTObjArray@VbCString@@@@@Z
?CreateDynamicEntity@gCDynamicLayer@@QEAAPEAVeCDynamicEntity@@AEBVbCString@@@Z
?CreateDynamicEntity@gCDynamicLayer@@QEAAPEAVeCDynamicEntity@@XZ
?CreateDynamicEntity@gCWorld@@QEAAPEAVeCDynamicEntity@@AEBV?$bTObjArray@VbCString@@@@@Z
?CreateDynamicEntity@gCWorld@@QEAAPEAVeCDynamicEntity@@AEBVbCString@@@Z
?CreateDynamicEntity@gCWorld@@QEAAPEAVeCDynamicEntity@@XZ
?CreateEffect@gCEffect_PS@@IEAAXXZ
?CreateEmitter@gCWaterZone_PS@@QEBA_NXZ
?CreateInfo@gCInfoSystem@@QEAAPEAVgCInfo@@AEBVbCString@@@Z
?CreateInfo@gCInfoSystem@@QEAAPEAXAEBVgCInfo@@@Z
?CreateItems@gCInventory_PS@@QEAAHAEBVbCPropertyID@@KW4gEStackType@@@Z
?CreateItems@gCInventory_PS@@QEAAHPEBVeCTemplateEntity@@KW4gEStackType@@@Z
?CreateKeyEntry@gCActionAdmin@@QEAAXW4eEScanCode@@W4gEActionKey@@E@Z
?CreateNewWaterSubZone@gCWaterZone_PS@@QEAA?AW4bEResult@@AEBV?$bTValArray@VbCVector@@@@@Z
?CreateObject@eCAIHelperAdmin@@SAPEAVbCObjectBase@@XZ
?CreateObject@gCAIHelper_FreePoint_PS@@SAPEAVbCObjectBase@@XZ
?CreateObject@gCAIHelper_Label_PS@@SAPEAVbCObjectBase@@XZ
?CreateObject@gCAIZone_PS@@SAPEAVbCObjectBase@@XZ
?CreateObject@gCAchievement@@SAPEAVbCObjectBase@@XZ
?CreateObject@gCAchievementAdmin@@SAPEAVbCObjectBase@@XZ
?CreateObject@gCActionAdmin@@SAPEAVbCObjectBase@@XZ
?CreateObject@gCAnchor_PS@@SAPEAVbCObjectBase@@XZ
?CreateObject@gCArena_PS@@SAPEAVbCObjectBase@@XZ
?CreateObject@gCBook_PS@@SAPEAVbCObjectBase@@XZ
?CreateObject@gCCameraAdmin@@SAPEAVbCObjectBase@@XZ
?CreateObject@gCCastInfo_PS@@SAPEAVbCObjectBase@@XZ
?CreateObject@gCCharacterControl@@SAPEAVbCObjectBase@@XZ
?CreateObject@gCCharacterMovement_PS@@SAPEAVbCObjectBase@@XZ
?CreateObject@gCCharacterSensor@@SAPEAVbCObjectBase@@XZ
?CreateObject@gCClock_PS@@SAPEAVbCObjectBase@@XZ
?CreateObject@gCCollisionCircle_PS@@SAPEAVbCObjectBase@@XZ
?CreateObject@gCCombatAI@@SAPEAVbCObjectBase@@XZ
?CreateObject@gCCombatAIMelee@@SAPEAVbCObjectBase@@XZ
?CreateObject@gCCombatAIRanged@@SAPEAVbCObjectBase@@XZ
?CreateObject@gCCombatAdmin@@SAPEAVbCObjectBase@@XZ
?CreateObject@gCCombatMove@@SAPEAVbCObjectBase@@XZ
?CreateObject@gCCombatMoveAim@@SAPEAVbCObjectBase@@XZ
?CreateObject@gCCombatMoveComboSwitch@@SAPEAVbCObjectBase@@XZ
?CreateObject@gCCombatMoveFinishing@@SAPEAVbCObjectBase@@XZ
?CreateObject@gCCombatMoveMelee@@SAPEAVbCObjectBase@@XZ
?CreateObject@gCCombatMoveOverlayStumble@@SAPEAVbCObjectBase@@XZ
?CreateObject@gCCombatMoveParade@@SAPEAVbCObjectBase@@XZ
?CreateObject@gCCombatMoveReload@@SAPEAVbCObjectBase@@XZ
?CreateObject@gCCombatMoveScriptState@@SAPEAVbCObjectBase@@XZ
?CreateObject@gCCombatMoveShoot@@SAPEAVbCObjectBase@@XZ
?CreateObject@gCCombatMoveStumble@@SAPEAVbCObjectBase@@XZ
?CreateObject@gCCombatObject@@SAPEAVbCObjectBase@@XZ
?CreateObject@gCCombatSpecies@@SAPEAVbCObjectBase@@XZ
?CreateObject@gCCombatStyle@@SAPEAVbCObjectBase@@XZ
?CreateObject@gCCombatStyleAniPose@@SAPEAVbCObjectBase@@XZ
?CreateObject@gCCombatStyleMelee@@SAPEAVbCObjectBase@@XZ
?CreateObject@gCCombatStyleRanged@@SAPEAVbCObjectBase@@XZ
?CreateObject@gCCombatStyleWeaponConfig@@SAPEAVbCObjectBase@@XZ
?CreateObject@gCCombatSystem_PS@@SAPEAVbCObjectBase@@XZ
?CreateObject@gCCombatWeaponConfig@@SAPEAVbCObjectBase@@XZ
?CreateObject@gCCraftIngredient@@SAPEAVbCObjectBase@@XZ
?CreateObject@gCDamage_PS@@SAPEAVbCObjectBase@@XZ
?CreateObject@gCDatabase@@SAPEAVbCObjectBase@@XZ
?CreateObject@gCDialog_PS@@SAPEAVbCObjectBase@@XZ
?CreateObject@gCDoor_PS@@SAPEAVbCObjectBase@@XZ
?CreateObject@gCDummyCollectorAdmin@@SAPEAVbCObjectBase@@XZ
?CreateObject@gCDummyVisualBase_PS@@SAPEAVbCObjectBase@@XZ
?CreateObject@gCDynamicCollisionCircle_PS@@SAPEAVbCObjectBase@@XZ
?CreateObject@gCDynamicLayer@@SAPEAVbCObjectBase@@XZ
?CreateObject@gCEditorEntityPropertySet@@SAPEAVbCObjectBase@@XZ
?CreateObject@gCEffectCommand@@SAPEAVbCObjectBase@@XZ
?CreateObject@gCEffectCommandEarthquake@@SAPEAVbCObjectBase@@XZ
?CreateObject@gCEffectCommandEntity@@SAPEAVbCObjectBase@@XZ
?CreateObject@gCEffectCommandKillEntity@@SAPEAVbCObjectBase@@XZ
?CreateObject@gCEffectCommandKillEntityRange@@SAPEAVbCObjectBase@@XZ
?CreateObject@gCEffectCommandModifyEntity@@SAPEAVbCObjectBase@@XZ
?CreateObject@gCEffectCommandPlaySound@@SAPEAVbCObjectBase@@XZ
?CreateObject@gCEffectCommandPlayVoice@@SAPEAVbCObjectBase@@XZ
?CreateObject@gCEffectCommandRunScript@@SAPEAVbCObjectBase@@XZ
?CreateObject@gCEffectCommandSaySVM@@SAPEAVbCObjectBase@@XZ
?CreateObject@gCEffectCommandSequence2@@SAPEAVbCObjectBase@@XZ
?CreateObject@gCEffectCommandSpawnEntity@@SAPEAVbCObjectBase@@XZ
?CreateObject@gCEffectCommandSpawnEntityList@@SAPEAVbCObjectBase@@XZ
?CreateObject@gCEffectCommandSpawnEntitySwitch@@SAPEAVbCObjectBase@@XZ
?CreateObject@gCEffectCommandStartImageEffect@@SAPEAVbCObjectBase@@XZ
?CreateObject@gCEffectCommandTriggerEntity@@SAPEAVbCObjectBase@@XZ
?CreateObject@gCEffectModule@@SAPEAVbCObjectBase@@XZ
?CreateObject@gCEffect_PS@@SAPEAVbCObjectBase@@XZ
?CreateObject@gCEntityDummyVisual_PS@@SAPEAVbCObjectBase@@XZ
?CreateObject@gCFlightPathBallistic@@SAPEAVbCObjectBase@@XZ
?CreateObject@gCFlightPathBase@@SAPEAVbCObjectBase@@XZ
?CreateObject@gCFlightPathSeeking@@SAPEAVbCObjectBase@@XZ
?CreateObject@gCFocusModule2@@SAPEAVbCObjectBase@@XZ
?CreateObject@gCGUIFilter@@SAPEAVbCObjectBase@@XZ
?CreateObject@gCGameScript_PS@@SAPEAVbCObjectBase@@XZ
?CreateObject@gCHudDialog2@@SAPEAVbCObjectBase@@XZ
?CreateObject@gCHudModule2@@SAPEAVbCObjectBase@@XZ
?CreateObject@gCHudPage2@@SAPEAVbCObjectBase@@XZ
?CreateObject@gCHudPopUp2@@SAPEAVbCObjectBase@@XZ
?CreateObject@gCInfo@@SAPEAVbCObjectBase@@XZ
?CreateObject@gCInfoCommand@@SAPEAVbCObjectBase@@XZ
?CreateObject@gCInfoCommandAddInfoSystemEndScript@@SAPEAVbCObjectBase@@XZ
?CreateObject@gCInfoCommandAddLogText@@SAPEAVbCObjectBase@@XZ
?CreateObject@gCInfoCommandAddNPCInfo@@SAPEAVbCObjectBase@@XZ
?CreateObject@gCInfoCommandAddQuestActor@@SAPEAVbCObjectBase@@XZ
?CreateObject@gCInfoCommandAttack@@SAPEAVbCObjectBase@@XZ
?CreateObject@gCInfoCommandBack@@SAPEAVbCObjectBase@@XZ
?CreateObject@gCInfoCommandBoostAttribs@@SAPEAVbCObjectBase@@XZ
?CreateObject@gCInfoCommandClearGameEvent@@SAPEAVbCObjectBase@@XZ
?CreateObject@gCInfoCommandCloseQuest@@SAPEAVbCObjectBase@@XZ
?CreateObject@gCInfoCommandCreateItem@@SAPEAVbCObjectBase@@XZ
?CreateObject@gCInfoCommandDescription@@SAPEAVbCObjectBase@@XZ
?CreateObject@gCInfoCommandDestroyItem@@SAPEAVbCObjectBase@@XZ
?CreateObject@gCInfoCommandDoLoot@@SAPEAVbCObjectBase@@XZ
?CreateObject@gCInfoCommandDoTrade@@SAPEAVbCObjectBase@@XZ
?CreateObject@gCInfoCommandEnd@@SAPEAVbCObjectBase@@XZ
?CreateObject@gCInfoCommandEndGame@@SAPEAVbCObjectBase@@XZ
?CreateObject@gCInfoCommandFullStop@@SAPEAVbCObjectBase@@XZ
?CreateObject@gCInfoCommandGive@@SAPEAVbCObjectBase@@XZ
?CreateObject@gCInfoCommandGiveXP@@SAPEAVbCObjectBase@@XZ
?CreateObject@gCInfoCommandHeal@@SAPEAVbCObjectBase@@XZ
?CreateObject@gCInfoCommandInfoWait@@SAPEAVbCObjectBase@@XZ
?CreateObject@gCInfoCommandKillNPC@@SAPEAVbCObjectBase@@XZ
?CreateObject@gCInfoCommandMoveTo@@SAPEAVbCObjectBase@@XZ
?CreateObject@gCInfoCommandPickPocket@@SAPEAVbCObjectBase@@XZ
?CreateObject@gCInfoCommandPlayMusic@@SAPEAVbCObjectBase@@XZ
?CreateObject@gCInfoCommandRemoveNPC@@SAPEAVbCObjectBase@@XZ
?CreateObject@gCInfoCommandRemoveNPCInfo@@SAPEAVbCObjectBase@@XZ
?CreateObject@gCInfoCommandRemoveQuestActor@@SAPEAVbCObjectBase@@XZ
?CreateObject@gCInfoCommandRunAIScript@@SAPEAVbCObjectBase@@XZ
?CreateObject@gCInfoCommandRunInfo@@SAPEAVbCObjectBase@@XZ
?CreateObject@gCInfoCommandRunQuest@@SAPEAVbCObjectBase@@XZ
?CreateObject@gCInfoCommandRunScript@@SAPEAVbCObjectBase@@XZ
?CreateObject@gCInfoCommandSay@@SAPEAVbCObjectBase@@XZ
?CreateObject@gCInfoCommandSayConfirm@@SAPEAVbCObjectBase@@XZ
?CreateObject@gCInfoCommandSayHoldingPosition@@SAPEAVbCObjectBase@@XZ
?CreateObject@gCInfoCommandSayKeepItUp@@SAPEAVbCObjectBase@@XZ
?CreateObject@gCInfoCommandSaySVM@@SAPEAVbCObjectBase@@XZ
?CreateObject@gCInfoCommandSaySound@@SAPEAVbCObjectBase@@XZ
?CreateObject@gCInfoCommandSetGameEvent@@SAPEAVbCObjectBase@@XZ
?CreateObject@gCInfoCommandSetGuardStatus@@SAPEAVbCObjectBase@@XZ
?CreateObject@gCInfoCommandSetMobEnabled@@SAPEAVbCObjectBase@@XZ
?CreateObject@gCInfoCommandSetPartyEnabled@@SAPEAVbCObjectBase@@XZ
?CreateObject@gCInfoCommandSetRelaxingPoint@@SAPEAVbCObjectBase@@XZ
?CreateObject@gCInfoCommandSetRoutine@@SAPEAVbCObjectBase@@XZ
?CreateObject@gCInfoCommandSetSectorStatus@@SAPEAVbCObjectBase@@XZ
?CreateObject@gCInfoCommandSetSlaveryEnabled@@SAPEAVbCObjectBase@@XZ
?CreateObject@gCInfoCommandSetSleepingPoint@@SAPEAVbCObjectBase@@XZ
?CreateObject@gCInfoCommandSetTeachEnabled@@SAPEAVbCObjectBase@@XZ
?CreateObject@gCInfoCommandSetTradeEnabled@@SAPEAVbCObjectBase@@XZ
?CreateObject@gCInfoCommandSetWorkingPoint@@SAPEAVbCObjectBase@@XZ
?CreateObject@gCInfoCommandShowPicture@@SAPEAVbCObjectBase@@XZ
?CreateObject@gCInfoCommandShowSubtitle@@SAPEAVbCObjectBase@@XZ
?CreateObject@gCInfoCommandSleep@@SAPEAVbCObjectBase@@XZ
?CreateObject@gCInfoCommandStartEffect@@SAPEAVbCObjectBase@@XZ
?CreateObject@gCInfoCommandStartFixCamera@@SAPEAVbCObjectBase@@XZ
?CreateObject@gCInfoCommandStartTutorial@@SAPEAVbCObjectBase@@XZ
?CreateObject@gCInfoCommandStopFixCamera@@SAPEAVbCObjectBase@@XZ
?CreateObject@gCInfoCommandSucceedQuest@@SAPEAVbCObjectBase@@XZ
?CreateObject@gCInfoCommandTeach@@SAPEAVbCObjectBase@@XZ
?CreateObject@gCInfoCommandTeleportNPC@@SAPEAVbCObjectBase@@XZ
?CreateObject@gCInfoCommandThink@@SAPEAVbCObjectBase@@XZ
?CreateObject@gCInfoCommandTrigger@@SAPEAVbCObjectBase@@XZ
?CreateObject@gCInfoCommandUse@@SAPEAVbCObjectBase@@XZ
?CreateObject@gCInfoCommandWear@@SAPEAVbCObjectBase@@XZ
?CreateObject@gCInfoCondition@@SAPEAVbCObjectBase@@XZ
?CreateObject@gCInfoConditionCanTeachSkill@@SAPEAVbCObjectBase@@XZ
?CreateObject@gCInfoConditionItemAmount@@SAPEAVbCObjectBase@@XZ
?CreateObject@gCInfoConditionNPCStatus@@SAPEAVbCObjectBase@@XZ
?CreateObject@gCInfoConditionOwnerInArea@@SAPEAVbCObjectBase@@XZ
?CreateObject@gCInfoConditionOwnerNearEntity@@SAPEAVbCObjectBase@@XZ
?CreateObject@gCInfoConditionPlayerKnows@@SAPEAVbCObjectBase@@XZ
?CreateObject@gCInfoConditionPlayerNotKnows@@SAPEAVbCObjectBase@@XZ
?CreateObject@gCInfoConditionQuestStatus@@SAPEAVbCObjectBase@@XZ
?CreateObject@gCInfoConditionScript@@SAPEAVbCObjectBase@@XZ
?CreateObject@gCInfoConditionSkillValue@@SAPEAVbCObjectBase@@XZ
?CreateObject@gCInfoConditionTeachEnabled@@SAPEAVbCObjectBase@@XZ
?CreateObject@gCInfoModule@@SAPEAVbCObjectBase@@XZ
?CreateObject@gCInteraction@@SAPEAVbCObjectBase@@XZ
?CreateObject@gCInteractionAdmin@@SAPEAVbCObjectBase@@XZ
?CreateObject@gCInteractionSlot@@SAPEAVbCObjectBase@@XZ
?CreateObject@gCInteraction_PS@@SAPEAVbCObjectBase@@XZ
?CreateObject@gCInventoryList@@SAPEAVbCObjectBase@@XZ
?CreateObject@gCInventorySlot@@SAPEAVbCObjectBase@@XZ
?CreateObject@gCInventoryStack@@SAPEAVbCObjectBase@@XZ
?CreateObject@gCInventory_PS@@SAPEAVbCObjectBase@@XZ
?CreateObject@gCItem_PS@@SAPEAVbCObjectBase@@XZ
?CreateObject@gCLayerBase@@SAPEAVbCObjectBase@@XZ
?CreateObject@gCLetter_PS@@SAPEAVbCObjectBase@@XZ
?CreateObject@gCLock_PS@@SAPEAVbCObjectBase@@XZ
?CreateObject@gCMapEntry@@SAPEAVbCObjectBase@@XZ
?CreateObject@gCMapInfo_PS@@SAPEAVbCObjectBase@@XZ
?CreateObject@gCMap_PS@@SAPEAVbCObjectBase@@XZ
?CreateObject@gCModifySkill@@SAPEAVbCObjectBase@@XZ
?CreateObject@gCMusicModule2@@SAPEAVbCObjectBase@@XZ
?CreateObject@gCNPC_PS@@SAPEAVbCObjectBase@@XZ
?CreateObject@gCNavHelper_PS@@SAPEAVbCObjectBase@@XZ
?CreateObject@gCNavOffset_PS@@SAPEAVbCObjectBase@@XZ
?CreateObject@gCNavPath_PS@@SAPEAVbCObjectBase@@XZ
?CreateObject@gCNavZone_PS@@SAPEAVbCObjectBase@@XZ
?CreateObject@gCNavigationAdmin@@SAPEAVbCObjectBase@@XZ
?CreateObject@gCNavigation_PS@@SAPEAVbCObjectBase@@XZ
?CreateObject@gCNegZone_PS@@SAPEAVbCObjectBase@@XZ
?CreateObject@gCPartyAdmin@@SAPEAVbCObjectBase@@XZ
?CreateObject@gCParty_PS@@SAPEAVbCObjectBase@@XZ
?CreateObject@gCPrefPath_PS@@SAPEAVbCObjectBase@@XZ
?CreateObject@gCProject@@SAPEAVbCObjectBase@@XZ
?CreateObject@gCProjectile2_PS@@SAPEAVbCObjectBase@@XZ
?CreateObject@gCPropertyDummyVisual_PS@@SAPEAVbCObjectBase@@XZ
?CreateObject@gCQuest@@SAPEAVbCObjectBase@@XZ
?CreateObject@gCQuestActor@@SAPEAVbCObjectBase@@XZ
?CreateObject@gCQuestLogFrame2@@SAPEAVbCObjectBase@@XZ
?CreateObject@gCQuestManager@@SAPEAVbCObjectBase@@XZ
?CreateObject@gCRecipe_PS@@SAPEAVbCObjectBase@@XZ
?CreateObject@gCScriptAdmin@@SAPEAVbCObjectBase@@XZ
?CreateObject@gCScriptRoutine_PS@@SAPEAVbCObjectBase@@XZ
?CreateObject@gCSector@@SAPEAVbCObjectBase@@XZ
?CreateObject@gCSectorPersistence_PS@@SAPEAVbCObjectBase@@XZ
?CreateObject@gCSession@@SAPEAVbCObjectBase@@XZ
?CreateObject@gCSessionCheats@@SAPEAVbCObjectBase@@XZ
?CreateObject@gCSessionInfo@@SAPEAVbCObjectBase@@XZ
?CreateObject@gCSkillRange@@SAPEAVbCObjectBase@@XZ
?CreateObject@gCSkillValue@@SAPEAVbCObjectBase@@XZ
?CreateObject@gCSkillValueBase@@SAPEAVbCObjectBase@@XZ
?CreateObject@gCSkills_PS@@SAPEAVbCObjectBase@@XZ
?CreateObject@gCSpinButton@@SAPEAVbCObjectBase@@XZ
?CreateObject@gCStateGraphAction@@SAPEAVbCObjectBase@@XZ
?CreateObject@gCStateGraphActionCallScript@@SAPEAVbCObjectBase@@XZ
?CreateObject@gCStateGraphActionEventDispatcher@@SAPEAVbCObjectBase@@XZ
?CreateObject@gCStateGraphActionFollowState@@SAPEAVbCObjectBase@@XZ
?CreateObject@gCStateGraphActionPauseAni@@SAPEAVbCObjectBase@@XZ
?CreateObject@gCStateGraphActionPlayAni@@SAPEAVbCObjectBase@@XZ
?CreateObject@gCStateGraphActionStartEffect@@SAPEAVbCObjectBase@@XZ
?CreateObject@gCStateGraphActionStop@@SAPEAVbCObjectBase@@XZ
?CreateObject@gCStateGraphActionTrigger@@SAPEAVbCObjectBase@@XZ
?CreateObject@gCStateGraphActionTriggerState@@SAPEAVbCObjectBase@@XZ
?CreateObject@gCStateGraphActionUnTrigger@@SAPEAVbCObjectBase@@XZ
?CreateObject@gCStateGraphActionVisibility@@SAPEAVbCObjectBase@@XZ
?CreateObject@gCStateGraphActionWait@@SAPEAVbCObjectBase@@XZ
?CreateObject@gCStateGraphEventFilter@@SAPEAVbCObjectBase@@XZ
?CreateObject@gCStateGraphEventFilterCollisionShape@@SAPEAVbCObjectBase@@XZ
?CreateObject@gCStateGraphEventFilterDamageAmount@@SAPEAVbCObjectBase@@XZ
?CreateObject@gCStateGraphEventFilterIsEntity@@SAPEAVbCObjectBase@@XZ
?CreateObject@gCStateGraphEventFilterIsNPC@@SAPEAVbCObjectBase@@XZ
?CreateObject@gCStateGraphEventFilterIsPlayer@@SAPEAVbCObjectBase@@XZ
?CreateObject@gCStateGraphEventFilterScript@@SAPEAVbCObjectBase@@XZ
?CreateObject@gCStateGraphEventFilterTemplate@@SAPEAVbCObjectBase@@XZ
?CreateObject@gCStateGraphState@@SAPEAVbCObjectBase@@XZ
?CreateObject@gCStateGraph_PS@@SAPEAVbCObjectBase@@XZ
?CreateObject@gCTutorialAdmin@@SAPEAVbCObjectBase@@XZ
?CreateObject@gCTutorialEvent@@SAPEAVbCObjectBase@@XZ
?CreateObject@gCTutorialHint@@SAPEAVbCObjectBase@@XZ
?CreateObject@gCTutorialHintCollection@@SAPEAVbCObjectBase@@XZ
?CreateObject@gCWaterSubZone_PS@@SAPEAVbCObjectBase@@XZ
?CreateObject@gCWaterZone_PS@@SAPEAVbCObjectBase@@XZ
?CreateObject@gCWorkspace@@SAPEAVbCObjectBase@@XZ
?CreateObject@gCWorld@@SAPEAVbCObjectBase@@XZ
?CreatePSObject@gCCollisionCircle_PS@@QEAAXXZ
?CreatePSObject@gCNegZone_PS@@QEAAXXZ
?CreatePSObject@gCPrefPath_PS@@QEAAXXZ
?CreatePSObjects@gCNavigationMapCompiler@@IEAA?AW4bEResult@@XZ
?CreatePlayerEntity@gCSession@@IEAAXXZ
?CreateRuntimeInfo@gCInfo@@QEAAX_N@Z
?CreateSoundAndChannel@gCScriptProcessingUnit@@IEAA_NXZ
?CreateSpecificEntity@gCDatabase@@QEAAPEAVeCTemplateEntity@@XZ
?CreateStack@gCInventory_PS@@QEAAHXZ
?CreateStatistics@gCCameraAdmin@@UEBAPEAVeCStatistic@@XZ
?CreateStatistics@gCInfoModule@@UEBAPEAVeCStatistic@@XZ
?CreateStatistics@gCMusicModule2@@UEBAPEAVeCStatistic@@XZ
?CreateStatistics@gCQuestManager@@UEBAPEAVeCStatistic@@XZ
?CreateStatistics@gCSession@@UEBAPEAVeCStatistic@@XZ
?CreateSweepTestCapsule@gCCharacterMovement_PS@@QEBA_NAEAVbCCapsule@@AEBVbCVector@@M@Z
?CreateSystemLayer@gCWorld@@IEAAPEAVgCDynamicLayer@@PEBVbCString@@@Z
?CreateSystemSector@gCWorld@@IEAAPEAVgCSector@@XZ
?CreateSystemTempLayer@gCWorld@@IEAAPEAVgCDynamicLayer@@XZ
?CreateTempDynamicEntity@gCWorld@@QEAAPEAVeCDynamicEntity@@AEBV?$bTObjArray@VbCString@@@@@Z
?CreateTempDynamicEntity@gCWorld@@QEAAPEAVeCDynamicEntity@@AEBVbCString@@@Z
?CreateTempDynamicEntity@gCWorld@@QEAAPEAVeCDynamicEntity@@XZ
?CreateToolTipData@gCInventoryList@@UEAAPEAVIFFGuiDataObject2@@XZ
?CreateWorkspace@gCGameApp@@MEAA?AW4bEResult@@XZ
?CreateWorldMCP@gCWorld@@IEAA_NXZ
?Deactivate@gCProjectile2_PS@@QEAAXXZ
?DebugKeyPressed@gCActionAdmin@@UEAAXK@Z
?DebugKeyReleased@gCActionAdmin@@UEAAXK@Z
?Decay@gCEffect_PS@@UEAAXXZ
?DefaultHintsFrom@gCTutorialAdmin@@AEAAXAEBV?$eTDocObjectMap@VgCTutorialHintCollection@@@@@Z
?DelegateActiveStatus@gCCombatSystem_PS@@QEAA_NXZ
?Delete@gCSaveGameManager@@QEAA_NAEBVbCString@@@Z
?DeleteAll@gCSvmAdmin@@QEAAXXZ
?DeleteAllCollections@gCDummyCollectorAdmin@@IEAAXXZ
?DeleteAllEffects@gCEffectSystem@@IEAAXXZ
?DeleteAllGroups@gCSvmAdmin@@QEAAXXZ
?DeleteAllSvms@gCSvmAdmin@@QEAAXXZ
?DeleteAllVoices@gCSvmAdmin@@QEAAXXZ
?DeleteGroup@gCSvmAdmin@@QEAA_NH@Z
?DeleteIndexInPropertySet@gCDummyCollectorAnchor@@MEAA?AW4bEResult@@HH@Z
?DeleteIndexInPropertySet@gCDummyCollectorCollisionCircle@@MEAA?AW4bEResult@@HH@Z
?DeleteIndexInPropertySet@gCDummyCollectorDoor@@MEAA?AW4bEResult@@HH@Z
?DeleteIndexInPropertySet@gCDummyCollectorDynamicCollisionCircle@@MEAA?AW4bEResult@@HH@Z
?DeleteIndexInPropertySet@gCDummyCollectorFreepoint@@MEAA?AW4bEResult@@HH@Z
?DeleteIndexInPropertySet@gCDummyCollectorNavOffset@@MEAA?AW4bEResult@@HH@Z
?DeleteIndexInPropertySet@gCDummyCollectorNavPath@@MEAA?AW4bEResult@@HH@Z
?DeleteIndexInPropertySet@gCDummyCollectorNavZone@@MEAA?AW4bEResult@@HH@Z
?DeleteIndexInPropertySet@gCDummyCollectorNegZone@@MEAA?AW4bEResult@@HH@Z
?DeleteIndexInPropertySet@gCDummyCollectorPrefPath@@MEAA?AW4bEResult@@HH@Z
?DeleteItems@gCInventory_PS@@QEAA_NHK@Z
?DeleteOrphanedKeys@gCSvmAdmin@@IEBA_NPEAVCFXTable@@AEBV?$bTObjArray@USCombination@gCSvmAdmin@@@@@Z
?DeleteOrphanedKeys@gCSvmAdmin@@QEBA_NXZ
?DeletePropertySetMember@gCDummyCollectorAdmin@@QEAA?AW4bEResult@@W4eEPropertySetType@@AEAVeCDynamicEntity@@H@Z
?DeletePropertySetMember@gCDummyCollectorAdmin@@QEAA?AW4bEResult@@W4eEPropertySetType@@AEAVeCDynamicEntity@@PEAV4@@Z
?DeletePropertySetMember@gCDummyCollectorPSet_Base@@QEAA?AW4bEResult@@AEAVeCDynamicEntity@@H@Z
?DeletePropertySetMember@gCDummyCollectorPSet_Base@@QEAA?AW4bEResult@@AEAVeCDynamicEntity@@PEAV3@@Z
?DeleteRunningInfos@gCInfoSystem@@IEAAXXZ
?DeleteSaveGame@gCHUDFileManager@@QEAA_NAEBK@Z
?DeleteSaveGame@gCHUDFileManager@@QEAA_NAEBVbCUnicodeString@@@Z
?DeleteStack@gCInventory_PS@@QEAA_NH@Z
?DeleteState@gCStateGraph_PS@@QEAA_NAEBVbCString@@@Z
?DeleteSvm@gCSvmAdmin@@QEAA_NH@Z
?DeleteVoice@gCSvmAdmin@@QEAA_NH@Z
?DeregisterAnchorPS@gCNavigationAdmin@@QEAA?AW4bEResult@@PEAVgCAnchor_PS@@@Z
?DeregisterCollisionCirclePS@gCNavigationAdmin@@QEAA?AW4bEResult@@PEAVgCCollisionCircle_PS@@@Z
?DeregisterCollisionCirclePS@gCNavigationMap@@QEAA?AW4bEResult@@PEAVgCCollisionCircle_PS@@@Z
?DeregisterCollisionCirclePSObject@gCNavZone_PS@@QEAA?AW4bEResult@@PEAVgCCollisionCircle_PSObj@@@Z
?DeregisterDCC@gCNavigation_PS@@IEAAXXZ
?DeregisterDCCPS@gCNavPath_PS@@QEAA?AW4bEResult@@PEAVgCDynamicCollisionCircle_PS@@@Z
?DeregisterDCCPS@gCNavZone_PS@@QEAA?AW4bEResult@@PEAVgCDynamicCollisionCircle_PS@@@Z
?DeregisterDoorPS@gCNavigationAdmin@@QEAA?AW4bEResult@@PEAVgCDoor_PS@@@Z
?DeregisterFreePointPS@gCNavigationAdmin@@QEAA?AW4bEResult@@PEAVgCAIHelper_FreePoint_PS@@@Z
?DeregisterFreePointPS@gCNavigationMap@@QEAA?AW4bEResult@@PEAVgCAIHelper_FreePoint_PS@@@Z
?DeregisterInteractionPS@gCNavigationAdmin@@QEAA?AW4bEResult@@PEAVgCInteraction_PS@@@Z
?DeregisterInteractionPS@gCNavigationMap@@QEAA?AW4bEResult@@PEAVgCInteraction_PS@@@Z
?DeregisterNavOffsetPS@gCNavigationAdmin@@QEAA?AW4bEResult@@PEAVgCNavOffset_PS@@@Z
?DeregisterNavOffsetPS@gCNavigationMap@@QEAA?AW4bEResult@@PEAVgCNavOffset_PS@@@Z
?DeregisterNavPathPS@gCNavigationAdmin@@QEAA?AW4bEResult@@PEAVgCNavPath_PS@@@Z
?DeregisterNavPathPS@gCNavigationMap@@QEAA?AW4bEResult@@PEAVgCNavPath_PS@@@Z
?DeregisterNavZonePS@gCNavigationAdmin@@QEAA?AW4bEResult@@PEAVgCNavZone_PS@@@Z
?DeregisterNavZonePS@gCNavigationMap@@QEAA?AW4bEResult@@PEAVgCNavZone_PS@@@Z
?DeregisterNavigationPS@gCNavigationAdmin@@QEAA?AW4bEResult@@PEAVgCNavigation_PS@@@Z
?DeregisterNavigationPSInROI@gCNavigationAdmin@@QEAA?AW4bEResult@@PEAVgCNavigation_PS@@@Z
?DeregisterNegZonePS@gCNavigationAdmin@@QEAA?AW4bEResult@@PEAVgCNegZone_PS@@@Z
?DeregisterNegZonePS@gCNavigationMap@@QEAA?AW4bEResult@@PEAVgCNegZone_PS@@@Z
?DeregisterNegZonePSObject@gCNavZone_PS@@QEAA?AW4bEResult@@PEAVgCNegZone_PSObj@@@Z
?DeregisterPrefPathPS@gCNavigationAdmin@@QEAA?AW4bEResult@@PEAVgCPrefPath_PS@@@Z
?DeregisterPrefPathPS@gCNavigationMap@@QEAA?AW4bEResult@@PEAVgCPrefPath_PS@@@Z
?DeregisterPrefPathPSObject@gCNavZone_PS@@QEAA?AW4bEResult@@PEAVgCPrefPath_PSObj@@@Z
?DeregisterWaterZonePS@gCNavigationAdmin@@QEAA?AW4bEResult@@PEAVgCWaterZone_PS@@@Z
?Deserialize@gCCombatObject@@UEAA_NPEAVbCXMLParserNode@@@Z
?Destroy@eCAIHelperAdmin@@UEAAXXZ
?Destroy@gCAIHelper_FreePoint_PS@@UEAAXXZ
?Destroy@gCAIHelper_Label_PS@@UEAAXXZ
?Destroy@gCAIZone_PS@@UEAAXXZ
?Destroy@gCActionAdmin@@UEAAXXZ
?Destroy@gCAnchor_PS@@UEAAXXZ
?Destroy@gCArena_PS@@UEAAXXZ
?Destroy@gCBook_PS@@UEAAXXZ
?Destroy@gCCameraAdmin@@UEAAXXZ
?Destroy@gCCastInfo_PS@@UEAAXXZ
?Destroy@gCCharacterControl@@UEAAXXZ
?Destroy@gCCharacterMovement_PS@@UEAAXXZ
?Destroy@gCCharacterSensor@@UEAAXXZ
?Destroy@gCClock_PS@@UEAAXXZ
?Destroy@gCCollisionCircle_PS@@UEAAXXZ
?Destroy@gCCollisionCircle_PSObj@@QEAAXXZ
?Destroy@gCCombatAI@@MEAAXXZ
?Destroy@gCCombatAIMelee@@MEAAXXZ
?Destroy@gCCombatAIRanged@@MEAAXXZ
?Destroy@gCCombatAdmin@@UEAAXXZ
?Destroy@gCCombatMove@@MEAAXXZ
?Destroy@gCCombatMoveAim@@MEAAXXZ
?Destroy@gCCombatMoveComboSwitch@@MEAAXXZ
?Destroy@gCCombatMoveFinishing@@MEAAXXZ
?Destroy@gCCombatMoveMelee@@MEAAXXZ
?Destroy@gCCombatMoveOverlayStumble@@MEAAXXZ
?Destroy@gCCombatMoveParade@@MEAAXXZ
?Destroy@gCCombatMoveReload@@MEAAXXZ
?Destroy@gCCombatMoveScriptState@@MEAAXXZ
?Destroy@gCCombatMoveShoot@@MEAAXXZ
?Destroy@gCCombatMoveStumble@@MEAAXXZ
?Destroy@gCCombatSpecies@@MEAAXXZ
?Destroy@gCCombatStyle@@MEAAXXZ
?Destroy@gCCombatStyleMelee@@MEAAXXZ
?Destroy@gCCombatStyleRanged@@MEAAXXZ
?Destroy@gCCombatSystem_PS@@UEAAXXZ
?Destroy@gCDamage_PS@@UEAAXXZ
?Destroy@gCDatabase@@UEAAXXZ
?Destroy@gCDialog_PS@@UEAAXXZ
?Destroy@gCDoor_PS@@UEAAXXZ
?Destroy@gCDummyCollectorAdmin@@UEAAXXZ
?Destroy@gCDummyVisualBase_PS@@UEAAXXZ
?Destroy@gCDynamicCollisionCircle_PS@@UEAAXXZ
?Destroy@gCEditorEntityPropertySet@@UEAAXXZ
?Destroy@gCEffect@@IEAAXXZ
?Destroy@gCEffectCommand@@UEAAXXZ
?Destroy@gCEffectCommandEarthquake@@UEAAXXZ
?Destroy@gCEffectCommandKillEntity@@UEAAXXZ
?Destroy@gCEffectCommandKillEntityRange@@UEAAXXZ
?Destroy@gCEffectCommandModifyEntity@@UEAAXXZ
?Destroy@gCEffectCommandPlaySound@@UEAAXXZ
?Destroy@gCEffectCommandPlayVoice@@UEAAXXZ
?Destroy@gCEffectCommandRunScript@@UEAAXXZ
?Destroy@gCEffectCommandSaySVM@@UEAAXXZ
?Destroy@gCEffectCommandSequence2@@MEAAXXZ
?Destroy@gCEffectCommandSpawnEntity@@UEAAXXZ
?Destroy@gCEffectCommandSpawnEntityList@@UEAAXXZ
?Destroy@gCEffectCommandSpawnEntitySwitch@@UEAAXXZ
?Destroy@gCEffectCommandStartImageEffect@@UEAAXXZ
?Destroy@gCEffectCommandTriggerEntity@@UEAAXXZ
?Destroy@gCEffectSystem@@IEAAXXZ
?Destroy@gCEffect_PS@@UEAAXXZ
?Destroy@gCEntityDummyVisual_PS@@UEAAXXZ
?Destroy@gCFlightPathBallistic@@UEAAXXZ
?Destroy@gCFlightPathBase@@UEAAXXZ
?Destroy@gCFlightPathSeeking@@UEAAXXZ
?Destroy@gCGUIEntityRenderer@@QEAAXXZ
?Destroy@gCGameApp@@UEAAXXZ
?Destroy@gCGameScript_PS@@UEAAXXZ
?Destroy@gCHudSystem2@@QEAAXXZ
?Destroy@gCInfo@@UEAAXXZ
?Destroy@gCInfoCommand@@UEAAXXZ
?Destroy@gCInfoCommandAddInfoSystemEndScript@@UEAAXXZ
?Destroy@gCInfoCommandAddLogText@@UEAAXXZ
?Destroy@gCInfoCommandAttack@@UEAAXXZ
?Destroy@gCInfoCommandBack@@UEAAXXZ
?Destroy@gCInfoCommandBoostAttribs@@UEAAXXZ
?Destroy@gCInfoCommandClearGameEvent@@UEAAXXZ
?Destroy@gCInfoCommandCloseQuest@@UEAAXXZ
?Destroy@gCInfoCommandCreateItem@@UEAAXXZ
?Destroy@gCInfoCommandDescription@@UEAAXXZ
?Destroy@gCInfoCommandDestroyItem@@UEAAXXZ
?Destroy@gCInfoCommandDoLoot@@UEAAXXZ
?Destroy@gCInfoCommandDoTrade@@UEAAXXZ
?Destroy@gCInfoCommandEnd@@UEAAXXZ
?Destroy@gCInfoCommandEndGame@@UEAAXXZ
?Destroy@gCInfoCommandFullStop@@UEAAXXZ
?Destroy@gCInfoCommandGive@@UEAAXXZ
?Destroy@gCInfoCommandGiveXP@@UEAAXXZ
?Destroy@gCInfoCommandHeal@@UEAAXXZ
?Destroy@gCInfoCommandInfoWait@@UEAAXXZ
?Destroy@gCInfoCommandKillNPC@@UEAAXXZ
?Destroy@gCInfoCommandMoveTo@@UEAAXXZ
?Destroy@gCInfoCommandPickPocket@@UEAAXXZ
?Destroy@gCInfoCommandPlayMusic@@UEAAXXZ
?Destroy@gCInfoCommandRemoveNPC@@UEAAXXZ
?Destroy@gCInfoCommandRunAIScript@@UEAAXXZ
?Destroy@gCInfoCommandRunInfo@@UEAAXXZ
?Destroy@gCInfoCommandRunQuest@@UEAAXXZ
?Destroy@gCInfoCommandRunScript@@UEAAXXZ
?Destroy@gCInfoCommandSay@@UEAAXXZ
?Destroy@gCInfoCommandSayConfirm@@UEAAXXZ
?Destroy@gCInfoCommandSayHoldingPosition@@UEAAXXZ
?Destroy@gCInfoCommandSayKeepItUp@@UEAAXXZ
?Destroy@gCInfoCommandSaySVM@@UEAAXXZ
?Destroy@gCInfoCommandSaySound@@UEAAXXZ
?Destroy@gCInfoCommandSetGameEvent@@UEAAXXZ
?Destroy@gCInfoCommandSetGuardStatus@@UEAAXXZ
?Destroy@gCInfoCommandSetMobEnabled@@UEAAXXZ
?Destroy@gCInfoCommandSetPartyEnabled@@UEAAXXZ
?Destroy@gCInfoCommandSetRelaxingPoint@@UEAAXXZ
?Destroy@gCInfoCommandSetRoutine@@UEAAXXZ
?Destroy@gCInfoCommandSetSectorStatus@@UEAAXXZ
?Destroy@gCInfoCommandSetSlaveryEnabled@@UEAAXXZ
?Destroy@gCInfoCommandSetSleepingPoint@@UEAAXXZ
?Destroy@gCInfoCommandSetTeachEnabled@@UEAAXXZ
?Destroy@gCInfoCommandSetTradeEnabled@@UEAAXXZ
?Destroy@gCInfoCommandSetWorkingPoint@@UEAAXXZ
?Destroy@gCInfoCommandShowPicture@@UEAAXXZ
?Destroy@gCInfoCommandShowSubtitle@@UEAAXXZ
?Destroy@gCInfoCommandSleep@@UEAAXXZ
?Destroy@gCInfoCommandStartEffect@@UEAAXXZ
?Destroy@gCInfoCommandStartFixCamera@@UEAAXXZ
?Destroy@gCInfoCommandStartTutorial@@UEAAXXZ
?Destroy@gCInfoCommandStopFixCamera@@UEAAXXZ
?Destroy@gCInfoCommandSucceedQuest@@UEAAXXZ
?Destroy@gCInfoCommandTeach@@UEAAXXZ
?Destroy@gCInfoCommandTeleportNPC@@UEAAXXZ
?Destroy@gCInfoCommandThink@@UEAAXXZ
?Destroy@gCInfoCommandTrigger@@UEAAXXZ
?Destroy@gCInfoCommandUse@@UEAAXXZ
?Destroy@gCInfoCommandWear@@UEAAXXZ
?Destroy@gCInfoCondition@@UEAAXXZ
?Destroy@gCInfoConditionCanTeachSkill@@UEAAXXZ
?Destroy@gCInfoConditionItemAmount@@UEAAXXZ
?Destroy@gCInfoConditionNPCStatus@@UEAAXXZ
?Destroy@gCInfoConditionOwnerInArea@@UEAAXXZ
?Destroy@gCInfoConditionOwnerNearEntity@@UEAAXXZ
?Destroy@gCInfoConditionPlayerKnows@@UEAAXXZ
?Destroy@gCInfoConditionPlayerNotKnows@@UEAAXXZ
?Destroy@gCInfoConditionQuestStatus@@UEAAXXZ
?Destroy@gCInfoConditionScript@@UEAAXXZ
?Destroy@gCInfoConditionSkillValue@@UEAAXXZ
?Destroy@gCInfoConditionTeachEnabled@@UEAAXXZ
?Destroy@gCInfoSystem@@IEAAXXZ
?Destroy@gCInteraction@@MEAAXXZ
?Destroy@gCInteraction_PS@@UEAAXXZ
?Destroy@gCInventorySlot@@UEAAXXZ
?Destroy@gCInventoryStack@@UEAAXXZ
?Destroy@gCInventory_PS@@UEAAXXZ
?Destroy@gCItem_PS@@UEAAXXZ
?Destroy@gCLayerBase@@UEAAXXZ
?Destroy@gCLetter_PS@@UEAAXXZ
?Destroy@gCLock_PS@@UEAAXXZ
?Destroy@gCMapInfo_PS@@UEAAXXZ
?Destroy@gCMap_PS@@UEAAXXZ
?Destroy@gCNPC_PS@@UEAAXXZ
?Destroy@gCNavHelper_PS@@UEAAXXZ
?Destroy@gCNavOffset_PS@@UEAAXXZ
?Destroy@gCNavPath_PS@@UEAAXXZ
?Destroy@gCNavZone_PS@@UEAAXXZ
?Destroy@gCNavigationAdmin@@UEAAXXZ
?Destroy@gCNavigation_PS@@UEAAXXZ
?Destroy@gCNegZone_PS@@UEAAXXZ
?Destroy@gCNegZone_PSObj@@QEAAXXZ
?Destroy@gCPartyAdmin@@UEAAXXZ
?Destroy@gCParty_PS@@UEAAXXZ
?Destroy@gCPrefPath_PS@@UEAAXXZ
?Destroy@gCPrefPath_PSObj@@QEAAXXZ
?Destroy@gCProject@@UEAAXXZ
?Destroy@gCProjectile2_PS@@UEAAXXZ
?Destroy@gCQuest@@UEAAXXZ
?Destroy@gCQuestManager@@UEAAXXZ
?Destroy@gCRecipe_PS@@UEAAXXZ
?Destroy@gCRuntimeInfo@@IEAAXXZ
?Destroy@gCScriptAdmin@@UEAAXXZ
?Destroy@gCScriptRoutine_PS@@UEAAXXZ
?Destroy@gCSector@@UEAAXXZ
?Destroy@gCSectorPersistence_PS@@UEAAXXZ
?Destroy@gCSession@@UEAAXXZ
?Destroy@gCSessionCheats@@UEAAXXZ
?Destroy@gCSessionInfo@@UEAAXXZ
?Destroy@gCSkills_PS@@UEAAXXZ
?Destroy@gCStateGraphAction@@MEAAXXZ
?Destroy@gCStateGraphActionCallScript@@MEAAXXZ
?Destroy@gCStateGraphActionEventDispatcher@@MEAAXXZ
?Destroy@gCStateGraphActionFollowState@@MEAAXXZ
?Destroy@gCStateGraphActionPauseAni@@MEAAXXZ
?Destroy@gCStateGraphActionPlayAni@@MEAAXXZ
?Destroy@gCStateGraphActionStartEffect@@MEAAXXZ
?Destroy@gCStateGraphActionStop@@MEAAXXZ
?Destroy@gCStateGraphActionTrigger@@MEAAXXZ
?Destroy@gCStateGraphActionTriggerState@@MEAAXXZ
?Destroy@gCStateGraphActionUnTrigger@@MEAAXXZ
?Destroy@gCStateGraphActionVisibility@@MEAAXXZ
?Destroy@gCStateGraphActionWait@@MEAAXXZ
?Destroy@gCStateGraphEventFilter@@MEAAXXZ
?Destroy@gCStateGraphEventFilterCollisionShape@@MEAAXXZ
?Destroy@gCStateGraphEventFilterDamageAmount@@MEAAXXZ
?Destroy@gCStateGraphEventFilterIsEntity@@MEAAXXZ
?Destroy@gCStateGraphEventFilterIsNPC@@MEAAXXZ
?Destroy@gCStateGraphEventFilterIsPlayer@@MEAAXXZ
?Destroy@gCStateGraphEventFilterScript@@MEAAXXZ
?Destroy@gCStateGraphEventFilterTemplate@@MEAAXXZ
?Destroy@gCStateGraphState@@MEAAXXZ
?Destroy@gCStateGraphTransition@@IEAAXXZ
?Destroy@gCStateGraph_PS@@UEAAXXZ
?Destroy@gCWaterSubZone_PS@@UEAAXXZ
?Destroy@gCWaterZone_PS@@UEAAXXZ
?Destroy@gCWorkspace@@UEAAXXZ
?Destroy@gCWorld@@UEAAXXZ
?DestroyCollisionCirclePSObject@gCDynamicCollisionCircle_PS@@QEAAXXZ
?DestroyComSeq@gCInfo@@IEAAXXZ
?DestroyCondSeq@gCInfo@@IEAAXXZ
?DestroyDynamicEntity@gCWorld@@QEAA_NPEAVeCDynamicEntity@@@Z
?DestroyEffect@gCEffect_PS@@IEAAX_N@Z
?DestroyEmitter@gCWaterZone_PS@@QEBA_NXZ
?DestroyRuntimeInfo@gCInfo@@IEAAXXZ
?DestroySoundAndChannel@gCScriptProcessingUnit@@IEAAXXZ
?DestroyTempDynamicEntity@gCWorld@@QEAA_NPEAVeCDynamicEntity@@@Z
?Detach@gCInteractionSlot@@QEAA_NPEAVgCInteraction_PS@@PEAVeCEntity@@@Z
?Detach@gCInteraction_PS@@QEAA_NPEAVeCEntity@@@Z
?DetachItemFromSkeleton@gCInventorySlot@@KA_NPEAVeCEntity@@0W4gESlot@@@Z
?DetectBiggestClusterAngle@gCNavigationMapNavigator@@IEAA_N_NPEAVgCNavigation_PS@@AEAVbCStretch@@AEAVbCVector@@AEAMAEBV4@AEBM3344AEAH74477AEBH8@Z
?DetectClimbMode@gCCharacterMovement_PS@@QEAA?AW4gEClimbMode@@W4gEDirection@@@Z
?DetectCollisionCircleGateway@gCCollisionCircle_PSObj@@QEAAXAEBVbCMatrix@@AEAVbCVector@@H@Z
?DetectCollisionCircleGateway@gCNavZone_PS@@QEAA_NAEBVbCMatrix@@AEAVbCVector@@H@Z
?DetectDailyRoutineTask@gCScriptProcessingUnit@@QEAA?AW4bEResult@@_N@Z
?DetectDoorAsInteractObject@gCNavigationMapNavigator@@IEAA_NPEAVgCNavigation_PS@@AEAVbCVector@@@Z
?DetectEvades@gCNavigationMapNavigator@@IEAA?AW4bEResult@@PEAVgCNavigation_PS@@PEBVbCVector@@1_N@Z
?DetectFinalTarget@gCNavigationMapNavigator@@IEAACPEAVgCNavigation_PS@@_N@Z
?DetectFinalTargetAsCollisionCircleOffset@gCNavigationMapNavigator@@IEAA_NPEAVgCNavigation_PS@@_NM@Z
?DetectFinalTargetAsFreePoint@gCNavigationMapNavigator@@IEAA_NPEAVgCNavigation_PS@@PEAVgCAIHelper_FreePoint_PS@@AEAVeCEntityProxy@@_N@Z
?DetectFinalTargetAsNPC@gCNavigationMapNavigator@@IEAA_NPEAVgCNavigation_PS@@0AEAVeCEntityProxy@@_N@Z
?DetectFinalTargetAsOffset@gCNavigationMapNavigator@@IEAA_NPEAVgCNavigation_PS@@PEAVgCNavOffset_PS@@AEAVeCEntityProxy@@_N@Z
?DetectFinalTargetAsOffsetOnCircle@gCNavigationMapNavigator@@IEAA_NPEAVgCNavigation_PS@@PEAVgCNavOffset_PS@@AEAVeCEntityProxy@@_N@Z
?DetectJumpMode@gCCharacterMovement_PS@@QEAA?AW4gEJumpMode@@W4gEDirection@@@Z
?DetectNetIndices@gCNavigationMapCompiler@@IEAA?AW4bEResult@@AEBVbCString@@@Z
?DetectNextNavPoint@gCNavigationMapNavigator@@IEAA?AW4bEResult@@PEAVgCNavigation_PS@@_N@Z
?DetectObstacleIntersection@gCNavigationMapNavigator@@IEAAXPEAVgCNavigation_PS@@PEAVgCNavZone_PS@@AEAVbCPropertyID@@AEAVbCStretch@@AEA_NAEAH@Z
?DetectSpecialPlayerGoto@gCNavigationMapNavigator@@IEAA_NPEAVgCNavigation_PS@@@Z
?DetectWaterContact@gCNavigationAdmin@@QEAA_NPEAVgCNavigation_PS@@AEBVbCVector@@PEAM@Z
?DisableAllPropertySets@gCDummyCollectorAdmin@@QEAAXXZ
?DisableAutoFocusTargetOverwrite@gCCameraAdmin@@QEAAXXZ
?DispatchEvent@gCStateGraphActionEventDispatcher@@IEAAXPEAVeCDynamicEntity@@W4gEStateGraphEventType@@PEAVeCEntity@@PEAX@Z
?DisplayToolTip@gCHudPopUp2@@QEAAXHH@Z
?DoAfterLoadData@gCSector@@MEAA_NXZ
?DoAfterWorldActivate@gCWorld@@IEAAXXZ
?DoDamage@gCDamage_PS@@QEAA_NPEAVeCEntity@@0@Z
?DoDamage@gCDamage_PS@@QEAA_NPEAVeCEntity@@@Z
?DoEnter@gCStateGraphAction@@IEAAXXZ
?DoEvent@gCStateGraphAction@@IEAAXW4gEStateGraphEventType@@PEAVeCEntity@@PEAX@Z
?DoExit@gCStateGraphAction@@IEAAXXZ
?DoLoadLocalConfiguration@gCWorld@@QEAAXXZ
?DoModal@gCHudSystem2@@QEAA_NVbCString@@AEAHPEAX@Z
?DoModalLoop@gCHudSystem2@@QEAA_NVbCString@@AEAHPEAX@Z
?DoProcess@gCStateGraphAction@@IEAA_NXZ
?DoSaveLocalConfiguration@gCWorld@@QEBAXXZ
?DoStateFinished@gCStateGraphAction@@IEAAXXZ
?DrawLogEntry@gCQuestLogFrame2@@IEAAHPEAVIFFGuiDC2@@AEBHAEBUSLogEntry@gCQuest@@UtagRECT@@H@Z
?DrawQuestLog@gCQuestLogFrame2@@IEAAXXZ
?DrawScreenMessage@gCGUIEntityRenderer@@IEAA_NPEAVeCGuiDevice2@@PEAVeCSprite@@AEBVbCMatrix@@AEBVbCVector@@3AEBVbCUnicodeString@@KM_N@Z
?DrawScreenMessages@gCGUIEntityRenderer@@QEAA_NPEAVeCGuiDevice2@@PEAVeCSprite@@@Z
?Drop@gCInventoryStack@@QEAAPEAVeCEntity@@PEAV2@@Z
?DropItemsFromSlot@gCInventory_PS@@QEAAPEAVeCEntity@@W4gESlot@@HPEBVbCMatrix@@@Z
?DropItemsFromStack@gCInventory_PS@@QEAAPEAVeCEntity@@HHPEBVbCMatrix@@@Z
?DropSlot@gCInventory_PS@@QEAAPEAVeCEntity@@W4gESlot@@PEBVbCMatrix@@@Z
?DropStack@gCInventory_PS@@QEAAPEAVeCEntity@@HPEBVbCMatrix@@@Z
?Dump@gCAchievementAdmin@@QEAAXXZ
?Dump@gCInventory_PS@@QEBAXXZ
?DumpCacheStats@gCSession@@QEAAXXZ
?DumpEvents@gCTutorialAdmin@@QEBAXXZ
?DumpFileSysStats@gCSession@@QEAAXXZ
?DumpHints@gCTutorialAdmin@@QEBAXXZ
?DumpMemStatsAll@gCSession@@QEAAXXZ
?DumpMemStatsObjects@gCSession@@QEAAXXZ
?DumpMemStatsResources@gCSession@@QEAAXXZ
?DumpMemStatsSubSystems@gCSession@@QEAAXXZ
?DumpPageReport@gCHudSystem2@@AEAAXXZ
?DumpStatsAll@gCSession@@QEAAXXZ
?DynAttachCollisionCirclePSObj@gCNavZone_PS@@QEAAXPEAVgCCollisionCircle_PSObj@@@Z
?DynDeattachCollisionCirclePSObj@gCNavZone_PS@@QEAAXPEAVgCCollisionCircle_PSObj@@@Z
?EL_GetCamfDistance@gCCameraAdmin@@AEAAMXZ
?EL_GetFrameTimeInSeconds@gCCharacterMovement_PS@@QEAAMXZ
?Enable@gCAchievementAdmin@@QEAAX_N@Z
?Enable@gCLayerBase@@QEAAX_N@Z
?Enable@gCSector@@QEAAX_N@Z
?Enable@gCTutorialAdmin@@QEAAX_N@Z
?EnableApplyToTemplate@gCDummyCollectorAdmin@@QEAAX_N@Z
?EnableApplyToTemplateInstances@gCDummyCollectorAdmin@@QEAAX_N@Z
?EnableAutoFocusTargetOverwrite@gCCameraAdmin@@QEAAXAEBVbCVector@@@Z
?EnableAutoUpdate@gCFocusModule2@@QEAAX_N@Z
?EnableAutoUpdate@gCMusicModule2@@QEAAX_N@Z
?EnableClassProcessing@gCCharacterMovement_PS@@UEAAX_N@Z
?EnableClassProcessing@gCClock_PS@@UEAAX_N@Z
?EnableClassProcessing@gCCombatSystem_PS@@UEAAX_N@Z
?EnableClassProcessing@gCEffect_PS@@UEAAX_N@Z
?EnableClassProcessing@gCGameScript_PS@@UEAAX_N@Z
?EnableClassProcessing@gCNPC_PS@@UEAAX_N@Z
?EnableClassProcessing@gCNavigation_PS@@UEAAX_N@Z
?EnableClassProcessing@gCScriptRoutine_PS@@UEAAX_N@Z
?EnableClassProcessing@gCStateGraph_PS@@UEAAX_N@Z
?EnableCombatMovementFromSPU@gCCharacterMovement_PS@@QEAAX_NAEBVeCEntityProxy@@AEAVbCVector@@@Z
?EnableCombatRotationFromSPU@gCCharacterMovement_PS@@QEAAX_NAEAVbCVector@@@Z
?EnableControlByAnimation@gCCharacterMovement_PS@@QEAAX_N@Z
?EnableDebugging@gCScriptRoutine_PS@@QEAAX_N@Z
?EnableGameLog@gCAchievementAdmin@@QEAAX_N@Z
?EnableGravitation@gCCharacterMovement_PS@@QEAAX_N@Z
?EnableInfoProcessing@gCInfoSystem@@QEAA_NPEAX_N@Z
?EnableItemRendering@gCInventorySlot@@KA_NPEAVeCEntity@@0W4gESlot@@_N@Z
?EnableMovementFromSPU@gCCharacterMovement_PS@@QEAAX_N@Z
?EnablePermanent@gCEffect@@QEAAX_N@Z
?EnableProcessing@gCRuntimeInfo@@QEAAX_N@Z
?EnablePropertyset@gCDummyCollectorAdmin@@QEAAXW4eEPropertySetType@@AEBVbCBox@@_N@Z
?EnablePropertyset@gCDummyCollectorAdmin@@QEAAXW4eEPropertySetType@@AEBVeCDynamicEntity@@_N@Z
?EnablePropertyset@gCDummyCollectorAdmin@@QEAAXW4eEPropertySetType@@_N@Z
?EnableRendering@gCInventorySlot@@QEAA_N_NPEAVeCEntity@@@Z
?EnableRenderingForIndex@gCDummyCollectorAdmin@@QEAAXW4eEPropertySetType@@AEAVeCDynamicEntity@@H_N@Z
?EnableRenderingForIndex@gCDummyCollectorPSet_Base@@QEAAXAEAVeCDynamicEntity@@H_N@Z
?EnableRotationFromSPU@gCCharacterMovement_PS@@QEAAX_N@Z
?EnableRotationFromSPU@gCCharacterMovement_PS@@QEAAX_NAEBVbCVector2@@@Z
?EnableSectorActivation@gCSector@@SAX_N@Z
?EnableSectorFolder@gCWorld@@QEAA_NAEBVbCString@@_N@Z
?EnableSectorSpeedup@gCSector@@SAX_N@Z
?EndInfoSystem@gCInfoSystem@@QEAAXPEAVgCInfo@@_N@Z
?EndInteraction@gCInteraction@@QEAA_NPEAVeCEntity@@@Z
?EndInteraction@gCInteraction_PS@@QEAA_NXZ
?EndModalLoop@gCHudSystem2@@QEAAXXZ
?EndPrefetch@gCHUDFileManager@@AEAAXXZ
?EndProgress@gCHUDFileManager@@AEAAXXZ
?EndStatusEffect@gCNPC_PS@@QEAA_NW4gEStatusEffect@@@Z
?EngineMessageProc@gCActionAdmin@@UEAAXAEAUeSEngineMessage@@@Z
?EngineMessageProc@gCDummyCollectorAdmin@@UEAAXAEAUeSEngineMessage@@@Z
?EngineMessageProc@gCHudModule2@@UEAAXAEAUeSEngineMessage@@@Z
?EnsureThumbnail@gCSaveGameManager@@AEAA_NXZ
?EnterProcessingRange@gCCharacterMovement_PS@@UEAAXXZ
?EnterProcessingRange@gCClock_PS@@UEAAXXZ
?EnterProcessingRange@gCCombatSystem_PS@@UEAAXXZ
?EnterProcessingRange@gCEffect_PS@@UEAAXXZ
?EnterProcessingRange@gCGameScript_PS@@UEAAXXZ
?EnterProcessingRange@gCNPC_PS@@UEAAXXZ
?EnterProcessingRange@gCNavigation_PS@@UEAAXXZ
?EnterProcessingRange@gCScriptRoutine_PS@@UEAAXXZ
?EnterProcessingRange@gCStateGraph_PS@@UEAAXXZ
?EnumEntities@gCLayerBase@@UEBA_NP6A_NPEAVeCEntity@@PEAX@Z1@Z
?EnumEntities@gCSector@@QEBA_NP6A_NPEAVeCEntity@@PEAX@Z1@Z
?EnumEntities@gCWorld@@QEBAXP6A_NPEAVeCEntity@@PEAX@Z1K@Z
?EquipStack@gCInventory_PS@@QEAA_NH@Z
?EquipStackToSlot@gCInventory_PS@@QEAA_NHW4gEEquipSlot@@@Z
?ExchangeComSeqItems@gCInfo@@QEAA_NHH@Z
?ExchangeCondSeqItems@gCInfo@@QEAA_NHH@Z
?Execute@gCInfoCommand@@UEAA_NAEAVgCRuntimeInfo@@_N@Z
?Execute@gCInfoCommandAddInfoSystemEndScript@@UEAA_NAEAVgCRuntimeInfo@@_N@Z
?Execute@gCInfoCommandAddLogText@@UEAA_NAEAVgCRuntimeInfo@@_N@Z
?Execute@gCInfoCommandAddNPCInfo@@UEAA_NAEAVgCRuntimeInfo@@_N@Z
?Execute@gCInfoCommandAddQuestActor@@UEAA_NAEAVgCRuntimeInfo@@_N@Z
?Execute@gCInfoCommandAttack@@UEAA_NAEAVgCRuntimeInfo@@_N@Z
?Execute@gCInfoCommandBack@@UEAA_NAEAVgCRuntimeInfo@@_N@Z
?Execute@gCInfoCommandBoostAttribs@@UEAA_NAEAVgCRuntimeInfo@@_N@Z
?Execute@gCInfoCommandClearGameEvent@@UEAA_NAEAVgCRuntimeInfo@@_N@Z
?Execute@gCInfoCommandCloseQuest@@UEAA_NAEAVgCRuntimeInfo@@_N@Z
?Execute@gCInfoCommandCreateItem@@UEAA_NAEAVgCRuntimeInfo@@_N@Z
?Execute@gCInfoCommandDescription@@UEAA_NAEAVgCRuntimeInfo@@_N@Z
?Execute@gCInfoCommandDestroyItem@@UEAA_NAEAVgCRuntimeInfo@@_N@Z
?Execute@gCInfoCommandDoLoot@@UEAA_NAEAVgCRuntimeInfo@@_N@Z
?Execute@gCInfoCommandDoTrade@@UEAA_NAEAVgCRuntimeInfo@@_N@Z
?Execute@gCInfoCommandEnd@@UEAA_NAEAVgCRuntimeInfo@@_N@Z
?Execute@gCInfoCommandEndGame@@UEAA_NAEAVgCRuntimeInfo@@_N@Z
?Execute@gCInfoCommandFullStop@@UEAA_NAEAVgCRuntimeInfo@@_N@Z
?Execute@gCInfoCommandGive@@UEAA_NAEAVgCRuntimeInfo@@_N@Z
?Execute@gCInfoCommandGiveXP@@UEAA_NAEAVgCRuntimeInfo@@_N@Z
?Execute@gCInfoCommandHeal@@UEAA_NAEAVgCRuntimeInfo@@_N@Z
?Execute@gCInfoCommandInfoWait@@UEAA_NAEAVgCRuntimeInfo@@_N@Z
?Execute@gCInfoCommandKillNPC@@UEAA_NAEAVgCRuntimeInfo@@_N@Z
?Execute@gCInfoCommandMoveTo@@UEAA_NAEAVgCRuntimeInfo@@_N@Z
?Execute@gCInfoCommandPickPocket@@UEAA_NAEAVgCRuntimeInfo@@_N@Z
?Execute@gCInfoCommandPlayMusic@@UEAA_NAEAVgCRuntimeInfo@@_N@Z
?Execute@gCInfoCommandRemoveNPC@@UEAA_NAEAVgCRuntimeInfo@@_N@Z
?Execute@gCInfoCommandRemoveNPCInfo@@UEAA_NAEAVgCRuntimeInfo@@_N@Z
?Execute@gCInfoCommandRemoveQuestActor@@UEAA_NAEAVgCRuntimeInfo@@_N@Z
?Execute@gCInfoCommandRunAIScript@@UEAA_NAEAVgCRuntimeInfo@@_N@Z
?Execute@gCInfoCommandRunInfo@@UEAA_NAEAVgCRuntimeInfo@@_N@Z
?Execute@gCInfoCommandRunQuest@@UEAA_NAEAVgCRuntimeInfo@@_N@Z
?Execute@gCInfoCommandRunScript@@UEAA_NAEAVgCRuntimeInfo@@_N@Z
?Execute@gCInfoCommandSay@@UEAA_NAEAVgCRuntimeInfo@@_N@Z
?Execute@gCInfoCommandSayConfirm@@UEAA_NAEAVgCRuntimeInfo@@_N@Z
?Execute@gCInfoCommandSayHoldingPosition@@UEAA_NAEAVgCRuntimeInfo@@_N@Z
?Execute@gCInfoCommandSayKeepItUp@@UEAA_NAEAVgCRuntimeInfo@@_N@Z
?Execute@gCInfoCommandSaySVM@@UEAA_NAEAVgCRuntimeInfo@@_N@Z
?Execute@gCInfoCommandSaySound@@UEAA_NAEAVgCRuntimeInfo@@_N@Z
?Execute@gCInfoCommandSetGameEvent@@UEAA_NAEAVgCRuntimeInfo@@_N@Z
?Execute@gCInfoCommandSetGuardStatus@@UEAA_NAEAVgCRuntimeInfo@@_N@Z
?Execute@gCInfoCommandSetMobEnabled@@UEAA_NAEAVgCRuntimeInfo@@_N@Z
?Execute@gCInfoCommandSetPartyEnabled@@UEAA_NAEAVgCRuntimeInfo@@_N@Z
?Execute@gCInfoCommandSetRelaxingPoint@@UEAA_NAEAVgCRuntimeInfo@@_N@Z
?Execute@gCInfoCommandSetRoutine@@UEAA_NAEAVgCRuntimeInfo@@_N@Z
?Execute@gCInfoCommandSetSectorStatus@@UEAA_NAEAVgCRuntimeInfo@@_N@Z
?Execute@gCInfoCommandSetSlaveryEnabled@@UEAA_NAEAVgCRuntimeInfo@@_N@Z
?Execute@gCInfoCommandSetSleepingPoint@@UEAA_NAEAVgCRuntimeInfo@@_N@Z
?Execute@gCInfoCommandSetTeachEnabled@@UEAA_NAEAVgCRuntimeInfo@@_N@Z
?Execute@gCInfoCommandSetTradeEnabled@@UEAA_NAEAVgCRuntimeInfo@@_N@Z
?Execute@gCInfoCommandSetWorkingPoint@@UEAA_NAEAVgCRuntimeInfo@@_N@Z
?Execute@gCInfoCommandShowPicture@@UEAA_NAEAVgCRuntimeInfo@@_N@Z
?Execute@gCInfoCommandShowSubtitle@@UEAA_NAEAVgCRuntimeInfo@@_N@Z
?Execute@gCInfoCommandSleep@@UEAA_NAEAVgCRuntimeInfo@@_N@Z
?Execute@gCInfoCommandStartEffect@@UEAA_NAEAVgCRuntimeInfo@@_N@Z
?Execute@gCInfoCommandStartFixCamera@@UEAA_NAEAVgCRuntimeInfo@@_N@Z
?Execute@gCInfoCommandStartTutorial@@UEAA_NAEAVgCRuntimeInfo@@_N@Z
?Execute@gCInfoCommandStopFixCamera@@UEAA_NAEAVgCRuntimeInfo@@_N@Z
?Execute@gCInfoCommandSucceedQuest@@UEAA_NAEAVgCRuntimeInfo@@_N@Z
?Execute@gCInfoCommandTeach@@UEAA_NAEAVgCRuntimeInfo@@_N@Z
?Execute@gCInfoCommandTeleportNPC@@UEAA_NAEAVgCRuntimeInfo@@_N@Z
?Execute@gCInfoCommandThink@@UEAA_NAEAVgCRuntimeInfo@@_N@Z
?Execute@gCInfoCommandTrigger@@UEAA_NAEAVgCRuntimeInfo@@_N@Z
?Execute@gCInfoCommandUse@@UEAA_NAEAVgCRuntimeInfo@@_N@Z
?Execute@gCInfoCommandWear@@UEAA_NAEAVgCRuntimeInfo@@_N@Z
?Execute@gCRuntimeInfo@@IEAA_NPEAVgCInfoCommand@@_N@Z
?ExecuteDialogInfo@gCInfoSystem@@QEAA_NPEAVgCInfo@@@Z
?Exists@gCSaveGameManager@@QEAA_NAEBVbCString@@@Z
?ExitProcessingRange@gCCharacterMovement_PS@@UEAAXXZ
?ExitProcessingRange@gCClock_PS@@UEAAXXZ
?ExitProcessingRange@gCCombatSystem_PS@@UEAAXXZ
?ExitProcessingRange@gCEffect_PS@@UEAAXXZ
?ExitProcessingRange@gCGameScript_PS@@UEAAXXZ
?ExitProcessingRange@gCNPC_PS@@UEAAXXZ
?ExitProcessingRange@gCNavigation_PS@@UEAAXXZ
?ExitProcessingRange@gCScriptRoutine_PS@@UEAAXXZ
?ExitProcessingRange@gCStateGraph_PS@@UEAAXXZ
?ExpandCollisionCircleCluster@gCNavigationMapNavigator@@IEAA?AW4bEResult@@AEBVbCPropertyID@@PEAVgCCollisionCircle_PSObj@@AEAV?$bTValArray@PEAVgCCollisionCircle_PSObj@@@@PEAVgCNavigation_PS@@@Z
?ExtendFreeGotoTrail@gCNavigation_PS@@IEAA_NPEAVeCGeometryEntity@@AEA_N_N@Z
?FailQuest@gCQuestManager@@QEAA_NAEBVbCString@@@Z
?FailQuest@gCQuestManager@@QEAA_NPEAVgCQuest@@@Z
?FillHitInfoFromIterator@gCProjectile2_PS@@QEAAXAEAUgSHitInfo@1@AEAVbCUnitedRay@@@Z
?FillNextForNavigationPath@gCNavigation_PS@@QEAA_NAEBVbCVector@@0@Z
?FillNextForPreferredPath@gCNavigation_PS@@QEAA_NXZ
?FillProperties@gCWaterSubZone_PS@@QEAA?AW4bEResult@@AEBV?$bTValArray@VbCVector@@@@@Z
?FilterEvent@gCStateGraphAction@@MEAA_NW4gEStateGraphEventType@@PEAVeCEntity@@PEAX@Z
?FilterEvent@gCStateGraphActionEventDispatcher@@MEAA_NW4gEStateGraphEventType@@PEAVeCEntity@@PEAX@Z
?FilterEvent@gCStateGraphEventFilter@@UEAA_NW4gEStateGraphEventType@@PEAVeCEntity@@1PEAX@Z
?FilterEvent@gCStateGraphEventFilterCollisionShape@@UEAA_NW4gEStateGraphEventType@@PEAVeCEntity@@1PEAX@Z
?FilterEvent@gCStateGraphEventFilterDamageAmount@@UEAA_NW4gEStateGraphEventType@@PEAVeCEntity@@1PEAX@Z
?FilterEvent@gCStateGraphEventFilterIsEntity@@UEAA_NW4gEStateGraphEventType@@PEAVeCEntity@@1PEAX@Z
?FilterEvent@gCStateGraphEventFilterIsNPC@@UEAA_NW4gEStateGraphEventType@@PEAVeCEntity@@1PEAX@Z
?FilterEvent@gCStateGraphEventFilterIsPlayer@@UEAA_NW4gEStateGraphEventType@@PEAVeCEntity@@1PEAX@Z
?FilterEvent@gCStateGraphEventFilterScript@@UEAA_NW4gEStateGraphEventType@@PEAVeCEntity@@1PEAX@Z
?FilterEvent@gCStateGraphEventFilterTemplate@@UEAA_NW4gEStateGraphEventType@@PEAVeCEntity@@1PEAX@Z
?FilterStackIndex@gCInventoryList@@IEAAHH@Z
?FindAndBuildWayAdvanced@gCNavigationMapNavigator@@IEAA?AW4bEResult@@PEAVgCNavigation_PS@@AEBVbCPropertyID@@1AEBVbCVector@@2AEB_N3AEBVbCString@@_N@Z
?FindAndBuildWaySimple@gCNavigationMapNavigator@@IEAA?AW4bEResult@@PEAVgCNavigation_PS@@AEBVbCPropertyID@@AEBVbCVector@@2AEB_NAEBVbCString@@@Z
?FindCurrentFOV@gCHudResolutionManager2@@AEAAMXZ
?FindCurrentRefreshRate@gCHudResolutionManager2@@AEAAHH@Z
?FindCurrentResolution@gCHudResolutionManager2@@AEAAHXZ
?FindCurrentVsync@gCHudResolutionManager2@@AEAA_NXZ
?FindDlgCtrl@gCHudPage2@@SAPEAVIFFGuiWnd2@@PEAV2@G@Z
?FindFloorWaterCeiling@gCCharacterMovement_PS@@QEBA_NAEBVbCVector@@AEAUgSSpatialState@@_N2@Z
?FindGroupIndex@gCSvmAdmin@@QEBAHAEBVbCString@@@Z
?FindInitialDirection@gCFlightPathBallistic@@UEAA_NAEAVbCVector@@MAEBV2@11@Z
?FindInitialDirection@gCFlightPathBase@@UEAA_NAEAVbCVector@@MAEBV2@11@Z
?FindInitialDirection@gCFlightPathSeeking@@UEAA_NAEAVbCVector@@MAEBV2@11@Z
?FindLatestSaveGame@gCHUDFileManager@@IEAAXXZ
?FindListenerIndex@gCInventory_PS@@IEBAHPEAVgCInventoryListener@@@Z
?FindNextSkill@gCSkills_PS@@SA?AVbCString@@AEBV2@0@Z
?FindPage@gCHudSystem2@@QEBAPEAVgCHudPage2@@W4gEHudPage@@@Z
?FindPath@gCStateGraph_PS@@IEAA_NPEAVgCStateGraphState@@0_N@Z
?FindPointOfImpact@gCProjectile2_PS@@QEAA_NAEAVbCVector@@AEBV2@1@Z
?FindPopup@gCHudSystem2@@QEBAPEAVgCHudPopUp2@@VbCString@@@Z
?FindResolution@gCHudResolutionManager2@@AEAAPEAUSResolution@1@H@Z
?FindStack@gCInventory_PS@@QEBAPEBVgCInventoryStack@@AEBVbCPropertyID@@H@Z
?FindStack@gCInventory_PS@@QEBAPEBVgCInventoryStack@@AEBVbCPropertyID@@W4gEStackType@@H@Z
?FindStack@gCInventory_PS@@QEBAPEBVgCInventoryStack@@AEBVbCString@@H@Z
?FindStack@gCInventory_PS@@QEBAPEBVgCInventoryStack@@AEBVbCString@@W4gEStackType@@H@Z
?FindStack@gCInventory_PS@@QEBAPEBVgCInventoryStack@@PEBVeCTemplateEntity@@H@Z
?FindStack@gCInventory_PS@@QEBAPEBVgCInventoryStack@@PEBVeCTemplateEntity@@W4gEStackType@@H@Z
?FindStack@gCInventory_PS@@QEBAPEBVgCInventoryStack@@W4gEEquipSlot@@@Z
?FindStack@gCInventory_PS@@QEBAPEBVgCInventoryStack@@W4gEItemUseType@@H@Z
?FindStack@gCInventory_PS@@QEBAPEBVgCInventoryStack@@W4gEItemUseType@@W4gEStackType@@H@Z
?FindStack@gCInventory_PS@@QEBAPEBVgCInventoryStack@@W4gESlot@@@Z
?FindStackIndex@gCInventory_PS@@QEBAHAEBVbCPropertyID@@H@Z
?FindStackIndex@gCInventory_PS@@QEBAHAEBVbCPropertyID@@W4gEStackType@@H@Z
?FindStackIndex@gCInventory_PS@@QEBAHAEBVbCString@@H@Z
?FindStackIndex@gCInventory_PS@@QEBAHAEBVbCString@@W4gEStackType@@H@Z
?FindStackIndex@gCInventory_PS@@QEBAHPEBVeCTemplateEntity@@H@Z
?FindStackIndex@gCInventory_PS@@QEBAHPEBVeCTemplateEntity@@W4gEStackType@@H@Z
?FindStackIndex@gCInventory_PS@@QEBAHW4gEEquipSlot@@@Z
?FindStackIndex@gCInventory_PS@@QEBAHW4gEItemUseType@@H@Z
?FindStackIndex@gCInventory_PS@@QEBAHW4gEItemUseType@@W4gEStackType@@H@Z
?FindStackIndex@gCInventory_PS@@QEBAHW4gESlot@@@Z
?FindStackIndexByHotKey@gCInventory_PS@@QEBAHK@Z
?FindStackIndexByID@gCInventory_PS@@QEBAHK@Z
?FindSvmIndex@gCSvmAdmin@@QEBAHAEBVbCString@@@Z
?FindTheShortestWay@gCNavigationMapNavigator@@IEAA?AW4bEResult@@AEAV?$bTPtrArray@PEAUgSNavWay@gCNavigationMapTypes@@@@AEB_NAEBVbCVector@@2AEBUgSNavArea@gCNavigationMapTypes@@AEA_N1_N@Z
?FindVoiceIndex@gCSvmAdmin@@QEBAHAEBVbCString@@@Z
?FindWay@gCNavigationMapNavigator@@IEAA?AW4bEResult@@AEBVbCVector@@0AEBUgSNavArea@gCNavigationMapTypes@@1AEAV?$bTObjArray@UgSWayAreaElement@gCNavigationMapTypes@@@@AEA_NAEB_N_N@Z
?FindWay@gCNavigationMapNavigator@@QEAA?AW4bEResult@@PEAVgCNavigation_PS@@AEA_N@Z
?Finish@gCCombatMove@@UEAAXPEAUgSCombatMoveInstance@@@Z
?Finish@gCCombatMoveAim@@UEAAXPEAUgSCombatMoveInstance@@@Z
?Finish@gCCombatMoveFinishing@@UEAAXPEAUgSCombatMoveInstance@@@Z
?Finish@gCCombatMoveMelee@@UEAAXPEAUgSCombatMoveInstance@@@Z
?Finish@gCCombatMoveParade@@UEAAXPEAUgSCombatMoveInstance@@@Z
?Finish@gCCombatMoveReload@@UEAAXPEAUgSCombatMoveInstance@@@Z
?Finish@gCCombatMoveShoot@@UEAAXPEAUgSCombatMoveInstance@@@Z
?Finish@gCCombatMoveStumble@@UEAAXPEAUgSCombatMoveInstance@@@Z
?FinishCurrentMove@gCCombatSystem_PS@@QEAAXXZ
?FocusDefaultCtrl@gCHudPage2@@QEAAXXZ
?ForceAsNextInfo@gCInfoSystem@@QEAA_NAEBVbCString@@@Z
?ForceFilter@gCInventoryList@@QEAAXVbCString@@@Z
?FormatSampleFileName@gCSvmAdmin@@QEBA_NAEBVbCString@@0AEAV2@@Z
?FormatSampleTitle@gCSvmAdmin@@QEBA_NAEBVbCString@@0AEAV2@@Z
?FormatTableKey@gCSvmAdmin@@QEBA_NAEBVbCString@@0AEAV2@@Z
?FreeNavigationAllowedForNPC@gCNavigationAdmin@@QEAA_NPEAVgCNavigation_PS@@K_N@Z
?FromString@gCInfoCommand@@UEAAXAEBVbCString@@@Z
?FromString@gCInfoCommandAddQuestActor@@UEAAXAEBVbCString@@@Z
?FromString@gCInfoCommandPickPocket@@UEAAXAEBVbCString@@@Z
?FromString@gCInfoCommandRemoveQuestActor@@UEAAXAEBVbCString@@@Z
?FromString@gCInfoCommandSay@@UEAAXAEBVbCString@@@Z
?GameReset@gCActionAdmin@@QEAAXXZ
?GameReset@gCCharacterControl@@QEAAXXZ
?GameReset@gCCharacterMovement_PS@@IEAAXXZ
?GameReset@gCCharacterSensor@@QEAAXXZ
?GameReset@gCGameScript_PS@@IEAAXXZ
?GameReset@gCNPC_PS@@IEAAXXZ
?GameReset@gCNavPath_PS@@IEAAXXZ
?GameReset@gCNavZone_PS@@IEAAXXZ
?GameReset@gCNavigation_PS@@IEAAXXZ
?GameReset@gCScriptProcessingUnit@@QEAAXXZ
?GameReset@gCScriptRoutine_PS@@IEAAXXZ
?GameReset@gCWaterZone_PS@@IEAAXXZ
?GameVariableExists@gCInfoSystem@@QEBA_NAEBVbCString@@@Z
?GenerateCombinations@gCSvmAdmin@@QEBA_NAEAV?$bTObjArray@USCombination@gCSvmAdmin@@@@@Z
?GenerateEventArgs@gCHudDialog2@@UEAAPEAVeCScriptEventArgs@@XZ
?GenerateSaveGameName@gCHUDFileManager@@IEBA_NAEAVbCString@@@Z
?Get3DEvade@gCNavZone_PS@@QEAAAEBVbCVector@@XZ
?Get3DEvade@gCNegZone_PSObj@@QEAAAEBVbCVector@@XZ
?GetAIDelay@gCScriptRoutine_PS@@QEBAAEBJXZ
?GetAIFunction@gCCombatMoveScriptState@@QEBAAEBVgCScriptProxyAIFunction@@XZ
?GetAIMode@gCScriptRoutine_PS@@QEBAAEBV?$bTPropertyContainer@W4gEAIMode@@@@XZ
?GetAIScriptName@gCInfoCommandRunAIScript@@QEBAAEBVbCString@@XZ
?GetAccessToWorkspace@gCGameApp@@QEAAAEAVgCWorkspace@@XZ
?GetAchieved@gCAchievement@@QEBAAEB_NXZ
?GetAchieved@gCAchievementAdmin@@QEBA_NK@Z
?GetAchievedCount@gCAchievementAdmin@@QEBAKXZ
?GetAchievement@gCAchievementAdmin@@QEBA_NAEBVbCString@@AEAVgCAchievement@@@Z
?GetAchievement@gCAchievementAdmin@@QEBA_NKAEAVgCAchievement@@@Z
?GetAchievementCount@gCAchievementAdmin@@QEBAKXZ
?GetAchievements@gCAchievementAdmin@@QEBAHAEAV?$bTObjArray@VgCAchievement@@@@@Z
?GetAction@gCCombatMoveMelee@@QEBAAEBV?$bTPropertyContainer@W4gECombatAction@@@@XZ
?GetActionAt@gCStateGraphState@@QEBAPEAVgCStateGraphAction@@H@Z
?GetActionCount@gCStateGraphState@@QEBAHXZ
?GetActionDescription@gCStateGraphAction@@UEBAXAEAVbCString@@@Z
?GetActionDescription@gCStateGraphActionCallScript@@UEBAXAEAVbCString@@@Z
?GetActionDescription@gCStateGraphActionEventDispatcher@@UEBAXAEAVbCString@@@Z
?GetActionDescription@gCStateGraphActionFollowState@@UEBAXAEAVbCString@@@Z
?GetActionDescription@gCStateGraphActionPauseAni@@UEBAXAEAVbCString@@@Z
?GetActionDescription@gCStateGraphActionPlayAni@@UEBAXAEAVbCString@@@Z
?GetActionDescription@gCStateGraphActionStartEffect@@UEBAXAEAVbCString@@@Z
?GetActionDescription@gCStateGraphActionStop@@UEBAXAEAVbCString@@@Z
?GetActionDescription@gCStateGraphActionTrigger@@UEBAXAEAVbCString@@@Z
?GetActionDescription@gCStateGraphActionTriggerState@@UEBAXAEAVbCString@@@Z
?GetActionDescription@gCStateGraphActionUnTrigger@@UEBAXAEAVbCString@@@Z
?GetActionDescription@gCStateGraphActionVisibility@@UEBAXAEAVbCString@@@Z
?GetActionDescription@gCStateGraphActionWait@@UEBAXAEAVbCString@@@Z
?GetActionIndex@gCStateGraphState@@QEBAHPEAVgCStateGraphAction@@@Z
?GetActionKey@gCActionAdmin@@SA?AW4gEActionKey@@AEBVbCString@@@Z
?GetActionKey@gCActionAdmin@@SA?AW4gEActionKey@@W4eEScanCode@@@Z
?GetActionKeyDescription@gCActionAdmin@@SA?AVbCUnicodeString@@W4gEActionKey@@@Z
?GetActionKeyImage@gCActionAdmin@@SA?AVbCString@@W4gEActionKey@@E@Z
?GetActionKeyInfo@gCActionAdmin@@SAAEBUgSActionKeyInfo@@W4gEActionKey@@@Z
?GetActionKeyState@gCActionAdmin@@QEBA_NW4gEActionKey@@@Z
?GetActionKeyTag@gCActionAdmin@@SA?AVbCUnicodeString@@W4gEActionKey@@E@Z
?GetActionString@gCScriptRoutine_PS@@QEBAAEBVbCString@@XZ
?GetActionTarget@gCScriptRoutine_PS@@QEBAAEBVeCEntityProxy@@XZ
?GetActivationTime_Day@gCQuest@@QEBAAEBKXZ
?GetActivationTime_Hour@gCQuest@@QEBAAEBKXZ
?GetActivationTime_Year@gCQuest@@QEBAAEBKXZ
?GetActiveAttacker@gCCombatSystem_PS@@QEBAAEBVeCEntityProxy@@XZ
?GetActiveFightAI@gCCombatStyle@@QEBAAEBVbCString@@XZ
?GetActiveFightAI@gCCombatSystem_PS@@QEBAAEBVbCString@@XZ
?GetActiveSector@gCWorld@@QEBAAEBVbCString@@XZ
?GetActiveWorld@gCProject@@QEBAAEBVbCString@@XZ
?GetActor@gCInfoCommandAddQuestActor@@QEBAAEBVgCQuestActor@@XZ
?GetActor@gCInfoCommandRemoveQuestActor@@QEBAAEBVgCQuestActor@@XZ
?GetActor@gCQuestActor@@QEBAAEBVeCEntityStringProxy@@XZ
?GetActorOverlay@gCQuest@@QEBA?AVbCString@@H@Z
?GetActorType@gCQuestActor@@QEBAAEBV?$bTPropertyContainer@W4gEQuestActor@@@@XZ
?GetActors@gCQuest@@QEBAAEBV?$bTObjArray@VgCQuestActor@@@@XZ
?GetAdvanceData@gCSaveGame@@QEBAXAEAUgSSaveGameData@@@Z
?GetAggressiveness@gCCombatAIMelee@@QEBAAEBMXZ
?GetAgressor@gCDamage_PS@@QEBAAEBVeCEntityProxy@@XZ
?GetAim@gCCombatStyleRanged@@QEBAAEBVbCString@@XZ
?GetAlignToTarget@gCCombatMoveMelee@@QEBAAEBV?$bTPropertyContainer@W4gEAlignToTarget@@@@XZ
?GetAlignmentLookAt@gCCharacterMovement_PS@@QEAAAEAVbCVector@@XZ
?GetAlignmentLookAt@gCCharacterMovement_PS@@QEBAAEBVbCVector@@XZ
?GetAlignmentSpeed@gCCharacterMovement_PS@@QEBAMXZ
?GetAlignmentTarget@gCCharacterMovement_PS@@QEAAPEAVeCEntity@@XZ
?GetAlignmentTarget@gCCharacterMovement_PS@@QEBAPEBVeCEntity@@XZ
?GetAllInfos@gCInfoSystem@@QEAAAEAV?$eTDocObjectMap@VgCInfo@@@@XZ
?GetAlpha@gCStateGraphActionVisibility@@QEBAAEBMXZ
?GetAltEquipSlot@gCInventorySlot@@SA?AW4gEEquipSlot@@W4gEItemUseType@@@Z
?GetAlternativeEquipSlot@gCInventorySlot@@QEBA?AW4gEEquipSlot@@XZ
?GetAmbientAction@gCScriptRoutine_PS@@QEBAAEBV?$bTPropertyContainer@W4gEAmbientAction@@@@XZ
?GetAmount@gCInfoCommandCreateItem@@QEBAAEBKXZ
?GetAmount@gCInfoCommandDestroyItem@@QEBAAEBKXZ
?GetAmount@gCInfoCommandGive@@QEBAAEBKXZ
?GetAmount@gCInfoCommandGiveXP@@QEBAAEBKXZ
?GetAmount@gCInventoryStack@@QEBAHXZ
?GetAmount@gCInventory_PS@@QEBAHH@Z
?GetAmount@gCItem_PS@@QEBAAEBKXZ
?GetAmount@gCSkillValue@@QEBAAEBJXZ
?GetAnchorPSList@gCNavigationAdmin@@QEAAAEBV?$bTValArray@PEAVgCAnchor_PS@@@@XZ
?GetAnchorPoint@gCInteraction_PS@@QEBAPEAVeCEntity@@XZ
?GetAnchorType@gCAnchor_PS@@QEBAAEBV?$bTPropertyContainer@W4gEAnchorType@@@@XZ
?GetAngleSums@gCNavZone_PS@@IEAA?AW4bEResult@@AEAM0@Z
?GetAngleSums@gCNegZone_PS@@QEAA?AW4bEResult@@AEAM0@Z
?GetAngleSums@gCNegZone_PSObj@@IEAA?AW4bEResult@@AEAM0@Z
?GetAniByMoveTime@gCCombatMoveMelee@@QEBAMM@Z
?GetAniDirection@gCNavOffset_PS@@QEBAAEBV?$bTValArray@W4gEDirection@@@@XZ
?GetAniDuration@gCCombatMoveShoot@@QEBAAEBMXZ
?GetAniName@gCScriptProcessingUnit@@IEAAXAEAVbCString@@PEAVeCGeometryEntity@@0V2@0_N@Z
?GetAniPose@gCCombatStyle@@QEBAAEBVgCCombatStyleAniPose@@XZ
?GetAniState@gCScriptRoutine_PS@@QEBAAEBV?$bTPropertyContainer@W4gEAniState@@@@XZ
?GetAnimation@gCStateGraphActionPauseAni@@QEBAAEBVbCString@@XZ
?GetAnimation@gCStateGraphActionPlayAni@@QEBAAEBVbCString@@XZ
?GetAnimationBearing@gCNPC_PS@@QEBAAEBVbCString@@XZ
?GetAnimationFile@gCCombatMoveFinishing@@QEBAAEBVbCString@@XZ
?GetAnimationFile@gCCombatMoveMelee@@QEBAAEBVbCString@@XZ
?GetAnimationFile@gCCombatMoveOverlayStumble@@QEBAAEBVbCString@@XZ
?GetAnimationFile@gCCombatMoveStumble@@QEBAAEBVbCString@@XZ
?GetAnimationFileDown@gCCombatMoveShoot@@QEBAAEBVbCString@@XZ
?GetAnimationFileFwd@gCCombatMoveShoot@@QEBAAEBVbCString@@XZ
?GetAnimationFileUp@gCCombatMoveShoot@@QEBAAEBVbCString@@XZ
?GetAnimationPath@gCDatabase@@SA?AVbCString@@XZ
?GetAnyMovementKeyPressed@gCCharacterControl@@QEBA_NXZ
?GetApplyGravity@gCCharacterMovement_PS@@QEBAAEB_NXZ
?GetArcherEffect@gCCombatMoveAim@@QEBAAEBVbCString@@XZ
?GetAreaPropertyName@gCInfoConditionOwnerInArea@@QEBAAEBVbCString@@XZ
?GetAttachedSlotScript@gCInteraction_PS@@QEBAAEBVeCScriptProxyScript@@XZ
?GetAttack@gCCombatStyle@@QEBAAEBVbCString@@XZ
?GetAttackLeft@gCCombatStyleMelee@@QEBAAEBVbCString@@XZ
?GetAttackRight@gCCombatStyleMelee@@QEBAAEBVbCString@@XZ
?GetAttackSec@gCCombatStyleMelee@@QEBAAEBVbCString@@XZ
?GetAttackSec@gCCombatStyleRanged@@QEBAAEBVbCString@@XZ
?GetAttackSpeed@gCCombatAIMelee@@QEBAAEBMXZ
?GetAttackSpeed@gCCombatAIRanged@@QEBAAEBMXZ
?GetAttackStumble@gCCombatStyleMelee@@QEBAAEBVbCString@@XZ
?GetAttackStumbleLeft@gCCombatStyleMelee@@QEBAAEBVbCString@@XZ
?GetAttackStumbleRight@gCCombatStyleMelee@@QEBAAEBVbCString@@XZ
?GetAttackStumbleType@gCCombatMoveMelee@@QEBAAEBV?$bTPropertyContainer@W4gECombatAttackStumble@@@@XZ
?GetAttackType@gCCombatMove@@UEBA?AW4gECombatParadeType@@PEAVgCCombatStyle@@@Z
?GetAttackType@gCCombatMoveMelee@@QEBAAEBV?$bTPropertyContainer@W4gECombatParadeType@@@@XZ
?GetAttackType@gCCombatMoveMelee@@UEBA?AW4gECombatParadeType@@PEAVgCCombatStyle@@@Z
?GetAttackType@gCCombatStyle@@QEBAAEBV?$bTPropertyContainer@W4gECombatParadeType@@@@XZ
?GetAttitude@gCGUIEntityRenderer@@IEBA?AW4EAttitude@1@PEBVeCEntity@@@Z
?GetAttitudeLock@gCNPC_PS@@QEBAAEBV?$bTPropertyContainer@W4gEAttitude@@@@XZ
?GetAuthorColor@gCQuestLogFrame2@@QEBAAEBVbCByteAlphaColor@@XZ
?GetAutoFocusTargetOverwrite@gCCameraAdmin@@QEBA_NAEAVbCVector@@@Z
?GetAutoFocusTargetSize@gCCameraAdmin@@QEBAMXZ
?GetAutoRejoin@gCParty_PS@@QEBAAEB_NXZ
?GetAutoTrigger@gCTutorialEvent@@QEBAAEB_NXZ
?GetAvailableInfo@gCInfoSystem@@QEAAPEAVgCInfo@@H@Z
?GetAvailableInfoCount@gCInfoSystem@@QEAAHXZ
?GetBackTrail@gCNavigation_PS@@QEBAAEBV?$bTObjArray@UgSTrailElement@gCNavigation_PS@@@@XZ
?GetBackupFolder@gCGameApp@@QEBAAEBVbCString@@XZ
?GetBackwardSpeedMax@gCCharacterMovement_PS@@QEBAAEBMXZ
?GetBestDistance@gCInfoCommandStartFixCamera@@QEBAAEBMXZ
?GetBlendAniDuration@gCCombatMoveParade@@QEBAAEBMXZ
?GetBlendAnimations@gCCombatMoveShoot@@QEBAAEB_NXZ
?GetBlendInAnimationFile@gCCombatMoveParade@@QEBAAEBVbCString@@XZ
?GetBlendInTime@gCCombatMoveFinishing@@QEBAAEBMXZ
?GetBlendInTime@gCCombatMoveMelee@@QEBAAEBMXZ
?GetBlendInTime@gCCombatMoveOverlayStumble@@QEBAAEBMXZ
?GetBlendInTime@gCCombatMoveParade@@QEBAAEBMXZ
?GetBlendInTime@gCCombatMoveShoot@@QEBAAEBMXZ
?GetBlendInTime@gCCombatMoveStumble@@QEBAAEBMXZ
?GetBlendInTime@gCEffectCommandStartImageEffect@@QEBAAEBMXZ
?GetBlendOutTime@gCCombatMoveOverlayStumble@@QEBAAEBMXZ
?GetBlendOutTime@gCCombatMoveParade@@QEBAAEBMXZ
?GetBlendOutTime@gCEffectCommandStartImageEffect@@QEBAAEBMXZ
?GetBone@gCInventorySlot@@SA_NW4gESlot@@W4gEItemUseType@@AEAVbCString@@AEAW4ELink@1@AEAW42@@Z
?GetBoneName@gCEffectCommandPlaySound@@QEBAAEBVbCString@@XZ
?GetBoneName@gCEffectCommandSpawnEntity@@QEBAAEBVbCString@@XZ
?GetBoneName@gCEffectCommandSpawnEntityList@@QEBAAEBVbCString@@XZ
?GetBoneName@gCEffectCommandSpawnEntitySwitch@@QEBAAEBVbCString@@XZ
?GetBoostTarget@gCInfoCommandBoostAttribs@@QEBAAEBV?$bTPropertyContainer@W4gEBoostTarget@@@@XZ
?GetBottomToleranz@gCNavPath_PS@@QEBAAEBMXZ
?GetBottomToleranz@gCNavZone_PS@@QEBAAEBMXZ
?GetBoundary@gCAIHelper_FreePoint_PS@@UEAAXAEAVbCBox@@_N@Z
?GetBoundary@gCAIHelper_Label_PS@@UEAAXAEAVbCBox@@_N@Z
?GetBoundary@gCAnchor_PS@@UEAAXAEAVbCBox@@_N@Z
?GetBoundary@gCArena_PS@@UEAAXAEAVbCBox@@_N@Z
?GetBoundary@gCCollisionCircle_PS@@UEAAXAEAVbCBox@@_N@Z
?GetBoundary@gCDynamicCollisionCircle_PS@@UEAAXAEAVbCBox@@_N@Z
?GetBoundary@gCEffect_PS@@UEAAXAEAVbCBox@@_N@Z
?GetBoundary@gCNavHelper_PS@@UEAAXAEAVbCBox@@_N@Z
?GetBoundary@gCNavOffset_PS@@UEAAXAEAVbCBox@@_N@Z
?GetBoundary@gCNavPath_PS@@UEAAXAEAVbCBox@@_N@Z
?GetBoundary@gCNavZone_PS@@UEAAXAEAVbCBox@@_N@Z
?GetBoundary@gCNavigation_PS@@UEAAXAEAVbCBox@@_N@Z
?GetBoundary@gCNegZone_PS@@UEAAXAEAVbCBox@@_N@Z
?GetBoundary@gCPrefPath_PS@@UEAAXAEAVbCBox@@_N@Z
?GetBoundary@gCWaterZone_PS@@UEAAXAEAVbCBox@@_N@Z
?GetBowAnimationFile@gCCombatMoveAim@@QEBAAEBVbCString@@XZ
?GetBowAnimationFile@gCCombatMoveReload@@QEBAAEBVbCString@@XZ
?GetBowEffect@gCCombatMoveAim@@QEBAAEBVbCString@@XZ
?GetBrakingDistance@gCCharacterMovement_PS@@QEBAMXZ
?GetBrakingTime@gCCharacterMovement_PS@@QEBAMXZ
?GetBraveryOverride@gCNPC_PS@@QEBAAEBV?$bTPropertyContainer@W4gEBraveryOverride@@@@XZ
?GetCalcRotation@gCMapInfo_PS@@QEBAAEB_NXZ
?GetCamera@gCCameraAdmin@@QEAAPEAVeCDynamicEntity@@XZ
?GetCameraControlEnabledAxisX@gCCameraAdmin@@QEAA_NXZ
?GetCameraControlEnabledAxisY@gCCameraAdmin@@QEAA_NXZ
?GetCameraControlEnabledAxisZ@gCCameraAdmin@@QEAA_NXZ
?GetCameraDistanceForFixTargetRotation@gCCameraAdmin@@IEBAMXZ
?GetCameraEffectName@gCEffectCommandEarthquake@@QEBAAEBVbCString@@XZ
?GetCameraEffects@gCCameraAdmin@@QEBAAEBV?$eTDocObjectMap@VgCCameraEffectBase@@@@XZ
?GetCameraFOV@gCCameraAdmin@@QEAAMXZ
?GetCameraPitchAngle@gCInfoCommandStartFixCamera@@QEBAAEBMXZ
?GetCameraPose@gCCameraAdmin@@QEAAAEBVbCMatrix@@XZ
?GetCameraPosition@gCInfoCommandStartFixCamera@@QEBAAEBVbCString@@XZ
?GetCameraSens@gCActionAdmin@@QEAAMXZ
?GetCameraTarget@gCInfoCommandStartFixCamera@@QEBAAEBVbCString@@XZ
?GetCameraTargetSpace@gCCameraAdmin@@IEBAAEBVbCMatrix@@XZ
?GetCameraTargets@gCCameraAdmin@@QEAAPEAVeCEntity@@AEAVeCEntityProxy@@AEA_NAEAVbCVector@@@Z
?GetCameraTypes@gCCameraAdmin@@QEBAAEBV?$eTDocObjectMap@VgCCameraTypeBase@@@@XZ
?GetCameraYawAngle@gCInfoCommandStartFixCamera@@QEBAAEBMXZ
?GetCanAttachSlotScript@gCInteraction_PS@@QEBAAEBVeCScriptProxyScript@@XZ
?GetCanBePushedWhileIdle@gCCharacterMovement_PS@@QEBAAEB_NXZ
?GetCanEquipScript@gCItem_PS@@QEBAAEBVeCScriptProxyScript@@XZ
?GetCanInteractScript@gCInteraction@@QEBAAEBVeCScriptProxyScript@@XZ
?GetCanStrafe@gCCombatSpecies@@QEBAAEB_NXZ
?GetCanUse@gCMap_PS@@QEBAAEBVeCScriptProxyScript@@XZ
?GetCancelledQuestScript@gCQuest@@QEBAAEBVeCScriptProxyScript@@XZ
?GetCastAmmo@gCCastInfo_PS@@QEBAAEBVeCTemplateEntityProxy@@XZ
?GetCastFail@gCCastInfo_PS@@QEBAAEBVeCTemplateEntityProxy@@XZ
?GetCastInfo@gCCastInfo_PS@@QEBAAEBVbCString@@XZ
?GetCastItem@gCCastInfo_PS@@QEBAAEBVeCTemplateEntityProxy@@XZ
?GetCategory@gCInventorySlot@@QEBA?AW4gEItemCategory@@XZ
?GetCategory@gCItem_PS@@QEBAAEBV?$bTPropertyContainer@W4gEItemCategory@@@@XZ
?GetCategoryFilter@gCInventoryList@@QEBAAEBVeCScriptProxyScript@@XZ
?GetCaughtTask@gCScriptProcessingUnit@@QEAA?AVbCString@@XZ
?GetCenterOffset@gCWaterZone_PS@@QEAAAEBVbCVector@@H@Z
?GetCenterRadius@gCWaterSubZone_PS@@QEAAMXZ
?GetCenterRadius@gCWaterZone_PS@@QEAAMH@Z
?GetChangedCallback@gCSkills_PS@@SAP6AXPEAV1@W4gESkill@@@ZXZ
?GetCharacter@gCInventoryList@@QEBAAEBV?$bTPropertyContainer@W4gESpecialEntity@@@@XZ
?GetCharacterController@gCActionAdmin@@QEAAPEAVgCCharacterControl@@XZ
?GetCharacterMovement@gCDynamicCollisionCircle_PS@@QEBAPEAVgCCharacterMovement_PS@@XZ
?GetCharacterMovement@gCNavigation_PS@@QEAAPEAVgCCharacterMovement_PS@@XZ
?GetCharacterSensor@gCActionAdmin@@QEAAPEAVgCCharacterSensor@@XZ
?GetCheatGodEnabled@gCSessionCheats@@QEBAAEB_NXZ
?GetCheatInvisibleEnabled@gCSessionCheats@@QEBAAEB_NXZ
?GetCheats@gCSession@@QEAAAEAVgCSessionCheats@@XZ
?GetCheats@gCSessionInfo@@QEAAAEAVgCSessionCheats@@XZ
?GetCheats@gCSessionInfo@@QEBAAEBVgCSessionCheats@@XZ
?GetChildInfoList@gCInfoSystem@@IEAAAEAV?$bTValArray@PEAVgCRuntimeInfo@@@@AEAV2@AEAVgCInfo@@@Z
?GetChildInfos@gCInfo@@QEBAAEBV?$bTValArray@PEAVgCInfo@@@@XZ
?GetCircleCount@gCCollisionCircle_PS@@QEBAAEBKXZ
?GetClassRawExt@gCCombatSpecies@@SA?AVbCString@@XZ
?GetClassRawExt@gCEffectCommandSequence2@@SA?AVbCString@@XZ
?GetClassRawExt@gCHudDialog2@@SA?AVbCString@@XZ
?GetClassRawExt@gCHudPage2@@SA?AVbCString@@XZ
?GetClassRawExt@gCHudPopUp2@@SA?AVbCString@@XZ
?GetClassRawExt@gCInfo@@SA?AVbCString@@XZ
?GetClassRawExt@gCQuest@@SA?AVbCString@@XZ
?GetClassRawExt@gCTutorialEvent@@SA?AVbCString@@XZ
?GetClassRawExt@gCTutorialHintCollection@@SA?AVbCString@@XZ
?GetClassRawPath@gCCombatSpecies@@SA?AVbCString@@XZ
?GetClassRawPath@gCEffectCommandSequence2@@SA?AVbCString@@XZ
?GetClassRawPath@gCHudDialog2@@SA?AVbCString@@XZ
?GetClassRawPath@gCHudPage2@@SA?AVbCString@@XZ
?GetClassRawPath@gCHudPopUp2@@SA?AVbCString@@XZ
?GetClassRawPath@gCInfo@@SA?AVbCString@@XZ
?GetClassRawPath@gCQuest@@SA?AVbCString@@XZ
?GetClassRawPath@gCTutorialEvent@@SA?AVbCString@@XZ
?GetClassRawPath@gCTutorialHintCollection@@SA?AVbCString@@XZ
?GetClearChildren@gCInfo@@QEBAAEB_NXZ
?GetClimbFlightForwardTime@gCCharacterMovement_PS@@QEBAAEBMXZ
?GetClimbFlightGravity@gCCharacterMovement_PS@@QEBAAEBMXZ
?GetClimbFrontDepth1@gCCharacterMovement_PS@@QEBAAEBMXZ
?GetClimbFrontDepth2@gCCharacterMovement_PS@@QEBAAEBMXZ
?GetClimbFrontDepth3@gCCharacterMovement_PS@@QEBAAEBMXZ
?GetClimbHeightHigh@gCCharacterMovement_PS@@QEBAAEBMXZ
?GetClimbHeightLow@gCCharacterMovement_PS@@QEBAAEBMXZ
?GetClimbHeightMid@gCCharacterMovement_PS@@QEBAAEBMXZ
?GetClimbHeightMin@gCCharacterMovement_PS@@QEBAAEBMXZ
?GetClimbTargetGroundAngleMax@gCCharacterMovement_PS@@QEBAAEBMXZ
?GetClusteredCollisionCirclePSObj@gCCollisionCircle_PSObj@@QEAAAEBV?$bTValArray@PEAVgCCollisionCircle_PSObj@@@@AEBVbCPropertyID@@@Z
?GetCollisionCirclePSObjectsInArea@gCNavigationAdmin@@QEAA?AW4bEResult@@VbCVector@@MAEAV?$bTPtrArray@PEAVgCCollisionCircle_PSObj@@@@@Z
?GetCollisionCirclePSObjectsInArea@gCNavigationMap@@QEAA?AW4bEResult@@VbCVector@@MAEAV?$bTPtrArray@PEAVgCCollisionCircle_PSObj@@@@@Z
?GetComSeqCommand@gCInfo@@IEAA?AW4gEInfoCommand@@AEBVbCString@@@Z
?GetComSeqItem@gCInfo@@QEBAPEAVgCInfoCommand@@H@Z
?GetComSeqItemCount@gCInfo@@QEBAHXZ
?GetComSeqItemIndex@gCInfo@@QEBAHPEAVgCInfoCommand@@@Z
?GetCombatAction@gCCombatMove@@UEBA?AW4gECombatAction@@XZ
?GetCombatAction@gCCombatMoveAim@@UEBA?AW4gECombatAction@@XZ
?GetCombatAction@gCCombatMoveFinishing@@UEBA?AW4gECombatAction@@XZ
?GetCombatAction@gCCombatMoveMelee@@UEBA?AW4gECombatAction@@XZ
?GetCombatAction@gCCombatMoveOverlayStumble@@UEBA?AW4gECombatAction@@XZ
?GetCombatAction@gCCombatMoveParade@@UEBA?AW4gECombatAction@@XZ
?GetCombatAction@gCCombatMoveReload@@UEBA?AW4gECombatAction@@XZ
?GetCombatAction@gCCombatMoveScriptState@@UEBA?AW4gECombatAction@@XZ
?GetCombatAction@gCCombatMoveShoot@@UEBA?AW4gECombatAction@@XZ
?GetCombatAction@gCCombatMoveStumble@@UEBA?AW4gECombatAction@@XZ
?GetCombatContact@gCCharacterMovement_PS@@QEBA_NXZ
?GetCombatHitRangeOffset@gCItem_PS@@QEBAAEBMXZ
?GetCombatMode@gCCombatStyle@@QEBAAEBV?$bTPropertyContainer@W4gECombatMode@@@@XZ
?GetCombatMode@gCCombatSystem_PS@@QEBA?AW4gECombatMode@@W4gEItemUseType@@0@Z
?GetCombatSpecies@gCCombatMove@@QEBAPEAVgCCombatSpecies@@XZ
?GetCombatSpecies@gCCombatStyle@@QEBAPEAVgCCombatSpecies@@XZ
?GetCombatSpecies@gCCombatSystem_PS@@QEBAAEBVbCString@@XZ
?GetCombatWalkMode@gCCombatAI@@QEBAAEBV?$bTPropertyContainer@W4gEWalkMode@@@@XZ
?GetCombo@gCCombatMoveMelee@@QEBAAEBVbCString@@XZ
?GetComboAttack@gCCombatMoveAim@@QEBAAEBVbCString@@XZ
?GetComboAttack@gCCombatMoveShoot@@QEBAAEBVbCString@@XZ
?GetComboAttackBeginTime@gCCombatMoveAim@@QEBAAEBVbCRange1@@XZ
?GetComboBegin@gCCombatMoveMelee@@QEBAAEBMXZ
?GetComboEnd@gCCombatMoveMelee@@QEBAAEBMXZ
?GetComboLeft@gCCombatMoveMelee@@QEBAAEBVbCString@@XZ
?GetComboMoves@gCCombatMoveComboSwitch@@QEBAAEBV?$bTObjArray@VgCCombatMoveSwitch@@@@XZ
?GetComboParade@gCCombatMoveMelee@@QEBAAEBV?$bTPropertyContainer@W4gECombatComboParade@@@@XZ
?GetComboPower@gCCombatMoveMelee@@QEBAAEBVbCString@@XZ
?GetComboRight@gCCombatMoveMelee@@QEBAAEBVbCString@@XZ
?GetComboSec@gCCombatMoveMelee@@QEBAAEBVbCString@@XZ
?GetCommandName@gCInfoCommand@@UEBA?AVbCString@@XZ
?GetCommandPriority@gCEffectCommand@@UEBAHXZ
?GetCommandPriority@gCEffectCommandKillEntity@@UEBAHXZ
?GetCommandPriority@gCEffectCommandKillEntityRange@@UEBAHXZ
?GetCommandPriority@gCEffectCommandSpawnEntity@@UEBAHXZ
?GetCommandPriority@gCEffectCommandSpawnEntityList@@UEBAHXZ
?GetCommandPriority@gCEffectCommandSpawnEntitySwitch@@UEBAHXZ
?GetCommandSequence@gCEffect@@QEAAPEAVgCEffectCommandSequence2@@XZ
?GetCommandSequence@gCEffect@@QEBAPEBVgCEffectCommandSequence2@@XZ
?GetCommandString@gCEffectCommand@@UEBA?AVbCString@@XZ
?GetCommandString@gCEffectCommandEarthquake@@UEBA?AVbCString@@XZ
?GetCommandString@gCEffectCommandKillEntity@@UEBA?AVbCString@@XZ
?GetCommandString@gCEffectCommandKillEntityRange@@UEBA?AVbCString@@XZ
?GetCommandString@gCEffectCommandModifyEntity@@UEBA?AVbCString@@XZ
?GetCommandString@gCEffectCommandPlaySound@@UEBA?AVbCString@@XZ
?GetCommandString@gCEffectCommandPlayVoice@@UEBA?AVbCString@@XZ
?GetCommandString@gCEffectCommandRunScript@@UEBA?AVbCString@@XZ
?GetCommandString@gCEffectCommandSaySVM@@UEBA?AVbCString@@XZ
?GetCommandString@gCEffectCommandSpawnEntity@@UEBA?AVbCString@@XZ
?GetCommandString@gCEffectCommandSpawnEntityList@@UEBA?AVbCString@@XZ
?GetCommandString@gCEffectCommandSpawnEntitySwitch@@UEBA?AVbCString@@XZ
?GetCommandString@gCEffectCommandStartImageEffect@@UEBA?AVbCString@@XZ
?GetCommandString@gCEffectCommandTriggerEntity@@UEBA?AVbCString@@XZ
?GetCommandTime@gCScriptRoutine_PS@@QEBAAEBJXZ
?GetCommandType@gCInfoCommand@@UEBA?AW4gEInfoCommand@@XZ
?GetCommandType@gCInfoCommandAddInfoSystemEndScript@@UEBA?AW4gEInfoCommand@@XZ
?GetCommandType@gCInfoCommandAddLogText@@UEBA?AW4gEInfoCommand@@XZ
?GetCommandType@gCInfoCommandAddNPCInfo@@UEBA?AW4gEInfoCommand@@XZ
?GetCommandType@gCInfoCommandAddQuestActor@@UEBA?AW4gEInfoCommand@@XZ
?GetCommandType@gCInfoCommandAttack@@UEBA?AW4gEInfoCommand@@XZ
?GetCommandType@gCInfoCommandBack@@UEBA?AW4gEInfoCommand@@XZ
?GetCommandType@gCInfoCommandBoostAttribs@@UEBA?AW4gEInfoCommand@@XZ
?GetCommandType@gCInfoCommandClearGameEvent@@UEBA?AW4gEInfoCommand@@XZ
?GetCommandType@gCInfoCommandCloseQuest@@UEBA?AW4gEInfoCommand@@XZ
?GetCommandType@gCInfoCommandCreateItem@@UEBA?AW4gEInfoCommand@@XZ
?GetCommandType@gCInfoCommandDescription@@UEBA?AW4gEInfoCommand@@XZ
?GetCommandType@gCInfoCommandDestroyItem@@UEBA?AW4gEInfoCommand@@XZ
?GetCommandType@gCInfoCommandDoLoot@@UEBA?AW4gEInfoCommand@@XZ
?GetCommandType@gCInfoCommandDoTrade@@UEBA?AW4gEInfoCommand@@XZ
?GetCommandType@gCInfoCommandEnd@@UEBA?AW4gEInfoCommand@@XZ
?GetCommandType@gCInfoCommandEndGame@@UEBA?AW4gEInfoCommand@@XZ
?GetCommandType@gCInfoCommandFullStop@@UEBA?AW4gEInfoCommand@@XZ
?GetCommandType@gCInfoCommandGive@@UEBA?AW4gEInfoCommand@@XZ
?GetCommandType@gCInfoCommandGiveXP@@UEBA?AW4gEInfoCommand@@XZ
?GetCommandType@gCInfoCommandHeal@@UEBA?AW4gEInfoCommand@@XZ
?GetCommandType@gCInfoCommandInfoWait@@UEBA?AW4gEInfoCommand@@XZ
?GetCommandType@gCInfoCommandKillNPC@@UEBA?AW4gEInfoCommand@@XZ
?GetCommandType@gCInfoCommandMoveTo@@UEBA?AW4gEInfoCommand@@XZ
?GetCommandType@gCInfoCommandPickPocket@@UEBA?AW4gEInfoCommand@@XZ
?GetCommandType@gCInfoCommandPlayMusic@@UEBA?AW4gEInfoCommand@@XZ
?GetCommandType@gCInfoCommandRemoveNPC@@UEBA?AW4gEInfoCommand@@XZ
?GetCommandType@gCInfoCommandRemoveNPCInfo@@UEBA?AW4gEInfoCommand@@XZ
?GetCommandType@gCInfoCommandRemoveQuestActor@@UEBA?AW4gEInfoCommand@@XZ
?GetCommandType@gCInfoCommandRunAIScript@@UEBA?AW4gEInfoCommand@@XZ
?GetCommandType@gCInfoCommandRunInfo@@UEBA?AW4gEInfoCommand@@XZ
?GetCommandType@gCInfoCommandRunQuest@@UEBA?AW4gEInfoCommand@@XZ
?GetCommandType@gCInfoCommandRunScript@@UEBA?AW4gEInfoCommand@@XZ
?GetCommandType@gCInfoCommandSay@@UEBA?AW4gEInfoCommand@@XZ
?GetCommandType@gCInfoCommandSayConfirm@@UEBA?AW4gEInfoCommand@@XZ
?GetCommandType@gCInfoCommandSayHoldingPosition@@UEBA?AW4gEInfoCommand@@XZ
?GetCommandType@gCInfoCommandSayKeepItUp@@UEBA?AW4gEInfoCommand@@XZ
?GetCommandType@gCInfoCommandSaySVM@@UEBA?AW4gEInfoCommand@@XZ
?GetCommandType@gCInfoCommandSaySound@@UEBA?AW4gEInfoCommand@@XZ
?GetCommandType@gCInfoCommandSetGameEvent@@UEBA?AW4gEInfoCommand@@XZ
?GetCommandType@gCInfoCommandSetGuardStatus@@UEBA?AW4gEInfoCommand@@XZ
?GetCommandType@gCInfoCommandSetMobEnabled@@UEBA?AW4gEInfoCommand@@XZ
?GetCommandType@gCInfoCommandSetPartyEnabled@@UEBA?AW4gEInfoCommand@@XZ
?GetCommandType@gCInfoCommandSetRelaxingPoint@@UEBA?AW4gEInfoCommand@@XZ
?GetCommandType@gCInfoCommandSetRoutine@@UEBA?AW4gEInfoCommand@@XZ
?GetCommandType@gCInfoCommandSetSectorStatus@@UEBA?AW4gEInfoCommand@@XZ
?GetCommandType@gCInfoCommandSetSlaveryEnabled@@UEBA?AW4gEInfoCommand@@XZ
?GetCommandType@gCInfoCommandSetSleepingPoint@@UEBA?AW4gEInfoCommand@@XZ
?GetCommandType@gCInfoCommandSetTeachEnabled@@UEBA?AW4gEInfoCommand@@XZ
?GetCommandType@gCInfoCommandSetTradeEnabled@@UEBA?AW4gEInfoCommand@@XZ
?GetCommandType@gCInfoCommandSetWorkingPoint@@UEBA?AW4gEInfoCommand@@XZ
?GetCommandType@gCInfoCommandShowPicture@@UEBA?AW4gEInfoCommand@@XZ
?GetCommandType@gCInfoCommandShowSubtitle@@UEBA?AW4gEInfoCommand@@XZ
?GetCommandType@gCInfoCommandSleep@@UEBA?AW4gEInfoCommand@@XZ
?GetCommandType@gCInfoCommandStartEffect@@UEBA?AW4gEInfoCommand@@XZ
?GetCommandType@gCInfoCommandStartFixCamera@@UEBA?AW4gEInfoCommand@@XZ
?GetCommandType@gCInfoCommandStartTutorial@@UEBA?AW4gEInfoCommand@@XZ
?GetCommandType@gCInfoCommandStopFixCamera@@UEBA?AW4gEInfoCommand@@XZ
?GetCommandType@gCInfoCommandSucceedQuest@@UEBA?AW4gEInfoCommand@@XZ
?GetCommandType@gCInfoCommandTeach@@UEBA?AW4gEInfoCommand@@XZ
?GetCommandType@gCInfoCommandTeleportNPC@@UEBA?AW4gEInfoCommand@@XZ
?GetCommandType@gCInfoCommandThink@@UEBA?AW4gEInfoCommand@@XZ
?GetCommandType@gCInfoCommandTrigger@@UEBA?AW4gEInfoCommand@@XZ
?GetCommandType@gCInfoCommandUse@@UEBA?AW4gEInfoCommand@@XZ
?GetCommandType@gCInfoCommandWear@@UEBA?AW4gEInfoCommand@@XZ
?GetCommandTypeForScript@gCInfoCommand@@UEBA?AW4gEInfoCommand@@XZ
?GetCommandTypeForScript@gCInfoCommandAttack@@UEBA?AW4gEInfoCommand@@XZ
?GetCommandTypeForScript@gCInfoCommandDoTrade@@UEBA?AW4gEInfoCommand@@XZ
?GetCommandTypeForScript@gCInfoCommandHeal@@UEBA?AW4gEInfoCommand@@XZ
?GetCommandTypeForScript@gCInfoCommandInfoWait@@UEBA?AW4gEInfoCommand@@XZ
?GetCommandTypeForScript@gCInfoCommandPickPocket@@UEBA?AW4gEInfoCommand@@XZ
?GetCommandTypeForScript@gCInfoCommandRunAIScript@@UEBA?AW4gEInfoCommand@@XZ
?GetCommandTypeForScript@gCInfoCommandSay@@UEBA?AW4gEInfoCommand@@XZ
?GetCommandTypeForScript@gCInfoCommandSayConfirm@@UEBA?AW4gEInfoCommand@@XZ
?GetCommandTypeForScript@gCInfoCommandSayHoldingPosition@@UEBA?AW4gEInfoCommand@@XZ
?GetCommandTypeForScript@gCInfoCommandSayKeepItUp@@UEBA?AW4gEInfoCommand@@XZ
?GetCommandTypeForScript@gCInfoCommandSaySVM@@UEBA?AW4gEInfoCommand@@XZ
?GetCommandTypeForScript@gCInfoCommandSaySound@@UEBA?AW4gEInfoCommand@@XZ
?GetCommandTypeForScript@gCInfoCommandSetSectorStatus@@UEBA?AW4gEInfoCommand@@XZ
?GetCommandTypeForScript@gCInfoCommandSleep@@UEBA?AW4gEInfoCommand@@XZ
?GetCommandTypeForScript@gCInfoCommandThink@@UEBA?AW4gEInfoCommand@@XZ
?GetCommandTypeForScript@gCInfoCommandUse@@UEBA?AW4gEInfoCommand@@XZ
?GetCommands@gCEffectCommandSequence2@@QEBAAEBV?$bTRefPropertyArray@PEAVgCEffectCommand@@@@XZ
?GetCommonLibrarayPath@gCDatabase@@SA?AVbCString@@XZ
?GetCommonPhysicPath@gCDatabase@@SA?AVbCString@@XZ
?GetCommonPhysicPath@gCGameApp@@UEBA?AVbCString@@XZ
?GetCommonProjectsPath@gCDatabase@@SA?AVbCString@@XZ
?GetCompareOperation@gCInfoConditionSkillValue@@QEBAAEBV?$bTPropertyContainer@W4gECompareOperation@@@@XZ
?GetCompiledAnimationPath@gCDatabase@@SA?AVbCString@@XZ
?GetCompiledAnimationPath@gCGameApp@@UEBA?AVbCString@@XZ
?GetCompiledEffectsPath@gCDatabase@@SA?AVbCString@@XZ
?GetCompiledImagePath@gCDatabase@@SA?AVbCString@@XZ
?GetCompiledImagePath@gCGameApp@@UEBA?AVbCString@@XZ
?GetCompiledInfosPath@gCDatabase@@SA?AVbCString@@XZ
?GetCompiledMeshPath@gCDatabase@@SA?AVbCString@@XZ
?GetCompiledMeshPath@gCGameApp@@UEBA?AVbCString@@XZ
?GetCompiledPhysicPath@gCDatabase@@SA?AVbCString@@XZ
?GetCompiledPhysicPath@gCGameApp@@UEBA?AVbCString@@XZ
?GetCompiledQuestsPath@gCDatabase@@SA?AVbCString@@XZ
?GetCompiledSoundPath@gCDatabase@@SA?AVbCString@@XZ
?GetCompiledSoundPath@gCGameApp@@UEBA?AVbCString@@XZ
?GetCompiledStringsPath@gCDatabase@@SA?AVbCString@@XZ
?GetCompleted@gCTutorialEvent@@QEBAAEBVeCScriptProxyScript@@XZ
?GetCompletedResult@gCTutorialEvent@@QEBAHPEAVeCEntity@@AEAM@Z
?GetCondSeqItem@gCInfo@@QEBAPEAVgCInfoCondition@@H@Z
?GetCondSeqItemCount@gCInfo@@QEBAHXZ
?GetCondSeqItemIndex@gCInfo@@QEBAHPEAVgCInfoCondition@@@Z
?GetCondType@gCInfoConditionQuestStatus@@QEBAAEBV?$bTPropertyContainer@W4gEInfoCondType@@@@XZ
?GetCondition@gCTutorialEvent@@QEBAAEBVeCScriptProxyScript@@XZ
?GetConditionName@gCInfoCondition@@UEBA?AVbCString@@XZ
?GetConditionResult@gCTutorialEvent@@QEBAHPEAVeCEntity@@@Z
?GetConditionType@gCInfo@@QEBAAEBV?$bTPropertyContainer@W4gEInfoCondType@@@@XZ
?GetConsumeItem@gCCastInfo_PS@@QEBAAEB_NXZ
?GetContext@gCLayerBase@@QEAAAEAVeCContextBase@@XZ
?GetContext@gCLayerBase@@QEBAAEBVeCContextBase@@XZ
?GetControledNPC@gCSession@@QEBAPEAVeCDynamicEntity@@XZ
?GetCoolDown@gCEffectCommandEarthquake@@QEBAAEBMXZ
?GetCoordinateSystem@gCEffectCommandPlaySound@@QEBAAEBV?$bTPropertyContainer@W4gEEffectLink@@@@XZ
?GetCoordinateSystem@gCEffectCommandSpawnEntity@@QEBAAEBV?$bTPropertyContainer@W4gEEffectLink@@@@XZ
?GetCoordinateSystem@gCEffectCommandSpawnEntityList@@QEBAAEBV?$bTPropertyContainer@W4gEEffectLink@@@@XZ
?GetCoordinateSystem@gCEffectCommandSpawnEntitySwitch@@QEBAAEBV?$bTPropertyContainer@W4gEEffectLink@@@@XZ
?GetCorrectedPose@gCDynamicCollisionCircle_PS@@QEBAAEBV?$bTValArray@VbCMotion@@@@XZ
?GetCostFactor@gCNavPath_PS@@QEBAAEBMXZ
?GetCostFactor@gCNavZone_PS@@QEBAAEBMXZ
?GetCosts@gCNavPath_PS@@QEBAMAEBVbCVector@@0@Z
?GetCosts@gCNavPath_PS@@QEBAMXZ
?GetCosts@gCNavZone_PS@@QEBAMAEBVbCVector@@0@Z
?GetCounterAttack@gCCombatStyleMelee@@QEBAAEBVbCString@@XZ
?GetCounterParade@gCCombatStyleMelee@@QEBAAEBVbCString@@XZ
?GetCoveringPoint@gCWaterSubZone_PS@@QEBAAEBV?$bTValArray@VbCVector@@@@XZ
?GetCraft@gCRecipe_PS@@QEBAAEBV?$bTPropertyContainer@W4gERecipeCategory@@@@XZ
?GetCraftIngredients@gCRecipe_PS@@QEBAAEBV?$bTObjArray@VgCCraftIngredient@@@@XZ
?GetCreatorTemplate@gCStateGraphEventFilterTemplate@@QEBAAEBVeCTemplateEntityProxy@@XZ
?GetCredits@gCAchievement@@QEBAAEBKXZ
?GetCreditsAchieved@gCAchievementAdmin@@QEBAKXZ
?GetCreditsTotal@gCAchievementAdmin@@QEBAKXZ
?GetCurGoalPosition@gCCharacterMovement_PS@@QEBA?AVbCVector@@XZ
?GetCurrentActionEvent@gCActionAdmin@@QEBAAEBUgSAction@@XZ
?GetCurrentAniDirection@gCNavigation_PS@@QEBA?AW4gEDirection@@XZ
?GetCurrentAttackerEntity@gCNPC_PS@@QEBAAEBVeCEntityProxy@@XZ
?GetCurrentBreakBlock@gCScriptRoutine_PS@@QEBAAEBJXZ
?GetCurrentCameraName@gCCameraAdmin@@QEAAAEAVbCString@@XZ
?GetCurrentChapter@gCQuestManager@@QEBAKXZ
?GetCurrentCombatMode@gCCombatSystem_PS@@QEBA?AW4gECombatMode@@XZ
?GetCurrentCombatMove@gCCombatSystem_PS@@QEBA?AW4gECombatMove@@XZ
?GetCurrentCommandIndex@gCRuntimeInfo@@QEBAHXZ
?GetCurrentDatabase@gCWorkspace@@QEAAPEAVgCDatabase@@XZ
?GetCurrentDebugEvent@gCActionAdmin@@QEBAAEBUgSDebugAction@@XZ
?GetCurrentDestination@gCNavigation_PS@@QEBAAEBV?$bTValArray@VbCVector@@@@XZ
?GetCurrentDestinationID@gCNavigation_PS@@QEBAAEBV?$bTValArray@VbCPropertyID@@@@XZ
?GetCurrentDestinationPointProxy@gCNavigation_PS@@QEBAAEBVeCEntityProxy@@XZ
?GetCurrentFightAI@gCCombatSystem_PS@@QEBAPEAVgCCombatAI@@XZ
?GetCurrentGoldCost@gCInfo@@QEBAHXZ
?GetCurrentInfo@gCInfoSystem@@QEAAPEAVgCRuntimeInfo@@XZ
?GetCurrentInfoCommandIndex@gCInfo@@QEBAAEBHXZ
?GetCurrentIntParam@gCInteraction_PS@@QEBAHXZ
?GetCurrentInterPose@gCNavigation_PS@@QEBAAEBV?$bTValArray@VbCMotion@@@@XZ
?GetCurrentMaxSpeedOfDir@gCCharacterMovement_PS@@QEBAMAEBVbCVector@@@Z
?GetCurrentModal@gCHudSystem2@@QEAAPEAVgCHudDialog2@@XZ
?GetCurrentMove@gCCombatSystem_PS@@QEBAPEAVgCCombatMove@@XZ
?GetCurrentMoveInstance@gCCombatSystem_PS@@QEBAPEAUgSCombatMoveInstance@@XZ
?GetCurrentMovementAni@gCNPC_PS@@QEBAAEBVbCString@@XZ
?GetCurrentNavPath@gCNavigation_PS@@QEBAAEBV?$bTValArray@PEAVgCNavPath_PS@@@@XZ
?GetCurrentOther@gCInfoSystem@@QEAAPEAVeCEntity@@XZ
?GetCurrentPosition@gCCharacterMovement_PS@@QEBA?AVbCVector@@XZ
?GetCurrentProject@gCProject@@SAPEAV1@XZ
?GetCurrentProject@gCWorkspace@@QEAAPEAVgCProject@@XZ
?GetCurrentRadius@gCDynamicCollisionCircle_PS@@QEBAMXZ
?GetCurrentRelaxingPoint@gCNavigation_PS@@QEBAPEAVeCEntity@@XZ
?GetCurrentRoutine@gCNavigation_PS@@QEBAAEBJXZ
?GetCurrentSelf@gCInfoSystem@@QEAAPEAVeCEntity@@XZ
?GetCurrentSleepingPoint@gCNavigation_PS@@QEBAPEAVeCEntity@@XZ
?GetCurrentSpeedModifier@gCCharacterMovement_PS@@QEBAMXZ
?GetCurrentState@gCScriptRoutine_PS@@QEBAAEBVbCString@@XZ
?GetCurrentState@gCStateGraph_PS@@QEBAPEAVgCStateGraphState@@XZ
?GetCurrentStyle@gCCombatSystem_PS@@QEBAPEAVgCCombatStyle@@XZ
?GetCurrentTarget@gCCombatSystem_PS@@QEBAPEAVeCEntity@@XZ
?GetCurrentTarget@gCInteraction_PS@@QEBAPEAVeCEntity@@XZ
?GetCurrentTarget@gCNavigation_PS@@QEBAAEBVbCVector@@XZ
?GetCurrentTargetEntity@gCNPC_PS@@QEBAAEBVeCEntityProxy@@XZ
?GetCurrentTargetInteraction@gCInteraction_PS@@QEBAPEAVgCInteraction@@XZ
?GetCurrentTask@gCScriptRoutine_PS@@QEBAAEBVbCString@@XZ
?GetCurrentUser@gCInteraction_PS@@QEBAPEAVeCEntity@@XZ
?GetCurrentVelocity@gCCharacterMovement_PS@@QEBAMXZ
?GetCurrentWayDirection@gCCharacterMovement_PS@@QEAA?AVbCVector@@XZ
?GetCurrentWorkingPoint@gCNavigation_PS@@QEBAPEAVeCEntity@@XZ
?GetCurrentWorld@gCWorld@@SAPEAV1@XZ
?GetCurrentZoneEntityProxy@gCNavigation_PS@@QEBAAEBVeCEntityProxy@@XZ
?GetDCC@gCNavigation_PS@@QEAAPEAVgCDynamicCollisionCircle_PS@@XZ
?GetDCCEnabled@gCDynamicCollisionCircle_PS@@QEBA_NXZ
?GetDamageAmount@gCDamage_PS@@QEBAAEBJXZ
?GetDamageAmount@gCStateGraphEventFilterDamageAmount@@QEBAAEBHXZ
?GetDamageBonus@gCDamage_PS@@QEBAAEBJXZ
?GetDamageCalculationType@gCNPC_PS@@QEBAAEBV?$bTPropertyContainer@W4gEDamageCalculationType@@@@XZ
?GetDamageMultiplier@gCDamage_PS@@QEBAAEBMXZ
?GetDamageScript@gCDamage_PS@@QEBAAEBVeCScriptProxyScript@@XZ
?GetDamageScript@gCInteraction_PS@@QEBAAEBVeCScriptProxyScript@@XZ
?GetDamageType@gCDamage_PS@@QEBAAEBV?$bTPropertyContainer@W4gEDamageType@@@@XZ
?GetDataFileExt@gCDynamicLayer@@UEBA?AVbCString@@XZ
?GetDataFileExt@gCProject@@UEBA?AVbCString@@XZ
?GetDataFileExt@gCSector@@UEBA?AVbCString@@XZ
?GetDataFileExt@gCWorld@@UEBA?AVbCString@@XZ
?GetDatabase@gCWorkspace@@QEAAPEAVgCDatabase@@AEBVbCString@@@Z
?GetDatabase@gCWorkspace@@QEBAPEBVgCDatabase@@AEBVbCString@@@Z
?GetDateTime@gCSaveGame@@QEBA?AVbCDateTime@@XZ
?GetDay@gCClock_PS@@QEBAAEBKXZ
?GetDaysPlayed@gCClock_PS@@QEBAAEBKXZ
?GetDeactivationVelocity@gCFlightPathBallistic@@QEBAAEBMXZ
?GetDebugMode@gCCameraAdmin@@QEBA_NXZ
?GetDebugMode@gCCharacterMovement_PS@@QEAA_NXZ
?GetDecay@gCEffectCommandKillEntity@@QEBAAEB_NXZ
?GetDecay@gCEffectCommandKillEntityRange@@QEBAAEB_NXZ
?GetDecayMode@gCEffect_PS@@QEBAAEBV?$bTPropertyContainer@W4gEEffectDecayMode@@@@XZ
?GetDefaultCtrlID@gCHudPage2@@QEBAAEBGXZ
?GetDefaultItem@gCInventory_PS@@QEBAXW4gESlot@@AEAVbCPropertyID@@@Z
?GetDefaultMarkerImage@gCMap_PS@@QEBAAEBVeCGuiBitmapProxy2@@XZ
?GetDefaultRadius@gCCollisionCircle_PS@@QEBAAEBMXZ
?GetDefaultSlot@gCInventory_PS@@QEAAAEAVgCInventorySlot@@W4gESlot@@@Z
?GetDefaultSlot@gCInventory_PS@@QEBAAEBVgCInventorySlot@@W4gESlot@@@Z
?GetDefaultState@gCStateGraph_PS@@QEBAAEBVbCString@@XZ
?GetDefaultTip@gCHudPopUp2@@QEBAAEB_NXZ
?GetDefaultWorldName@gCHUDFileManager@@IEBA?AVbCString@@XZ
?GetDefeatedByPlayer@gCNPC_PS@@QEBAAEB_NXZ
?GetDeletedTemplatePath@gCDatabase@@SA?AVbCString@@XZ
?GetDeliveryEntities@gCQuest@@QEBAAEBV?$bTObjArray@UgSDeliveryEntity@gCQuest@@@@XZ
?GetDeliveryEntitiesStatusCheckTriggered@gCQuest@@QEBA_NXZ
?GetDeliveryEntitiesStatusCheckTriggered@gCQuestManager@@QEAA_NXZ
?GetDemoRelevant@gCSector@@QEBAAEB_NXZ
?GetDependencies@gCCharacterMovement_PS@@UEAAXAEAV?$bTObjArray@VbCString@@@@0AEAV?$bTObjArray@VeCTemplateEntityProxy@@@@@Z
?GetDependencies@gCCombatMove@@UEAAXAEAV?$bTObjArray@VbCString@@@@0AEAV?$bTObjArray@VeCTemplateEntityProxy@@@@@Z
?GetDependencies@gCCombatMoveAim@@UEAAXAEAV?$bTObjArray@VbCString@@@@0AEAV?$bTObjArray@VeCTemplateEntityProxy@@@@@Z
?GetDependencies@gCCombatMoveFinishing@@UEAAXAEAV?$bTObjArray@VbCString@@@@0AEAV?$bTObjArray@VeCTemplateEntityProxy@@@@@Z
?GetDependencies@gCCombatMoveMelee@@UEAAXAEAV?$bTObjArray@VbCString@@@@0AEAV?$bTObjArray@VeCTemplateEntityProxy@@@@@Z
?GetDependencies@gCCombatMoveOverlayStumble@@UEAAXAEAV?$bTObjArray@VbCString@@@@0AEAV?$bTObjArray@VeCTemplateEntityProxy@@@@@Z
?GetDependencies@gCCombatMoveParade@@UEAAXAEAV?$bTObjArray@VbCString@@@@0AEAV?$bTObjArray@VeCTemplateEntityProxy@@@@@Z
?GetDependencies@gCCombatMoveReload@@UEAAXAEAV?$bTObjArray@VbCString@@@@0AEAV?$bTObjArray@VeCTemplateEntityProxy@@@@@Z
?GetDependencies@gCCombatMoveShoot@@UEAAXAEAV?$bTObjArray@VbCString@@@@0AEAV?$bTObjArray@VeCTemplateEntityProxy@@@@@Z
?GetDependencies@gCCombatMoveStumble@@UEAAXAEAV?$bTObjArray@VbCString@@@@0AEAV?$bTObjArray@VeCTemplateEntityProxy@@@@@Z
?GetDependencies@gCCombatSpecies@@UEAAXAEAV?$bTObjArray@VbCString@@@@0AEAV?$bTObjArray@VeCTemplateEntityProxy@@@@@Z
?GetDependencies@gCCombatSystem_PS@@UEAAXAEAV?$bTObjArray@VbCString@@@@0AEAV?$bTObjArray@VeCTemplateEntityProxy@@@@@Z
?GetDependencies@gCEffectCommand@@UEAAXAEAV?$bTObjArray@VbCString@@@@0AEAV?$bTObjArray@VeCTemplateEntityProxy@@@@@Z
?GetDependencies@gCEffectCommandPlaySound@@UEAAXAEAV?$bTObjArray@VbCString@@@@0AEAV?$bTObjArray@VeCTemplateEntityProxy@@@@@Z
?GetDependencies@gCEffectCommandSpawnEntity@@UEAAXAEAV?$bTObjArray@VbCString@@@@0AEAV?$bTObjArray@VeCTemplateEntityProxy@@@@@Z
?GetDependencies@gCEffectCommandSpawnEntityList@@UEAAXAEAV?$bTObjArray@VbCString@@@@0AEAV?$bTObjArray@VeCTemplateEntityProxy@@@@@Z
?GetDependencies@gCEffectCommandSpawnEntitySwitch@@UEAAXAEAV?$bTObjArray@VbCString@@@@0AEAV?$bTObjArray@VeCTemplateEntityProxy@@@@@Z
?GetDependencies@gCEffect_PS@@UEAAXAEAV?$bTObjArray@VbCString@@@@0AEAV?$bTObjArray@VeCTemplateEntityProxy@@@@@Z
?GetDependencies@gCInventory_PS@@UEAAXAEAV?$bTObjArray@VbCString@@@@0AEAV?$bTObjArray@VeCTemplateEntityProxy@@@@@Z
?GetDependencies@gCItem_PS@@UEAAXAEAV?$bTObjArray@VbCString@@@@0AEAV?$bTObjArray@VeCTemplateEntityProxy@@@@@Z
?GetDependencies@gCLock_PS@@UEAAXAEAV?$bTObjArray@VbCString@@@@0AEAV?$bTObjArray@VeCTemplateEntityProxy@@@@@Z
?GetDependencies@gCNPC_PS@@UEAAXAEAV?$bTObjArray@VbCString@@@@0AEAV?$bTObjArray@VeCTemplateEntityProxy@@@@@Z
?GetDependencies@gCProjectile2_PS@@UEAAXAEAV?$bTObjArray@VbCString@@@@0AEAV?$bTObjArray@VeCTemplateEntityProxy@@@@@Z
?GetDependencies@gCScriptRoutine_PS@@UEAAXAEAV?$bTObjArray@VbCString@@@@0AEAV?$bTObjArray@VeCTemplateEntityProxy@@@@@Z
?GetDependencies@gCStateGraphAction@@UEAAXAEAV?$bTObjArray@VbCString@@@@0AEAV?$bTObjArray@VeCTemplateEntityProxy@@@@@Z
?GetDependencies@gCStateGraphActionStartEffect@@UEAAXAEAV?$bTObjArray@VbCString@@@@0AEAV?$bTObjArray@VeCTemplateEntityProxy@@@@@Z
?GetDependencies@gCStateGraphState@@QEAAXAEAV?$bTObjArray@VbCString@@@@0AEAV?$bTObjArray@VeCTemplateEntityProxy@@@@@Z
?GetDependencies@gCStateGraph_PS@@UEAAXAEAV?$bTObjArray@VbCString@@@@0AEAV?$bTObjArray@VeCTemplateEntityProxy@@@@@Z
?GetDepthRange@gCWaterZone_PS@@QEBAAEBMXZ
?GetDescription@gCAchievement@@QEBAAEBVeCLocString@@XZ
?GetDescription@gCInfoCommandAddNPCInfo@@QEBAAEBVgCNPCInfoLocString@@XZ
?GetDescription@gCItem_PS@@QEBA?AVbCUnicodeString@@XZ
?GetDescription@gCRecipe_PS@@QEBA?AVbCUnicodeString@@XZ
?GetDescription@gCStateGraphAction@@UEBAXAEAVbCString@@@Z
?GetDescription@gCStateGraphActionCallScript@@UEBAXAEAVbCString@@@Z
?GetDescription@gCStateGraphActionEventDispatcher@@UEBAXAEAVbCString@@@Z
?GetDescription@gCStateGraphActionFollowState@@UEBAXAEAVbCString@@@Z
?GetDescription@gCStateGraphActionPauseAni@@UEBAXAEAVbCString@@@Z
?GetDescription@gCStateGraphActionPlayAni@@UEBAXAEAVbCString@@@Z
?GetDescription@gCStateGraphActionStartEffect@@UEBAXAEAVbCString@@@Z
?GetDescription@gCStateGraphActionStop@@UEBAXAEAVbCString@@@Z
?GetDescription@gCStateGraphActionTrigger@@UEBAXAEAVbCString@@@Z
?GetDescription@gCStateGraphActionTriggerState@@UEBAXAEAVbCString@@@Z
?GetDescription@gCStateGraphActionUnTrigger@@UEBAXAEAVbCString@@@Z
?GetDescription@gCStateGraphActionVisibility@@UEBAXAEAVbCString@@@Z
?GetDescription@gCStateGraphActionWait@@UEBAXAEAVbCString@@@Z
?GetDescription@gCTutorialEvent@@QEBAAEBVeCLocString@@XZ
?GetDesiredDistanceToTarget@gCCombatMoveFinishing@@QEBAAEBMXZ
?GetDestination@gCNavigation_PS@@QEBAAEBV?$bTValArray@VbCMotion@@@@XZ
?GetDestinationEntity@gCQuest@@QEBAAEBVbCString@@XZ
?GetDetachedSlotScript@gCInteraction_PS@@QEBAAEBVeCScriptProxyScript@@XZ
?GetDialogDescription@gCInfo@@QEBA?AVbCUnicodeString@@PEAUSDialogDescription@@@Z
?GetDialogDescription@gCInfoCommand@@UEAA_NPEAUSDialogDescription@@PEAVgCRuntimeInfo@@@Z
?GetDialogDescription@gCInfoCommandTeach@@UEAA_NPEAUSDialogDescription@@PEAVgCRuntimeInfo@@@Z
?GetDialogPartner1@gCInfoSystem@@QEBAPEAVeCEntity@@XZ
?GetDialogPartner2@gCInfoSystem@@QEBAPEAVeCEntity@@XZ
?GetDialogPartnerNPC@gCInfoSystem@@QEBAPEAVeCEntity@@XZ
?GetDifficulty@gCInfoCommandPickPocket@@QEBAAEBKXZ
?GetDifficulty@gCLock_PS@@QEBAAEBHXZ
?GetDirectionOfMovementKeys@gCCharacterControl@@QEBA?AW4gEDirection@@XZ
?GetDisableInput@gCHudPage2@@QEBAAEB_NXZ
?GetDisableRotation@gCCharacterMovement_PS@@QEBAAEB_NXZ
?GetDisableTranslation@gCCharacterMovement_PS@@QEBAAEB_NXZ
?GetDiscovered@gCNPC_PS@@QEBAAEB_NXZ
?GetDispatchEventSource@gCStateGraphActionEventDispatcher@@QEBAAEB_NXZ
?GetDistOwnerToEntity@gCInfo@@QEBAMAEBVbCPropertyID@@@Z
?GetDistOwnerToEntity@gCInfo@@QEBAMAEBVbCString@@@Z
?GetDistOwnerToEntity@gCInfo@@QEBAMAEBVeCEntity@@@Z
?GetDistToCeiling@gCCharacterMovement_PS@@QEBAMAEBVbCVector@@_N@Z
?GetDistToGround@gCCharacterMovement_PS@@QEBA_NAEBVbCVector@@AEAM_N@Z
?GetDistToPlayer@gCEffectCommandSequence2@@QEBAAEBMXZ
?GetDistance@gCCombatAI@@QEAA_NPEAVgCCombatSystem_PS@@PEAVeCGeometryEntity@@AEAM@Z
?GetDistance@gCCombatAI@@QEAA_NPEAVgCCombatSystem_PS@@PEAVeCGeometryEntity@@MAEAM@Z
?GetDistanceToImpact@gCProjectile2_PS@@QEBAAEBMXZ
?GetDistanceToOcean@gCNavigationAdmin@@QEAAMAEBVbCVector@@AEAM@Z
?GetDistanceToRiver@gCNavigationAdmin@@QEAAMAEBVbCVector@@@Z
?GetDoHeightCorrection@gCCharacterMovement_PS@@QEBAAEB_NXZ
?GetDoUntrigger@gCInfoCommandTrigger@@QEBAAEB_NXZ
?GetDontStopFallAngleMin@gCCharacterMovement_PS@@QEBAAEBMXZ
?GetDontUseLimitedNavPaths@gCNavigation_PS@@QEAA_NXZ
?GetDoorEntity@gCNavPath_PS@@QEAAPEAVeCEntity@@XZ
?GetDoorPSList@gCNavigationAdmin@@QEAAAEBV?$bTValArray@PEAVgCDoor_PS@@@@XZ
?GetDropped@gCItem_PS@@QEBAAEB_NXZ
?GetDummy@gCEffectCommandEntity@@QEBAAEBHXZ
?GetDummyEntity@gCDummyCollectorPSet_Base@@QEBAPEAVeCDynamicEntity@@AEBV2@@Z
?GetDummyEntity@gCDummyCollectorPSet_Base@@QEBAPEAVeCDynamicEntity@@H@Z
?GetDummyEntityAtIndex@gCDummyCollectorAdmin@@QEBAPEAVeCDynamicEntity@@W4eEPropertySetType@@AEAV2@H@Z
?GetDummyEntityAtIndex@gCDummyCollectorPSet_Base@@QEBAPEAVeCDynamicEntity@@AEAV2@H@Z
?GetDuration@gCEffectCommandRunScript@@QEBAAEBMXZ
?GetDuration@gCEffectCommandStartImageEffect@@QEBAAEBMXZ
?GetDuration@gCTutorialEvent@@QEBAAEBHXZ
?GetDynamicLayer@gCSector@@QEAAPEAVgCDynamicLayer@@AEBVbCString@@@Z
?GetDynamicLayer@gCSector@@QEBAPEBVgCDynamicLayer@@AEBVbCString@@@Z
?GetDynamicLayerAt@gCSector@@QEAAPEAVgCDynamicLayer@@H@Z
?GetDynamicLayerAt@gCSector@@QEBAPEBVgCDynamicLayer@@H@Z
?GetDynamicLayerCount@gCSector@@QEBAHXZ
?GetDynamicLayerIndex@gCSector@@QEBAHAEBVbCString@@@Z
?GetEditorEntity@gCGameApp@@UEBAPEBVeCEntity@@XZ
?GetEditorEntity@gCSession@@QEBAPEBVeCEntity@@XZ
?GetEditorLayout@gCStateGraphState@@QEAAAEAVbCRect@@XZ
?GetEffect@gCEffect_PS@@QEBAAEBVbCString@@XZ
?GetEffect@gCStateGraphActionStartEffect@@QEBAAEBVbCString@@XZ
?GetEffectDependencies@gCEffectSystem@@UEAAXAEBVbCString@@AEAV?$bTObjArray@VbCString@@@@1AEAV?$bTObjArray@VeCTemplateEntityProxy@@@@@Z
?GetEffectDuration@gCEffectCommandEarthquake@@QEBAAEBMXZ
?GetEffectHigh@gCEffect_PS@@QEBAAEBVbCString@@XZ
?GetEffectMaterial@gCCombatSystem_PS@@QEBAAEBVbCString@@XZ
?GetEffectMaterial@gCItem_PS@@QEBAAEBVbCString@@XZ
?GetEffectMaterial@gCNPC_PS@@QEBAAEBVbCString@@XZ
?GetEffectMaterial@gCWaterZone_PS@@QEBAAEBVbCString@@XZ
?GetEffectMedium@gCEffect_PS@@QEBAAEBVbCString@@XZ
?GetEffectName@gCInfoCommandStartEffect@@QEBAAEBVbCString@@XZ
?GetEffectOffset@gCCombatMoveParade@@QEBAAEBVbCVector@@XZ
?GetEffectQuality@gCEffectSystem@@QEBA?AW4gEEffectQuality@@XZ
?GetEffectSpecies@gCNPC_PS@@QEBAAEBVbCString@@XZ
?GetEffectWeight@gCEffectCommandEarthquake@@QEBAAEBMXZ
?GetEffectiveEffect@gCEffect_PS@@QEBA?AVbCString@@W4gEEffectQuality@@@Z
?GetElevationAngle@gCCombatMoveAim@@QEBAAEBVbCRange1@@XZ
?GetElevationAngle@gCCombatMoveShoot@@QEBAAEBVbCRange1@@XZ
?GetEmitter@gCWaterZone_PS@@QEBA?AVeCEntityProxy@@XZ
?GetEmitterTemplate@gCWaterZone_PS@@QEBA?AVeCTemplateEntityProxy@@XZ
?GetEnableAttackSec@gCCombatStyleMelee@@QEBAAEB_NXZ
?GetEnableDragDrop@gCInventoryList@@QEBA_NXZ
?GetEnablePowerRaise@gCCombatStyleMelee@@QEBAAEB_NXZ
?GetEnableSideAttacks@gCCombatStyleMelee@@QEBAAEB_NXZ
?GetEnableSpining@gCProjectile2_PS@@QEBAAEB_NXZ
?GetEnableSweepTest@gCProjectile2_PS@@QEBAAEB_NXZ
?GetEnabled@gCCollisionCircle_PSObj@@QEBA_NXZ
?GetEnabled@gCDynamicCollisionCircle_PS@@QEBA_NXZ
?GetEnabled@gCEffect_PS@@QEBAAEB_NXZ
?GetEnabled@gCNavigation_PS@@QEBA_NXZ
?GetEnabledAsObstacle@gCCollisionCircle_PS@@QEBAAEB_NXZ
?GetEnabledOnStartup@gCSector@@QEBAAEB_NXZ
?GetEndAttackTimestamp@gCScriptRoutine_PS@@QEBAAEBMXZ
?GetEndChapter@gCInfo@@QEBAAEBJXZ
?GetEndChapter@gCQuest@@QEBAAEBJXZ
?GetEndDialogTimestamp@gCDialog_PS@@QEBAAEBMXZ
?GetEndTime@gCEffectCommandSequence2@@QEBAMXZ
?GetEnterROIScript@gCInteraction_PS@@QEBAAEBVeCScriptProxyScript@@XZ
?GetEnterScript@gCStateGraphActionCallScript@@QEBAAEBVeCScriptProxyScript@@XZ
?GetEntity1@gCInfoCommand@@QEBAAEBVbCString@@XZ
?GetEntity1@gCInfoCommandAttack@@QEBAAEBVbCString@@XZ
?GetEntity1@gCInfoCommandBoostAttribs@@QEBAAEBVbCString@@XZ
?GetEntity1@gCInfoCommandCreateItem@@QEBAAEBVbCString@@XZ
?GetEntity1@gCInfoCommandDestroyItem@@QEBAAEBVbCString@@XZ
?GetEntity1@gCInfoCommandDoLoot@@QEBAAEBVbCString@@XZ
?GetEntity1@gCInfoCommandDoTrade@@QEBAAEBVbCString@@XZ
?GetEntity1@gCInfoCommandFullStop@@QEBAAEBVbCString@@XZ
?GetEntity1@gCInfoCommandGive@@QEBAAEBVbCString@@XZ
?GetEntity1@gCInfoCommandHeal@@QEBAAEBVbCString@@XZ
?GetEntity1@gCInfoCommandMoveTo@@QEBAAEBVbCString@@XZ
?GetEntity1@gCInfoCommandSetGuardStatus@@QEBAAEBVbCString@@XZ
?GetEntity1@gCInfoCommandSetMobEnabled@@QEBAAEBVbCString@@XZ
?GetEntity1@gCInfoCommandSetPartyEnabled@@QEBAAEBVbCString@@XZ
?GetEntity1@gCInfoCommandSetRelaxingPoint@@QEBAAEBVbCString@@XZ
?GetEntity1@gCInfoCommandSetRoutine@@QEBAAEBVbCString@@XZ
?GetEntity1@gCInfoCommandSetSlaveryEnabled@@QEBAAEBVbCString@@XZ
?GetEntity1@gCInfoCommandSetSleepingPoint@@QEBAAEBVbCString@@XZ
?GetEntity1@gCInfoCommandSetTeachEnabled@@QEBAAEBVbCString@@XZ
?GetEntity1@gCInfoCommandSetTradeEnabled@@QEBAAEBVbCString@@XZ
?GetEntity1@gCInfoCommandSetWorkingPoint@@QEBAAEBVbCString@@XZ
?GetEntity1@gCInfoCommandSleep@@QEBAAEBVbCString@@XZ
?GetEntity1@gCInfoCommandStartEffect@@QEBAAEBVbCString@@XZ
?GetEntity1@gCInfoCommandTeach@@QEBAAEBVbCString@@XZ
?GetEntity1@gCInfoCommandUse@@QEBAAEBVbCString@@XZ
?GetEntity1@gCInfoCommandWear@@QEBAAEBVbCString@@XZ
?GetEntity2@gCInfoCommand@@QEBAAEBVbCString@@XZ
?GetEntity2@gCInfoCommandAttack@@QEBAAEBVbCString@@XZ
?GetEntity2@gCInfoCommandDoLoot@@QEBAAEBVbCString@@XZ
?GetEntity2@gCInfoCommandDoTrade@@QEBAAEBVbCString@@XZ
?GetEntity2@gCInfoCommandGive@@QEBAAEBVbCString@@XZ
?GetEntity2@gCInfoCommandHeal@@QEBAAEBVbCString@@XZ
?GetEntity2@gCInfoCommandMoveTo@@QEBAAEBVbCString@@XZ
?GetEntity2@gCInfoCommandSetRelaxingPoint@@QEBAAEBVbCString@@XZ
?GetEntity2@gCInfoCommandSetSleepingPoint@@QEBAAEBVbCString@@XZ
?GetEntity2@gCInfoCommandSetWorkingPoint@@QEBAAEBVbCString@@XZ
?GetEntity@gCInfoConditionOwnerNearEntity@@QEBAAEBVeCEntityStringProxy@@XZ
?GetEntity@gCInfoConditionSkillValue@@QEBAAEBVbCString@@XZ
?GetEntity@gCMapEntry@@QEBAAEBVeCEntityStringProxy@@XZ
?GetEntity@gCQuest@@IEBAPEAVeCEntity@@AEBVbCPropertyID@@@Z
?GetEntity@gCQuest@@IEBAPEAVeCEntity@@AEBVbCString@@@Z
?GetEntity@gCRuntimeInfo@@QEAAPEAVeCEntity@@AEBVbCPropertyID@@@Z
?GetEntity@gCRuntimeInfo@@QEAAPEAVeCEntity@@AEBVbCString@@@Z
?GetEntity@gCStateGraphAction@@QEBAPEAVeCEntity@@XZ
?GetEntity@gCStateGraphEventFilterIsEntity@@QEBAAEBVeCEntityProxy@@XZ
?GetEntityAndMemberIndex@gCDummyCollectorAdmin@@QEAAHW4eEPropertySetType@@PEBVeCDynamicEntity@@AEAPEAV3@@Z
?GetEntityAndMemberIndex@gCDummyCollectorPSet_Base@@QEAAHPEBVeCDynamicEntity@@AEAPEAV2@@Z
?GetEntityByKeyword@gCInfo@@QEBAPEAVeCEntity@@AEBVbCString@@@Z
?GetEntityByKeyword@gCQuest@@QEBAPEAVeCEntity@@AEBVbCString@@@Z
?GetEntityByKeyword@gCRuntimeInfo@@QEAAPEAVeCEntity@@AEBVbCString@@@Z
?GetEntityByName@gCInfo@@QEBAPEAVeCEntity@@AEBVbCString@@@Z
?GetEntityContext@gCDynamicLayer@@IEAAAEAVeCEntityDynamicContext@@XZ
?GetEntityContext@gCDynamicLayer@@QEBAAEBVeCEntityDynamicContext@@XZ
?GetEntityID@gCCollisionCircle_PSObj@@QEBAAEBVbCPropertyID@@XZ
?GetEntityID@gCNegZone_PSObj@@QEBAAEBVbCPropertyID@@XZ
?GetEntityID@gCPrefPath_PSObj@@QEBAAEBVbCPropertyID@@XZ
?GetEntityID@gCRuntimeInfo@@QEAA?AVbCPropertyID@@AEBVbCString@@@Z
?GetEntityIndex@gCEffectCommandKillEntity@@QEBAAEBHXZ
?GetEntityIndex@gCEffectCommandModifyEntity@@QEBAAEBHXZ
?GetEntityIndex@gCEffectCommandSpawnEntity@@QEBAAEBHXZ
?GetEntityIndex@gCEffectCommandSpawnEntitySwitch@@QEBAAEBHXZ
?GetEntityIndex@gCEffectCommandTriggerEntity@@QEBAAEBHXZ
?GetEntityLayers@gCSector@@QEBAAEBV?$bTRefPtrArray@PEAVgCDynamicLayer@@@@XZ
?GetEntityProxy1@gCInfoCommand@@UEAAAEAVeCEntityProxy@@AEAVgCRuntimeInfo@@@Z
?GetEntityProxy1@gCInfoCommandAttack@@UEAAAEAVeCEntityProxy@@AEAVgCRuntimeInfo@@@Z
?GetEntityProxy1@gCInfoCommandBoostAttribs@@UEAAAEAVeCEntityProxy@@AEAVgCRuntimeInfo@@@Z
?GetEntityProxy1@gCInfoCommandCreateItem@@UEAAAEAVeCEntityProxy@@AEAVgCRuntimeInfo@@@Z
?GetEntityProxy1@gCInfoCommandDestroyItem@@UEAAAEAVeCEntityProxy@@AEAVgCRuntimeInfo@@@Z
?GetEntityProxy1@gCInfoCommandDoLoot@@UEAAAEAVeCEntityProxy@@AEAVgCRuntimeInfo@@@Z
?GetEntityProxy1@gCInfoCommandDoTrade@@UEAAAEAVeCEntityProxy@@AEAVgCRuntimeInfo@@@Z
?GetEntityProxy1@gCInfoCommandFullStop@@UEAAAEAVeCEntityProxy@@AEAVgCRuntimeInfo@@@Z
?GetEntityProxy1@gCInfoCommandGive@@UEAAAEAVeCEntityProxy@@AEAVgCRuntimeInfo@@@Z
?GetEntityProxy1@gCInfoCommandHeal@@UEAAAEAVeCEntityProxy@@AEAVgCRuntimeInfo@@@Z
?GetEntityProxy1@gCInfoCommandKillNPC@@UEAAAEAVeCEntityProxy@@AEAVgCRuntimeInfo@@@Z
?GetEntityProxy1@gCInfoCommandMoveTo@@UEAAAEAVeCEntityProxy@@AEAVgCRuntimeInfo@@@Z
?GetEntityProxy1@gCInfoCommandPickPocket@@UEAAAEAVeCEntityProxy@@AEAVgCRuntimeInfo@@@Z
?GetEntityProxy1@gCInfoCommandRemoveNPC@@UEAAAEAVeCEntityProxy@@AEAVgCRuntimeInfo@@@Z
?GetEntityProxy1@gCInfoCommandRunAIScript@@UEAAAEAVeCEntityProxy@@AEAVgCRuntimeInfo@@@Z
?GetEntityProxy1@gCInfoCommandRunScript@@UEAAAEAVeCEntityProxy@@AEAVgCRuntimeInfo@@@Z
?GetEntityProxy1@gCInfoCommandSay@@UEAAAEAVeCEntityProxy@@AEAVgCRuntimeInfo@@@Z
?GetEntityProxy1@gCInfoCommandSayConfirm@@UEAAAEAVeCEntityProxy@@AEAVgCRuntimeInfo@@@Z
?GetEntityProxy1@gCInfoCommandSayHoldingPosition@@UEAAAEAVeCEntityProxy@@AEAVgCRuntimeInfo@@@Z
?GetEntityProxy1@gCInfoCommandSayKeepItUp@@UEAAAEAVeCEntityProxy@@AEAVgCRuntimeInfo@@@Z
?GetEntityProxy1@gCInfoCommandSaySVM@@UEAAAEAVeCEntityProxy@@AEAVgCRuntimeInfo@@@Z
?GetEntityProxy1@gCInfoCommandSaySound@@UEAAAEAVeCEntityProxy@@AEAVgCRuntimeInfo@@@Z
?GetEntityProxy1@gCInfoCommandSetGuardStatus@@UEAAAEAVeCEntityProxy@@AEAVgCRuntimeInfo@@@Z
?GetEntityProxy1@gCInfoCommandSetMobEnabled@@UEAAAEAVeCEntityProxy@@AEAVgCRuntimeInfo@@@Z
?GetEntityProxy1@gCInfoCommandSetPartyEnabled@@UEAAAEAVeCEntityProxy@@AEAVgCRuntimeInfo@@@Z
?GetEntityProxy1@gCInfoCommandSetRelaxingPoint@@UEAAAEAVeCEntityProxy@@AEAVgCRuntimeInfo@@@Z
?GetEntityProxy1@gCInfoCommandSetRoutine@@UEAAAEAVeCEntityProxy@@AEAVgCRuntimeInfo@@@Z
?GetEntityProxy1@gCInfoCommandSetSlaveryEnabled@@UEAAAEAVeCEntityProxy@@AEAVgCRuntimeInfo@@@Z
?GetEntityProxy1@gCInfoCommandSetSleepingPoint@@UEAAAEAVeCEntityProxy@@AEAVgCRuntimeInfo@@@Z
?GetEntityProxy1@gCInfoCommandSetTeachEnabled@@UEAAAEAVeCEntityProxy@@AEAVgCRuntimeInfo@@@Z
?GetEntityProxy1@gCInfoCommandSetTradeEnabled@@UEAAAEAVeCEntityProxy@@AEAVgCRuntimeInfo@@@Z
?GetEntityProxy1@gCInfoCommandSetWorkingPoint@@UEAAAEAVeCEntityProxy@@AEAVgCRuntimeInfo@@@Z
?GetEntityProxy1@gCInfoCommandSleep@@UEAAAEAVeCEntityProxy@@AEAVgCRuntimeInfo@@@Z
?GetEntityProxy1@gCInfoCommandStartEffect@@UEAAAEAVeCEntityProxy@@AEAVgCRuntimeInfo@@@Z
?GetEntityProxy1@gCInfoCommandStartFixCamera@@UEAAAEAVeCEntityProxy@@AEAVgCRuntimeInfo@@@Z
?GetEntityProxy1@gCInfoCommandTeach@@UEAAAEAVeCEntityProxy@@AEAVgCRuntimeInfo@@@Z
?GetEntityProxy1@gCInfoCommandTeleportNPC@@UEAAAEAVeCEntityProxy@@AEAVgCRuntimeInfo@@@Z
?GetEntityProxy1@gCInfoCommandThink@@UEAAAEAVeCEntityProxy@@AEAVgCRuntimeInfo@@@Z
?GetEntityProxy1@gCInfoCommandTrigger@@UEAAAEAVeCEntityProxy@@AEAVgCRuntimeInfo@@@Z
?GetEntityProxy1@gCInfoCommandUse@@UEAAAEAVeCEntityProxy@@AEAVgCRuntimeInfo@@@Z
?GetEntityProxy1@gCInfoCommandWear@@UEAAAEAVeCEntityProxy@@AEAVgCRuntimeInfo@@@Z
?GetEntityProxy1@gCInfoConditionScript@@QEAAAEAVeCEntityProxy@@AEBVgCInfo@@@Z
?GetEntityProxy2@gCInfoCommand@@UEAAAEAVeCEntityProxy@@AEAVgCRuntimeInfo@@@Z
?GetEntityProxy2@gCInfoCommandAttack@@UEAAAEAVeCEntityProxy@@AEAVgCRuntimeInfo@@@Z
?GetEntityProxy2@gCInfoCommandDoLoot@@UEAAAEAVeCEntityProxy@@AEAVgCRuntimeInfo@@@Z
?GetEntityProxy2@gCInfoCommandDoTrade@@UEAAAEAVeCEntityProxy@@AEAVgCRuntimeInfo@@@Z
?GetEntityProxy2@gCInfoCommandGive@@UEAAAEAVeCEntityProxy@@AEAVgCRuntimeInfo@@@Z
?GetEntityProxy2@gCInfoCommandHeal@@UEAAAEAVeCEntityProxy@@AEAVgCRuntimeInfo@@@Z
?GetEntityProxy2@gCInfoCommandMoveTo@@UEAAAEAVeCEntityProxy@@AEAVgCRuntimeInfo@@@Z
?GetEntityProxy2@gCInfoCommandPickPocket@@UEAAAEAVeCEntityProxy@@AEAVgCRuntimeInfo@@@Z
?GetEntityProxy2@gCInfoCommandRunAIScript@@UEAAAEAVeCEntityProxy@@AEAVgCRuntimeInfo@@@Z
?GetEntityProxy2@gCInfoCommandRunScript@@UEAAAEAVeCEntityProxy@@AEAVgCRuntimeInfo@@@Z
?GetEntityProxy2@gCInfoCommandSay@@UEAAAEAVeCEntityProxy@@AEAVgCRuntimeInfo@@@Z
?GetEntityProxy2@gCInfoCommandSayConfirm@@UEAAAEAVeCEntityProxy@@AEAVgCRuntimeInfo@@@Z
?GetEntityProxy2@gCInfoCommandSayHoldingPosition@@UEAAAEAVeCEntityProxy@@AEAVgCRuntimeInfo@@@Z
?GetEntityProxy2@gCInfoCommandSayKeepItUp@@UEAAAEAVeCEntityProxy@@AEAVgCRuntimeInfo@@@Z
?GetEntityProxy2@gCInfoCommandSaySVM@@UEAAAEAVeCEntityProxy@@AEAVgCRuntimeInfo@@@Z
?GetEntityProxy2@gCInfoCommandSetRelaxingPoint@@UEAAAEAVeCEntityProxy@@AEAVgCRuntimeInfo@@@Z
?GetEntityProxy2@gCInfoCommandSetSleepingPoint@@UEAAAEAVeCEntityProxy@@AEAVgCRuntimeInfo@@@Z
?GetEntityProxy2@gCInfoCommandSetWorkingPoint@@UEAAAEAVeCEntityProxy@@AEAVgCRuntimeInfo@@@Z
?GetEntityProxy2@gCInfoCommandStartFixCamera@@UEAAAEAVeCEntityProxy@@AEAVgCRuntimeInfo@@@Z
?GetEntityProxy2@gCInfoCommandTeleportNPC@@UEAAAEAVeCEntityProxy@@AEAVgCRuntimeInfo@@@Z
?GetEntityProxy2@gCInfoConditionScript@@QEAAAEAVeCEntityProxy@@AEBVgCInfo@@@Z
?GetEntityType@gCDynamicLayer@@QEBAAEBV?$bTPropertyContainer@W4gEEntityType@@@@XZ
?GetEquipOwner@gCItem_PS@@QEBAPEAVeCEntity@@XZ
?GetEquipScript@gCItem_PS@@QEBAAEBVeCScriptProxyScript@@XZ
?GetEquipSlot@gCInventorySlot@@SA?AW4gEEquipSlot@@W4gEItemUseType@@@Z
?GetEquipSlot@gCInventoryStack@@QEBAAEBV?$bTPropertyContainer@W4gEEquipSlot@@@@XZ
?GetEquipSlots@gCInventorySlot@@QEBA_NAEAW4gEEquipSlot@@0@Z
?GetEquipslot@gCEquipslotDropData@@QEBA?AW4gEEquipSlot@@XZ
?GetEvade@gCCollisionCircle_PSObj@@QEBAAEBVbCVector2@@XZ
?GetEvade@gCNavZone_PS@@IEAAAEBVbCVector2@@H@Z
?GetEvade@gCNavigation_PS@@QEBAAEBV?$bTValArray@VbCVector@@@@XZ
?GetEvade@gCNegZone_PSObj@@IEAAAEBVbCVector2@@XZ
?GetEvent@gCTutorialAdmin@@QEBAPEAVgCTutorialEvent@@VbCString@@@Z
?GetEventCount@gCTutorialAdmin@@QEBAHXZ
?GetEventFailed@gCTutorialEvent@@QEBAAEBVbCString@@XZ
?GetEventFilter@gCStateGraphAction@@QEBAAEBV?$bTRefPtrArray@PEAVgCStateGraphEventFilter@@@@XZ
?GetEventSuccess@gCTutorialEvent@@QEBAAEBVbCString@@XZ
?GetEventText@gCTutorialAdmin@@QEAA?AVbCUnicodeString@@XZ
?GetEventType@gCStateGraphAction@@QEBAAEBV?$bTPropertyContainer@W4gEStateGraphEventType@@@@XZ
?GetExitROIScript@gCInteraction_PS@@QEBAAEBVeCScriptProxyScript@@XZ
?GetExitScript@gCStateGraphActionCallScript@@QEBAAEBVeCScriptProxyScript@@XZ
?GetExperiencePoints@gCQuest@@QEBAAEBKXZ
?GetFAIAttackWeight@gCCombatMoveMelee@@QEAAMPEAVgCCombatSystem_PS@@0AEAUgSFAIMoveDesc@@@Z
?GetFAIParadeWeight@gCCombatMoveMelee@@QEAAMPEAVgCCombatSystem_PS@@0AEAUgSFAIMoveDesc@@@Z
?GetFAIWeight@gCCombatMove@@UEAAMPEAVgCCombatSystem_PS@@0AEAUgSFAIMoveDesc@@PEAUgSComboData@@@Z
?GetFAIWeight@gCCombatMoveAim@@UEAAMPEAVgCCombatSystem_PS@@0AEAUgSFAIMoveDesc@@PEAUgSComboData@@@Z
?GetFAIWeight@gCCombatMoveMelee@@UEAAMPEAVgCCombatSystem_PS@@0AEAUgSFAIMoveDesc@@PEAUgSComboData@@@Z
?GetFAIWeight@gCCombatMoveParade@@UEAAMPEAVgCCombatSystem_PS@@0AEAUgSFAIMoveDesc@@PEAUgSComboData@@@Z
?GetFAIWeight@gCCombatMoveReload@@UEAAMPEAVgCCombatSystem_PS@@0AEAUgSFAIMoveDesc@@PEAUgSComboData@@@Z
?GetFAIWeight@gCCombatMoveScriptState@@UEAAMPEAVgCCombatSystem_PS@@0AEAUgSFAIMoveDesc@@PEAUgSComboData@@@Z
?GetFAIWeight@gCCombatMoveShoot@@UEAAMPEAVgCCombatSystem_PS@@0AEAUgSFAIMoveDesc@@PEAUgSComboData@@@Z
?GetFOV@gCInfoCommandStartFixCamera@@QEBAAEBMXZ
?GetFOVChangeSpeed@gCInfoCommandStartFixCamera@@QEBAAEBMXZ
?GetFaceNormal@gCWaterSubZone_PS@@QEBAAEBVbCVector@@XZ
?GetFactor@gCClock_PS@@QEBAAEBMXZ
?GetFadeTime@gCStateGraphActionVisibility@@QEBAAEBMXZ
?GetFailedQuestScript@gCQuest@@QEBAAEBVeCScriptProxyScript@@XZ
?GetFakeActionKeyImage@gCActionAdmin@@SA?AVbCString@@W4gEActionKey@@@Z
?GetFallDistance@gCCharacterMovement_PS@@QEAAMXZ
?GetFallDownMinGroundDist@gCCharacterMovement_PS@@QEBAAEBMXZ
?GetFallOff@gCEffectCommandPlaySound@@QEBAAEBV?$bTPropertyContainer@W4eEAudioChannelFallOff@@@@XZ
?GetFallOff@gCEffectCommandPlayVoice@@QEBAAEBV?$bTPropertyContainer@W4eEAudioChannelFallOff@@@@XZ
?GetFallSteerScaleFactor@gCCharacterMovement_PS@@QEBAAEBMXZ
?GetFallVelocity@gCCharacterMovement_PS@@QEBAAEBMXZ
?GetFallXZDecceleration@gCCharacterMovement_PS@@QEBAAEBMXZ
?GetFallXZDeccelerationWarmUpTime@gCCharacterMovement_PS@@QEBAAEBMXZ
?GetFallbackAniState@gCScriptRoutine_PS@@QEBAAEBV?$bTPropertyContainer@W4gEAniState@@@@XZ
?GetFallbackStyle@gCCombatStyleAniPose@@QEBAAEBVbCString@@XZ
?GetFastModifier@gCCharacterMovement_PS@@QEBAAEBMXZ
?GetFightAI@gCCombatSpecies@@QEBAPEAVgCCombatAI@@AEBVbCString@@@Z
?GetFightAIAt@gCCombatSpecies@@QEBAPEAVgCCombatAI@@H@Z
?GetFightAICount@gCCombatSpecies@@QEBAHXZ
?GetFightAIIndex@gCCombatSpecies@@QEBAHAEBVbCString@@@Z
?GetFightAIIndex@gCCombatSpecies@@QEBAHPEAVgCCombatAI@@@Z
?GetFightAIMode@gCCombatSystem_PS@@QEBAAEBV?$bTPropertyContainer@W4gECombatFightAIMode@@@@XZ
?GetFightVoice@gCCombatSystem_PS@@QEBAAEBVbCString@@XZ
?GetFileDir@gCDatabase@@UEBA?AVbCString@@XZ
?GetFileExt@gCDynamicLayer@@SAXAEAVbCString@@@Z
?GetFileExt@gCDynamicLayer@@UEBA?AVbCString@@XZ
?GetFileExt@gCProject@@SAXAEAVbCString@@@Z
?GetFileExt@gCProject@@UEBA?AVbCString@@XZ
?GetFileExt@gCSector@@SAXAEAVbCString@@@Z
?GetFileExt@gCSector@@UEBA?AVbCString@@XZ
?GetFileExt@gCWorld@@SAXAEAVbCString@@@Z
?GetFileExt@gCWorld@@UEBA?AVbCString@@XZ
?GetFileName@gCInfoCommandShowPicture@@QEBAAEBVbCString@@XZ
?GetFileType@gCDynamicLayer@@UEBA?AVbCString@@XZ
?GetFileType@gCProject@@UEBA?AVbCString@@XZ
?GetFileType@gCSector@@UEBA?AVbCString@@XZ
?GetFileType@gCWorld@@UEBA?AVbCString@@XZ
?GetFileVersion@gCDynamicLayer@@UEBAGXZ
?GetFileVersion@gCProject@@UEBAGXZ
?GetFileVersion@gCSector@@UEBAGXZ
?GetFileVersion@gCWorld@@UEBAGXZ
?GetFilterScript@gCGUIFilter@@QEBAAEBVbCString@@XZ
?GetFilterType@gCGUIFilter@@QEBAAEBV?$bTPropertyContainer@W4gEGUIFilterType@@@@XZ
?GetFinalTargetDetected@gCNavigation_PS@@QEBA?B_NXZ
?GetFinishedQuests@gCQuest@@QEBAAEBV?$bTObjArray@VbCString@@@@XZ
?GetFinishing@gCCombatStyleMelee@@QEBAAEBVbCString@@XZ
?GetFinishingDuration@gCCombatMoveFinishing@@QEBAAEBMXZ
?GetFirstEntity@gCSector@@QEBAPEAVeCEntity@@PEBVeCTemplateEntity@@@Z
?GetFirstEntity@gCWorld@@QEBAPEAVeCEntity@@PEBVeCTemplateEntity@@@Z
?GetFirstInteractionInROI@gCInteractionAdmin@@IEBAPEAVgCInteraction_PS@@W4gEInteractionUseType@@@Z
?GetFirstInteractionInROI@gCInteractionAdmin@@IEBAPEAVgCInteraction_PS@@XZ
?GetFlightPath@gCProjectile2_PS@@QEBAPEAVgCFlightPathBase@@XZ
?GetFlightPathBallistic@gCProjectile2_PS@@QEBAAEBVgCFlightPathBallistic@@XZ
?GetFlightPathSeeking@gCProjectile2_PS@@QEBAAEBVgCFlightPathSeeking@@XZ
?GetFlightPathType@gCProjectile2_PS@@QEBAAEBV?$bTPropertyContainer@W4gEFlightPathType@@@@XZ
?GetFocusEntity@gCFocusModule2@@QEBAPEAVeCEntity@@XZ
?GetFocusMode@gCCastInfo_PS@@QEBAAEBVbCString@@XZ
?GetFocusMode@gCFocusModule2@@QEBA?AVbCString@@XZ
?GetFocusName@gCInteraction_PS@@QEBA?AVbCUnicodeString@@XZ
?GetFocusNameBone@gCInteraction_PS@@QEBAAEBVbCString@@XZ
?GetFocusNameOffsets@gCInteraction_PS@@QEAA_NAEAVbCVector@@0@Z
?GetFocusNameType@gCInteraction_PS@@QEBAAEBV?$bTPropertyContainer@W4gEFocusNameType@@@@XZ
?GetFocusPriority@gCInteraction_PS@@QEBAAEBV?$bTPropertyContainer@W4gEFocusPriority@@@@XZ
?GetFocusPriorityScript@gCInteraction_PS@@QEBAAEBVeCScriptProxyScript@@XZ
?GetFocusViewOffset@gCInteraction_PS@@QEBAAEBVbCVector@@XZ
?GetFocusWorldOffset@gCInteraction_PS@@QEBAAEBVbCVector@@XZ
?GetFolder@gCInfo@@QEBAAEBVbCString@@XZ
?GetFollowAnimationFile@gCCombatMoveShoot@@QEBAAEBVbCString@@XZ
?GetFollowAnimationFileP0@gCCombatMoveMelee@@QEBAAEBVbCString@@XZ
?GetFollowAnimationFileP1@gCCombatMoveMelee@@QEBAAEBVbCString@@XZ
?GetFollowAnimationFileP2@gCCombatMoveMelee@@QEBAAEBVbCString@@XZ
?GetFollowEvent@gCTutorialEvent@@QEBA?AVbCString@@XZ
?GetFollowMove@gCCombatMoveShoot@@QEBAAEBVbCString@@XZ
?GetFollowMoveP0@gCCombatMoveFinishing@@QEBAAEBVbCString@@XZ
?GetFollowMoveP0@gCCombatMoveMelee@@QEBAAEBVbCString@@XZ
?GetFollowMoveP1@gCCombatMoveFinishing@@QEBAAEBVbCString@@XZ
?GetFollowMoveP1@gCCombatMoveMelee@@QEBAAEBVbCString@@XZ
?GetFollowMoveP2@gCCombatMoveFinishing@@QEBAAEBVbCString@@XZ
?GetFollowMoveP2@gCCombatMoveMelee@@QEBAAEBVbCString@@XZ
?GetFollowState@gCStateGraphActionFollowState@@UEBAPEAVgCStateGraphState@@XZ
?GetFollowStateName@gCStateGraphActionFollowState@@QEBAAEBVbCString@@XZ
?GetForce@gCCombatMoveMelee@@QEBAAEBMXZ
?GetForceCameraReset@gCInfoCommandStartFixCamera@@QEBAAEB_NXZ
?GetForceGroundAlignment@gCCharacterMovement_PS@@QEBAAEB_NXZ
?GetForwardSpeedMax@gCCharacterMovement_PS@@QEBAAEBMXZ
?GetFriendlyName@gCAchievement@@QEBAAEBVbCString@@XZ
?GetGameEvent@gCInfoCommandClearGameEvent@@QEBAAEBVbCString@@XZ
?GetGameEvent@gCInfoCommandSetGameEvent@@QEBAAEBVbCString@@XZ
?GetGameVariable@gCInfoSystem@@QEBA_NAEBVbCString@@AEAH@Z
?GetGameVariables@gCInfoSystem@@QEBAAEBV?$bTArrayMap@VbCString@@J@@XZ
?GetGender@gCNPC_PS@@QEBAAEBV?$bTPropertyContainer@W4gEGender@@@@XZ
?GetGeneratedPlunder@gCInventory_PS@@QEBAAEB_NXZ
?GetGeneratedTrade@gCInventory_PS@@QEBAAEB_NXZ
?GetGesture@gCInfoCommandPickPocket@@QEBAAEBV?$bTPropertyContainer@W4gEInfoGesture@@@@XZ
?GetGesture@gCInfoCommandSay@@QEBAAEBV?$bTPropertyContainer@W4gEInfoGesture@@@@XZ
?GetGesture@gCInfoCommandSaySVM@@QEBAAEBV?$bTPropertyContainer@W4gEInfoGesture@@@@XZ
?GetGesture@gCInfoCommandThink@@QEBAAEBV?$bTPropertyContainer@W4gEInfoGesture@@@@XZ
?GetGoalChanged@gCCharacterMovement_PS@@QEBA_NXZ
?GetGoalChanged@gCCharacterSensor@@QEBA_NXZ
?GetGoalGroundEntity@gCCharacterMovement_PS@@QEBAPEAVeCEntity@@XZ
?GetGoalGroundOffset@gCCharacterMovement_PS@@QEBAMXZ
?GetGoalPose@gCNavigation_PS@@QEAAAEBVbCMotion@@XZ
?GetGoalPosition@gCCharacterMovement_PS@@QEBA?AVbCVector@@XZ
?GetGoalReached@gCCharacterMovement_PS@@QEAA_N_N00@Z
?GetGoalReached@gCNavigation_PS@@QEAA_NXZ
?GetGoalRotation@gCCharacterSensor@@QEBA?AVbCQuaternion@@XZ
?GetGoldCost@gCInfo@@QEBAAEBJXZ
?GetGoldValue@gCItem_PS@@QEBAAEBJXZ
?GetGotoStatus@gCNavigation_PS@@QEBA?AW4gEGotoStatus@@XZ
?GetGraph@gCStateGraphAction@@QEBAPEAVgCStateGraph_PS@@XZ
?GetGraph@gCStateGraphState@@QEBAPEAVgCStateGraph_PS@@XZ
?GetGravity@gCFlightPathBallistic@@QEBAAEBMXZ
?GetGroundBias@gCInteraction_PS@@QEBAAEB_NXZ
?GetGroundSlopeTransInertia@gCCharacterMovement_PS@@QEBAAEBMXZ
?GetGroundSlopeTransScale@gCCharacterMovement_PS@@QEBAMXZ
?GetGroup@gCAIZone_PS@@QEBAAEBVbCString@@XZ
?GetGroup@gCNPC_PS@@QEBAAEBVbCString@@XZ
?GetGroup@gCStateGraphEventFilterCollisionShape@@QEBAAEBV?$bTPropertyContainer@W4eEShapeGroup@@@@XZ
?GetGroup@gCSvmAdmin@@IEBAPEAVgCSvmGroup@@H@Z
?GetGroupCount@gCSvmAdmin@@QEBAHXZ
?GetGroupName@gCSvmAdmin@@QEBA?AVbCString@@H@Z
?GetGuardPoint@gCNPC_PS@@QEBAAEBVeCEntityProxy@@XZ
?GetGuardStatus@gCInfoCommandSetGuardStatus@@QEBAAEBV?$bTPropertyContainer@W4gEGuardStatus@@@@XZ
?GetGuardStatus@gCNPC_PS@@QEBAAEBV?$bTPropertyContainer@W4gEGuardStatus@@@@XZ
?GetGuideWalkMode@gCNavigation_PS@@QEBAAEBV?$bTPropertyContainer@W4gEWalkMode@@@@XZ
?GetGuideWalkMode@gCQuest@@QEBAAEBV?$bTPropertyContainer@W4gEWalkMode@@@@XZ
?GetGuild@gCAIZone_PS@@QEBAAEBV?$bTPropertyContainer@W4gEGuild@@@@XZ
?GetGuild@gCNPC_PS@@QEBAAEBV?$bTPropertyContainer@W4gEGuild@@@@XZ
?GetHalfSpeedTimer@gCCharacterMovement_PS@@QEAAMXZ
?GetHasFinalTarget@gCNavigation_PS@@QEBA_NXZ
?GetHeader@gCBook_PS@@QEBAAEBVgCBookLocString@@XZ
?GetHeader@gCLetter_PS@@QEBAAEBVgCLetterLocString@@XZ
?GetHighestSortID@gCInfoSystem@@QEBAKXZ
?GetHintCondition@gCTutorialHint@@QEBAAEBVeCScriptProxyScript@@XZ
?GetHintCount@gCTutorialAdmin@@QEBAHXZ
?GetHintDelay@gCTutorialAdmin@@QEBAMXZ
?GetHintImage@gCTutorialAdmin@@QEAA?AVbCString@@XZ
?GetHintImage@gCTutorialHint@@QEBAAEBVeCGuiBitmapProxy2@@XZ
?GetHintText@gCTutorialAdmin@@QEAA?AVbCUnicodeString@@XZ
?GetHintText@gCTutorialHint@@QEBAAEBVeCLocString@@XZ
?GetHints@gCTutorialHintCollection@@QEBAAEBV?$bTObjArray@VgCTutorialHint@@@@XZ
?GetHitBone@gCDamage_PS@@QEBAAEBHXZ
?GetHitDirection@gCCombatMoveMelee@@QEBAAEBV?$bTPropertyContainer@W4gECombatHitDirection@@@@XZ
?GetHitDirection@gCScriptRoutine_PS@@QEBAAEBV?$bTPropertyContainer@W4gEHitDirection@@@@XZ
?GetHitDistanceOffset@gCCombatMoveMelee@@QEBAAEBMXZ
?GetHitEffectOffset@gCCombatMoveMelee@@QEBAAEBMXZ
?GetHitPoint@gCCombatMoveFinishing@@QEBAAEBMXZ
?GetHitRange@gCCombatMoveMelee@@QEAAMPEAVgCCombatSystem_PS@@PEAVgCCombatStyle@@@Z
?GetHitRange@gCCombatStyleMelee@@QEBAAEBMXZ
?GetHitScript@gCCombatMoveFinishing@@QEBAAEBVeCScriptProxyScript@@XZ
?GetHitSlomoDuration@gCCombatMoveMelee@@QEBAAEBMXZ
?GetHitSufferRadius@gCCombatSpecies@@QEBAAEBMXZ
?GetHitSufferRadius@gCCombatSystem_PS@@QEBAMXZ
?GetHoldDuration@gCCombatMoveParade@@QEBAAEBMXZ
?GetHoldOffset@gCItem_PS@@QEBAAEBVbCVector@@XZ
?GetHoldType@gCItem_PS@@QEBAAEBV?$bTPropertyContainer@W4gEItemHoldType@@@@XZ
?GetHour@gCClock_PS@@QEBAAEBKXZ
?GetHud2Location@gCSession@@QEAA?BVbCString@@XZ
?GetID@gCAchievement@@QEBAAEBKXZ
?GetIcon@gCInventoryList@@QEBAAEBV?$bTPropertyContainer@W4gEIcon@@@@XZ
?GetIconImage@gCItem_PS@@QEBAAEBVeCGuiBitmapProxy2@@XZ
?GetIconName@gCQuest@@QEBA?AVbCString@@XZ
?GetIgnoreTutorialEventCondition@gCInfoCommandStartTutorial@@QEBAAEB_NXZ
?GetImage@gCAchievementAdmin@@QEBA_NAEBVbCString@@AEAV2@@Z
?GetImage@gCAchievementAdmin@@QEBA_NKAEAVbCString@@@Z
?GetImage@gCMap_PS@@QEBAAEBVeCGuiBitmapProxy2@@XZ
?GetImageAspectRatio@gCMap_PS@@QEBAMXZ
?GetImageCount@gCAchievementAdmin@@QEBAKXZ
?GetImageEffect@gCEffectCommandStartImageEffect@@QEBAAEBVbCString@@XZ
?GetImageID@gCAchievement@@QEBAAEBKXZ
?GetImagePath@gCDatabase@@SA?AVbCString@@XZ
?GetImgSecretName@gCAchievementAdmin@@QEBAAEBVbCString@@XZ
?GetImgUnachievedName@gCAchievementAdmin@@QEBAAEBVbCString@@XZ
?GetInDialog@gCEffectCommandPlaySound@@QEBAAEB_NXZ
?GetInDialog@gCEffectCommandPlayVoice@@QEBAAEB_NXZ
?GetInDialog@gCEffectCommandSaySVM@@QEBAAEB_NXZ
?GetInfo@gCInfoCommandRunInfo@@QEBAAEBVbCString@@XZ
?GetInfo@gCInfoDropData@@QEBAPEBVgCInfo@@XZ
?GetInfo@gCInfoSystem@@IEAAPEAVgCInfo@@AEBVbCString@@@Z
?GetInfo@gCMap_PS@@QEBA?AVbCUnicodeString@@MMAEBVbCRect@@@Z
?GetInfo@gCSaveGameManager@@AEAA_NAEBVbCString@@AEAVgCSaveGame@@AEAK@Z
?GetInfo@gCSaveGameManager@@QEAA_NAEBVbCString@@AEAVgCSaveGame@@@Z
?GetInfoColor@gCQuestLogFrame2@@QEBAAEBVbCByteAlphaColor@@XZ
?GetInfoGiven@gCInfo@@QEBAAEB_NXZ
?GetInfoIsRunnig@gCInfo@@QEBAAEB_NXZ
?GetInfoList@gCInfoSystem@@IEAAAEAV?$bTValArray@PEAVgCRuntimeInfo@@@@AEAV2@AEBVbCString@@1_N222@Z
?GetInfoManager@gCQuest@@IEAAPEAVgCInfoSystem@@XZ
?GetInfoManager@gCQuest@@IEBAPEBVgCInfoSystem@@XZ
?GetInfoManager@gCQuestManager@@QEAAPEAVgCInfoSystem@@XZ
?GetInfoManager@gCQuestManager@@QEBAPEBVgCInfoSystem@@XZ
?GetInfoPS@gCInfoSystem@@QEAAPEAVgCInfo@@AEBVbCString@@@Z
?GetInfoPS@gCInfoSystem@@QEBAPEBVgCInfo@@AEBVbCString@@@Z
?GetInfoPS@gCRuntimeInfo@@QEBAPEAVgCInfo@@XZ
?GetInnerRadius@gCEffectCommandEarthquake@@QEBAAEBMXZ
?GetInnerZoneEdgeEvadeDirection@gCNavZone_PS@@IEAA_NAEBVbCVector@@0HHAEA_N@Z
?GetInstance@CSteamAchievements@@SAAEAV1@XZ
?GetInstance@gCAchievementAdmin@@SAPEAV1@XZ
?GetInstance@gCCombatAdmin@@SAPEAV1@XZ
?GetInstance@gCEffectModule@@SAAEAV1@XZ
?GetInstance@gCFocusModule2@@SAAEAV1@XZ
?GetInstance@gCGUIEntityRenderer@@SAAEAV1@XZ
?GetInstance@gCHUDFileManager@@SAAEAV1@XZ
?GetInstance@gCHudModule2@@SAAEAV1@XZ
?GetInstance@gCHudResolutionManager2@@SAAEAV1@XZ
?GetInstance@gCInfoModule@@SAAEAV1@XZ
?GetInstance@gCInteractionAdmin@@SAAEAV1@XZ
?GetInstance@gCMusicModule2@@SAAEAV1@XZ
?GetInstance@gCQuestManager@@SAPEAV1@XZ
?GetInstance@gCSaveGameManager@@SAAEAV1@XZ
?GetInstance@gCSession@@SAAEAV1@XZ
?GetInstance@gCSvmAdmin@@SAAEAV1@XZ
?GetInstance@gCTutorialAdmin@@SAPEAV1@XZ
?GetInstance@gCWorkspace@@SAAEAV1@XZ
?GetInstance@gCWorldEventSource@@SAAEAV1@XZ
?GetInstance@gSEffectOptions@@SAAEAU1@XZ
?GetInstance@gSGameOptions@@SAAEAU1@XZ
?GetIntParameter@gCScriptProcessingUnit@@QEAA_JXZ
?GetInteractObject@gCNavigation_PS@@QEBAPEAVeCEntity@@XZ
?GetInteractPoints@gCAnchor_PS@@QEAAAEAV?$bTValArray@PEAVgCInteraction_PS@@@@XZ
?GetInteractPoints@gCAnchor_PS@@QEBAAEBV?$bTValArray@PEAVgCInteraction_PS@@@@XZ
?GetInteractScript@gCInteraction@@QEBAAEBVgCScriptProxyAIFunction@@XZ
?GetInteractionAt@gCInteraction_PS@@QEBAPEAVgCInteraction@@H@Z
?GetInteractionCount@gCInteraction_PS@@QEBAHXZ
?GetInteractionCounter@gCInteraction_PS@@QEBAAEBHXZ
?GetInteractionIndex@gCInteraction_PS@@QEBAHPEAVgCInteraction@@@Z
?GetInteractiveObject@gCInteraction@@QEBAPEAVgCInteraction_PS@@XZ
?GetIntersectScript@gCInteraction_PS@@QEBAAEBVeCScriptProxyScript@@XZ
?GetInteruptCurrentState@gCStateGraphActionFollowState@@QEBAAEB_NXZ
?GetInteruptable@gCCombatMoveOverlayStumble@@QEBAAEB_NXZ
?GetInteruptableBegin@gCCombatMoveMelee@@QEBAAEBMXZ
?GetIntuition@gCCombatAIMelee@@QEBAAEBMXZ
?GetInventory@gCInventoryDropData@@QEBAPEAVeCEntity@@XZ
?GetInventory@gCQuest@@IEBAPEAVgCInventory_PS@@AEBVbCPropertyID@@@Z
?GetInventory@gCQuest@@IEBAPEAVgCInventory_PS@@AEBVbCString@@@Z
?GetIsCompleted@gCTutorialEvent@@QEBAAEB_NXZ
?GetIsCurrentStatus@gCInfoConditionQuestStatus@@QEBAAEB_NXZ
?GetIsDangerousWeapon@gCItem_PS@@QEBAAEB_NXZ
?GetIsInteruptable@gCCombatMoveMelee@@QEBAAEB_NXZ
?GetIsLeader@gCParty_PS@@QEBA_NXZ
?GetIsOnDestination@gCNavigation_PS@@QEBA_NXZ
?GetIsOnDestinationTimeStamp@gCNavigation_PS@@QEBAKXZ
?GetIsPermanent@gCTutorialEvent@@QEBAAEB_NXZ
?GetIsProcessing@gCCharacterMovement_PS@@QEAA_NXZ
?GetIsQuadruped@gCCharacterMovement_PS@@QEBAAEB_NXZ
?GetIsoCameraEnabled@gCCameraAdmin@@QEBA_NXZ
?GetItem@gCEffectCommandSequence2@@QEBAPEAVgCEffectCommand@@H@Z
?GetItem@gCInfoCommandCreateItem@@QEBAAEBVeCTemplateEntityProxy@@XZ
?GetItem@gCInfoCommandDestroyItem@@QEBAAEBVeCTemplateEntityProxy@@XZ
?GetItem@gCInfoCommandGive@@QEBAAEBVeCTemplateEntityProxy@@XZ
?GetItem@gCInfoCommandUse@@QEBAAEBVeCTemplateEntityProxy@@XZ
?GetItem@gCInfoCommandWear@@QEBAAEBVeCTemplateEntityProxy@@XZ
?GetItem@gCInfoConditionItemAmount@@QEBAAEBVeCTemplateEntityProxy@@XZ
?GetItem@gCInteractionSlot@@QEBAAEBVeCEntityProxy@@XZ
?GetItem@gCInventorySlot@@QEBAAEBVeCEntityProxy@@XZ
?GetItemAmount@gCCraftIngredient@@QEBAAEBKXZ
?GetItemAmount@gCInfoConditionItemAmount@@QEBAAEBKXZ
?GetItemCount@gCEffectCommandSequence2@@QEBAHXZ
?GetItemGoldValue@gCInventoryStack@@QEBAHXZ
?GetItemInventory@gCItem_PS@@QEBAAEBVeCTemplateEntityProxy@@XZ
?GetItemLinkFrame@gCCombatMoveReload@@QEBAAEBMXZ
?GetItemTemplate@gCCraftIngredient@@QEBAAEBVeCTemplateEntityProxy@@XZ
?GetItemWorld@gCItem_PS@@QEBAAEBVeCTemplateEntityProxy@@XZ
?GetItems@gCEffectCommandPlaySound@@QEAAAEAV?$bTObjArray@UgSEffectCommandPlaySoundItem@@@@XZ
?GetItems@gCEffectCommandPlaySound@@QEBAAEBV?$bTObjArray@UgSEffectCommandPlaySoundItem@@@@XZ
?GetItems@gCEffectCommandSpawnEntityList@@QEBAAEBV?$bTObjArray@UgSEffectCommandSpawnEntityListItem@@@@XZ
?GetItems@gCEffectCommandSpawnEntitySwitch@@QEBAAEBV?$bTObjArray@UgSEffectCommandSpawnEntitySwitchItem@@@@XZ
?GetItems@gCEffectSystem@@QEAAAEAV?$eTDocObjectMap@VgCEffectCommandSequence2@@@@XZ
?GetItems@gCEffectSystem@@QEBAAEBV?$eTDocObjectMap@VgCEffectCommandSequence2@@@@XZ
?GetIteratorBegin@gCCombatAdmin@@QEBA?AVbCConstIterator@?$bTValMap@VbCString@@PEAVgCCombatSpecies@@@@XZ
?GetIteratorEnd@gCCombatAdmin@@QEBA?AVbCConstIterator@?$bTValMap@VbCString@@PEAVgCCombatSpecies@@@@XZ
?GetJumpBack@gCCombatSpecies@@QEBAAEBVbCString@@XZ
?GetJumpFlightGravity@gCCharacterMovement_PS@@QEBAAEBMXZ
?GetJumpFrontSpeedFactor@gCCharacterMovement_PS@@QEBAAEBMXZ
?GetJumpHeight@gCCharacterMovement_PS@@QEBAAEBMXZ
?GetJumpRotationCtrlFactor@gCCharacterMovement_PS@@QEBAAEBMXZ
?GetJumpToNextNavPointWanted@gCNavigation_PS@@QEAA_NXZ
?GetJumpTranslationCtrlFactor@gCCharacterMovement_PS@@QEBAAEBMXZ
?GetKey@gCLock_PS@@QEBAAEBVeCTemplateEntityProxy@@XZ
?GetKeyPressDuration@gCActionAdmin@@QEBAMW4gEActionKey@@@Z
?GetKeyReleasedDuration@gCActionAdmin@@QEBAMW4gEActionKey@@@Z
?GetKilledByDeadlock@gCNavigation_PS@@QEBA_NXZ
?GetLastAIMode@gCScriptRoutine_PS@@QEBAAEBV?$bTPropertyContainer@W4gEAIMode@@@@XZ
?GetLastAttackMove@gCCombatSystem_PS@@QEBA?AW4gECombatMove@@XZ
?GetLastAttackerEntity@gCNPC_PS@@QEBAAEBVeCEntityProxy@@XZ
?GetLastClimbTestReport@gCCharacterMovement_PS@@QEBAAEBUgSClimbTestReport@1@XZ
?GetLastCommentTimestamp@gCNPC_PS@@QEBAAEBMXZ
?GetLastDistToGuardPoint@gCNPC_PS@@QEBAAEBMXZ
?GetLastDistToTarget@gCNPC_PS@@QEBAAEBMXZ
?GetLastFallVelocity@gCCharacterMovement_PS@@QEBAAEBMXZ
?GetLastFightAgainstPlayer@gCNPC_PS@@QEBAAEBV?$bTPropertyContainer@W4gEFight@@@@XZ
?GetLastFightTimestamp@gCNPC_PS@@QEBAAEBMXZ
?GetLastFramePose@gCDynamicCollisionCircle_PS@@QEBAAEBVbCMotion@@XZ
?GetLastJumpTestReport@gCCharacterMovement_PS@@QEAAPEAUgSJumpTestReport@1@XZ
?GetLastKeyDown@gCActionAdmin@@QEBA?AW4gEActionKey@@AEAM@Z
?GetLastKeyUp@gCActionAdmin@@QEBA?AW4gEActionKey@@AEAM@Z
?GetLastModificationTime@gCCollisionCircle_PS@@QEBAAEBVbCDateTime@@XZ
?GetLastModificationTime@gCNavPath_PS@@QEBAAEBVbCDateTime@@XZ
?GetLastModificationTime@gCNavZone_PS@@QEBAAEBVbCDateTime@@XZ
?GetLastModificationTime@gCNegZone_PS@@QEBAAEBVbCDateTime@@XZ
?GetLastModificationTime@gCPrefPath_PS@@QEBAAEBVbCDateTime@@XZ
?GetLastMovementMode@gCCharacterMovement_PS@@QEBA?AW4gECharMovementMode@@XZ
?GetLastNegZoneStake@gCNavigation_PS@@QEBA?BHXZ
?GetLastObstacleID@gCNavigation_PS@@QEBAAEBVbCPropertyID@@XZ
?GetLastPlayerAR@gCNPC_PS@@QEBAAEBV?$bTPropertyContainer@W4gEReason@@@@XZ
?GetLastPlayerComment@gCNPC_PS@@QEBAAEBV?$bTPropertyContainer@W4gEComment@@@@XZ
?GetLastPlayerCrime@gCNPC_PS@@QEBAAEBV?$bTPropertyContainer@W4gECrime@@@@XZ
?GetLastReason@gCNPC_PS@@QEBAAEBV?$bTPropertyContainer@W4gEReason@@@@XZ
?GetLastTask@gCScriptRoutine_PS@@QEBAAEBVbCString@@XZ
?GetLastUseableNavPosition@gCNavigation_PS@@QEBAAEBVbCVector@@XZ
?GetLastUseableNavZoneID@gCNavigation_PS@@QEBA_NAEAVbCPropertyID@@@Z
?GetLastUseableNavigationPosition@gCNavigation_PS@@QEBAAEBVbCVector@@XZ
?GetLastUseableNavigationZoneIsPath@gCNavigation_PS@@QEBAAEB_NXZ
?GetLastUseableNavigationZoneProxy@gCNavigation_PS@@QEBAAEBVeCEntityProxy@@XZ
?GetLastWaterContactEntityProxy@gCNavigation_PS@@QEBAAEBVeCEntityProxy@@XZ
?GetLastZoneEntityProxy@gCNavigation_PS@@QEBAAEBVeCEntityProxy@@XZ
?GetLatestGoalPosition@gCCharacterMovement_PS@@QEBAAEBVbCVector@@XZ
?GetLatestGoalRotation@gCCharacterMovement_PS@@QEBAAEBVbCQuaternion@@XZ
?GetLatestModificationTime@gCNavigationMapCompiler@@IEAA?AVbCDateTime@@XZ
?GetLayerCategory@gCLayerBase@@UEBA?AVbCString@@XZ
?GetLearnPointCost@gCInfo@@QEBAAEBJXZ
?GetLeftFistItem@gCCombatSpecies@@QEBAAEBVeCTemplateEntityProxy@@XZ
?GetLeftText@gCBook_PS@@QEBAAEBVgCBookLocString@@XZ
?GetLeftUseType@gCCombatWeaponConfig@@QEBAAEBV?$bTPropertyContainer@W4gEItemUseType@@@@XZ
?GetLevitationFallVelo@gCCharacterMovement_PS@@QEBAAEBMXZ
?GetLevitationMaxUpwardMove@gCCharacterMovement_PS@@QEBAAEBMXZ
?GetLevitationModifier@gCCharacterMovement_PS@@QEBAAEBMXZ
?GetLevitationUpVelo@gCCharacterMovement_PS@@QEBAAEBMXZ
?GetLevitationUpVeloPercentage@gCCharacterMovement_PS@@QEBAMXZ
?GetLightmapPath@gCDatabase@@SA?AVbCString@@XZ
?GetLightmapPath@gCGameApp@@UEBA?AVbCString@@XZ
?GetLinkInnerArea@gCNavPath_PS@@QEBAAEB_NXZ
?GetLinkInnerArea@gCNavZone_PS@@QEBAAEB_NXZ
?GetLinkInnerBottomArea@gCNavPath_PS@@QEBAAEB_NXZ
?GetLinkInnerBottomArea@gCNavZone_PS@@QEBAAEB_NXZ
?GetLinkInnerTopArea@gCNavPath_PS@@QEBAAEB_NXZ
?GetLinkInnerTopArea@gCNavZone_PS@@QEBAAEB_NXZ
?GetLinkedToEntityProxy@gCNavHelper_PS@@QEBAAEBVeCEntityProxy@@XZ
?GetLinkedToSecondEntityProxy@gCNavHelper_PS@@QEBAAEBVeCEntityProxy@@XZ
?GetListener@gCInfoCommandPickPocket@@QEBAAEBVbCString@@XZ
?GetListener@gCInfoCommandSay@@QEBAAEBVbCString@@XZ
?GetListener@gCInfoCommandSayConfirm@@QEBAAEBVbCString@@XZ
?GetListener@gCInfoCommandSayHoldingPosition@@QEBAAEBVbCString@@XZ
?GetListener@gCInfoCommandSayKeepItUp@@QEBAAEBVbCString@@XZ
?GetListener@gCInfoCommandSaySVM@@QEBAAEBVbCString@@XZ
?GetLoadingProgress@gCHUDFileManager@@SAHXZ
?GetLocalAniVelocity@gCCharacterMovement_PS@@QEBA?AVbCVector@@XZ
?GetLocalVelocity@gCCharacterMovement_PS@@QEBA?AVbCVector@@XZ
?GetLocalXZCameraVectors@gCNavigationAdmin@@IEAAXAEAVbCVector@@0@Z
?GetLocation@gCInfoCommandAddNPCInfo@@QEBAAEBV?$bTPropertyContainer@W4gEInfoLocation@@@@XZ
?GetLocation@gCInfoCommandRemoveNPCInfo@@QEBAAEBV?$bTPropertyContainer@W4gEInfoLocation@@@@XZ
?GetLocationInfo@gCQuest@@QEBAAEBV?$bTPropertyContainer@W4gEInfoLocation@@@@XZ
?GetLockAIInterrupt@gCScriptRoutine_PS@@QEBAAEB_NXZ
?GetLockAIResult@gCScriptRoutine_PS@@QEBAAEB_NXZ
?GetLockCombination@gCLock_PS@@QEBA?AW4gELockCombi@@H@Z
?GetLockCombinationCount@gCLock_PS@@QEBAHXZ
?GetLogText@gCQuest@@QEBAAEBV?$bTObjArray@USLogEntry@gCQuest@@@@XZ
?GetLogTopic@gCQuest@@QEBAAEBVgCQuestLocString@@XZ
?GetLoopMode@gCEffect_PS@@QEBAAEBV?$bTPropertyContainer@W4gEEffectLoopMode@@@@XZ
?GetLoopSound@gCEffectCommandPlaySound@@QEBAAEB_NXZ
?GetLostQuestScript@gCQuest@@QEBAAEBVeCScriptProxyScript@@XZ
?GetLowerDuration@gCCombatMoveAim@@QEBAAEBVbCRange1@@XZ
?GetMagicCode1@gCDynamicLayer@@KAKXZ
?GetMagicCode2@gCDynamicLayer@@KAKXZ
?GetMainDummyByHelperDummy@gCDummyCollectorAdmin@@QEAAPEAVeCEntity@@W4eEPropertySetType@@PEBV2@@Z
?GetMainDummyByHelperDummy@gCDummyCollectorPSet_Base@@QEAAPEAVeCEntity@@PEBV2@@Z
?GetMainSortID@gCInfo@@QEBAAEBJXZ
?GetManaCost@gCCastInfo_PS@@QEBAAEBJXZ
?GetMapBottomRight@gCMap_PS@@QEBAAEBVbCVector2@@XZ
?GetMapImage@gCMapInfo_PS@@QEBAAEBVeCGuiBitmapProxy2@@XZ
?GetMapTopLeft@gCMap_PS@@QEBAAEBVbCVector2@@XZ
?GetMarker@gCMap_PS@@QEBAAEBV?$bTObjArray@VgCMapEntry@@@@XZ
?GetMarkerCount@gCMap_PS@@QEBAHXZ
?GetMarkerEntity@gCMap_PS@@QEBA_NHPEAPEAVeCEntity@@@Z
?GetMarkerImage@gCMap_PS@@QEBA_NHPEAPEAVeCDeferredGuiBitmap2@@0@Z
?GetMarkerInfo@gCMap_PS@@QEBA?AVbCUnicodeString@@H@Z
?GetMaterial@gCStateGraphEventFilterCollisionShape@@QEBAAEBV?$bTPropertyContainer@W4eEShapeMaterial@@@@XZ
?GetMaterialPath@gCDatabase@@SA?AVbCString@@XZ
?GetMaterialPath@gCGameApp@@UEBA?AVbCString@@XZ
?GetMaxDistance@gCCombatAI@@QEBAAEBMXZ
?GetMaxDistance@gCEffectCommandPlaySound@@QEBAAEBMXZ
?GetMaxDistance@gCEffectCommandPlayVoice@@QEBAAEBMXZ
?GetMaxDistance@gCInfoCommandStartFixCamera@@QEBAAEBMXZ
?GetMaxDistanceToTarget@gCCombatMoveFinishing@@QEBAAEBMXZ
?GetMaxEntityIndex@gCEffectCommandKillEntityRange@@QEBAAEBHXZ
?GetMaxFreePlayerGotoDistance@gCNavigationAdmin@@QEAAK_N@Z
?GetMaxHitRange@gCCombatMoveMelee@@QEAAMPEAVgCCombatStyle@@@Z
?GetMaxNumRepeats@gCEffect_PS@@QEBAAEBVbCRange1@@XZ
?GetMaxUsers@gCAnchor_PS@@QEBAAEBKXZ
?GetMaxValue@gCSkillRange@@QEBAAEBJXZ
?GetMaxVariationCount@gCEffectCommandSaySVM@@QEBAAEBHXZ
?GetMaxWaitDuration@gCCombatAI@@QEBAAEBMXZ
?GetMaxWalkDuration@gCCombatAI@@QEBAAEBMXZ
?GetMaxX@gCWaterSubZone_PS@@QEBAAEBMXZ
?GetMaxZ@gCWaterSubZone_PS@@QEBAAEBMXZ
?GetMeleeDistanceRadius@gCCombatSpecies@@QEBAAEBMXZ
?GetMembers@gCParty_PS@@QEBAAEBV?$bTObjArray@VeCEntityProxy@@@@XZ
?GetMeshPath@gCDatabase@@SA?AVbCString@@XZ
?GetMinDistance@gCCombatAI@@QEBAAEBMXZ
?GetMinDistance@gCEffectCommandPlaySound@@QEBAAEBMXZ
?GetMinDistance@gCEffectCommandPlayVoice@@QEBAAEBMXZ
?GetMinDistance@gCInfoCommandStartFixCamera@@QEBAAEBMXZ
?GetMinEntityIndex@gCEffectCommandKillEntityRange@@QEBAAEBHXZ
?GetMinValue@gCSkillRange@@QEBAAEBJXZ
?GetMinWaitDuration@gCCombatAI@@QEBAAEBMXZ
?GetMinWalkDuration@gCCombatAI@@QEBAAEBMXZ
?GetMinX@gCWaterSubZone_PS@@QEBAAEBMXZ
?GetMinZ@gCWaterSubZone_PS@@QEBAAEBMXZ
?GetMinute@gCClock_PS@@QEBAAEBKXZ
?GetMissionItem@gCItem_PS@@QEBAAEB_NXZ
?GetMobEnabled@gCDialog_PS@@QEBAAEB_NXZ
?GetMobEnabled@gCInfoCommandSetMobEnabled@@QEBAAEB_NXZ
?GetModValue@gCItem_PS@@QEBAHW4gESkill@@@Z
?GetMode@gCHudSystem2@@QEBA?AW4gEHudMode@@XZ
?GetModifier@gCModifySkill@@QEBAAEBV?$bTPropertyContainer@W4gESkillModifier@@@@XZ
?GetModifySkills@gCItem_PS@@QEBAAEBV?$bTObjArray@VgCModifySkill@@@@XZ
?GetModifySkillsSuccess@gCQuest@@QEBAAEBV?$bTObjArray@VgCModifySkill@@@@XZ
?GetMoneyAmount@gCInventory_PS@@QEBAMXZ
?GetMove@gCCombatMove@@UEBAPEAV1@PEAVgCCombatSystem_PS@@W4gECombatMove@@@Z
?GetMove@gCCombatMoveAim@@UEBAPEAVgCCombatMove@@PEAVgCCombatSystem_PS@@W4gECombatMove@@@Z
?GetMove@gCCombatMoveMelee@@UEBAPEAVgCCombatMove@@PEAVgCCombatSystem_PS@@W4gECombatMove@@@Z
?GetMove@gCCombatMoveParade@@UEBAPEAVgCCombatMove@@PEAVgCCombatSystem_PS@@W4gECombatMove@@@Z
?GetMove@gCCombatMoveShoot@@UEBAPEAVgCCombatMove@@PEAVgCCombatSystem_PS@@W4gECombatMove@@@Z
?GetMove@gCCombatSpecies@@QEBAPEAVgCCombatMove@@AEBVbCString@@@Z
?GetMove@gCCombatSpecies@@QEBAPEAVgCCombatMove@@W4gECombatMove@@@Z
?GetMove@gCCombatStyle@@UEBAPEAVgCCombatMove@@W4gECombatMove@@@Z
?GetMove@gCCombatStyleMelee@@UEBAPEAVgCCombatMove@@W4gECombatMove@@@Z
?GetMove@gCCombatStyleRanged@@UEBAPEAVgCCombatMove@@W4gECombatMove@@@Z
?GetMoveAcceleration@gCCharacterMovement_PS@@QEBAAEBMXZ
?GetMoveAcceleration@gCInfoCommandStartFixCamera@@QEBAAEBMXZ
?GetMoveAt@gCCombatSpecies@@QEBAPEAVgCCombatMove@@H@Z
?GetMoveByAniTime@gCCombatMoveMelee@@QEBAMM@Z
?GetMoveCombatAction@gCCombatMoveScriptState@@QEBAAEBV?$bTPropertyContainer@W4gECombatAction@@@@XZ
?GetMoveCount@gCCombatSpecies@@QEBAHXZ
?GetMoveDecceleration@gCCharacterMovement_PS@@QEBAAEBMXZ
?GetMoveDecceleration@gCInfoCommandStartFixCamera@@QEBAAEBMXZ
?GetMoveDuration@gCCombatMoveFinishing@@QEBAAEBMXZ
?GetMoveDuration@gCCombatMoveMelee@@QEBAAEBMXZ
?GetMoveDuration@gCCombatMoveStumble@@QEBAAEBMXZ
?GetMoveGoBack@gCCombatStyle@@QEBAAEBVbCString@@XZ
?GetMoveGoFwd@gCCombatStyle@@QEBAAEBVbCString@@XZ
?GetMoveGoLeft@gCCombatStyle@@QEBAAEBVbCString@@XZ
?GetMoveGoRight@gCCombatStyle@@QEBAAEBVbCString@@XZ
?GetMoveGoTo@gCCombatStyle@@QEBAAEBVbCString@@XZ
?GetMoveIndex@gCCombatSpecies@@QEBAHAEBVbCString@@@Z
?GetMoveIndex@gCCombatSpecies@@QEBAHPEAVgCCombatMove@@@Z
?GetMoveOfStyle@gCCombatMove@@IEBAPEAV1@PEAVgCCombatSystem_PS@@AEBVbCString@@W4gECombatMove@@@Z
?GetMoveSens@gCActionAdmin@@QEAAMXZ
?GetMoveSpeedMax@gCInfoCommandStartFixCamera@@QEBAAEBMXZ
?GetMoveStormTo@gCCombatStyleMelee@@QEBAAEBVbCString@@XZ
?GetMoveWait@gCCombatStyle@@QEBAAEBVbCString@@XZ
?GetMovementBegin@gCCombatMoveFinishing@@QEBAAEBMXZ
?GetMovementBegin@gCCombatMoveMelee@@QEBAAEBMXZ
?GetMovementBegin@gCCombatMoveStumble@@QEBAAEBMXZ
?GetMovementDirection@gCCombatMoveMelee@@QEBAAEBMXZ
?GetMovementDistance@gCCombatMoveMelee@@QEAAMMM@Z
?GetMovementDistance@gCCombatMoveMelee@@QEBAAEBMXZ
?GetMovementDistance@gCCombatMoveStumble@@QEBAAEBMXZ
?GetMovementDuration@gCCombatMoveOverlayStumble@@QEBAAEBMXZ
?GetMovementEnd@gCCombatMoveFinishing@@QEBAAEBMXZ
?GetMovementEnd@gCCombatMoveMelee@@QEBAAEBMXZ
?GetMovementEnd@gCCombatMoveStumble@@QEBAAEBMXZ
?GetMovementFadeIn@gCCombatMoveOverlayStumble@@QEBAAEBMXZ
?GetMovementFadeOut@gCCombatMoveOverlayStumble@@QEBAAEBMXZ
?GetMovementIsControledByNavigation@gCCharacterMovement_PS@@QEBA_NXZ
?GetMovementIsControledByPlayer@gCCharacterMovement_PS@@QEBA_NXZ
?GetMovementIsSelfControled@gCCharacterMovement_PS@@QEBA_NXZ
?GetMovementIsStatic@gCCharacterMovement_PS@@QEBA_NXZ
?GetMovementMode@gCCharacterMovement_PS@@QEBA?AW4gECharMovementMode@@XZ
?GetMovementModeAtPosition@gCCharacterMovement_PS@@QEAA?AW4gECharMovementMode@@AEBVbCVector@@PEAUgSSpatialState@@@Z
?GetMovementModeIsStatic@gCCharacterMovement_PS@@QEBA_NXZ
?GetMovementPS@gCCharacterSensor@@IEBAPEAVgCCharacterMovement_PS@@XZ
?GetMovementShape@gCCharacterMovement_PS@@QEBAPEBVeCCollisionShape@@XZ
?GetMovementVelocity@gCCombatMoveOverlayStumble@@QEBAAEBMXZ
?GetNPC@gCInfo@@SAPEAVgCNPC_PS@@AEBVbCPropertyID@@@Z
?GetNPC@gCInfo@@SAPEAVgCNPC_PS@@AEBVbCString@@@Z
?GetNPC@gCInfoCommandAddNPCInfo@@QEBAAEBVbCString@@XZ
?GetNPC@gCInfoCommandKillNPC@@QEBAAEBVbCString@@XZ
?GetNPC@gCInfoCommandRemoveNPC@@QEBAAEBVbCString@@XZ
?GetNPC@gCInfoCommandRemoveNPCInfo@@QEBAAEBVbCString@@XZ
?GetNPC@gCInfoCommandTeleportNPC@@QEBAAEBVbCString@@XZ
?GetNPC@gCQuest@@IEBAPEAVgCNPC_PS@@AEBVbCPropertyID@@@Z
?GetNPC@gCQuest@@IEBAPEAVgCNPC_PS@@AEBVbCString@@@Z
?GetNPCCircle@gCCollisionCircle_PSObj@@QEBA_NXZ
?GetNPCInfo@gCInfoSystem@@QEBAAEBUgSNPCInfo@@H@Z
?GetNPCInfoCount@gCInfoSystem@@QEBAIXZ
?GetName@gCCombatObject@@QEBAAEBVbCString@@XZ
?GetName@gCCombatSpecies@@QEBA?BVbCString@@XZ
?GetName@gCInfo@@QEBAAEBVbCString@@XZ
?GetName@gCQuest@@QEBA?AVbCString@@XZ
?GetName@gCSaveGame@@QEBA?AVbCUnicodeString@@XZ
?GetName@gCSessionInfo@@QEBAAEBVbCString@@XZ
?GetName@gCStateGraphState@@QEBAAEBVbCString@@XZ
?GetName@gCTutorialEvent@@QEBA?AVbCString@@XZ
?GetName@gCTutorialHintCollection@@QEBA?AVbCString@@XZ
?GetNativePropertyAt@gCCombatSpecies@@UEBA?AVbCPropertyConverterPtr@@H@Z
?GetNativePropertyAt@gCInfo@@UEBA?AVbCPropertyConverterPtr@@H@Z
?GetNativePropertyAt@gCInteraction_PS@@UEBA?AVbCPropertyConverterPtr@@H@Z
?GetNativePropertyAt@gCInventory_PS@@UEBA?AVbCPropertyConverterPtr@@H@Z
?GetNativePropertyAt@gCItem_PS@@UEBA?AVbCPropertyConverterPtr@@H@Z
?GetNativePropertyAt@gCNavigation_PS@@UEBA?AVbCPropertyConverterPtr@@H@Z
?GetNativePropertyAt@gCSector@@UEBA?AVbCPropertyConverterPtr@@H@Z
?GetNativePropertyAt@gCSkills_PS@@UEBA?AVbCPropertyConverterPtr@@H@Z
?GetNativePropertyAt@gCStateGraphState@@UEBA?AVbCPropertyConverterPtr@@H@Z
?GetNativePropertyCount@gCCombatSpecies@@UEBAHXZ
?GetNativePropertyCount@gCInfo@@UEBAHXZ
?GetNativePropertyCount@gCInteraction_PS@@UEBAHXZ
?GetNativePropertyCount@gCInventory_PS@@UEBAHXZ
?GetNativePropertyCount@gCItem_PS@@UEBAHXZ
?GetNativePropertyCount@gCNavigation_PS@@UEBAHXZ
?GetNativePropertyCount@gCSector@@UEBAHXZ
?GetNativePropertyCount@gCSkills_PS@@UEBAHXZ
?GetNativePropertyCount@gCStateGraphState@@UEBAHXZ
?GetNavArea@gCNavigationAdmin@@QEAA?AW4bEResult@@AEBVbCPropertyID@@AEAPEAVgCNavZone_PS@@AEAPEAVgCNavPath_PS@@@Z
?GetNavArea@gCNavigationMap@@QEAA?AW4bEResult@@AEBVbCPropertyID@@AEAUgSNavArea@gCNavigationMapTypes@@@Z
?GetNavAreaListIndex@gCNavigationMap@@IEAAHAEBUgSNavArea@gCNavigationMapTypes@@@Z
?GetNavObstacleType@gCCollisionCircle_PSObj@@QEBAAEBW4gENavObstacleType@@XZ
?GetNavPathEntityProxy@gCDoor_PS@@QEAAAEAVeCEntityProxy@@XZ
?GetNavTestResult@gCAIHelper_FreePoint_PS@@QEBAAEBV?$bTPropertyContainer@W4gENavTestResult@@@@XZ
?GetNavTestResult@gCNavOffset_PS@@QEBAAEBV?$bTPropertyContainer@W4gENavTestResult@@@@XZ
?GetNavTestResult@gCNavPath_PS@@QEBAAEBV?$bTPropertyContainer@W4gENavTestResult@@@@XZ
?GetNavTestResult@gCNavZone_PS@@QEBAAEBV?$bTPropertyContainer@W4gENavTestResult@@@@XZ
?GetNavTestResult@gCNegZone_PS@@QEBAAEBV?$bTPropertyContainer@W4gENavTestResult@@@@XZ
?GetNavTestResult@gCNegZone_PSObj@@QEBAAEBW4gENavTestResult@@XZ
?GetNavTestResult@gCPrefPath_PS@@QEBAAEBV?$bTPropertyContainer@W4gENavTestResult@@@@XZ
?GetNavTestResult@gCPrefPath_PSObj@@QEBAAEBW4gENavTestResult@@XZ
?GetNavZoneEntityID@gCNegZone_PSObj@@QEBAAEBVbCPropertyID@@XZ
?GetNavZoneEntityID@gCPrefPath_PSObj@@QEBAAEBVbCPropertyID@@XZ
?GetNavZoneEntityIDs@gCCollisionCircle_PSObj@@QEBAAEBV?$bTValArray@VbCPropertyID@@@@XZ
?GetNavZonePSList@gCNavigationAdmin@@QEAAAEBV?$bTValArray@PEAVgCNavZone_PS@@@@XZ
?GetNavZonePSList@gCNavigationMap@@QEBAAEBV?$bTValArray@PEAVgCNavZone_PS@@@@XZ
?GetNavigation@gCDynamicCollisionCircle_PS@@QEBAPEAVgCNavigation_PS@@XZ
?GetNavigationMapTester@gCNavigationAdmin@@QEAAPEAVgCNavigationMapTester@@XZ
?GetNavigationPSCollisionHelpersDistance@gCDummyCollectorAdmin@@QEBAMXZ
?GetNavigationPSInROIList@gCNavigationAdmin@@QEAAAEBV?$bTValArray@PEAVgCNavigation_PS@@@@XZ
?GetNavigationPSList@gCNavigationAdmin@@QEAAAEBV?$bTValArray@PEAVgCNavigation_PS@@@@XZ
?GetNavigationPath@gCNavigation_PS@@QEBAPEAVgCNavPath_PS@@XZ
?GetNavigationZone@gCInteraction_PS@@QEBAPEAVeCEntity@@XZ
?GetNavigationZoneID@gCInteraction_PS@@QEBAAEBVbCPropertyID@@XZ
?GetNavigationZoneIsPath@gCInteraction_PS@@QEBA_NXZ
?GetNearIdleTime@gCCharacterMovement_PS@@QEBAMXZ
?GetNearestFleePoint@gCNavigationAdmin@@QEAA?AW4bEResult@@AEBVeCEntity@@PEAV3@AEAPEAV3@M@Z
?GetNearestFleePoint@gCNavigationMap@@QEAA?AW4bEResult@@AEBVeCEntity@@PEAV3@AEAPEAV3@M@Z
?GetNearestIntersections@gCNavZone_PS@@IEAA_NAEBVbCVector2@@0MMAEAUbSIntersection@1@1_N@Z
?GetNearestNavigationPoint@gCNavigationAdmin@@QEAA?AVbCVector@@AEBVeCEntity@@AEBV2@M@Z
?GetNegZonePSObjectsInArea@gCNavigationAdmin@@QEAA?AW4bEResult@@VbCVector@@MAEAV?$bTPtrArray@PEAVgCNegZone_PSObj@@@@@Z
?GetNegZonePSObjectsInArea@gCNavigationMap@@QEAA?AW4bEResult@@VbCVector@@MAEAV?$bTPtrArray@PEAVgCNegZone_PSObj@@@@@Z
?GetNetIndex@gCNavPath_PS@@QEAAKXZ
?GetNetIndex@gCNavZone_PS@@QEAAKXZ
?GetNewInterPose@gCNavigation_PS@@QEBA_NXZ
?GetNewPartyName@gCPartyAdmin@@QEAA?AVbCString@@PEBVgCParty_PS@@@Z
?GetNext@gCNavigation_PS@@QEBAAEBV?$bTValArray@VbCMotion@@@@XZ
?GetNextAniDirection@gCNavigation_PS@@QEBA?BW4gEDirection@@XZ
?GetNextAttackTimeStamp@gCCombatSystem_PS@@QEBAMXZ
?GetNextEntity@gCSector@@QEBAPEAVeCEntity@@PEAV2@@Z
?GetNextEntity@gCWorld@@QEBAPEAVeCEntity@@PEAV2@@Z
?GetNextHitPointPhase@gCCombatMoveMelee@@QEBAHAEAMM@Z
?GetNextInteractionInROI@gCInteractionAdmin@@IEBAPEAVgCInteraction_PS@@PEAV2@@Z
?GetNextMove@gCCombatSystem_PS@@QEBA?AW4gECombatMove@@XZ
?GetNextPhase@gCCombatMoveMelee@@QEBAHW4gECombatPhaseType@@AEAM1M@Z
?GetNextState@gCStateGraphState@@QEBAPEAV1@XZ
?GetNextWalkDuration@gCCombatSystem_PS@@QEBAMXZ
?GetNoMenu@gCSession@@QEBA_NXZ
?GetNumHoursPlayed@gCSessionInfo@@QEBAAEBMXZ
?GetNumRefreshRates@gCHudResolutionManager2@@QEAAHH@Z
?GetNumResolutions@gCHudResolutionManager2@@QEAAHXZ
?GetObjectType@eCAIHelperAdmin@@UEBAPEAVbCPropertyObjectTypeBase@@XZ
?GetObjectType@gCAIHelper_FreePoint_PS@@UEBAPEAVbCPropertyObjectTypeBase@@XZ
?GetObjectType@gCAIHelper_Label_PS@@UEBAPEAVbCPropertyObjectTypeBase@@XZ
?GetObjectType@gCAIZone_PS@@UEBAPEAVbCPropertyObjectTypeBase@@XZ
?GetObjectType@gCAchievement@@UEBAPEAVbCPropertyObjectTypeBase@@XZ
?GetObjectType@gCAchievementAdmin@@UEBAPEAVbCPropertyObjectTypeBase@@XZ
?GetObjectType@gCActionAdmin@@UEBAPEAVbCPropertyObjectTypeBase@@XZ
?GetObjectType@gCAnchor_PS@@UEBAPEAVbCPropertyObjectTypeBase@@XZ
?GetObjectType@gCArena_PS@@UEBAPEAVbCPropertyObjectTypeBase@@XZ
?GetObjectType@gCBook_PS@@UEBAPEAVbCPropertyObjectTypeBase@@XZ
?GetObjectType@gCCameraAdmin@@UEBAPEAVbCPropertyObjectTypeBase@@XZ
?GetObjectType@gCCastInfo_PS@@UEBAPEAVbCPropertyObjectTypeBase@@XZ
?GetObjectType@gCCharacterControl@@UEBAPEAVbCPropertyObjectTypeBase@@XZ
?GetObjectType@gCCharacterMovement_PS@@UEBAPEAVbCPropertyObjectTypeBase@@XZ
?GetObjectType@gCCharacterSensor@@UEBAPEAVbCPropertyObjectTypeBase@@XZ
?GetObjectType@gCClock_PS@@UEBAPEAVbCPropertyObjectTypeBase@@XZ
?GetObjectType@gCCollisionCircle_PS@@UEBAPEAVbCPropertyObjectTypeBase@@XZ
?GetObjectType@gCCombatAI@@UEBAPEAVbCPropertyObjectTypeBase@@XZ
?GetObjectType@gCCombatAIMelee@@UEBAPEAVbCPropertyObjectTypeBase@@XZ
?GetObjectType@gCCombatAIRanged@@UEBAPEAVbCPropertyObjectTypeBase@@XZ
?GetObjectType@gCCombatAdmin@@UEBAPEAVbCPropertyObjectTypeBase@@XZ
?GetObjectType@gCCombatMove@@UEBAPEAVbCPropertyObjectTypeBase@@XZ
?GetObjectType@gCCombatMoveAim@@UEBAPEAVbCPropertyObjectTypeBase@@XZ
?GetObjectType@gCCombatMoveComboSwitch@@UEBAPEAVbCPropertyObjectTypeBase@@XZ
?GetObjectType@gCCombatMoveFinishing@@UEBAPEAVbCPropertyObjectTypeBase@@XZ
?GetObjectType@gCCombatMoveMelee@@UEBAPEAVbCPropertyObjectTypeBase@@XZ
?GetObjectType@gCCombatMoveOverlayStumble@@UEBAPEAVbCPropertyObjectTypeBase@@XZ
?GetObjectType@gCCombatMoveParade@@UEBAPEAVbCPropertyObjectTypeBase@@XZ
?GetObjectType@gCCombatMoveReload@@UEBAPEAVbCPropertyObjectTypeBase@@XZ
?GetObjectType@gCCombatMoveScriptState@@UEBAPEAVbCPropertyObjectTypeBase@@XZ
?GetObjectType@gCCombatMoveShoot@@UEBAPEAVbCPropertyObjectTypeBase@@XZ
?GetObjectType@gCCombatMoveStumble@@UEBAPEAVbCPropertyObjectTypeBase@@XZ
?GetObjectType@gCCombatObject@@UEBAPEAVbCPropertyObjectTypeBase@@XZ
?GetObjectType@gCCombatSpecies@@UEBAPEAVbCPropertyObjectTypeBase@@XZ
?GetObjectType@gCCombatStyle@@UEBAPEAVbCPropertyObjectTypeBase@@XZ
?GetObjectType@gCCombatStyleAniPose@@UEBAPEAVbCPropertyObjectTypeBase@@XZ
?GetObjectType@gCCombatStyleMelee@@UEBAPEAVbCPropertyObjectTypeBase@@XZ
?GetObjectType@gCCombatStyleRanged@@UEBAPEAVbCPropertyObjectTypeBase@@XZ
?GetObjectType@gCCombatStyleWeaponConfig@@UEBAPEAVbCPropertyObjectTypeBase@@XZ
?GetObjectType@gCCombatSystem_PS@@UEBAPEAVbCPropertyObjectTypeBase@@XZ
?GetObjectType@gCCombatWeaponConfig@@UEBAPEAVbCPropertyObjectTypeBase@@XZ
?GetObjectType@gCCraftIngredient@@UEBAPEAVbCPropertyObjectTypeBase@@XZ
?GetObjectType@gCDamage_PS@@UEBAPEAVbCPropertyObjectTypeBase@@XZ
?GetObjectType@gCDatabase@@UEBAPEAVbCPropertyObjectTypeBase@@XZ
?GetObjectType@gCDialog_PS@@UEBAPEAVbCPropertyObjectTypeBase@@XZ
?GetObjectType@gCDoor_PS@@UEBAPEAVbCPropertyObjectTypeBase@@XZ
?GetObjectType@gCDummyCollectorAdmin@@UEBAPEAVbCPropertyObjectTypeBase@@XZ
?GetObjectType@gCDummyVisualBase_PS@@UEBAPEAVbCPropertyObjectTypeBase@@XZ
?GetObjectType@gCDynamicCollisionCircle_PS@@UEBAPEAVbCPropertyObjectTypeBase@@XZ
?GetObjectType@gCDynamicLayer@@UEBAPEAVbCPropertyObjectTypeBase@@XZ
?GetObjectType@gCEditorEntityPropertySet@@UEBAPEAVbCPropertyObjectTypeBase@@XZ
?GetObjectType@gCEffectCommand@@UEBAPEAVbCPropertyObjectTypeBase@@XZ
?GetObjectType@gCEffectCommandEarthquake@@UEBAPEAVbCPropertyObjectTypeBase@@XZ
?GetObjectType@gCEffectCommandEntity@@UEBAPEAVbCPropertyObjectTypeBase@@XZ
?GetObjectType@gCEffectCommandKillEntity@@UEBAPEAVbCPropertyObjectTypeBase@@XZ
?GetObjectType@gCEffectCommandKillEntityRange@@UEBAPEAVbCPropertyObjectTypeBase@@XZ
?GetObjectType@gCEffectCommandModifyEntity@@UEBAPEAVbCPropertyObjectTypeBase@@XZ
?GetObjectType@gCEffectCommandPlaySound@@UEBAPEAVbCPropertyObjectTypeBase@@XZ
?GetObjectType@gCEffectCommandPlayVoice@@UEBAPEAVbCPropertyObjectTypeBase@@XZ
?GetObjectType@gCEffectCommandRunScript@@UEBAPEAVbCPropertyObjectTypeBase@@XZ
?GetObjectType@gCEffectCommandSaySVM@@UEBAPEAVbCPropertyObjectTypeBase@@XZ
?GetObjectType@gCEffectCommandSequence2@@UEBAPEAVbCPropertyObjectTypeBase@@XZ
?GetObjectType@gCEffectCommandSpawnEntity@@UEBAPEAVbCPropertyObjectTypeBase@@XZ
?GetObjectType@gCEffectCommandSpawnEntityList@@UEBAPEAVbCPropertyObjectTypeBase@@XZ
?GetObjectType@gCEffectCommandSpawnEntitySwitch@@UEBAPEAVbCPropertyObjectTypeBase@@XZ
?GetObjectType@gCEffectCommandStartImageEffect@@UEBAPEAVbCPropertyObjectTypeBase@@XZ
?GetObjectType@gCEffectCommandTriggerEntity@@UEBAPEAVbCPropertyObjectTypeBase@@XZ
?GetObjectType@gCEffectModule@@UEBAPEAVbCPropertyObjectTypeBase@@XZ
?GetObjectType@gCEffect_PS@@UEBAPEAVbCPropertyObjectTypeBase@@XZ
?GetObjectType@gCEntityDummyVisual_PS@@UEBAPEAVbCPropertyObjectTypeBase@@XZ
?GetObjectType@gCFlightPathBallistic@@UEBAPEAVbCPropertyObjectTypeBase@@XZ
?GetObjectType@gCFlightPathBase@@UEBAPEAVbCPropertyObjectTypeBase@@XZ
?GetObjectType@gCFlightPathSeeking@@UEBAPEAVbCPropertyObjectTypeBase@@XZ
?GetObjectType@gCFocusModule2@@UEBAPEAVbCPropertyObjectTypeBase@@XZ
?GetObjectType@gCGUIFilter@@UEBAPEAVbCPropertyObjectTypeBase@@XZ
?GetObjectType@gCGameScript_PS@@UEBAPEAVbCPropertyObjectTypeBase@@XZ
?GetObjectType@gCHudDialog2@@UEBAPEAVbCPropertyObjectTypeBase@@XZ
?GetObjectType@gCHudModule2@@UEBAPEAVbCPropertyObjectTypeBase@@XZ
?GetObjectType@gCHudPage2@@UEBAPEAVbCPropertyObjectTypeBase@@XZ
?GetObjectType@gCHudPopUp2@@UEBAPEAVbCPropertyObjectTypeBase@@XZ
?GetObjectType@gCInfo@@UEBAPEAVbCPropertyObjectTypeBase@@XZ
?GetObjectType@gCInfoCommand@@UEBAPEAVbCPropertyObjectTypeBase@@XZ
?GetObjectType@gCInfoCommandAddInfoSystemEndScript@@UEBAPEAVbCPropertyObjectTypeBase@@XZ
?GetObjectType@gCInfoCommandAddLogText@@UEBAPEAVbCPropertyObjectTypeBase@@XZ
?GetObjectType@gCInfoCommandAddNPCInfo@@UEBAPEAVbCPropertyObjectTypeBase@@XZ
?GetObjectType@gCInfoCommandAddQuestActor@@UEBAPEAVbCPropertyObjectTypeBase@@XZ
?GetObjectType@gCInfoCommandAttack@@UEBAPEAVbCPropertyObjectTypeBase@@XZ
?GetObjectType@gCInfoCommandBack@@UEBAPEAVbCPropertyObjectTypeBase@@XZ
?GetObjectType@gCInfoCommandBoostAttribs@@UEBAPEAVbCPropertyObjectTypeBase@@XZ
?GetObjectType@gCInfoCommandClearGameEvent@@UEBAPEAVbCPropertyObjectTypeBase@@XZ
?GetObjectType@gCInfoCommandCloseQuest@@UEBAPEAVbCPropertyObjectTypeBase@@XZ
?GetObjectType@gCInfoCommandCreateItem@@UEBAPEAVbCPropertyObjectTypeBase@@XZ
?GetObjectType@gCInfoCommandDescription@@UEBAPEAVbCPropertyObjectTypeBase@@XZ
?GetObjectType@gCInfoCommandDestroyItem@@UEBAPEAVbCPropertyObjectTypeBase@@XZ
?GetObjectType@gCInfoCommandDoLoot@@UEBAPEAVbCPropertyObjectTypeBase@@XZ
?GetObjectType@gCInfoCommandDoTrade@@UEBAPEAVbCPropertyObjectTypeBase@@XZ
?GetObjectType@gCInfoCommandEnd@@UEBAPEAVbCPropertyObjectTypeBase@@XZ
?GetObjectType@gCInfoCommandEndGame@@UEBAPEAVbCPropertyObjectTypeBase@@XZ
?GetObjectType@gCInfoCommandFullStop@@UEBAPEAVbCPropertyObjectTypeBase@@XZ
?GetObjectType@gCInfoCommandGive@@UEBAPEAVbCPropertyObjectTypeBase@@XZ
?GetObjectType@gCInfoCommandGiveXP@@UEBAPEAVbCPropertyObjectTypeBase@@XZ
?GetObjectType@gCInfoCommandHeal@@UEBAPEAVbCPropertyObjectTypeBase@@XZ
?GetObjectType@gCInfoCommandInfoWait@@UEBAPEAVbCPropertyObjectTypeBase@@XZ
?GetObjectType@gCInfoCommandKillNPC@@UEBAPEAVbCPropertyObjectTypeBase@@XZ
?GetObjectType@gCInfoCommandMoveTo@@UEBAPEAVbCPropertyObjectTypeBase@@XZ
?GetObjectType@gCInfoCommandPickPocket@@UEBAPEAVbCPropertyObjectTypeBase@@XZ
?GetObjectType@gCInfoCommandPlayMusic@@UEBAPEAVbCPropertyObjectTypeBase@@XZ
?GetObjectType@gCInfoCommandRemoveNPC@@UEBAPEAVbCPropertyObjectTypeBase@@XZ
?GetObjectType@gCInfoCommandRemoveNPCInfo@@UEBAPEAVbCPropertyObjectTypeBase@@XZ
?GetObjectType@gCInfoCommandRemoveQuestActor@@UEBAPEAVbCPropertyObjectTypeBase@@XZ
?GetObjectType@gCInfoCommandRunAIScript@@UEBAPEAVbCPropertyObjectTypeBase@@XZ
?GetObjectType@gCInfoCommandRunInfo@@UEBAPEAVbCPropertyObjectTypeBase@@XZ
?GetObjectType@gCInfoCommandRunQuest@@UEBAPEAVbCPropertyObjectTypeBase@@XZ
?GetObjectType@gCInfoCommandRunScript@@UEBAPEAVbCPropertyObjectTypeBase@@XZ
?GetObjectType@gCInfoCommandSay@@UEBAPEAVbCPropertyObjectTypeBase@@XZ
?GetObjectType@gCInfoCommandSayConfirm@@UEBAPEAVbCPropertyObjectTypeBase@@XZ
?GetObjectType@gCInfoCommandSayHoldingPosition@@UEBAPEAVbCPropertyObjectTypeBase@@XZ
?GetObjectType@gCInfoCommandSayKeepItUp@@UEBAPEAVbCPropertyObjectTypeBase@@XZ
?GetObjectType@gCInfoCommandSaySVM@@UEBAPEAVbCPropertyObjectTypeBase@@XZ
?GetObjectType@gCInfoCommandSaySound@@UEBAPEAVbCPropertyObjectTypeBase@@XZ
?GetObjectType@gCInfoCommandSetGameEvent@@UEBAPEAVbCPropertyObjectTypeBase@@XZ
?GetObjectType@gCInfoCommandSetGuardStatus@@UEBAPEAVbCPropertyObjectTypeBase@@XZ
?GetObjectType@gCInfoCommandSetMobEnabled@@UEBAPEAVbCPropertyObjectTypeBase@@XZ
?GetObjectType@gCInfoCommandSetPartyEnabled@@UEBAPEAVbCPropertyObjectTypeBase@@XZ
?GetObjectType@gCInfoCommandSetRelaxingPoint@@UEBAPEAVbCPropertyObjectTypeBase@@XZ
?GetObjectType@gCInfoCommandSetRoutine@@UEBAPEAVbCPropertyObjectTypeBase@@XZ
?GetObjectType@gCInfoCommandSetSectorStatus@@UEBAPEAVbCPropertyObjectTypeBase@@XZ
?GetObjectType@gCInfoCommandSetSlaveryEnabled@@UEBAPEAVbCPropertyObjectTypeBase@@XZ
?GetObjectType@gCInfoCommandSetSleepingPoint@@UEBAPEAVbCPropertyObjectTypeBase@@XZ
?GetObjectType@gCInfoCommandSetTeachEnabled@@UEBAPEAVbCPropertyObjectTypeBase@@XZ
?GetObjectType@gCInfoCommandSetTradeEnabled@@UEBAPEAVbCPropertyObjectTypeBase@@XZ
?GetObjectType@gCInfoCommandSetWorkingPoint@@UEBAPEAVbCPropertyObjectTypeBase@@XZ
?GetObjectType@gCInfoCommandShowPicture@@UEBAPEAVbCPropertyObjectTypeBase@@XZ
?GetObjectType@gCInfoCommandShowSubtitle@@UEBAPEAVbCPropertyObjectTypeBase@@XZ
?GetObjectType@gCInfoCommandSleep@@UEBAPEAVbCPropertyObjectTypeBase@@XZ
?GetObjectType@gCInfoCommandStartEffect@@UEBAPEAVbCPropertyObjectTypeBase@@XZ
?GetObjectType@gCInfoCommandStartFixCamera@@UEBAPEAVbCPropertyObjectTypeBase@@XZ
?GetObjectType@gCInfoCommandStartTutorial@@UEBAPEAVbCPropertyObjectTypeBase@@XZ
?GetObjectType@gCInfoCommandStopFixCamera@@UEBAPEAVbCPropertyObjectTypeBase@@XZ
?GetObjectType@gCInfoCommandSucceedQuest@@UEBAPEAVbCPropertyObjectTypeBase@@XZ
?GetObjectType@gCInfoCommandTeach@@UEBAPEAVbCPropertyObjectTypeBase@@XZ
?GetObjectType@gCInfoCommandTeleportNPC@@UEBAPEAVbCPropertyObjectTypeBase@@XZ
?GetObjectType@gCInfoCommandThink@@UEBAPEAVbCPropertyObjectTypeBase@@XZ
?GetObjectType@gCInfoCommandTrigger@@UEBAPEAVbCPropertyObjectTypeBase@@XZ
?GetObjectType@gCInfoCommandUse@@UEBAPEAVbCPropertyObjectTypeBase@@XZ
?GetObjectType@gCInfoCommandWear@@UEBAPEAVbCPropertyObjectTypeBase@@XZ
?GetObjectType@gCInfoCondition@@UEBAPEAVbCPropertyObjectTypeBase@@XZ
?GetObjectType@gCInfoConditionCanTeachSkill@@UEBAPEAVbCPropertyObjectTypeBase@@XZ
?GetObjectType@gCInfoConditionItemAmount@@UEBAPEAVbCPropertyObjectTypeBase@@XZ
?GetObjectType@gCInfoConditionNPCStatus@@UEBAPEAVbCPropertyObjectTypeBase@@XZ
?GetObjectType@gCInfoConditionOwnerInArea@@UEBAPEAVbCPropertyObjectTypeBase@@XZ
?GetObjectType@gCInfoConditionOwnerNearEntity@@UEBAPEAVbCPropertyObjectTypeBase@@XZ
?GetObjectType@gCInfoConditionPlayerKnows@@UEBAPEAVbCPropertyObjectTypeBase@@XZ
?GetObjectType@gCInfoConditionPlayerNotKnows@@UEBAPEAVbCPropertyObjectTypeBase@@XZ
?GetObjectType@gCInfoConditionQuestStatus@@UEBAPEAVbCPropertyObjectTypeBase@@XZ
?GetObjectType@gCInfoConditionScript@@UEBAPEAVbCPropertyObjectTypeBase@@XZ
?GetObjectType@gCInfoConditionSkillValue@@UEBAPEAVbCPropertyObjectTypeBase@@XZ
?GetObjectType@gCInfoConditionTeachEnabled@@UEBAPEAVbCPropertyObjectTypeBase@@XZ
?GetObjectType@gCInfoModule@@UEBAPEAVbCPropertyObjectTypeBase@@XZ
?GetObjectType@gCInteraction@@UEBAPEAVbCPropertyObjectTypeBase@@XZ
?GetObjectType@gCInteractionAdmin@@UEBAPEAVbCPropertyObjectTypeBase@@XZ
?GetObjectType@gCInteractionSlot@@UEBAPEAVbCPropertyObjectTypeBase@@XZ
?GetObjectType@gCInteraction_PS@@UEBAPEAVbCPropertyObjectTypeBase@@XZ
?GetObjectType@gCInventoryList@@UEBAPEAVbCPropertyObjectTypeBase@@XZ
?GetObjectType@gCInventorySlot@@UEBAPEAVbCPropertyObjectTypeBase@@XZ
?GetObjectType@gCInventoryStack@@UEBAPEAVbCPropertyObjectTypeBase@@XZ
?GetObjectType@gCInventory_PS@@UEBAPEAVbCPropertyObjectTypeBase@@XZ
?GetObjectType@gCItem_PS@@UEBAPEAVbCPropertyObjectTypeBase@@XZ
?GetObjectType@gCLayerBase@@UEBAPEAVbCPropertyObjectTypeBase@@XZ
?GetObjectType@gCLetter_PS@@UEBAPEAVbCPropertyObjectTypeBase@@XZ
?GetObjectType@gCLock_PS@@UEBAPEAVbCPropertyObjectTypeBase@@XZ
?GetObjectType@gCMapEntry@@UEBAPEAVbCPropertyObjectTypeBase@@XZ
?GetObjectType@gCMapInfo_PS@@UEBAPEAVbCPropertyObjectTypeBase@@XZ
?GetObjectType@gCMap_PS@@UEBAPEAVbCPropertyObjectTypeBase@@XZ
?GetObjectType@gCModifySkill@@UEBAPEAVbCPropertyObjectTypeBase@@XZ
?GetObjectType@gCMusicModule2@@UEBAPEAVbCPropertyObjectTypeBase@@XZ
?GetObjectType@gCNPC_PS@@UEBAPEAVbCPropertyObjectTypeBase@@XZ
?GetObjectType@gCNavHelper_PS@@UEBAPEAVbCPropertyObjectTypeBase@@XZ
?GetObjectType@gCNavOffset_PS@@UEBAPEAVbCPropertyObjectTypeBase@@XZ
?GetObjectType@gCNavPath_PS@@UEBAPEAVbCPropertyObjectTypeBase@@XZ
?GetObjectType@gCNavZone_PS@@UEBAPEAVbCPropertyObjectTypeBase@@XZ
?GetObjectType@gCNavigationAdmin@@UEBAPEAVbCPropertyObjectTypeBase@@XZ
?GetObjectType@gCNavigation_PS@@UEBAPEAVbCPropertyObjectTypeBase@@XZ
?GetObjectType@gCNegZone_PS@@UEBAPEAVbCPropertyObjectTypeBase@@XZ
?GetObjectType@gCPartyAdmin@@UEBAPEAVbCPropertyObjectTypeBase@@XZ
?GetObjectType@gCParty_PS@@UEBAPEAVbCPropertyObjectTypeBase@@XZ
?GetObjectType@gCPrefPath_PS@@UEBAPEAVbCPropertyObjectTypeBase@@XZ
?GetObjectType@gCProject@@UEBAPEAVbCPropertyObjectTypeBase@@XZ
?GetObjectType@gCProjectile2_PS@@UEBAPEAVbCPropertyObjectTypeBase@@XZ
?GetObjectType@gCPropertyDummyVisual_PS@@UEBAPEAVbCPropertyObjectTypeBase@@XZ
?GetObjectType@gCQuest@@UEBAPEAVbCPropertyObjectTypeBase@@XZ
?GetObjectType@gCQuestActor@@UEBAPEAVbCPropertyObjectTypeBase@@XZ
?GetObjectType@gCQuestLogFrame2@@UEBAPEAVbCPropertyObjectTypeBase@@XZ
?GetObjectType@gCQuestManager@@UEBAPEAVbCPropertyObjectTypeBase@@XZ
?GetObjectType@gCRecipe_PS@@UEBAPEAVbCPropertyObjectTypeBase@@XZ
?GetObjectType@gCScriptAdmin@@UEBAPEAVbCPropertyObjectTypeBase@@XZ
?GetObjectType@gCScriptRoutine_PS@@UEBAPEAVbCPropertyObjectTypeBase@@XZ
?GetObjectType@gCSector@@UEBAPEAVbCPropertyObjectTypeBase@@XZ
?GetObjectType@gCSectorPersistence_PS@@UEBAPEAVbCPropertyObjectTypeBase@@XZ
?GetObjectType@gCSession@@UEBAPEAVbCPropertyObjectTypeBase@@XZ
?GetObjectType@gCSessionCheats@@UEBAPEAVbCPropertyObjectTypeBase@@XZ
?GetObjectType@gCSessionInfo@@UEBAPEAVbCPropertyObjectTypeBase@@XZ
?GetObjectType@gCSkillRange@@UEBAPEAVbCPropertyObjectTypeBase@@XZ
?GetObjectType@gCSkillValue@@UEBAPEAVbCPropertyObjectTypeBase@@XZ
?GetObjectType@gCSkillValueBase@@UEBAPEAVbCPropertyObjectTypeBase@@XZ
?GetObjectType@gCSkills_PS@@UEBAPEAVbCPropertyObjectTypeBase@@XZ
?GetObjectType@gCSpinButton@@UEBAPEAVbCPropertyObjectTypeBase@@XZ
?GetObjectType@gCStateGraphAction@@UEBAPEAVbCPropertyObjectTypeBase@@XZ
?GetObjectType@gCStateGraphActionCallScript@@UEBAPEAVbCPropertyObjectTypeBase@@XZ
?GetObjectType@gCStateGraphActionEventDispatcher@@UEBAPEAVbCPropertyObjectTypeBase@@XZ
?GetObjectType@gCStateGraphActionFollowState@@UEBAPEAVbCPropertyObjectTypeBase@@XZ
?GetObjectType@gCStateGraphActionPauseAni@@UEBAPEAVbCPropertyObjectTypeBase@@XZ
?GetObjectType@gCStateGraphActionPlayAni@@UEBAPEAVbCPropertyObjectTypeBase@@XZ
?GetObjectType@gCStateGraphActionStartEffect@@UEBAPEAVbCPropertyObjectTypeBase@@XZ
?GetObjectType@gCStateGraphActionStop@@UEBAPEAVbCPropertyObjectTypeBase@@XZ
?GetObjectType@gCStateGraphActionTrigger@@UEBAPEAVbCPropertyObjectTypeBase@@XZ
?GetObjectType@gCStateGraphActionTriggerState@@UEBAPEAVbCPropertyObjectTypeBase@@XZ
?GetObjectType@gCStateGraphActionUnTrigger@@UEBAPEAVbCPropertyObjectTypeBase@@XZ
?GetObjectType@gCStateGraphActionVisibility@@UEBAPEAVbCPropertyObjectTypeBase@@XZ
?GetObjectType@gCStateGraphActionWait@@UEBAPEAVbCPropertyObjectTypeBase@@XZ
?GetObjectType@gCStateGraphEventFilter@@UEBAPEAVbCPropertyObjectTypeBase@@XZ
?GetObjectType@gCStateGraphEventFilterCollisionShape@@UEBAPEAVbCPropertyObjectTypeBase@@XZ
?GetObjectType@gCStateGraphEventFilterDamageAmount@@UEBAPEAVbCPropertyObjectTypeBase@@XZ
?GetObjectType@gCStateGraphEventFilterIsEntity@@UEBAPEAVbCPropertyObjectTypeBase@@XZ
?GetObjectType@gCStateGraphEventFilterIsNPC@@UEBAPEAVbCPropertyObjectTypeBase@@XZ
?GetObjectType@gCStateGraphEventFilterIsPlayer@@UEBAPEAVbCPropertyObjectTypeBase@@XZ
?GetObjectType@gCStateGraphEventFilterScript@@UEBAPEAVbCPropertyObjectTypeBase@@XZ
?GetObjectType@gCStateGraphEventFilterTemplate@@UEBAPEAVbCPropertyObjectTypeBase@@XZ
?GetObjectType@gCStateGraphState@@UEBAPEAVbCPropertyObjectTypeBase@@XZ
?GetObjectType@gCStateGraph_PS@@UEBAPEAVbCPropertyObjectTypeBase@@XZ
?GetObjectType@gCTutorialAdmin@@UEBAPEAVbCPropertyObjectTypeBase@@XZ
?GetObjectType@gCTutorialEvent@@UEBAPEAVbCPropertyObjectTypeBase@@XZ
?GetObjectType@gCTutorialHint@@UEBAPEAVbCPropertyObjectTypeBase@@XZ
?GetObjectType@gCTutorialHintCollection@@UEBAPEAVbCPropertyObjectTypeBase@@XZ
?GetObjectType@gCWaterSubZone_PS@@UEBAPEAVbCPropertyObjectTypeBase@@XZ
?GetObjectType@gCWaterZone_PS@@UEBAPEAVbCPropertyObjectTypeBase@@XZ
?GetObjectType@gCWorkspace@@UEBAPEAVbCPropertyObjectTypeBase@@XZ
?GetObjectType@gCWorld@@UEBAPEAVbCPropertyObjectTypeBase@@XZ
?GetObsoleteQuestScript@gCQuest@@QEBAAEBVeCScriptProxyScript@@XZ
?GetOffset@gCCollisionCircle_PS@@QEBAAEBV?$bTValArray@VbCVector@@@@XZ
?GetOffset@gCEffectCommandPlaySound@@QEBAAEBVbCVector@@XZ
?GetOffset@gCEffectCommandSpawnEntity@@QEBAAEBVbCMotion@@XZ
?GetOffset@gCEffectCommandSpawnEntityList@@QEBAAEBVbCMotion@@XZ
?GetOffset@gCEffectCommandSpawnEntitySwitch@@QEBAAEBVbCMotion@@XZ
?GetOffset@gCEffect_PS@@QEBAAEBVbCVector@@XZ
?GetOffset@gCInteractionSlot@@QEBAAEBVbCMatrix@@XZ
?GetOffset@gCStateGraphActionStartEffect@@QEBAAEBVbCVector@@XZ
?GetOffsetCircle@gCNavOffset_PS@@QEBAAEB_NXZ
?GetOffsetPose@gCNavOffset_PS@@QEBAAEBV?$bTValArray@VbCMotion@@@@XZ
?GetOnAbort@gCHudDialog2@@QEBAAEBVeCScriptProxyScript@@XZ
?GetOnCalcAimAngle@gCCombatMoveAim@@QEBAAEBVeCScriptProxyScript@@XZ
?GetOnCalcAimStretch@gCCombatMoveAim@@QEBAAEBVeCScriptProxyScript@@XZ
?GetOnCalcShootAngle@gCCombatMoveShoot@@QEBAAEBVeCScriptProxyScript@@XZ
?GetOnContact@gCWaterZone_PS@@QEBAAEBVeCScriptProxyScript@@XZ
?GetOnDragEnter@gCInventoryList@@QEBAAEBVeCScriptProxyScript@@XZ
?GetOnDrop@gCInventoryList@@QEBAAEBVeCScriptProxyScript@@XZ
?GetOnEnterState@gCStateGraph_PS@@QEBAAEBVeCScriptProxyScript@@XZ
?GetOnEnterWater@gCNavigation_PS@@QEBAAEBVeCScriptProxyScript@@XZ
?GetOnEscape@gCHudDialog2@@QEBAAEBVeCScriptProxyScript@@XZ
?GetOnExitState@gCStateGraph_PS@@QEBAAEBVeCScriptProxyScript@@XZ
?GetOnGameEnd@gCGameScript_PS@@QEBAAEBVeCScriptProxyScript@@XZ
?GetOnGameInit@gCGameScript_PS@@QEBAAEBVeCScriptProxyScript@@XZ
?GetOnGamePauseEnd@gCGameScript_PS@@QEBAAEBVeCScriptProxyScript@@XZ
?GetOnGamePauseProcess@gCGameScript_PS@@QEBAAEBVeCScriptProxyScript@@XZ
?GetOnGamePauseStart@gCGameScript_PS@@QEBAAEBVeCScriptProxyScript@@XZ
?GetOnGameProcess@gCGameScript_PS@@QEBAAEBVeCScriptProxyScript@@XZ
?GetOnGameStart@gCGameScript_PS@@QEBAAEBVeCScriptProxyScript@@XZ
?GetOnGetFAIWeight@gCCombatMoveReload@@QEBAAEBVeCScriptProxyScript@@XZ
?GetOnGetFAIWeight@gCCombatMoveScriptState@@QEBAAEBVeCScriptProxyScript@@XZ
?GetOnGetFAIWeight@gCCombatMoveShoot@@QEBAAEBVeCScriptProxyScript@@XZ
?GetOnGetSpeedFactor@gCCombatMoveAim@@QEBAAEBVeCScriptProxyScript@@XZ
?GetOnGetSpeedFactor@gCCombatMoveReload@@QEBAAEBVeCScriptProxyScript@@XZ
?GetOnGetSpeedFactor@gCCombatMoveShoot@@QEBAAEBVeCScriptProxyScript@@XZ
?GetOnHitScript@gCProjectile2_PS@@QEBAAEBVeCScriptProxyScript@@XZ
?GetOnInit@gCHudDialog2@@QEBAAEBVeCScriptProxyScript@@XZ
?GetOnIntersectScript@gCProjectile2_PS@@QEBAAEBVeCScriptProxyScript@@XZ
?GetOnItemClick@gCInventoryList@@QEBAAEBVeCScriptProxyScript@@XZ
?GetOnItemDoubleClick@gCInventoryList@@QEBAAEBVeCScriptProxyScript@@XZ
?GetOnKeyDown@gCHudDialog2@@QEBAAEBVeCScriptProxyScript@@XZ
?GetOnKeyDown@gCInventoryList@@QEBAAEBVeCScriptProxyScript@@XZ
?GetOnLButtonDown@gCHudDialog2@@QEBAAEBVeCScriptProxyScript@@XZ
?GetOnLeaveWater@gCNavigation_PS@@QEBAAEBVeCScriptProxyScript@@XZ
?GetOnLinkItem@gCCombatMoveReload@@QEBAAEBVeCScriptProxyScript@@XZ
?GetOnLockStatusChanged@gCLock_PS@@QEBAAEBVeCScriptProxyScript@@XZ
?GetOnMButtonDown@gCHudDialog2@@QEBAAEBVeCScriptProxyScript@@XZ
?GetOnRButtonDown@gCHudDialog2@@QEBAAEBVeCScriptProxyScript@@XZ
?GetOnShoot@gCCombatMoveShoot@@QEBAAEBVeCScriptProxyScript@@XZ
?GetOnSpin@gCSpinButton@@QEBAAEBVeCScriptProxyScript@@XZ
?GetOnStackChanged@gCInventoryList@@QEBAAEBVeCScriptProxyScript@@XZ
?GetOnStartAutoCombo@gCCombatMoveShoot@@QEBAAEBVeCScriptProxyScript@@XZ
?GetOnTheWay@gCNavigation_PS@@QEBA?B_NXZ
?GetOnWater@gCNavigation_PS@@QEBAAEBVeCScriptProxyScript@@XZ
?GetOnWheelDown@gCHudDialog2@@QEBAAEBVeCScriptProxyScript@@XZ
?GetOnWheelUp@gCHudDialog2@@QEBAAEBVeCScriptProxyScript@@XZ
?GetOnX1ButtonDown@gCHudDialog2@@QEBAAEBVeCScriptProxyScript@@XZ
?GetOnX2ButtonDown@gCHudDialog2@@QEBAAEBVeCScriptProxyScript@@XZ
?GetOnlyPlayerAsTarget@gCNavPath_PS@@QEBAAEB_NXZ
?GetOpenStatus@gCNavPath_PS@@QEBA_NXZ
?GetOriginImportName@gCDynamicLayer@@QEBAAEBVbCString@@XZ
?GetOriginalPlayer@gCSession@@QEBAPEAVeCDynamicEntity@@XZ
?GetOther@gCEffectCommandRunScript@@QEBAAEBVbCString@@XZ
?GetOther@gCInfoCommandAddInfoSystemEndScript@@QEBAAEBVbCString@@XZ
?GetOther@gCInfoCommandRunAIScript@@QEBAAEBVbCString@@XZ
?GetOther@gCInfoCommandRunScript@@QEBAAEBVbCString@@XZ
?GetOther@gCInfoConditionScript@@QEBAAEBVbCString@@XZ
?GetOtherEntity@gCScriptProcessingUnit@@QEAAPEAVeCGeometryEntity@@XZ
?GetOtherType@gCEffectCommandRunScript@@QEBAAEBV?$bTPropertyContainer@W4gEEffectScriptOtherType@@@@XZ
?GetOtherType@gCInfoCommandRunScript@@QEBAAEBV?$bTPropertyContainer@W4gEOtherType@@@@XZ
?GetOutOfNavAreaID@gCNavigationAdmin@@QEBAAEBVbCPropertyID@@XZ
?GetOutOfNavAreaID@gCNavigationMap@@QEBAAEBVbCPropertyID@@XZ
?GetOuterRadius@gCEffectCommandEarthquake@@QEBAAEBMXZ
?GetOverlay@gCMapEntry@@QEBAAEBVeCGuiBitmapProxy2@@XZ
?GetOverlayAnimations@gCCombatMoveShoot@@QEBAAEB_NXZ
?GetOverlayBlend@gCCombatMoveParade@@QEBAAEB_NXZ
?GetOverlayClient@gCQuest@@QEBAAEBVeCGuiBitmapProxy2@@XZ
?GetOverlayTarget@gCQuest@@QEBAAEBVeCGuiBitmapProxy2@@XZ
?GetOverwriteAttackType@gCCombatMoveMelee@@QEBAAEB_NXZ
?GetOvlDisabled@gCInventoryList@@QEBAAEBVeCGuiBitmapProxy2@@XZ
?GetOvlEquipslot@gCInventoryList@@QEBAAEBVeCGuiBitmapProxy2@@XZ
?GetOvlQuickslot@gCInventoryList@@QEBAAEBVeCGuiBitmapProxy2@@XZ
?GetOwner@gCEffect@@QEBAPEAVeCEntity@@XZ
?GetOwner@gCInfo@@QEBAAEBVbCString@@XZ
?GetOwner@gCInfoConditionItemAmount@@QEBAAEBVeCEntityStringProxy@@XZ
?GetOwner@gCInteraction_PS@@QEBAAEBVeCEntityProxy@@XZ
?GetOwner@gCStateGraphTransition@@QEBAPEAVgCStateGraphState@@XZ
?GetOwnerEntity@gCRuntimeInfo@@QEBAPEAVeCEntity@@XZ
?GetPSObject@gCCollisionCircle_PS@@QEBAPEAVgCCollisionCircle_PSObj@@XZ
?GetPSObject@gCNegZone_PS@@QEBAPEAVgCNegZone_PSObj@@XZ
?GetPSObject@gCPrefPath_PS@@QEBAPEAVgCPrefPath_PSObj@@XZ
?GetPageControl@gCHudPage2@@QEBAAEBVeCScriptProxyScript@@XZ
?GetPageID@gCHudPage2@@QEBAAEBV?$bTPropertyContainer@W4gEHudPage@@@@XZ
?GetPageMode@gCHudPage2@@QEBA?AV?$bTPropertyContainer@W4gEPageMode@@@@XZ
?GetPageMode@gCHudSystem2@@QEBA?AW4gEPageMode@@XZ
?GetParade1@gCCombatStyleMelee@@QEBAAEBVbCString@@XZ
?GetParade@gCCombatStyleMelee@@QEBAAEBVbCString@@XZ
?GetParadeAngle@gCCombatMoveParade@@QEBAAEBMXZ
?GetParadeReaction@gCCombatMoveMelee@@QEBAAEBV?$bTPropertyContainer@W4gECombatMove@@@@XZ
?GetParadeStumble@gCCombatStyleMelee@@QEBAAEBVbCString@@XZ
?GetParadeStumbleHeavy@gCCombatStyleMelee@@QEBAAEBVbCString@@XZ
?GetParadeType@gCCombatMove@@UEBA?AW4gECombatParadeType@@PEAVgCCombatStyle@@@Z
?GetParadeType@gCCombatMoveMelee@@UEBA?AW4gECombatParadeType@@PEAVgCCombatStyle@@@Z
?GetParadeType@gCCombatStyle@@QEBAAEBV?$bTPropertyContainer@W4gECombatParadeType@@@@XZ
?GetParam@gCEffectCommandRunScript@@QEBAAEBHXZ
?GetParam@gCInfoCommandAddInfoSystemEndScript@@QEBAAEBHXZ
?GetParam@gCInfoCommandRunAIScript@@QEBAAEBHXZ
?GetParam@gCInfoCommandRunScript@@QEBAAEBHXZ
?GetParam@gCInfoConditionScript@@QEBAAEBHXZ
?GetParamType@gCEffectCommandRunScript@@QEBAAEBV?$bTPropertyContainer@W4gEEffectScriptParamType@@@@XZ
?GetParent@gCInfo@@QEBAAEBVbCString@@XZ
?GetParentInfo@gCInfo@@QEBAPEAV1@XZ
?GetPartyArea@gCParty_PS@@QEBAAEBVbCString@@XZ
?GetPartyEnabled@gCDialog_PS@@QEBAAEB_NXZ
?GetPartyEnabled@gCInfoCommandSetPartyEnabled@@QEBAAEB_NXZ
?GetPartyLeaderEntity@gCParty_PS@@QEBA?AVeCEntityProxy@@XZ
?GetPartyMemberType@gCParty_PS@@QEBAAEBV?$bTPropertyContainer@W4gEPartyMemberType@@@@XZ
?GetPartyName@gCParty_PS@@QEBA?AVbCString@@XZ
?GetPassed@gCNavigation_PS@@QEBAAEBV?$bTValArray@VbCVector@@@@XZ
?GetPassiveFightAI@gCCombatStyle@@QEBAAEBVbCString@@XZ
?GetPassiveFightAI@gCCombatSystem_PS@@QEBAAEBVbCString@@XZ
?GetPathBottomHeight@gCNavPath_PS@@QEAAMXZ
?GetPathTopHeight@gCNavPath_PS@@QEAAMXZ
?GetPatrolIndex@gCAnchor_PS@@QEBAAEBKXZ
?GetPause@gCStateGraphActionPauseAni@@QEBAAEB_NXZ
?GetPauseAnimation@gCStateGraphActionPlayAni@@QEBAAEB_NXZ
?GetPermanent@gCInfo@@QEBAAEB_NXZ
?GetPermanent@gCItem_PS@@QEBAAEB_NXZ
?GetPhaseAniDuration@gCCombatMoveMelee@@QEBAMH@Z
?GetPhaseDuration@gCCombatMoveMelee@@QEBAMH@Z
?GetPhaseDurationByType@gCCombatMoveMelee@@QEBAMW4gECombatPhaseType@@@Z
?GetPhaseDurationCounterAttack@gCCombatMoveMelee@@QEBAAEBMXZ
?GetPhaseDurationCounterParade@gCCombatMoveMelee@@QEBAAEBMXZ
?GetPhaseDurationHit@gCCombatMoveMelee@@QEBAAEBMXZ
?GetPhaseDurationHoover@gCCombatMoveMelee@@QEBAAEBMXZ
?GetPhaseDurationParade@gCCombatMoveMelee@@QEBAAEBMXZ
?GetPhaseDurationPowerRaise@gCCombatMoveMelee@@QEBAAEBMXZ
?GetPhaseDurationRaise@gCCombatMoveMelee@@QEBAAEBMXZ
?GetPhaseDurationRecover@gCCombatMoveMelee@@QEBAAEBMXZ
?GetPhaseDurationStrafe@gCCombatMoveMelee@@QEBAAEBMXZ
?GetPhaseSpeed@gCCombatMoveMelee@@QEBAMH@Z
?GetPhases@gCCombatMoveMelee@@QEBAAEBV?$bTObjArray@VgCCombatMoveMeleePhase@@@@XZ
?GetPhysicsMaterial@gCProjectile2_PS@@QEBA?AW4eEShapeMaterial@@AEBVbCVector@@0PEBVeCEntity@@@Z
?GetPickedPocket@gCDialog_PS@@QEBAAEB_NXZ
?GetPivotOffset@gCProjectile2_PS@@QEBAAEBMXZ
?GetPivotStuckOffset@gCProjectile2_PS@@QEBAAEBMXZ
?GetPlainDescription@gCItem_PS@@QEBA?AVbCUnicodeString@@XZ
?GetPlainFocusName@gCInteraction_PS@@QEBA?AVbCUnicodeString@@XZ
?GetPlayer@gCInfo@@SAPEAVeCDynamicEntity@@XZ
?GetPlayer@gCSession@@QEBAPEAVeCDynamicEntity@@XZ
?GetPlayerCameraName@gCWorld@@SA?AVbCString@@XZ
?GetPlayerHasCheated@gCSessionInfo@@QEBAAEB_NXZ
?GetPlayerHoldScript@gCCombatMoveParade@@QEBAAEBVeCScriptProxyScript@@XZ
?GetPlayerKnows@gCInfoConditionPlayerKnows@@QEBAAEBVbCString@@XZ
?GetPlayerName@gCWorld@@SA?AVbCString@@XZ
?GetPlayerNotKnows@gCInfoConditionPlayerNotKnows@@QEBAAEBVbCString@@XZ
?GetPlayerOnly@gCEffectCommandSequence2@@QEBAAEB_NXZ
?GetPlayerRotationLimit@gCCombatMoveMelee@@QEBAAEBVbCVector2@@XZ
?GetPlayerWeaponTimestamp@gCNPC_PS@@QEBAAEBMXZ
?GetPoint@gCNavPath_PS@@QEBAAEBV?$bTValArray@VbCVector@@@@XZ
?GetPoint@gCNavZone_PS@@QEBAAEBV?$bTValArray@VbCVector@@@@XZ
?GetPoint@gCNegZone_PS@@QEBAAEBV?$bTValArray@VbCVector@@@@XZ
?GetPoint@gCPrefPath_PS@@QEBAAEBV?$bTValArray@VbCVector@@@@XZ
?GetPointRadius@gCPrefPath_PS@@QEBAAEBV?$bTValArray@M@@XZ
?GetPointRadius@gCPrefPath_PSObj@@QEBAAEBV?$bTValArray@M@@XZ
?GetPose@gCCombatStyleAniPose@@QEBAAEBV?$bTPropertyContainer@W4gECombatPose@@@@XZ
?GetPosition@gCCharacterSensor@@QEBA?AVbCVector@@XZ
?GetPosition@gCEffectCommandPlaySound@@IEBAXAEAVbCVector@@AEAUgSEffectCommandInstance@@@Z
?GetPositionXOffsetOfCurrentAni@gCCharacterMovement_PS@@IEAAMXZ
?GetPositionYOffsetOfCurrentAni@gCCharacterMovement_PS@@IEAAMXZ
?GetPositionZOffsetOfCurrentAni@gCCharacterMovement_PS@@IEAAMXZ
?GetPostInteractScript@gCInteraction@@QEBAAEBVeCScriptProxyScript@@XZ
?GetPreInteractScript@gCInteraction@@QEBAAEBVgCScriptProxyAIFunction@@XZ
?GetPrecision@gCCombatAIRanged@@QEBAAEBMXZ
?GetPredictedDistanceByTime@gCCharacterMovement_PS@@QEAAMMPEAVbCVector@@@Z
?GetPrefPathPSObjectsInArea@gCNavigationAdmin@@QEAA?AW4bEResult@@VbCVector@@MAEAV?$bTPtrArray@PEAVgCPrefPath_PSObj@@@@@Z
?GetPrefPathPSObjectsInArea@gCNavigationMap@@QEAA?AW4bEResult@@VbCVector@@MAEAV?$bTPtrArray@PEAVgCPrefPath_PSObj@@@@@Z
?GetPreferredPathPSObject@gCNavigation_PS@@QEBAPEAVgCPrefPath_PSObj@@XZ
?GetPrefix@gCBookLocString@@UEBA?AVbCString@@XZ
?GetPrefix@gCInfoLocString@@UEBA?AVbCString@@XZ
?GetPrefix@gCLetterLocString@@UEBA?AVbCString@@XZ
?GetPrefix@gCMapLocString@@UEBA?AVbCString@@XZ
?GetPrefix@gCNPCInfoLocString@@UEBA?AVbCString@@XZ
?GetPrefix@gCQuestLocString@@UEBA?AVbCString@@XZ
?GetPrimaryEquipSlot@gCInventorySlot@@QEBA?AW4gEEquipSlot@@XZ
?GetPriority@gCMap_PS@@QEBAAEBKXZ
?GetProbAttack@gCCombatAIMelee@@QEBAAEBMXZ
?GetProbAttack@gCCombatAIRanged@@QEBAAEBMXZ
?GetProbAttackSec@gCCombatAIMelee@@QEBAAEBMXZ
?GetProbComboAttack@gCCombatAIMelee@@QEBAAEBMXZ
?GetProbComboAttack@gCCombatAIRanged@@QEBAAEBMXZ
?GetProbCounterAttack@gCCombatAIMelee@@QEBAAEBMXZ
?GetProbCounterParade@gCCombatAIMelee@@QEBAAEBMXZ
?GetProbHoldDistance@gCCombatAIMelee@@QEBAAEBMXZ
?GetProbHoldDistance@gCCombatAIRanged@@QEBAAEBMXZ
?GetProbMistake@gCCombatAIMelee@@QEBAAEBMXZ
?GetProbParade@gCCombatAIMelee@@QEBAAEBMXZ
?GetProbRestlessly@gCCombatAIMelee@@QEBAAEBMXZ
?GetProbRestlessly@gCCombatAIRanged@@QEBAAEBMXZ
?GetProbStormAttack@gCCombatAIMelee@@QEBAAEBMXZ
?GetProbStrafe@gCCombatAIMelee@@QEBAAEBMXZ
?GetProbWait@gCCombatAIMelee@@QEBAAEBMXZ
?GetProbWait@gCCombatAIRanged@@QEBAAEBMXZ
?GetProcessScript@gCEffectCommandRunScript@@QEBAAEBVeCScriptProxyScript@@XZ
?GetProcessScript@gCStateGraphActionCallScript@@QEBAAEBVeCScriptProxyScript@@XZ
?GetProfileLastTicksFirst@gCNavigationAdmin@@UEBA?BKXZ
?GetProfileLastTicksFirst@gCScriptAdmin@@UEBA?BKXZ
?GetProfileLastTicksSecond@gCNavigationAdmin@@UEBA?BKXZ
?GetProject@gCWorkspace@@QEAAPEAVgCProject@@AEBVbCString@@@Z
?GetProject@gCWorkspace@@QEBAPEBVgCProject@@AEBVbCString@@@Z
?GetProject@gCWorld@@QEAAAEAVgCProject@@XZ
?GetProject@gCWorld@@QEBAAEBVgCProject@@XZ
?GetProjectile@gCCombatMoveShoot@@QEBAAEBVeCTemplateEntityProxy@@XZ
?GetProperty@gCAchievementAdmin@@QEBA_NKAEAJ@Z
?GetProperty@gCAchievementAdmin@@QEBA_NKAEAM@Z
?GetProperty@gCAchievementAdmin@@QEBA_NKAEAN@Z
?GetProperty@gCAchievementAdmin@@QEBA_NKAEA_J@Z
?GetProperty@gCEffectCommandModifyEntity@@QEBAAEBVbCString@@XZ
?GetPropertyCount@gCAchievementAdmin@@QEBAKXZ
?GetPropertyIDFromString@gCQuest@@IEBAAEBVbCPropertyID@@AEBVbCString@@@Z
?GetPropertySet@gCEffectCommandModifyEntity@@QEBAAEBV?$bTPropertyContainer@W4eEPropertySetType@@@@XZ
?GetPropertySetMemberCount@gCDummyCollectorAdmin@@QEBAKW4eEPropertySetType@@AEAVeCDynamicEntity@@@Z
?GetPropertySetMemberCount@gCDummyCollectorPSet_Base@@UEBAKAEAVeCDynamicEntity@@@Z
?GetPropertySetType@gCAIHelper_FreePoint_PS@@UEBA?AW4eEPropertySetType@@XZ
?GetPropertySetType@gCAIHelper_Label_PS@@UEBA?AW4eEPropertySetType@@XZ
?GetPropertySetType@gCAIZone_PS@@UEBA?AW4eEPropertySetType@@XZ
?GetPropertySetType@gCAnchor_PS@@UEBA?AW4eEPropertySetType@@XZ
?GetPropertySetType@gCArena_PS@@UEBA?AW4eEPropertySetType@@XZ
?GetPropertySetType@gCBook_PS@@UEBA?AW4eEPropertySetType@@XZ
?GetPropertySetType@gCCastInfo_PS@@UEBA?AW4eEPropertySetType@@XZ
?GetPropertySetType@gCCharacterMovement_PS@@UEBA?AW4eEPropertySetType@@XZ
?GetPropertySetType@gCClock_PS@@UEBA?AW4eEPropertySetType@@XZ
?GetPropertySetType@gCCollisionCircle_PS@@UEBA?AW4eEPropertySetType@@XZ
?GetPropertySetType@gCCombatSystem_PS@@UEBA?AW4eEPropertySetType@@XZ
?GetPropertySetType@gCDamage_PS@@UEBA?AW4eEPropertySetType@@XZ
?GetPropertySetType@gCDialog_PS@@UEBA?AW4eEPropertySetType@@XZ
?GetPropertySetType@gCDoor_PS@@UEBA?AW4eEPropertySetType@@XZ
?GetPropertySetType@gCDummyCollectorAnchor@@UEBA?AW4eEPropertySetType@@XZ
?GetPropertySetType@gCDummyCollectorCollisionCircle@@UEBA?AW4eEPropertySetType@@XZ
?GetPropertySetType@gCDummyCollectorDoor@@UEBA?AW4eEPropertySetType@@XZ
?GetPropertySetType@gCDummyCollectorDynamicCollisionCircle@@UEBA?AW4eEPropertySetType@@XZ
?GetPropertySetType@gCDummyCollectorFreepoint@@UEBA?AW4eEPropertySetType@@XZ
?GetPropertySetType@gCDummyCollectorNavOffset@@UEBA?AW4eEPropertySetType@@XZ
?GetPropertySetType@gCDummyCollectorNavPath@@UEBA?AW4eEPropertySetType@@XZ
?GetPropertySetType@gCDummyCollectorNavZone@@UEBA?AW4eEPropertySetType@@XZ
?GetPropertySetType@gCDummyCollectorNegZone@@UEBA?AW4eEPropertySetType@@XZ
?GetPropertySetType@gCDummyCollectorPrefPath@@UEBA?AW4eEPropertySetType@@XZ
?GetPropertySetType@gCDummyVisualBase_PS@@UEBA?AW4eEPropertySetType@@XZ
?GetPropertySetType@gCDynamicCollisionCircle_PS@@UEBA?AW4eEPropertySetType@@XZ
?GetPropertySetType@gCEffect_PS@@UEBA?AW4eEPropertySetType@@XZ
?GetPropertySetType@gCGameScript_PS@@UEBA?AW4eEPropertySetType@@XZ
?GetPropertySetType@gCInteraction_PS@@UEBA?AW4eEPropertySetType@@XZ
?GetPropertySetType@gCInventory_PS@@UEBA?AW4eEPropertySetType@@XZ
?GetPropertySetType@gCItem_PS@@UEBA?AW4eEPropertySetType@@XZ
?GetPropertySetType@gCLetter_PS@@UEBA?AW4eEPropertySetType@@XZ
?GetPropertySetType@gCLock_PS@@UEBA?AW4eEPropertySetType@@XZ
?GetPropertySetType@gCMapInfo_PS@@UEBA?AW4eEPropertySetType@@XZ
?GetPropertySetType@gCMap_PS@@UEBA?AW4eEPropertySetType@@XZ
?GetPropertySetType@gCNPC_PS@@UEBA?AW4eEPropertySetType@@XZ
?GetPropertySetType@gCNavHelper_PS@@UEBA?AW4eEPropertySetType@@XZ
?GetPropertySetType@gCNavOffset_PS@@UEBA?AW4eEPropertySetType@@XZ
?GetPropertySetType@gCNavPath_PS@@UEBA?AW4eEPropertySetType@@XZ
?GetPropertySetType@gCNavZone_PS@@UEBA?AW4eEPropertySetType@@XZ
?GetPropertySetType@gCNavigation_PS@@UEBA?AW4eEPropertySetType@@XZ
?GetPropertySetType@gCNegZone_PS@@UEBA?AW4eEPropertySetType@@XZ
?GetPropertySetType@gCParty_PS@@UEBA?AW4eEPropertySetType@@XZ
?GetPropertySetType@gCPrefPath_PS@@UEBA?AW4eEPropertySetType@@XZ
?GetPropertySetType@gCProjectile2_PS@@UEBA?AW4eEPropertySetType@@XZ
?GetPropertySetType@gCRecipe_PS@@UEBA?AW4eEPropertySetType@@XZ
?GetPropertySetType@gCScriptRoutine_PS@@UEBA?AW4eEPropertySetType@@XZ
?GetPropertySetType@gCSectorPersistence_PS@@UEBA?AW4eEPropertySetType@@XZ
?GetPropertySetType@gCSkills_PS@@UEBA?AW4eEPropertySetType@@XZ
?GetPropertySetType@gCStateGraph_PS@@UEBA?AW4eEPropertySetType@@XZ
?GetPropertySetType@gCWaterZone_PS@@UEBA?AW4eEPropertySetType@@XZ
?GetPropertyType@gCAchievementAdmin@@QEBA?AW4gEPropertyType@@K@Z
?GetPurchaseAmount@gCInventory_PS@@SAMPEBVeCEntity@@@Z
?GetPurchaseModifier@gCDialog_PS@@QEBAAEBMXZ
?GetQuadrupedSlopeInertia@gCCharacterMovement_PS@@QEBAAEBMXZ
?GetQuest@gCInfo@@QEBAAEBVbCString@@XZ
?GetQuest@gCInfoConditionQuestStatus@@QEBAAEBVbCString@@XZ
?GetQuest@gCQuestManager@@QEAAPEAVgCQuest@@AEBVbCString@@@Z
?GetQuest@gCQuestManager@@QEBAPEBVgCQuest@@AEBVbCString@@@Z
?GetQuestAt@gCQuestManager@@QEAAPEAVgCQuest@@H@Z
?GetQuestAt@gCQuestManager@@QEBAPEBVgCQuest@@H@Z
?GetQuestCount@gCQuestManager@@QEBAHW4gEQuestType@@@Z
?GetQuestCount@gCQuestManager@@QEBAHXZ
?GetQuestCount_Succeeded@gCQuestManager@@QEBAHXZ
?GetQuestManager@gCInfoSystem@@QEAAPEAVgCQuestManager@@XZ
?GetQuestManager@gCInfoSystem@@QEBAPEBVgCQuestManager@@XZ
?GetQuestManager@gCQuest@@IEAAPEAVgCQuestManager@@XZ
?GetQuestManager@gCQuest@@IEBAPEBVgCQuestManager@@XZ
?GetQuestManager@gCRuntimeInfo@@QEAAPEAVgCQuestManager@@XZ
?GetQuestManager@gCRuntimeInfo@@QEBAPEBVgCQuestManager@@XZ
?GetQuestName@gCInfoCommandAddLogText@@QEBAAEBVbCString@@XZ
?GetQuestName@gCInfoCommandAddQuestActor@@QEBAAEBVbCString@@XZ
?GetQuestName@gCInfoCommandCloseQuest@@QEBAAEBVbCString@@XZ
?GetQuestName@gCInfoCommandRemoveQuestActor@@QEBAAEBVbCString@@XZ
?GetQuestName@gCInfoCommandRunQuest@@QEBAAEBVbCString@@XZ
?GetQuestName@gCInfoCommandSucceedQuest@@QEBAAEBVbCString@@XZ
?GetQuestName@gCQuestLogFrame2@@QEBA?AVbCString@@XZ
?GetQuestProgress@gCQuest@@QEBAHPEAH0@Z
?GetQuickSlot@gCInventoryStack@@QEBAAEBHXZ
?GetRadius@gCCollisionCircle_PS@@QEBAAEBV?$bTValArray@M@@XZ
?GetRadius@gCCollisionCircle_PSObj@@QEBAAEBV?$bTValArray@M@@XZ
?GetRadius@gCDynamicCollisionCircle_PS@@QEBAAEBMXZ
?GetRadius@gCNavPath_PS@@QEBAAEBV?$bTValArray@M@@XZ
?GetRadius@gCNavZone_PS@@QEBAAEBMXZ
?GetRadius@gCNegZone_PS@@QEBAAEBMXZ
?GetRadius@gCNegZone_PSObj@@QEBAAEBMXZ
?GetRadius@gCPrefPath_PS@@QEBAAEBMXZ
?GetRadius@gCPrefPath_PSObj@@QEBAAEBMXZ
?GetRadiusOffset@gCNavZone_PS@@QEBAAEBVbCVector@@XZ
?GetRadiusOffset@gCNegZone_PS@@QEBAAEBVbCVector@@XZ
?GetRadiusOffset@gCPrefPath_PS@@QEBAAEBVbCVector@@XZ
?GetRadiusOffset@gCWaterSubZone_PS@@QEBAAEBVbCVector@@XZ
?GetRaiseDuration@gCCombatMoveAim@@QEBAAEBVbCRange1@@XZ
?GetRandomNavigationPoint@gCNavigationAdmin@@QEAA?AVbCVector@@AEBVeCEntity@@AEBV2@M@Z
?GetRange@gCEffectCommandKillEntityRange@@QEBAAEBV?$bTPropertyContainer@W4gEEffectKillRange@@@@XZ
?GetRansacked@gCNPC_PS@@QEBAAEB_NXZ
?GetRawAnimationPath@gCGameApp@@UEBA?AVbCString@@XZ
?GetRawEffectsPath@gCDatabase@@SA?AVbCString@@XZ
?GetRawExt@gCCombatSpecies@@UEBA?AVbCString@@XZ
?GetRawExt@gCEffectCommandSequence2@@UEBA?AVbCString@@XZ
?GetRawExt@gCHudDialog2@@UEBA?AVbCString@@XZ
?GetRawExt@gCHudPage2@@UEBA?AVbCString@@XZ
?GetRawExt@gCHudPopUp2@@UEBA?AVbCString@@XZ
?GetRawExt@gCInfo@@UEBA?AVbCString@@XZ
?GetRawExt@gCQuest@@UEBA?AVbCString@@XZ
?GetRawExt@gCTutorialEvent@@UEBA?AVbCString@@XZ
?GetRawExt@gCTutorialHintCollection@@UEBA?AVbCString@@XZ
?GetRawFileExtension@gCCombatSpecies@@SAAEBVbCString@@XZ
?GetRawFileExtension@gCInfo@@SA?AVbCString@@XZ
?GetRawFileExtension@gCQuest@@SA?AVbCString@@XZ
?GetRawInfosPath@gCDatabase@@SA?AVbCString@@XZ
?GetRawPath@gCCombatSpecies@@UEBA?AVbCString@@XZ
?GetRawPath@gCEffectCommandSequence2@@UEBA?AVbCString@@XZ
?GetRawPath@gCHudDialog2@@UEBA?AVbCString@@XZ
?GetRawPath@gCHudPage2@@UEBA?AVbCString@@XZ
?GetRawPath@gCHudPopUp2@@UEBA?AVbCString@@XZ
?GetRawPath@gCInfo@@UEBA?AVbCString@@XZ
?GetRawPath@gCQuest@@UEBA?AVbCString@@XZ
?GetRawPath@gCTutorialEvent@@UEBA?AVbCString@@XZ
?GetRawPath@gCTutorialHintCollection@@UEBA?AVbCString@@XZ
?GetRawProjectsPath@gCDatabase@@SA?AVbCString@@XZ
?GetRawQuestsPath@gCDatabase@@SA?AVbCString@@XZ
?GetRawSoundPath@gCDatabase@@SA?AVbCString@@XZ
?GetRawSoundPath@gCGameApp@@UEBA?AVbCString@@XZ
?GetRawStringsPath@gCDatabase@@SA?AVbCString@@XZ
?GetReachedTargetEntityProxy@gCNavigation_PS@@QEBAAEBVeCEntityProxy@@XZ
?GetReason@gCInfoCommandAttack@@QEBAAEBVbCString@@XZ
?GetReason@gCNPC_PS@@QEBAAEBV?$bTPropertyContainer@W4gEReason@@@@XZ
?GetReferencedEntitiesCount@gCDummyCollectorEntity@@UEBAKXZ
?GetReferencedEntitiesCount@gCDummyCollectorPSet_Base@@UEBAKXZ
?GetReferencedEntityAt@gCDummyCollectorEntity@@UEBAPEAVeCDynamicEntity@@K@Z
?GetReferencedEntityAt@gCDummyCollectorPSet_Base@@UEBAPEAVeCDynamicEntity@@K@Z
?GetRefreshRate@gCHudResolutionManager2@@QEAAKHH@Z
?GetRegIndex@gCCollisionCircle_PSObj@@QEBAHXZ
?GetRegIndex@gCNegZone_PSObj@@QEBAHXZ
?GetRegIndex@gCPrefPath_PSObj@@QEBAHXZ
?GetRelaxedAnimationFile@gCCombatMoveAim@@QEBAAEBVbCString@@XZ
?GetReload@gCCombatStyleRanged@@QEBAAEBVbCString@@XZ
?GetReloadAnimationFile@gCCombatMoveReload@@QEBAAEBVbCString@@XZ
?GetReloadDuration@gCCombatMoveReload@@QEBAAEBVbCRange1@@XZ
?GetRenderDebug@gCStateGraph_PS@@SA_NXZ
?GetRenderEntityNames@gCGUIEntityRenderer@@QEBA_NXZ
?GetRepeatProbability@gCEffect_PS@@QEBAAEBVbCRange1@@XZ
?GetRequiredSkill@gCCombatStyleWeaponConfig@@QEBAAEBVgCSkillValue@@XZ
?GetRequiredSkills@gCItem_PS@@QEBAAEBV?$bTObjArray@VgCSkillValue@@@@XZ
?GetRequiredSkills@gCRecipe_PS@@QEBAAEBV?$bTObjArray@VgCSkillValue@@@@XZ
?GetResetWanted@gCNavigation_PS@@QEAA_NXZ
?GetResolution@gCHudResolutionManager2@@QEAA?AVbCPoint@@H@Z
?GetRestorePlayerCombatMode@gCSession@@QEBA?AW4gECombatMode@@XZ
?GetResultAmount@gCRecipe_PS@@QEBAAEBKXZ
?GetResultItem@gCRecipe_PS@@QEBAAEBVeCTemplateEntityProxy@@XZ
?GetResultingAniState@gCCombatMoveStumble@@QEBAAEBV?$bTPropertyContainer@W4gEAniState@@@@XZ
?GetRetroQuestMessageSystemActivated@gCQuestManager@@QEBA_NXZ
?GetRightFistItem@gCCombatSpecies@@QEBAAEBVeCTemplateEntityProxy@@XZ
?GetRightText@gCBook_PS@@QEBAAEBVgCBookLocString@@XZ
?GetRightUseType@gCCombatWeaponConfig@@QEBAAEBV?$bTPropertyContainer@W4gEItemUseType@@@@XZ
?GetRigidBodyVelocity@gCCharacterMovement_PS@@QEBA?AVbCVector@@XZ
?GetRoleDescription@gCNPC_PS@@QEBAAEBVbCString@@XZ
?GetRollOffPreset@gCEffectCommandPlaySound@@QEBAAEBVbCString@@XZ
?GetRollOffPreset@gCEffectCommandPlayVoice@@QEBAAEBVbCString@@XZ
?GetRoomChangedScript@gCInteraction_PS@@QEBAAEBVeCScriptProxyScript@@XZ
?GetRootPath@gCDatabase@@SA?AVbCString@@XZ
?GetRotationAcceleration@gCInfoCommandStartFixCamera@@QEBAAEBMXZ
?GetRotationDecceleration@gCInfoCommandStartFixCamera@@QEBAAEBMXZ
?GetRotationSpeedMax@gCInfoCommandStartFixCamera@@QEBAAEBMXZ
?GetRoutine@gCNavigation_PS@@QEBAAEBVbCString@@XZ
?GetRoutine@gCScriptRoutine_PS@@QEBAAEBVeCScriptProxyScript@@XZ
?GetRoutineChanged@gCScriptRoutine_PS@@QEBAAEB_NXZ
?GetRoutineName@gCInfoCommandSetRoutine@@QEBAAEBVbCString@@XZ
?GetRoutineTask@gCInteraction_PS@@QEBAAEBVgCScriptProxyAIState@@XZ
?GetRoutines@gCNavigation_PS@@QEBAAEBV?$bTObjArray@UgSRoutine@gCNavigation_PS@@@@XZ
?GetRunningEffects@gCEffectSystem@@QEBAAEBV?$bTValArray@PEAVgCEffect@@@@XZ
?GetRunningInfos@gCInfoSystem@@QEBAAEBV?$bTValArray@PEAVgCRuntimeInfo@@@@XZ
?GetRunningQuestScript@gCQuest@@QEBAAEBVeCScriptProxyScript@@XZ
?GetRunningTimeDays@gCQuest@@QEBAAEBKXZ
?GetRunningTimeHours@gCQuest@@QEBAAEBKXZ
?GetRunningTimeYears@gCQuest@@QEBAAEBKXZ
?GetRuntimeID@gCInventoryStack@@QEBAHXZ
?GetSPU@gCScriptRoutine_PS@@QEAAAEAVgCScriptProcessingUnit@@XZ
?GetSVMID@gCEffectCommandSaySVM@@QEBAAEBVbCString@@XZ
?GetSVMID@gCInfoCommandPickPocket@@QEBAAEBVbCString@@XZ
?GetSVMID@gCInfoCommandSaySVM@@QEBAAEBVbCString@@XZ
?GetSVMText@gCInfoCommandPickPocket@@QEBAAEBVgCInfoLocString@@XZ
?GetSaleAmount@gCInventory_PS@@QEBAMPEBVeCEntity@@@Z
?GetSaleModifier@gCDialog_PS@@QEBAAEBMXZ
?GetSample@gCEffectCommandPlayVoice@@QEBAAEBVbCString@@XZ
?GetSaveGame@gCHUDFileManager@@QEBAAEBVgCSaveGame@@AEBVbCString@@@Z
?GetSaveGame@gCHUDFileManager@@QEBA_NAEBVbCString@@AEAVgCSaveGame@@@Z
?GetSaveGameCount@gCHUDFileManager@@QEBAHXZ
?GetSaveGameDate@gCHUDFileManager@@QEBA?AVbCString@@AEBV2@@Z
?GetSaveGameDateShort@gCHUDFileManager@@QEBA?AVbCString@@AEBV2@@Z
?GetSaveGameDateW@gCHUDFileManager@@QEBA?AVbCUnicodeString@@AEBVbCString@@@Z
?GetSaveGameFileName@gCHUDFileManager@@QEBA?AVbCString@@H@Z
?GetSaveGameFileName@gCHUDFileManager@@QEBA_NAEBVbCUnicodeString@@AEAVbCString@@@Z
?GetSaveGameLocation@gCHUDFileManager@@QEBA?AVbCUnicodeString@@AEBVbCString@@@Z
?GetSaveGameName@gCHUDFileManager@@QEBA?AVbCUnicodeString@@AEBVbCString@@@Z
?GetSaveGameNames@gCSaveGameManager@@QEAAXAEAV?$bTObjArray@VbCString@@@@@Z
?GetSaveGamePath@gCDatabase@@SA?AVbCString@@XZ
?GetSaveGamePlayTime@gCHUDFileManager@@QEBA?AVbCUnicodeString@@AEBVbCString@@@Z
?GetSaveGameRelevance@gCAIZone_PS@@UEBA?AW4eEPSSaveGameRelevance@eCEntityPropertySet@@XZ
?GetSaveGameRelevance@gCAnchor_PS@@UEBA?AW4eEPSSaveGameRelevance@eCEntityPropertySet@@XZ
?GetSaveGameRelevance@gCArena_PS@@UEBA?AW4eEPSSaveGameRelevance@eCEntityPropertySet@@XZ
?GetSaveGameRelevance@gCClock_PS@@UEBA?AW4eEPSSaveGameRelevance@eCEntityPropertySet@@XZ
?GetSaveGameRelevance@gCDialog_PS@@UEBA?AW4eEPSSaveGameRelevance@eCEntityPropertySet@@XZ
?GetSaveGameRelevance@gCDoor_PS@@UEBA?AW4eEPSSaveGameRelevance@eCEntityPropertySet@@XZ
?GetSaveGameRelevance@gCEffect_PS@@UEBA?AW4eEPSSaveGameRelevance@eCEntityPropertySet@@XZ
?GetSaveGameRelevance@gCGameScript_PS@@UEBA?AW4eEPSSaveGameRelevance@eCEntityPropertySet@@XZ
?GetSaveGameRelevance@gCInteraction_PS@@UEBA?AW4eEPSSaveGameRelevance@eCEntityPropertySet@@XZ
?GetSaveGameRelevance@gCInventory_PS@@UEBA?AW4eEPSSaveGameRelevance@eCEntityPropertySet@@XZ
?GetSaveGameRelevance@gCItem_PS@@UEBA?AW4eEPSSaveGameRelevance@eCEntityPropertySet@@XZ
?GetSaveGameRelevance@gCLock_PS@@UEBA?AW4eEPSSaveGameRelevance@eCEntityPropertySet@@XZ
?GetSaveGameRelevance@gCNPC_PS@@UEBA?AW4eEPSSaveGameRelevance@eCEntityPropertySet@@XZ
?GetSaveGameRelevance@gCNavigation_PS@@UEBA?AW4eEPSSaveGameRelevance@eCEntityPropertySet@@XZ
?GetSaveGameRelevance@gCParty_PS@@UEBA?AW4eEPSSaveGameRelevance@eCEntityPropertySet@@XZ
?GetSaveGameRelevance@gCScriptRoutine_PS@@UEBA?AW4eEPSSaveGameRelevance@eCEntityPropertySet@@XZ
?GetSaveGameRelevance@gCSectorPersistence_PS@@UEBA?AW4eEPSSaveGameRelevance@eCEntityPropertySet@@XZ
?GetSaveGameRelevance@gCSkills_PS@@UEBA?AW4eEPSSaveGameRelevance@eCEntityPropertySet@@XZ
?GetSaveGameRelevance@gCStateGraph_PS@@UEBA?AW4eEPSSaveGameRelevance@eCEntityPropertySet@@XZ
?GetSaveGameRelevant@gCSector@@QEBAAEB_NXZ
?GetSaveGameTime@gCHUDFileManager@@QEBA?AVbCString@@AEBV2@@Z
?GetSaveGames@gCHUDFileManager@@IEBA_NAEAV?$bTObjArray@VbCString@@@@@Z
?GetScanCode@gCActionAdmin@@SA?AW4eEScanCode@@W4gEActionKey@@E@Z
?GetScanCodeDescription@gCActionAdmin@@SA?AVbCUnicodeString@@W4eEScanCode@@@Z
?GetScript@gCInfoCommandAddInfoSystemEndScript@@QEBAAEBVeCScriptProxyScript@@XZ
?GetScript@gCInfoCommandRunScript@@QEBAAEBVeCScriptProxyScript@@XZ
?GetScript@gCScriptAdmin@@QEBAPEBUgSScript@@AEBVbCString@@@Z
?GetScript@gCStateGraphEventFilterScript@@QEBAAEBVeCScriptProxyScript@@XZ
?GetScriptAICallback@gCScriptAdmin@@QEBAPEBUgSScriptAICallback@@AEBVbCString@@@Z
?GetScriptAIFunction@gCScriptAdmin@@QEBAPEBUgSScriptAIFunction@@AEBVbCString@@@Z
?GetScriptAIState@gCScriptAdmin@@QEBAPEBUgSScriptAIState@@AEBVbCString@@@Z
?GetScriptAutoLoading@gCGameApp@@QEBA?B_NXZ
?GetScriptFolder@gCGameApp@@QEBAAEBVbCString@@XZ
?GetScriptGameAt@gCScriptAdmin@@QEBAPEBUgSScriptForGame@@H@Z
?GetScriptGameCount@gCScriptAdmin@@QEBAHXZ
?GetScriptName@gCInfoConditionScript@@QEBAAEBVbCString@@XZ
?GetSecond@gCClock_PS@@QEBAAEBKXZ
?GetSecondaryNPC@gCInfoConditionNPCStatus@@QEBAAEBVeCEntityStringProxy@@XZ
?GetSecondaryNPCStatus@gCInfoConditionNPCStatus@@QEBAAEBV?$bTPropertyContainer@W4gEInfoNPCStatus@@@@XZ
?GetSecondsBetweenRepeats@gCEffect_PS@@QEBAAEBVbCRange1@@XZ
?GetSecondsPlayed@gCClock_PS@@QEBAAEBKXZ
?GetSecretDesc@gCAchievementAdmin@@QEBAAEBVeCLocString@@XZ
?GetSecretName@gCAchievementAdmin@@QEBAAEBVeCLocString@@XZ
?GetSector@gCLayerBase@@QEAAAEAVgCSector@@XZ
?GetSector@gCLayerBase@@QEBAAEBVgCSector@@XZ
?GetSector@gCWorld@@QEAAPEAVgCSector@@AEBVbCString@@@Z
?GetSector@gCWorld@@QEBAPEBVgCSector@@AEBVbCString@@@Z
?GetSectorAt@gCWorld@@QEAAPEAVgCSector@@H@Z
?GetSectorAt@gCWorld@@QEBAPEBVgCSector@@H@Z
?GetSectorCount@gCWorld@@QEBAHXZ
?GetSectorEnabled@gCInfoCommandSetSectorStatus@@QEBAAEB_NXZ
?GetSectorForEntity@gCWorld@@SAPEAVgCSector@@PEBVeCEntity@@@Z
?GetSectorIndex@gCWorld@@QEBAHAEBVbCString@@@Z
?GetSectorName@gCInfoCommandSetSectorStatus@@QEBAAEBVbCString@@XZ
?GetSecurityLevelFunc@gCAIZone_PS@@QEBAAEBVeCScriptProxyScript@@XZ
?GetSelectLimit@gCInventoryStack@@QEBAHXZ
?GetSelectLimit@gCInventory_PS@@QEBAHH@Z
?GetSelectRemain@gCInventoryStack@@QEBAHXZ
?GetSelectRemain@gCInventory_PS@@QEBAHH@Z
?GetSelectedFOV@gCHudResolutionManager2@@QEAAMXZ
?GetSelectedItemPosition@gCInventoryList@@QEAA?AUtagPOINT@@XZ
?GetSelectedRefreshRate@gCHudResolutionManager2@@QEAAHXZ
?GetSelectedResolution@gCHudResolutionManager2@@QEAAHXZ
?GetSelectedVsync@gCHudResolutionManager2@@QEAA_NXZ
?GetSelection@gCInventoryStack@@QEBAHXZ
?GetSelection@gCInventory_PS@@QEBAHH@Z
?GetSelectionStack@gCInventoryList@@QEAAHXZ
?GetSelf@gCInfoCommandAddInfoSystemEndScript@@QEBAAEBVbCString@@XZ
?GetSelf@gCInfoCommandRunAIScript@@QEBAAEBVbCString@@XZ
?GetSelf@gCInfoCommandRunScript@@QEBAAEBVbCString@@XZ
?GetSelf@gCInfoConditionScript@@QEBAAEBVbCString@@XZ
?GetSelfEntity@gCScriptProcessingUnit@@QEAAPEAVeCGeometryEntity@@XZ
?GetSender@gCBaseDropData@@QEBAPEAVeCGuiWindow2@@XZ
?GetSensor@gCCharacterMovement_PS@@QEBAPEAVgCCharacterSensor@@XZ
?GetSensorAdvanceDuration@gCCharacterMovement_PS@@QEBAAEBMXZ
?GetSensorAffectsDirection@gCCharacterMovement_PS@@QEBAAEB_NXZ
?GetSensorInertia@gCCharacterMovement_PS@@QEBAAEBMXZ
?GetSensorMinSlideAngle@gCCharacterMovement_PS@@QEBAAEBMXZ
?GetSessionInfo@gCSession@@QEBAAEBVgCSessionInfo@@XZ
?GetShootDuration@gCCombatMoveShoot@@QEBAAEBVbCRange1@@XZ
?GetShootEffect@gCProjectile2_PS@@QEBAAEBVbCString@@XZ
?GetShootPoint@gCCombatMoveShoot@@QEBAAEBMXZ
?GetShootScript@gCProjectile2_PS@@QEBAAEBVeCScriptProxyScript@@XZ
?GetShooter@gCProjectile2_PS@@QEAAPEAVeCEntity@@XZ
?GetShooter@gCProjectile2_PS@@QEBAPEBVeCEntity@@XZ
?GetShortcutIndex@gCShortcutDropData@@QEBAHXZ
?GetShotPower@gCCombatMoveShoot@@QEBAAEBMXZ
?GetShowAlways@gCTutorialEvent@@QEBAAEB_NXZ
?GetShowNavigationPSCollisionHelpers@gCDummyCollectorAdmin@@QEBA_NXZ
?GetShowPropertyset_Attribs@gCDummyCollectorAdmin@@QEBA_NXZ
?GetShowPropertyset_Entities@gCDummyCollectorAdmin@@QEBA_NXZ
?GetShowPropertyset_Types@gCDummyCollectorAdmin@@QEBA_NXZ
?GetShowResultItem@gCBaseDropData@@QEBA_NXZ
?GetShowUnachieved@gCAchievement@@QEBAAEB_NXZ
?GetSilent@gCQuest@@QEBAAEB_NXZ
?GetSituation@gCInfoCommandPlayMusic@@QEBAAEBVbCString@@XZ
?GetSkill@gCSkillValueBase@@QEBAAEBV?$bTPropertyContainer@W4gESkill@@@@XZ
?GetSkillBaseValue@gCSkills_PS@@QEBAJW4gESkill@@@Z
?GetSkillDesc@gCSkills_PS@@SAAEBVeCLocString@@W4gESkill@@@Z
?GetSkillImageTag@gCSkills_PS@@QEBA?AVbCString@@W4gESkill@@@Z
?GetSkillInfo@gCSkills_PS@@QEBAXW4gESkill@@AEAUgSSkillInfo@@@Z
?GetSkillMaxValue@gCSkills_PS@@QEBAJW4gESkill@@@Z
?GetSkillModifyValue@gCSkills_PS@@QEBAJW4gESkill@@@Z
?GetSkillName@gCSkills_PS@@SAAEBVeCLocString@@W4gESkill@@@Z
?GetSkillRequDesc@gCSkills_PS@@SAAEBVeCLocString@@W4gESkill@@@Z
?GetSkillShortName@gCSkills_PS@@SAAEBVeCLocString@@W4gESkill@@@Z
?GetSkillTag@gCSkills_PS@@SAAEBVbCString@@W4gESkill@@@Z
?GetSkillValue@gCInfoConditionSkillValue@@QEBAAEBVgCSkillValue@@XZ
?GetSkillValue@gCSkills_PS@@QEBAJW4gESkill@@@Z
?GetSlaveryEnabled@gCDialog_PS@@QEBAAEB_NXZ
?GetSlaveryEnabled@gCInfoCommandSetSlaveryEnabled@@QEBAAEB_NXZ
?GetSlideDistance@gCCharacterMovement_PS@@QEAAMXZ
?GetSlideSpeed@gCCharacterMovement_PS@@QEBAAEBMXZ
?GetSlideStartedFrontally@gCCharacterMovement_PS@@QEBA_NXZ
?GetSlomoBegin@gCCombatMoveMelee@@QEBAAEBMXZ
?GetSlomoEnd@gCCombatMoveMelee@@QEBAAEBMXZ
?GetSlomoTimeScale@gCCombatMoveMelee@@QEBAAEBMXZ
?GetSlot@gCInventorySlot@@QEBA?AW4gESlot@@XZ
?GetSlot@gCInventorySlot@@SA?AW4gESlot@@W4gEEquipSlot@@@Z
?GetSlot@gCItem_PS@@QEBA?AW4gESlot@@XZ
?GetSlots@gCInteraction_PS@@QEBAAEBV?$bTObjArray@VgCInteractionSlot@@@@XZ
?GetSlowModifier@gCCharacterMovement_PS@@QEBAAEBMXZ
?GetSneakModifier@gCCharacterMovement_PS@@QEBAAEBMXZ
?GetSniper@gCCombatStyleRanged@@QEBAAEBVbCString@@XZ
?GetSortID@gCInfo@@QEBAAEBKXZ
?GetSortValue@gCItem_PS@@QEBAAEBJXZ
?GetSortValue@gCTutorialEvent@@QEBAAEBKXZ
?GetSoundName@gCInfoCommandSaySound@@QEBAAEBVbCString@@XZ
?GetSourceWindow@gCInventoryDropData@@QEBAPEAVeCGuiWindow2@@XZ
?GetSpatialState@gCCharacterMovement_PS@@QEAAAEAUgSSpatialState@@XZ
?GetSpatialState@gCCharacterMovement_PS@@QEBAAEBUgSSpatialState@@XZ
?GetSpawnedEntities@gCEffect@@QEAAAEAV?$bTObjArray@VeCEntityProxy@@@@XZ
?GetSpawnedEntities@gCEffect@@QEBAAEBV?$bTObjArray@VeCEntityProxy@@@@XZ
?GetSpawnedEntityMap@gCEffect@@QEAAAEAV?$bTObjMap@HVeCEntityProxy@@@@XZ
?GetSpawnedEntityMap@gCEffect@@QEBAAEBV?$bTObjMap@HVeCEntityProxy@@@@XZ
?GetSpeaker@gCInfoCommandPickPocket@@QEBAAEBVbCString@@XZ
?GetSpeaker@gCInfoCommandSay@@QEBAAEBVbCString@@XZ
?GetSpeaker@gCInfoCommandSayConfirm@@QEBAAEBVbCString@@XZ
?GetSpeaker@gCInfoCommandSayHoldingPosition@@QEBAAEBVbCString@@XZ
?GetSpeaker@gCInfoCommandSayKeepItUp@@QEBAAEBVbCString@@XZ
?GetSpeaker@gCInfoCommandSaySVM@@QEBAAEBVbCString@@XZ
?GetSpeaker@gCInfoCommandSaySound@@QEBAAEBVbCString@@XZ
?GetSpeaker@gCInfoCommandThink@@QEBAAEBVbCString@@XZ
?GetSpecialEffect@gCCombatMoveMelee@@QEBAAEBVbCString@@XZ
?GetSpecialEffectBegin@gCCombatMoveMelee@@QEBAAEBMXZ
?GetSpecies@gCCombatAdmin@@QEBAPEAVgCCombatSpecies@@AEBVbCString@@@Z
?GetSpecies@gCCombatSystem_PS@@QEBAPEAVgCCombatSpecies@@XZ
?GetSpecies@gCNPC_PS@@QEBAAEBV?$bTPropertyContainer@W4gESpecies@@@@XZ
?GetSpeciesCount@gCCombatAdmin@@QEBAHXZ
?GetSpeedByMode@gCCharacterMovement_PS@@QEAAMW4gECharMovementMode@@@Z
?GetSpeedFactor@gCCombatMoveAim@@AEAAMPEAVgCCombatSystem_PS@@@Z
?GetSpeedFactor@gCCombatMoveReload@@AEAAMPEAVgCCombatSystem_PS@@@Z
?GetSpeedFactor@gCCombatMoveShoot@@IEAAMPEAVgCCombatSystem_PS@@@Z
?GetSpeedScaledValue@gCCombatMoveAim@@AEAAMPEAVgCCombatSystem_PS@@AEBVbCRange1@@@Z
?GetSpeedScaledValue@gCCombatMoveReload@@AEAAMPEAVgCCombatSystem_PS@@AEBVbCRange1@@@Z
?GetSpeedScaledValue@gCCombatMoveShoot@@IEAAMPEAVgCCombatSystem_PS@@AEBVbCRange1@@@Z
?GetSpeedTreePath@gCDatabase@@SA?AVbCString@@XZ
?GetSpell@gCInteraction_PS@@QEBAAEBVeCTemplateEntityProxy@@XZ
?GetSpell@gCItem_PS@@QEBAAEBVeCTemplateEntityProxy@@XZ
?GetSpellTarget@gCNPC_PS@@QEBAAEBVeCEntityProxy@@XZ
?GetSpinBuddy@gCSpinButton@@QEBAAEBGXZ
?GetSpinSlave@gCSpinButton@@QEBAAEBGXZ
?GetSpinType@gCSpinButton@@QEBAAEBV?$bTPropertyContainer@W4gESpinButtonType@@@@XZ
?GetSpiningSpeed@gCProjectile2_PS@@QEBAAEBVbCVector@@XZ
?GetSquareRadius@gCWaterSubZone_PS@@QEBAAEBMXZ
?GetStack@gCInventoryDropData@@QEBAHXZ
?GetStack@gCInventory_PS@@QEAAPEAVgCInventoryStack@@H@Z
?GetStack@gCInventory_PS@@QEBAPEBVgCInventoryStack@@H@Z
?GetStackCategory@gCInventory_PS@@QEBA?AW4gEItemCategory@@H@Z
?GetStackCount@gCInventory_PS@@QEBAHXZ
?GetStackFromSlot@gCInventory_PS@@QEBAPEAVeCGeometryEntity@@W4gESlot@@@Z
?GetStackGoldValue@gCInventoryStack@@QEBAHXZ
?GetStackID@gCInventory_PS@@QEBAKH@Z
?GetStackIndex@gCBaseDropData@@QEBAHXZ
?GetStackOwner@gCBaseDropData@@QEBA?AVeCEntityProxy@@XZ
?GetStackUseType@gCInventory_PS@@QEBA?AW4gEItemUseType@@H@Z
?GetStageDirection@gCInfoLocString@@QEBA?AVbCUnicodeString@@XZ
?GetStartChapter@gCInfo@@QEBAAEBJXZ
?GetStartChapter@gCQuest@@QEBAAEBJXZ
?GetStartPosition@gCNavigation_PS@@QEBAAEBVbCVector@@XZ
?GetStartScript@gCEffectCommandRunScript@@QEBAAEBVeCScriptProxyScript@@XZ
?GetStartTask@gCCastInfo_PS@@QEBAAEBVbCString@@XZ
?GetStartVelocity@gCProjectile2_PS@@QEBAAEBMXZ
?GetState@gCSession@@QEBAAEBV?$bTPropertyContainer@W4gESession_State@@@@XZ
?GetState@gCStateGraphAction@@QEBAPEAVgCStateGraphState@@XZ
?GetStateAt@gCStateGraph_PS@@QEBAPEAVgCStateGraphState@@H@Z
?GetStateByName@gCStateGraph_PS@@QEBAPEAVgCStateGraphState@@AEBVbCString@@@Z
?GetStateCount@gCStateGraph_PS@@QEBAHXZ
?GetStateIndex@gCStateGraph_PS@@QEBAHAEBVbCString@@@Z
?GetStatePosition@gCScriptRoutine_PS@@QEBAAEBJXZ
?GetStateTime@gCScriptRoutine_PS@@QEBAAEBMXZ
?GetStateTime@gCStateGraphState@@QEBAMXZ
?GetStates@gCStateGraph_PS@@QEBAAEBV?$bTRefPtrArray@PEAVgCStateGraphState@@@@XZ
?GetStatic@gCEffect_PS@@QEBAAEB_NXZ
?GetStatus@gCArena_PS@@QEBAAEBV?$bTPropertyContainer@W4gEArenaStatus@@@@XZ
?GetStatus@gCDoor_PS@@QEBAAEBV?$bTPropertyContainer@W4gEDoorStatus@@@@XZ
?GetStatus@gCLock_PS@@QEBAAEBV?$bTPropertyContainer@W4gELockStatus@@@@XZ
?GetStatus@gCQuest@@QEBAAEBV?$bTPropertyContainer@W4gEQuestStatus@@@@XZ
?GetStatusEffect@gCNPC_PS@@QEAAPEAUgSNPCStatusEffect@@W4gEStatusEffect@@@Z
?GetSteepGroundAngleMax@gCCharacterMovement_PS@@QEBAAEBMXZ
?GetSteepGroundAngleMin@gCCharacterMovement_PS@@QEBAAEBMXZ
?GetStepHeight@gCCharacterMovement_PS@@QEBAAEBMXZ
?GetStopAnimation@gCStateGraphActionPlayAni@@QEBAAEB_NXZ
?GetStopEffect@gCStateGraphActionStartEffect@@QEBAAEB_NXZ
?GetStopMode@gCEffect_PS@@QEBAAEBV?$bTPropertyContainer@W4gEEffectStopMode@@@@XZ
?GetStopScript@gCEffectCommandRunScript@@QEBAAEBVeCScriptProxyScript@@XZ
?GetStormAttack@gCCombatStyleMelee@@QEBAAEBVbCString@@XZ
?GetStrafeAttackLeft@gCCombatStyleMelee@@QEBAAEBVbCString@@XZ
?GetStrafeAttackRight@gCCombatStyleMelee@@QEBAAEBVbCString@@XZ
?GetStrafeLeft@gCCombatSpecies@@QEBAAEBVbCString@@XZ
?GetStrafeRight@gCCombatSpecies@@QEBAAEBVbCString@@XZ
?GetStrafeSpeedMax@gCCharacterMovement_PS@@QEBAAEBMXZ
?GetStretchDuration@gCCombatMoveAim@@QEBAAEBVbCRange1@@XZ
?GetStretchedAnimationFile@gCCombatMoveAim@@QEBAAEBVbCString@@XZ
?GetStumble@gCCombatSpecies@@QEBAAEBVbCString@@XZ
?GetStumbleBack@gCCombatSpecies@@QEBAAEBVbCString@@XZ
?GetStumbleDead@gCCombatSpecies@@QEBAAEBVbCString@@XZ
?GetStumbleDeadBack@gCCombatSpecies@@QEBAAEBVbCString@@XZ
?GetStumbleDown@gCCombatSpecies@@QEBAAEBVbCString@@XZ
?GetStumbleDownBack@gCCombatSpecies@@QEBAAEBVbCString@@XZ
?GetStumbleDuration@gCCombatMoveOverlayStumble@@QEBAAEBMXZ
?GetStumbleDuration@gCCombatMoveStumble@@QEBAAEBMXZ
?GetStumbleHeavy@gCCombatSpecies@@QEBAAEBVbCString@@XZ
?GetStumbleLight@gCCombatSpecies@@QEBAAEBVbCString@@XZ
?GetStumbleOverlay@gCCombatSpecies@@QEBAAEBVbCString@@XZ
?GetStumbleOverlayHeavy@gCCombatSpecies@@QEBAAEBVbCString@@XZ
?GetStumbleOverlayLight@gCCombatSpecies@@QEBAAEBVbCString@@XZ
?GetStumbleReaction@gCCombatMoveMelee@@QEBAAEBV?$bTPropertyContainer@W4gECombatMove@@@@XZ
?GetStyle@gCCombatSpecies@@QEBAPEAVgCCombatStyle@@AEBVbCString@@@Z
?GetStyle@gCCombatSystem_PS@@QEBAPEAVgCCombatStyle@@W4gEItemUseType@@0@Z
?GetStyleAt@gCCombatSpecies@@QEBAPEAVgCCombatStyle@@H@Z
?GetStyleCount@gCCombatSpecies@@QEBAHXZ
?GetStyleIndex@gCCombatSpecies@@QEBAHAEBVbCString@@@Z
?GetStyleIndex@gCCombatSpecies@@QEBAHPEAVgCCombatStyle@@@Z
?GetSubZones@gCWaterZone_PS@@QEBAAEBV?$bTObjArray@VgCWaterSubZone_PS@@@@XZ
?GetSucceededQuestScript@gCQuest@@QEBAAEBVeCScriptProxyScript@@XZ
?GetSvm@gCSvmAdmin@@IEBAPEAVgCSvmItem@@H@Z
?GetSvmCount@gCSvmAdmin@@QEBAHXZ
?GetSvmFilePath@gCSvmAdmin@@QEBA?AVbCString@@XZ
?GetSvmName@gCSvmAdmin@@QEBA?AVbCString@@H@Z
?GetSvmStageDirection@gCSvmAdmin@@QEBA?AVbCUnicodeString@@H@Z
?GetSweepTestGroups@gCCharacterMovement_PS@@SAPEAV?$bTValArray@W4eEShapeGroup@@@@XZ
?GetSweepTestRadius@gCProjectile2_PS@@QEBAAEBMXZ
?GetSystem@gCEffectModule@@QEBAPEAVgCEffectSystem@@XZ
?GetSystem@gCHudModule2@@SAPEAVgCHudSystem2@@XZ
?GetSystem@gCInfoModule@@QEBAPEAVgCInfoSystem@@XZ
?GetSystem@gCMusicModule2@@SAPEAVIFFModuleMusic@@XZ
?GetSystemBase@gCEffectModule@@UEBAPEAVeCEffectSystemBase@@XZ
?GetSystemLayer@gCWorld@@QEAAAEAVgCDynamicLayer@@XZ
?GetSystemSector@gCWorld@@QEAAAEAVgCSector@@XZ
?GetSystemTempLayer@gCWorld@@QEAAAEAVgCDynamicLayer@@XZ
?GetTableKeys@gCInfoCommand@@UEAAXAEAV?$bTObjArray@VbCString@@@@@Z
?GetTableKeys@gCInfoCommandAddLogText@@UEAAXAEAV?$bTObjArray@VbCString@@@@@Z
?GetTableKeys@gCInfoCommandDescription@@UEAAXAEAV?$bTObjArray@VbCString@@@@@Z
?GetTableKeys@gCInfoCommandPickPocket@@UEAAXAEAV?$bTObjArray@VbCString@@@@@Z
?GetTableKeys@gCInfoCommandSay@@UEAAXAEAV?$bTObjArray@VbCString@@@@@Z
?GetTableKeys@gCInfoCommandShowSubtitle@@UEAAXAEAV?$bTObjArray@VbCString@@@@@Z
?GetTableKeys@gCInfoCommandThink@@UEAAXAEAV?$bTObjArray@VbCString@@@@@Z
?GetTableValue@gCInfoCommand@@QEBA_NAEBVbCString@@W4ETableAppendixColumn@1@AEBVgCInfo@@HAEAV2@@Z
?GetTableValue@gCInfoCommand@@QEBA_NAEBVbCString@@W4ETableLanguageColumn@1@AEBVgCInfo@@0AEAV2@@Z
?GetTalkedToBy@gCDialog_PS@@QEBAPEAVeCEntity@@H@Z
?GetTalkedToByCount@gCDialog_PS@@QEBAHXZ
?GetTalkedToPlayer@gCDialog_PS@@QEBAAEB_NXZ
?GetTalkingTo@gCDialog_PS@@QEBAPEAVeCEntity@@XZ
?GetTarget@gCCameraAdmin@@QEBAPEBVeCEntity@@XZ
?GetTarget@gCEffect@@QEBAPEAVeCEntity@@XZ
?GetTarget@gCInfoCommandTeleportNPC@@QEBAAEBVbCString@@XZ
?GetTargetEntity@gCFlightPathSeeking@@QEBAAEBVeCEntityProxy@@XZ
?GetTargetEntity@gCInfoCommandTrigger@@QEBAAEBVbCString@@XZ
?GetTargetEntity@gCScriptProcessingUnit@@QEAAPEAVeCGeometryEntity@@XZ
?GetTargetHour@gCInfoCommandSleep@@QEBAAEBKXZ
?GetTargetMatrix@gCEffect@@QEBAAEBVbCMatrix@@XZ
?GetTargetMode@gCEffect_PS@@QEBAAEBV?$bTPropertyContainer@W4gEEffectTargetMode@@@@XZ
?GetTargetOffset@gCInfoCommandStartFixCamera@@QEBAAEBVbCVector@@XZ
?GetTargetPoint@gCFocusModule2@@QEBA_NAEAVbCVector@@@Z
?GetTargetScript@gCEffect_PS@@QEBAAEBVeCScriptProxyScript@@XZ
?GetTargetState@gCStateGraphTransition@@QEBAPEAVgCStateGraphState@@XZ
?GetTaskPosition@gCScriptRoutine_PS@@QEBAAEBJXZ
?GetTaskTime@gCScriptRoutine_PS@@QEBAAEBMXZ
?GetTeachEnabled@gCDialog_PS@@QEBAAEB_NXZ
?GetTeachEnabled@gCInfoCommandSetTeachEnabled@@QEBAAEB_NXZ
?GetTeachEnabled@gCInfoConditionTeachEnabled@@QEBAAEB_NXZ
?GetTeachSkill@gCInfoCommandTeach@@QEBAAEBVgCSkillValue@@XZ
?GetTeachSkill@gCInfoConditionCanTeachSkill@@QEBAAEBVgCSkillValue@@XZ
?GetTeachSkills@gCDialog_PS@@QEBAAEBV?$bTObjArray@VgCSkillRange@@@@XZ
?GetTemplate@gCCombatObject@@QEBAAEBVbCString@@XZ
?GetTemplate@gCInventoryDropData@@QEBAPEAVeCEntity@@XZ
?GetTemplate@gCInventorySlot@@QEBAAEBVeCTemplateEntityProxy@@XZ
?GetTemplateEntity@gCEffectCommandSpawnEntity@@QEBAAEBVeCTemplateEntityProxy@@XZ
?GetTemplateEntityByKeyword@gCInfo@@QEBAPEAVeCEntity@@AEBVbCString@@@Z
?GetTemplateEntityByKeyword@gCQuest@@QEBAPEAVeCTemplateEntity@@AEBVbCString@@@Z
?GetTemplatePath@gCDatabase@@SA?AVbCString@@XZ
?GetText@gCInfoCommand@@QEBAAEBVeCLocString@@XZ
?GetText@gCInfoCommandAddLogText@@QEBAAEBVgCInfoLocString@@XZ
?GetText@gCInfoCommandDescription@@QEBAAEBVgCInfoLocString@@XZ
?GetText@gCInfoCommandPickPocket@@QEBAAEBVgCInfoLocString@@XZ
?GetText@gCInfoCommandSay@@QEBAAEBVgCInfoLocString@@XZ
?GetText@gCInfoCommandSaySVM@@QEBAAEBVgCInfoLocString@@XZ
?GetText@gCInfoCommandShowSubtitle@@QEBAAEBVgCInfoLocString@@XZ
?GetText@gCInfoCommandThink@@QEBAAEBVgCInfoLocString@@XZ
?GetText@gCLetter_PS@@QEBAAEBVgCLetterLocString@@XZ
?GetTextColor@gCQuestLogFrame2@@QEBAAEBVbCByteAlphaColor@@XZ
?GetThisType@eCAIHelperAdmin@@SAAEAVbCPropertyObjectTypeBase@@XZ
?GetThisType@gCAIHelper_FreePoint_PS@@SAAEAVbCPropertyObjectTypeBase@@XZ
?GetThisType@gCAIHelper_Label_PS@@SAAEAVbCPropertyObjectTypeBase@@XZ
?GetThisType@gCAIZone_PS@@SAAEAVbCPropertyObjectTypeBase@@XZ
?GetThisType@gCAchievement@@SAAEAVbCPropertyObjectTypeBase@@XZ
?GetThisType@gCAchievementAdmin@@SAAEAVbCPropertyObjectTypeBase@@XZ
?GetThisType@gCActionAdmin@@SAAEAVbCPropertyObjectTypeBase@@XZ
?GetThisType@gCAnchor_PS@@SAAEAVbCPropertyObjectTypeBase@@XZ
?GetThisType@gCArena_PS@@SAAEAVbCPropertyObjectTypeBase@@XZ
?GetThisType@gCBook_PS@@SAAEAVbCPropertyObjectTypeBase@@XZ
?GetThisType@gCCameraAdmin@@SAAEAVbCPropertyObjectTypeBase@@XZ
?GetThisType@gCCastInfo_PS@@SAAEAVbCPropertyObjectTypeBase@@XZ
?GetThisType@gCCharacterControl@@SAAEAVbCPropertyObjectTypeBase@@XZ
?GetThisType@gCCharacterMovement_PS@@SAAEAVbCPropertyObjectTypeBase@@XZ
?GetThisType@gCCharacterSensor@@SAAEAVbCPropertyObjectTypeBase@@XZ
?GetThisType@gCClock_PS@@SAAEAVbCPropertyObjectTypeBase@@XZ
?GetThisType@gCCollisionCircle_PS@@SAAEAVbCPropertyObjectTypeBase@@XZ
?GetThisType@gCCombatAI@@SAAEAVbCPropertyObjectTypeBase@@XZ
?GetThisType@gCCombatAIMelee@@SAAEAVbCPropertyObjectTypeBase@@XZ
?GetThisType@gCCombatAIRanged@@SAAEAVbCPropertyObjectTypeBase@@XZ
?GetThisType@gCCombatAdmin@@SAAEAVbCPropertyObjectTypeBase@@XZ
?GetThisType@gCCombatMove@@SAAEAVbCPropertyObjectTypeBase@@XZ
?GetThisType@gCCombatMoveAim@@SAAEAVbCPropertyObjectTypeBase@@XZ
?GetThisType@gCCombatMoveComboSwitch@@SAAEAVbCPropertyObjectTypeBase@@XZ
?GetThisType@gCCombatMoveFinishing@@SAAEAVbCPropertyObjectTypeBase@@XZ
?GetThisType@gCCombatMoveMelee@@SAAEAVbCPropertyObjectTypeBase@@XZ
?GetThisType@gCCombatMoveOverlayStumble@@SAAEAVbCPropertyObjectTypeBase@@XZ
?GetThisType@gCCombatMoveParade@@SAAEAVbCPropertyObjectTypeBase@@XZ
?GetThisType@gCCombatMoveReload@@SAAEAVbCPropertyObjectTypeBase@@XZ
?GetThisType@gCCombatMoveScriptState@@SAAEAVbCPropertyObjectTypeBase@@XZ
?GetThisType@gCCombatMoveShoot@@SAAEAVbCPropertyObjectTypeBase@@XZ
?GetThisType@gCCombatMoveStumble@@SAAEAVbCPropertyObjectTypeBase@@XZ
?GetThisType@gCCombatObject@@SAAEAVbCPropertyObjectTypeBase@@XZ
?GetThisType@gCCombatSpecies@@SAAEAVbCPropertyObjectTypeBase@@XZ
?GetThisType@gCCombatStyle@@SAAEAVbCPropertyObjectTypeBase@@XZ
?GetThisType@gCCombatStyleAniPose@@SAAEAVbCPropertyObjectTypeBase@@XZ
?GetThisType@gCCombatStyleMelee@@SAAEAVbCPropertyObjectTypeBase@@XZ
?GetThisType@gCCombatStyleRanged@@SAAEAVbCPropertyObjectTypeBase@@XZ
?GetThisType@gCCombatStyleWeaponConfig@@SAAEAVbCPropertyObjectTypeBase@@XZ
?GetThisType@gCCombatSystem_PS@@SAAEAVbCPropertyObjectTypeBase@@XZ
?GetThisType@gCCombatWeaponConfig@@SAAEAVbCPropertyObjectTypeBase@@XZ
?GetThisType@gCCraftIngredient@@SAAEAVbCPropertyObjectTypeBase@@XZ
?GetThisType@gCDamage_PS@@SAAEAVbCPropertyObjectTypeBase@@XZ
?GetThisType@gCDatabase@@SAAEAVbCPropertyObjectTypeBase@@XZ
?GetThisType@gCDialog_PS@@SAAEAVbCPropertyObjectTypeBase@@XZ
?GetThisType@gCDoor_PS@@SAAEAVbCPropertyObjectTypeBase@@XZ
?GetThisType@gCDummyCollectorAdmin@@SAAEAVbCPropertyObjectTypeBase@@XZ
?GetThisType@gCDummyVisualBase_PS@@SAAEAVbCPropertyObjectTypeBase@@XZ
?GetThisType@gCDynamicCollisionCircle_PS@@SAAEAVbCPropertyObjectTypeBase@@XZ
?GetThisType@gCDynamicLayer@@SAAEAVbCPropertyObjectTypeBase@@XZ
?GetThisType@gCEditorEntityPropertySet@@SAAEAVbCPropertyObjectTypeBase@@XZ
?GetThisType@gCEffectCommand@@SAAEAVbCPropertyObjectTypeBase@@XZ
?GetThisType@gCEffectCommandEarthquake@@SAAEAVbCPropertyObjectTypeBase@@XZ
?GetThisType@gCEffectCommandEntity@@SAAEAVbCPropertyObjectTypeBase@@XZ
?GetThisType@gCEffectCommandKillEntity@@SAAEAVbCPropertyObjectTypeBase@@XZ
?GetThisType@gCEffectCommandKillEntityRange@@SAAEAVbCPropertyObjectTypeBase@@XZ
?GetThisType@gCEffectCommandModifyEntity@@SAAEAVbCPropertyObjectTypeBase@@XZ
?GetThisType@gCEffectCommandPlaySound@@SAAEAVbCPropertyObjectTypeBase@@XZ
?GetThisType@gCEffectCommandPlayVoice@@SAAEAVbCPropertyObjectTypeBase@@XZ
?GetThisType@gCEffectCommandRunScript@@SAAEAVbCPropertyObjectTypeBase@@XZ
?GetThisType@gCEffectCommandSaySVM@@SAAEAVbCPropertyObjectTypeBase@@XZ
?GetThisType@gCEffectCommandSequence2@@SAAEAVbCPropertyObjectTypeBase@@XZ
?GetThisType@gCEffectCommandSpawnEntity@@SAAEAVbCPropertyObjectTypeBase@@XZ
?GetThisType@gCEffectCommandSpawnEntityList@@SAAEAVbCPropertyObjectTypeBase@@XZ
?GetThisType@gCEffectCommandSpawnEntitySwitch@@SAAEAVbCPropertyObjectTypeBase@@XZ
?GetThisType@gCEffectCommandStartImageEffect@@SAAEAVbCPropertyObjectTypeBase@@XZ
?GetThisType@gCEffectCommandTriggerEntity@@SAAEAVbCPropertyObjectTypeBase@@XZ
?GetThisType@gCEffectModule@@SAAEAVbCPropertyObjectTypeBase@@XZ
?GetThisType@gCEffect_PS@@SAAEAVbCPropertyObjectTypeBase@@XZ
?GetThisType@gCEntityDummyVisual_PS@@SAAEAVbCPropertyObjectTypeBase@@XZ
?GetThisType@gCFlightPathBallistic@@SAAEAVbCPropertyObjectTypeBase@@XZ
?GetThisType@gCFlightPathBase@@SAAEAVbCPropertyObjectTypeBase@@XZ
?GetThisType@gCFlightPathSeeking@@SAAEAVbCPropertyObjectTypeBase@@XZ
?GetThisType@gCFocusModule2@@SAAEAVbCPropertyObjectTypeBase@@XZ
?GetThisType@gCGUIFilter@@SAAEAVbCPropertyObjectTypeBase@@XZ
?GetThisType@gCGameScript_PS@@SAAEAVbCPropertyObjectTypeBase@@XZ
?GetThisType@gCHudDialog2@@SAAEAVbCPropertyObjectTypeBase@@XZ
?GetThisType@gCHudModule2@@SAAEAVbCPropertyObjectTypeBase@@XZ
?GetThisType@gCHudPage2@@SAAEAVbCPropertyObjectTypeBase@@XZ
?GetThisType@gCHudPopUp2@@SAAEAVbCPropertyObjectTypeBase@@XZ
?GetThisType@gCInfo@@SAAEAVbCPropertyObjectTypeBase@@XZ
?GetThisType@gCInfoCommand@@SAAEAVbCPropertyObjectTypeBase@@XZ
?GetThisType@gCInfoCommandAddInfoSystemEndScript@@SAAEAVbCPropertyObjectTypeBase@@XZ
?GetThisType@gCInfoCommandAddLogText@@SAAEAVbCPropertyObjectTypeBase@@XZ
?GetThisType@gCInfoCommandAddNPCInfo@@SAAEAVbCPropertyObjectTypeBase@@XZ
?GetThisType@gCInfoCommandAddQuestActor@@SAAEAVbCPropertyObjectTypeBase@@XZ
?GetThisType@gCInfoCommandAttack@@SAAEAVbCPropertyObjectTypeBase@@XZ
?GetThisType@gCInfoCommandBack@@SAAEAVbCPropertyObjectTypeBase@@XZ
?GetThisType@gCInfoCommandBoostAttribs@@SAAEAVbCPropertyObjectTypeBase@@XZ
?GetThisType@gCInfoCommandClearGameEvent@@SAAEAVbCPropertyObjectTypeBase@@XZ
?GetThisType@gCInfoCommandCloseQuest@@SAAEAVbCPropertyObjectTypeBase@@XZ
?GetThisType@gCInfoCommandCreateItem@@SAAEAVbCPropertyObjectTypeBase@@XZ
?GetThisType@gCInfoCommandDescription@@SAAEAVbCPropertyObjectTypeBase@@XZ
?GetThisType@gCInfoCommandDestroyItem@@SAAEAVbCPropertyObjectTypeBase@@XZ
?GetThisType@gCInfoCommandDoLoot@@SAAEAVbCPropertyObjectTypeBase@@XZ
?GetThisType@gCInfoCommandDoTrade@@SAAEAVbCPropertyObjectTypeBase@@XZ
?GetThisType@gCInfoCommandEnd@@SAAEAVbCPropertyObjectTypeBase@@XZ
?GetThisType@gCInfoCommandEndGame@@SAAEAVbCPropertyObjectTypeBase@@XZ
?GetThisType@gCInfoCommandFullStop@@SAAEAVbCPropertyObjectTypeBase@@XZ
?GetThisType@gCInfoCommandGive@@SAAEAVbCPropertyObjectTypeBase@@XZ
?GetThisType@gCInfoCommandGiveXP@@SAAEAVbCPropertyObjectTypeBase@@XZ
?GetThisType@gCInfoCommandHeal@@SAAEAVbCPropertyObjectTypeBase@@XZ
?GetThisType@gCInfoCommandInfoWait@@SAAEAVbCPropertyObjectTypeBase@@XZ
?GetThisType@gCInfoCommandKillNPC@@SAAEAVbCPropertyObjectTypeBase@@XZ
?GetThisType@gCInfoCommandMoveTo@@SAAEAVbCPropertyObjectTypeBase@@XZ
?GetThisType@gCInfoCommandPickPocket@@SAAEAVbCPropertyObjectTypeBase@@XZ
?GetThisType@gCInfoCommandPlayMusic@@SAAEAVbCPropertyObjectTypeBase@@XZ
?GetThisType@gCInfoCommandRemoveNPC@@SAAEAVbCPropertyObjectTypeBase@@XZ
?GetThisType@gCInfoCommandRemoveNPCInfo@@SAAEAVbCPropertyObjectTypeBase@@XZ
?GetThisType@gCInfoCommandRemoveQuestActor@@SAAEAVbCPropertyObjectTypeBase@@XZ
?GetThisType@gCInfoCommandRunAIScript@@SAAEAVbCPropertyObjectTypeBase@@XZ
?GetThisType@gCInfoCommandRunInfo@@SAAEAVbCPropertyObjectTypeBase@@XZ
?GetThisType@gCInfoCommandRunQuest@@SAAEAVbCPropertyObjectTypeBase@@XZ
?GetThisType@gCInfoCommandRunScript@@SAAEAVbCPropertyObjectTypeBase@@XZ
?GetThisType@gCInfoCommandSay@@SAAEAVbCPropertyObjectTypeBase@@XZ
?GetThisType@gCInfoCommandSayConfirm@@SAAEAVbCPropertyObjectTypeBase@@XZ
?GetThisType@gCInfoCommandSayHoldingPosition@@SAAEAVbCPropertyObjectTypeBase@@XZ
?GetThisType@gCInfoCommandSayKeepItUp@@SAAEAVbCPropertyObjectTypeBase@@XZ
?GetThisType@gCInfoCommandSaySVM@@SAAEAVbCPropertyObjectTypeBase@@XZ
?GetThisType@gCInfoCommandSaySound@@SAAEAVbCPropertyObjectTypeBase@@XZ
?GetThisType@gCInfoCommandSetGameEvent@@SAAEAVbCPropertyObjectTypeBase@@XZ
?GetThisType@gCInfoCommandSetGuardStatus@@SAAEAVbCPropertyObjectTypeBase@@XZ
?GetThisType@gCInfoCommandSetMobEnabled@@SAAEAVbCPropertyObjectTypeBase@@XZ
?GetThisType@gCInfoCommandSetPartyEnabled@@SAAEAVbCPropertyObjectTypeBase@@XZ
?GetThisType@gCInfoCommandSetRelaxingPoint@@SAAEAVbCPropertyObjectTypeBase@@XZ
?GetThisType@gCInfoCommandSetRoutine@@SAAEAVbCPropertyObjectTypeBase@@XZ
?GetThisType@gCInfoCommandSetSectorStatus@@SAAEAVbCPropertyObjectTypeBase@@XZ
?GetThisType@gCInfoCommandSetSlaveryEnabled@@SAAEAVbCPropertyObjectTypeBase@@XZ
?GetThisType@gCInfoCommandSetSleepingPoint@@SAAEAVbCPropertyObjectTypeBase@@XZ
?GetThisType@gCInfoCommandSetTeachEnabled@@SAAEAVbCPropertyObjectTypeBase@@XZ
?GetThisType@gCInfoCommandSetTradeEnabled@@SAAEAVbCPropertyObjectTypeBase@@XZ
?GetThisType@gCInfoCommandSetWorkingPoint@@SAAEAVbCPropertyObjectTypeBase@@XZ
?GetThisType@gCInfoCommandShowPicture@@SAAEAVbCPropertyObjectTypeBase@@XZ
?GetThisType@gCInfoCommandShowSubtitle@@SAAEAVbCPropertyObjectTypeBase@@XZ
?GetThisType@gCInfoCommandSleep@@SAAEAVbCPropertyObjectTypeBase@@XZ
?GetThisType@gCInfoCommandStartEffect@@SAAEAVbCPropertyObjectTypeBase@@XZ
?GetThisType@gCInfoCommandStartFixCamera@@SAAEAVbCPropertyObjectTypeBase@@XZ
?GetThisType@gCInfoCommandStartTutorial@@SAAEAVbCPropertyObjectTypeBase@@XZ
?GetThisType@gCInfoCommandStopFixCamera@@SAAEAVbCPropertyObjectTypeBase@@XZ
?GetThisType@gCInfoCommandSucceedQuest@@SAAEAVbCPropertyObjectTypeBase@@XZ
?GetThisType@gCInfoCommandTeach@@SAAEAVbCPropertyObjectTypeBase@@XZ
?GetThisType@gCInfoCommandTeleportNPC@@SAAEAVbCPropertyObjectTypeBase@@XZ
?GetThisType@gCInfoCommandThink@@SAAEAVbCPropertyObjectTypeBase@@XZ
?GetThisType@gCInfoCommandTrigger@@SAAEAVbCPropertyObjectTypeBase@@XZ
?GetThisType@gCInfoCommandUse@@SAAEAVbCPropertyObjectTypeBase@@XZ
?GetThisType@gCInfoCommandWear@@SAAEAVbCPropertyObjectTypeBase@@XZ
?GetThisType@gCInfoCondition@@SAAEAVbCPropertyObjectTypeBase@@XZ
?GetThisType@gCInfoConditionCanTeachSkill@@SAAEAVbCPropertyObjectTypeBase@@XZ
?GetThisType@gCInfoConditionItemAmount@@SAAEAVbCPropertyObjectTypeBase@@XZ
?GetThisType@gCInfoConditionNPCStatus@@SAAEAVbCPropertyObjectTypeBase@@XZ
?GetThisType@gCInfoConditionOwnerInArea@@SAAEAVbCPropertyObjectTypeBase@@XZ
?GetThisType@gCInfoConditionOwnerNearEntity@@SAAEAVbCPropertyObjectTypeBase@@XZ
?GetThisType@gCInfoConditionPlayerKnows@@SAAEAVbCPropertyObjectTypeBase@@XZ
?GetThisType@gCInfoConditionPlayerNotKnows@@SAAEAVbCPropertyObjectTypeBase@@XZ
?GetThisType@gCInfoConditionQuestStatus@@SAAEAVbCPropertyObjectTypeBase@@XZ
?GetThisType@gCInfoConditionScript@@SAAEAVbCPropertyObjectTypeBase@@XZ
?GetThisType@gCInfoConditionSkillValue@@SAAEAVbCPropertyObjectTypeBase@@XZ
?GetThisType@gCInfoConditionTeachEnabled@@SAAEAVbCPropertyObjectTypeBase@@XZ
?GetThisType@gCInfoModule@@SAAEAVbCPropertyObjectTypeBase@@XZ
?GetThisType@gCInteraction@@SAAEAVbCPropertyObjectTypeBase@@XZ
?GetThisType@gCInteractionAdmin@@SAAEAVbCPropertyObjectTypeBase@@XZ
?GetThisType@gCInteractionSlot@@SAAEAVbCPropertyObjectTypeBase@@XZ
?GetThisType@gCInteraction_PS@@SAAEAVbCPropertyObjectTypeBase@@XZ
?GetThisType@gCInventoryList@@SAAEAVbCPropertyObjectTypeBase@@XZ
?GetThisType@gCInventorySlot@@SAAEAVbCPropertyObjectTypeBase@@XZ
?GetThisType@gCInventoryStack@@SAAEAVbCPropertyObjectTypeBase@@XZ
?GetThisType@gCInventory_PS@@SAAEAVbCPropertyObjectTypeBase@@XZ
?GetThisType@gCItem_PS@@SAAEAVbCPropertyObjectTypeBase@@XZ
?GetThisType@gCLayerBase@@SAAEAVbCPropertyObjectTypeBase@@XZ
?GetThisType@gCLetter_PS@@SAAEAVbCPropertyObjectTypeBase@@XZ
?GetThisType@gCLock_PS@@SAAEAVbCPropertyObjectTypeBase@@XZ
?GetThisType@gCMapEntry@@SAAEAVbCPropertyObjectTypeBase@@XZ
?GetThisType@gCMapInfo_PS@@SAAEAVbCPropertyObjectTypeBase@@XZ
?GetThisType@gCMap_PS@@SAAEAVbCPropertyObjectTypeBase@@XZ
?GetThisType@gCModifySkill@@SAAEAVbCPropertyObjectTypeBase@@XZ
?GetThisType@gCMusicModule2@@SAAEAVbCPropertyObjectTypeBase@@XZ
?GetThisType@gCNPC_PS@@SAAEAVbCPropertyObjectTypeBase@@XZ
?GetThisType@gCNavHelper_PS@@SAAEAVbCPropertyObjectTypeBase@@XZ
?GetThisType@gCNavOffset_PS@@SAAEAVbCPropertyObjectTypeBase@@XZ
?GetThisType@gCNavPath_PS@@SAAEAVbCPropertyObjectTypeBase@@XZ
?GetThisType@gCNavZone_PS@@SAAEAVbCPropertyObjectTypeBase@@XZ
?GetThisType@gCNavigationAdmin@@SAAEAVbCPropertyObjectTypeBase@@XZ
?GetThisType@gCNavigation_PS@@SAAEAVbCPropertyObjectTypeBase@@XZ
?GetThisType@gCNegZone_PS@@SAAEAVbCPropertyObjectTypeBase@@XZ
?GetThisType@gCPartyAdmin@@SAAEAVbCPropertyObjectTypeBase@@XZ
?GetThisType@gCParty_PS@@SAAEAVbCPropertyObjectTypeBase@@XZ
?GetThisType@gCPrefPath_PS@@SAAEAVbCPropertyObjectTypeBase@@XZ
?GetThisType@gCProject@@SAAEAVbCPropertyObjectTypeBase@@XZ
?GetThisType@gCProjectile2_PS@@SAAEAVbCPropertyObjectTypeBase@@XZ
?GetThisType@gCPropertyDummyVisual_PS@@SAAEAVbCPropertyObjectTypeBase@@XZ
?GetThisType@gCQuest@@SAAEAVbCPropertyObjectTypeBase@@XZ
?GetThisType@gCQuestActor@@SAAEAVbCPropertyObjectTypeBase@@XZ
?GetThisType@gCQuestLogFrame2@@SAAEAVbCPropertyObjectTypeBase@@XZ
?GetThisType@gCQuestManager@@SAAEAVbCPropertyObjectTypeBase@@XZ
?GetThisType@gCRecipe_PS@@SAAEAVbCPropertyObjectTypeBase@@XZ
?GetThisType@gCScriptAdmin@@SAAEAVbCPropertyObjectTypeBase@@XZ
?GetThisType@gCScriptRoutine_PS@@SAAEAVbCPropertyObjectTypeBase@@XZ
?GetThisType@gCSector@@SAAEAVbCPropertyObjectTypeBase@@XZ
?GetThisType@gCSectorPersistence_PS@@SAAEAVbCPropertyObjectTypeBase@@XZ
?GetThisType@gCSession@@SAAEAVbCPropertyObjectTypeBase@@XZ
?GetThisType@gCSessionCheats@@SAAEAVbCPropertyObjectTypeBase@@XZ
?GetThisType@gCSessionInfo@@SAAEAVbCPropertyObjectTypeBase@@XZ
?GetThisType@gCSkillRange@@SAAEAVbCPropertyObjectTypeBase@@XZ
?GetThisType@gCSkillValue@@SAAEAVbCPropertyObjectTypeBase@@XZ
?GetThisType@gCSkillValueBase@@SAAEAVbCPropertyObjectTypeBase@@XZ
?GetThisType@gCSkills_PS@@SAAEAVbCPropertyObjectTypeBase@@XZ
?GetThisType@gCSpinButton@@SAAEAVbCPropertyObjectTypeBase@@XZ
?GetThisType@gCStateGraphAction@@SAAEAVbCPropertyObjectTypeBase@@XZ
?GetThisType@gCStateGraphActionCallScript@@SAAEAVbCPropertyObjectTypeBase@@XZ
?GetThisType@gCStateGraphActionEventDispatcher@@SAAEAVbCPropertyObjectTypeBase@@XZ
?GetThisType@gCStateGraphActionFollowState@@SAAEAVbCPropertyObjectTypeBase@@XZ
?GetThisType@gCStateGraphActionPauseAni@@SAAEAVbCPropertyObjectTypeBase@@XZ
?GetThisType@gCStateGraphActionPlayAni@@SAAEAVbCPropertyObjectTypeBase@@XZ
?GetThisType@gCStateGraphActionStartEffect@@SAAEAVbCPropertyObjectTypeBase@@XZ
?GetThisType@gCStateGraphActionStop@@SAAEAVbCPropertyObjectTypeBase@@XZ
?GetThisType@gCStateGraphActionTrigger@@SAAEAVbCPropertyObjectTypeBase@@XZ
?GetThisType@gCStateGraphActionTriggerState@@SAAEAVbCPropertyObjectTypeBase@@XZ
?GetThisType@gCStateGraphActionUnTrigger@@SAAEAVbCPropertyObjectTypeBase@@XZ
?GetThisType@gCStateGraphActionVisibility@@SAAEAVbCPropertyObjectTypeBase@@XZ
?GetThisType@gCStateGraphActionWait@@SAAEAVbCPropertyObjectTypeBase@@XZ
?GetThisType@gCStateGraphEventFilter@@SAAEAVbCPropertyObjectTypeBase@@XZ
?GetThisType@gCStateGraphEventFilterCollisionShape@@SAAEAVbCPropertyObjectTypeBase@@XZ
?GetThisType@gCStateGraphEventFilterDamageAmount@@SAAEAVbCPropertyObjectTypeBase@@XZ
?GetThisType@gCStateGraphEventFilterIsEntity@@SAAEAVbCPropertyObjectTypeBase@@XZ
?GetThisType@gCStateGraphEventFilterIsNPC@@SAAEAVbCPropertyObjectTypeBase@@XZ
?GetThisType@gCStateGraphEventFilterIsPlayer@@SAAEAVbCPropertyObjectTypeBase@@XZ
?GetThisType@gCStateGraphEventFilterScript@@SAAEAVbCPropertyObjectTypeBase@@XZ
?GetThisType@gCStateGraphEventFilterTemplate@@SAAEAVbCPropertyObjectTypeBase@@XZ
?GetThisType@gCStateGraphState@@SAAEAVbCPropertyObjectTypeBase@@XZ
?GetThisType@gCStateGraph_PS@@SAAEAVbCPropertyObjectTypeBase@@XZ
?GetThisType@gCTutorialAdmin@@SAAEAVbCPropertyObjectTypeBase@@XZ
?GetThisType@gCTutorialEvent@@SAAEAVbCPropertyObjectTypeBase@@XZ
?GetThisType@gCTutorialHint@@SAAEAVbCPropertyObjectTypeBase@@XZ
?GetThisType@gCTutorialHintCollection@@SAAEAVbCPropertyObjectTypeBase@@XZ
?GetThisType@gCWaterSubZone_PS@@SAAEAVbCPropertyObjectTypeBase@@XZ
?GetThisType@gCWaterZone_PS@@SAAEAVbCPropertyObjectTypeBase@@XZ
?GetThisType@gCWorkspace@@SAAEAVbCPropertyObjectTypeBase@@XZ
?GetThisType@gCWorld@@SAAEAVbCPropertyObjectTypeBase@@XZ
?GetThumbnail@gCSaveGame@@QEBAPEAVeCGfxImageData@@XZ
?GetThumbnail@gCSaveGameManager@@QEAAPEAVeCGfxImageData@@XZ
?GetTime@gCEffect@@QEBAMXZ
?GetTime@gCInfoCommandInfoWait@@QEBAAEBKXZ
?GetTimeOffset@gCEffectCommand@@QEBAAEBMXZ
?GetTimeOffset@gCStateGraphActionPauseAni@@QEBAAEBMXZ
?GetTimeOffset@gCStateGraphActionPlayAni@@QEBAAEBMXZ
?GetTimeOffset@gCStateGraphActionStartEffect@@QEBAAEBMXZ
?GetTimeOffset@gCStateGraphActionStop@@QEBAAEBMXZ
?GetTimeOffset@gCStateGraphActionTrigger@@QEBAAEBMXZ
?GetTimeOffset@gCStateGraphActionTriggerState@@QEBAAEBMXZ
?GetTimeOffset@gCStateGraphActionUnTrigger@@QEBAAEBMXZ
?GetTimeOffset@gCStateGraphActionVisibility@@QEBAAEBMXZ
?GetTimeOut@gCHudDialog2@@QEBAAEBKXZ
?GetTimeOutResult@gCHudDialog2@@QEBAAEBHXZ
?GetTimeOutStatic@gCHudDialog2@@QEBAAEBGXZ
?GetTimeStampInSeconds@gCClock_PS@@QEBAKXZ
?GetTimeStampInSecondsAsFloat@gCClock_PS@@QEBAMXZ
?GetTitle@gCAchievement@@QEBAAEBVeCLocString@@XZ
?GetTitle@gCInfo@@QEBA?AVbCUnicodeString@@XZ
?GetTitle@gCMap_PS@@QEBAAEBVeCLocString@@XZ
?GetToolTip@gCMapInfo_PS@@QEBAAEBVeCLocString@@XZ
?GetToolTipText@gCWrittenDropData@@QEBAAEBVbCUnicodeString@@XZ
?GetTopToleranz@gCNavPath_PS@@QEBAAEBMXZ
?GetTopToleranz@gCNavZone_PS@@QEBAAEBMXZ
?GetTouchEventCount@gCStateGraph_PS@@QEBAJXZ
?GetTouchEventFilter@gCStateGraph_PS@@QEBAAEBV?$bTRefPropertyArray@PEAVgCStateGraphEventFilter@@@@XZ
?GetTouchScript@gCInteraction_PS@@QEBAAEBVeCScriptProxyScript@@XZ
?GetTradeEnabled@gCDialog_PS@@QEBAAEB_NXZ
?GetTradeEnabled@gCInfoCommandSetTradeEnabled@@QEBAAEB_NXZ
?GetTransition@gCPlayList@@QEBAMXZ
?GetTransitionAt@gCStateGraphState@@QEBAAEBVgCStateGraphTransition@@H@Z
?GetTransitionCount@gCStateGraphState@@QEBAHXZ
?GetTransitionIndex@gCStateGraphState@@QEBAHPEAV1@@Z
?GetTreatWaterAsSolid@gCCharacterMovement_PS@@QEBAAEB_NXZ
?GetTriggerEndHour@gCClock_PS@@QEBAAEBKXZ
?GetTriggerEventCount@gCStateGraph_PS@@QEBAJXZ
?GetTriggerEventFilter@gCStateGraph_PS@@QEBAAEBV?$bTRefPropertyArray@PEAVgCStateGraphEventFilter@@@@XZ
?GetTriggerOnExit@gCStateGraphActionUnTrigger@@QEBAAEB_NXZ
?GetTriggerScript@gCInteraction_PS@@QEBAAEBVeCScriptProxyScript@@XZ
?GetTriggerStartHour@gCClock_PS@@QEBAAEBKXZ
?GetTriggerStateName@gCStateGraphActionTriggerState@@QEBAAEBVbCString@@XZ
?GetTriggerStateTargetIndex@gCStateGraphActionTriggerState@@QEBAAEBJXZ
?GetTriggerTargetIndex@gCStateGraphActionEventDispatcher@@QEBAAEBJXZ
?GetTriggerTargetIndex@gCStateGraphActionTrigger@@QEBAAEBJXZ
?GetTriggerTargetIndex@gCStateGraphActionUnTrigger@@QEBAAEBJXZ
?GetTriggerTargets@gCStateGraph_PS@@QEBAAEBV?$bTObjArray@VeCEntityProxy@@@@XZ
?GetTurnAcceleration@gCCharacterMovement_PS@@QEBAAEBMXZ
?GetTurnDecceleration@gCCharacterMovement_PS@@QEBAAEBMXZ
?GetTurnSpeedMax@gCCharacterMovement_PS@@QEBAAEBMXZ
?GetTurnSpeedModifier@gCCharacterMovement_PS@@QEBAAEBMXZ
?GetTutorialEventName@gCInfoCommandStartTutorial@@QEBAAEBVbCString@@XZ
?GetType@gCCollisionCircle_PS@@QEBAAEBV?$bTPropertyContainer@W4gENavObstacleType@@@@XZ
?GetType@gCInfo@@QEBAAEBV?$bTPropertyContainer@W4gEInfoType@@@@XZ
?GetType@gCInfoCommandAddNPCInfo@@QEBAAEBV?$bTPropertyContainer@W4gEInfoNPCType@@@@XZ
?GetType@gCInfoCommandRemoveNPCInfo@@QEBAAEBV?$bTPropertyContainer@W4gEInfoNPCType@@@@XZ
?GetType@gCInteraction@@QEBAAEBV?$bTPropertyContainer@W4gEInteractionType@@@@XZ
?GetType@gCInventoryStack@@QEBAAEBV?$bTPropertyContainer@W4gEStackType@@@@XZ
?GetType@gCQuest@@QEBAAEBV?$bTPropertyContainer@W4gEQuestType@@@@XZ
?GetUnEquipScript@gCItem_PS@@QEBAAEBVeCScriptProxyScript@@XZ
?GetUnTriggerOnExit@gCStateGraphActionTrigger@@QEBAAEB_NXZ
?GetUnachieved@gCAchievement@@QEBAAEBVeCLocString@@XZ
?GetUnderWaterDepth@gCNavigation_PS@@QEBAMXZ
?GetUnderWaterDepth@gCWaterSubZone_PS@@QEAAMAEBVbCVector@@@Z
?GetUnderWaterDepth@gCWaterZone_PS@@QEAAMHAEBVbCVector@@@Z
?GetUnlimitedHeight@gCNavPath_PS@@QEBAAEB_NXZ
?GetUnsmoothedPosition@gCCharacterSensor@@QEBA?AVbCVector@@XZ
?GetUntouchScript@gCInteraction_PS@@QEBAAEBVeCScriptProxyScript@@XZ
?GetUntriggerScript@gCInteraction_PS@@QEBAAEBVeCScriptProxyScript@@XZ
?GetUseAnimationName@gCInfoCommandUse@@QEBAAEBVbCString@@XZ
?GetUseMaxRepeats@gCEffect_PS@@QEBAAEB_NXZ
?GetUseRollOffPreset@gCEffectCommandPlaySound@@QEBAAEB_NXZ
?GetUseRollOffPreset@gCEffectCommandPlayVoice@@QEBAAEB_NXZ
?GetUseType@gCInteraction_PS@@QEBAAEBV?$bTPropertyContainer@W4gEInteractionUseType@@@@XZ
?GetUseType@gCInventorySlot@@QEBA?AW4gEItemUseType@@XZ
?GetUseType@gCItem_PS@@QEBAAEBV?$bTPropertyContainer@W4gEItemUseType@@@@XZ
?GetUseVolumeFromPreset@gCEffectCommandPlaySound@@QEBAAEB_NXZ
?GetUseVolumeFromPreset@gCEffectCommandPlayVoice@@QEBAAEB_NXZ
?GetUseWadeMovement@gCWaterZone_PS@@QEBAAEB_NXZ
?GetUserCount@gCAnchor_PS@@QEBAKPEAVeCEntity@@@Z
?GetValidWeaponConfig@gCCombatStyle@@QEBAPEBVgCCombatStyleWeaponConfig@@AEBVgCCombatWeaponConfig@@PEAVgCSkills_PS@@@Z
?GetValue@gCEffectCommandModifyEntity@@QEBAAEBVbCString@@XZ
?GetVelocity@gCProjectile2_PS@@QEBAAEBVbCVector@@XZ
?GetVelocityLoss@gCFlightPathBallistic@@QEBAAEBMXZ
?GetVersion@eCAIHelperAdmin@@UEBAGXZ
?GetVersion@gCAIHelper_FreePoint_PS@@UEBAGXZ
?GetVersion@gCAIHelper_Label_PS@@UEBAGXZ
?GetVersion@gCAIZone_PS@@UEBAGXZ
?GetVersion@gCAnchor_PS@@UEBAGXZ
?GetVersion@gCArena_PS@@UEBAGXZ
?GetVersion@gCBook_PS@@UEBAGXZ
?GetVersion@gCCameraAdmin@@UEBAGXZ
?GetVersion@gCCastInfo_PS@@UEBAGXZ
?GetVersion@gCCharacterControl@@UEBAGXZ
?GetVersion@gCCharacterMovement_PS@@UEBAGXZ
?GetVersion@gCCharacterSensor@@UEBAGXZ
?GetVersion@gCClock_PS@@UEBAGXZ
?GetVersion@gCCollisionCircle_PS@@UEBAGXZ
?GetVersion@gCCombatSystem_PS@@UEBAGXZ
?GetVersion@gCDamage_PS@@UEBAGXZ
?GetVersion@gCDialog_PS@@UEBAGXZ
?GetVersion@gCDoor_PS@@UEBAGXZ
?GetVersion@gCDynamicCollisionCircle_PS@@UEBAGXZ
?GetVersion@gCDynamicLayer@@MEBAGXZ
?GetVersion@gCEditorEntityPropertySet@@UEBAGXZ
?GetVersion@gCEffect_PS@@UEBAGXZ
?GetVersion@gCGameScript_PS@@UEBAGXZ
?GetVersion@gCInfo@@UEBAGXZ
?GetVersion@gCInteraction_PS@@UEBAGXZ
?GetVersion@gCInventory_PS@@UEBAGXZ
?GetVersion@gCItem_PS@@UEBAGXZ
?GetVersion@gCLetter_PS@@UEBAGXZ
?GetVersion@gCLock_PS@@UEBAGXZ
?GetVersion@gCMapInfo_PS@@UEBAGXZ
?GetVersion@gCMap_PS@@UEBAGXZ
?GetVersion@gCNPC_PS@@UEBAGXZ
?GetVersion@gCNavHelper_PS@@UEBAGXZ
?GetVersion@gCNavOffset_PS@@UEBAGXZ
?GetVersion@gCNavPath_PS@@UEBAGXZ
?GetVersion@gCNavZone_PS@@UEBAGXZ
?GetVersion@gCNavigation_PS@@UEBAGXZ
?GetVersion@gCNegZone_PS@@UEBAGXZ
?GetVersion@gCParty_PS@@UEBAGXZ
?GetVersion@gCPrefPath_PS@@UEBAGXZ
?GetVersion@gCProject@@UEBAGXZ
?GetVersion@gCProjectile2_PS@@UEBAGXZ
?GetVersion@gCQuest@@UEBAGXZ
?GetVersion@gCQuestManager@@UEBAGXZ
?GetVersion@gCRecipe_PS@@UEBAGXZ
?GetVersion@gCScriptRoutine_PS@@UEBAGXZ
?GetVersion@gCSector@@UEBAGXZ
?GetVersion@gCSectorPersistence_PS@@UEBAGXZ
?GetVersion@gCSession@@UEBAGXZ
?GetVersion@gCSkills_PS@@UEBAGXZ
?GetVersion@gCStateGraph_PS@@UEBAGXZ
?GetVersion@gCWaterZone_PS@@UEBAGXZ
?GetVersion@gCWorld@@UEBAGXZ
?GetVisCollector@gCDummyVisualBase_PS@@QEBAPEAVgCDummyCollectorBase@@XZ
?GetVisGameEntity@gCDummyVisualBase_PS@@QEBAPEAVeCDynamicEntity@@XZ
?GetVisPSType@gCPropertyDummyVisual_PS@@QEBA?AW4eEPropertySetType@@XZ
?GetVisPropertySet@gCPropertyDummyVisual_PS@@QEBAPEAVeCEntityPropertySet@@XZ
?GetVisitedNavClusters@gCNavigation_PS@@QEBAAEBV?$bTObjArray@UgSVisitedNavCluster@gCNavigation_PS@@@@XZ
?GetVoice@gCNPC_PS@@QEBAAEBVbCString@@XZ
?GetVoice@gCSvmAdmin@@IEBAPEAVgCSvmVoice@@H@Z
?GetVoiceCount@gCSvmAdmin@@QEBAHXZ
?GetVoiceName@gCSvmAdmin@@QEBA?AVbCString@@H@Z
?GetVolume@gCEffectCommandPlaySound@@QEBAAEBMXZ
?GetVolume@gCEffectCommandPlayVoice@@QEBAAEBMXZ
?GetWait@gCStateGraphActionCallScript@@QEBAAEB_NXZ
?GetWait@gCStateGraphActionPlayAni@@QEBAAEB_NXZ
?GetWait@gCStateGraphActionStartEffect@@QEBAAEB_NXZ
?GetWaitTime@gCStateGraphActionWait@@QEBAAEBMXZ
?GetWaitWhileTouching@gCStateGraphActionWait@@QEBAAEB_NXZ
?GetWaitWhileTriggered@gCStateGraphActionWait@@QEBAAEB_NXZ
?GetWaiting@gCParty_PS@@QEBAAEB_NXZ
?GetWalkDownSpeedScale@gCCharacterMovement_PS@@QEBAAEBMXZ
?GetWantedNetIndex@gCNavigation_PS@@QEBAHXZ
?GetWantedPose@gCDynamicCollisionCircle_PS@@QEBAAEBVbCMotion@@XZ
?GetWarmUp@gCEffectCommandEarthquake@@QEBAAEBMXZ
?GetWaterDeathDepth@gCCharacterMovement_PS@@QEBAAEBMXZ
?GetWaterDepth@gCCharacterMovement_PS@@QEBAMXZ
?GetWaterWadeDepth@gCCharacterMovement_PS@@QEBAAEBMXZ
?GetWaterZonePSList@gCNavigationAdmin@@QEAAAEBV?$bTValArray@PEAVgCWaterZone_PS@@@@XZ
?GetWeapon@gCCombatMove@@UEBAPEAVeCGeometryEntity@@PEAVgCCombatSystem_PS@@@Z
?GetWeapon@gCCombatMoveMelee@@UEBAPEAVeCGeometryEntity@@PEAVgCCombatSystem_PS@@@Z
?GetWeapon@gCCombatMoveParade@@UEBAPEAVeCGeometryEntity@@PEAVgCCombatSystem_PS@@@Z
?GetWeapon@gCInventory_PS@@QEAAPEAVeCGeometryEntity@@_N@Z
?GetWeapon@gCNPC_PS@@QEAAPEAVeCGeometryEntity@@_N@Z
?GetWeaponConfigs@gCCombatStyle@@QEBAAEBV?$bTObjArray@VgCCombatStyleWeaponConfig@@@@XZ
?GetWeaponMaterial@gCCombatMoveMelee@@QEBAAEBVbCString@@PEAVgCCombatSystem_PS@@@Z
?GetWeaponMaterial@gCCombatMoveParade@@QEBAAEBVbCString@@PEAVgCCombatSystem_PS@@@Z
?GetWeaponSide@gCCombatMoveMelee@@QEBAAEBV?$bTPropertyContainer@W4gECombatMoveSide@@@@XZ
?GetWeaponSide@gCCombatMoveParade@@QEBAAEBV?$bTPropertyContainer@W4gECombatMoveSide@@@@XZ
?GetWishedDirection@gCCharacterControl@@QEAAAEBVbCVector@@XZ
?GetWishedMovementMode@gCNavigation_PS@@QEBA?AW4gECharMovementMode@@XZ
?GetWishedTargetEntityProxy@gCNavigation_PS@@QEBAAEBVeCEntityProxy@@XZ
?GetWonQuestScript@gCQuest@@QEBAAEBVeCScriptProxyScript@@XZ
?GetWorkspace@gCDatabase@@QEAAAEAVgCWorkspace@@XZ
?GetWorkspace@gCDatabase@@QEBAAEBVgCWorkspace@@XZ
?GetWorkspace@gCProject@@QEAAAEAVgCWorkspace@@XZ
?GetWorkspace@gCProject@@QEBAAEBVgCWorkspace@@XZ
?GetWorld@gCProject@@QEAAPEAVgCWorld@@AEBVbCString@@@Z
?GetWorld@gCProject@@QEBAPEBVgCWorld@@AEBVbCString@@@Z
?GetWorld@gCSector@@QEAAAEAVgCWorld@@XZ
?GetWorld@gCSector@@QEBAAEBVgCWorld@@XZ
?GetWorldAspectRatio@gCMap_PS@@QEBAMXZ
?GetWorldByIndex@gCProject@@QEAAPEAVgCWorld@@H@Z
?GetWorldByIndex@gCProject@@QEBAPEBVgCWorld@@H@Z
?GetWorldEntity@gCWorld@@QEAAPEAVeCDynamicEntity@@XZ
?GetWorldEntity@gCWorld@@QEBAPEBVeCDynamicEntity@@XZ
?GetWorldFiles@gCWorld@@QEBA_NAEAV?$bTObjArray@VbCString@@@@@Z
?GetWorldIndex@gCProject@@QEBAHAEBVbCString@@@Z
?GetWorldName@gCSaveGame@@QEBA?AVbCString@@XZ
?GetWorldOffset@gCCollisionCircle_PSObj@@QEBAAEBV?$bTValArray@VbCVector@@@@XZ
?GetWorldPoint@gCNegZone_PSObj@@QEBAAEBV?$bTValArray@VbCVector@@@@XZ
?GetWorldPoint@gCPrefPath_PSObj@@QEBAAEBV?$bTValArray@VbCVector@@@@XZ
?GetWorldPositionY@gCCollisionCircle_PSObj@@QEBAMXZ
?GetWorldRadiusOffset@gCNegZone_PSObj@@QEBAAEBVbCVector@@XZ
?GetWorldRadiusOffset@gCPrefPath_PSObj@@QEBAAEBVbCVector@@XZ
?GetWorldSize@gCMap_PS@@QEBAJXZ
?GetWorldTime@gCScriptProcessingUnit@@QEAAMXZ
?GetWorldTorch@gCSession@@QEBAAEBVeCEntityProxy@@XZ
?GetWorldVersion@gCWorld@@QEAAXAEAK000@Z
?GetWorlds@gCProject@@QEBAAEBV?$bTRefPtrArray@PEAVgCWorld@@@@XZ
?GetYear@gCClock_PS@@QEBAAEBKXZ
?GetZone@gCNavigationAdmin@@QEAA?AW4bEResult@@AEBVbCVector@@AEAVbCPropertyID@@AEA_N_N@Z
?GetZone@gCNavigationAdmin@@QEAA?AW4bEResult@@AEBVbCVector@@MAEAV?$bTValArray@VbCPropertyID@@@@AEAV?$bTValArray@_N@@_NPEAV3@@Z
?GetZone@gCNavigationAdmin@@QEAA?AW4bEResult@@AEBVeCEntity@@AEAVeCEntityProxy@@AEA_N_N@Z
?GetZone@gCNavigationMap@@QEAA?AW4bEResult@@AEBVbCVector@@AEAVbCPropertyID@@AEA_N_N3M@Z
?GetZone@gCNavigationMap@@QEAA?AW4bEResult@@AEBVbCVector@@M0MAEAV?$bTValArray@VbCPropertyID@@@@AEAV?$bTValArray@_N@@_N3@Z
?GetZone@gCNavigationMap@@QEAA?AW4bEResult@@AEBVbCVector@@MAEAV?$bTValArray@VbCPropertyID@@@@AEAV?$bTValArray@_N@@_N3PEAV3@@Z
?GetZone@gCNavigationMap@@QEAA?AW4bEResult@@AEBVeCEntity@@AEAVeCEntityProxy@@AEA_N_N3@Z
?GetZone@gCNavigationMapTester@@IEAA?AW4bEResult@@AEBVbCVector@@AEAVbCPropertyID@@AEA_N_N3M@Z
?GetZoneAEntityProxy@gCNavPath_PS@@QEBAAEBVeCEntityProxy@@XZ
?GetZoneAIntersectionCenter@gCNavPath_PS@@QEBAAEBVbCVector@@XZ
?GetZoneAIntersectionMargin1@gCNavPath_PS@@QEBAAEBVbCVector@@XZ
?GetZoneAIntersectionMargin2@gCNavPath_PS@@QEBAAEBVbCVector@@XZ
?GetZoneBEntityProxy@gCNavPath_PS@@QEBAAEBVeCEntityProxy@@XZ
?GetZoneBIntersectionCenter@gCNavPath_PS@@QEBAAEBVbCVector@@XZ
?GetZoneBIntersectionMargin1@gCNavPath_PS@@QEBAAEBVbCVector@@XZ
?GetZoneBIntersectionMargin2@gCNavPath_PS@@QEBAAEBVbCVector@@XZ
?GetZoneBottomHeight@gCNavZone_PS@@QEAAMXZ
?GetZoneEntityProxies@gCCollisionCircle_PS@@QEBAAEBV?$bTObjArray@VeCEntityProxy@@@@XZ
?GetZoneEntityProxy@gCNegZone_PS@@QEBAAEBVeCEntityProxy@@XZ
?GetZoneEntityProxy@gCPrefPath_PS@@QEBAAEBVeCEntityProxy@@XZ
?GetZoneFromLists@gCNavigationMap@@QEAA?AW4bEResult@@AEBV?$bTValArray@PEAVgCNavZone_PS@@@@AEBV?$bTValArray@PEAVgCNavPath_PS@@@@AEBVbCVector@@AEAVbCPropertyID@@AEA_N_N5M@Z
?GetZoneIsCCW@gCNavZone_PS@@QEBAAEB_NXZ
?GetZoneIsCCW@gCNegZone_PS@@QEBAAEB_NXZ
?GetZoneIsCCW@gCNegZone_PSObj@@QEBAAEB_NXZ
?GetZoneTopHeight@gCNavZone_PS@@QEAAMXZ
?Give@gCInfoSystem@@SA_NAEBVbCPropertyID@@00AEBK@Z
?Give@gCInfoSystem@@SA_NPEAVeCEntity@@0AEBVbCPropertyID@@K@Z
?Give@gCInfoSystem@@SA_NPEAVeCEntity@@0HH@Z
?Give@gCInfoSystem@@SA_NPEAVeCEntity@@0PEBVeCTemplateEntity@@K@Z
?Give@gCRuntimeInfo@@QEAA_NAEBVbCPropertyID@@00AEBK@Z
?Give@gCRuntimeInfo@@QEAA_NPEAVeCEntity@@0HH@Z
?GoToState@gCStateGraph_PS@@QEAA_NAEBVbCString@@@Z
?GoToState@gCStateGraph_PS@@QEAA_NPEAVgCStateGraphState@@@Z
?GoalCorrectionForFreeGoto@gCNavigation_PS@@IEAA_NAEAMMAEAVbCVector@@PEAVeCGeometryEntity@@@Z
?GotoLoadedPosition@gCSession@@QEAAXXZ
?GotoStartPosition@gCSession@@QEAAXXZ
?GroupAddSvm@gCSvmAdmin@@QEAA_NHH@Z
?GroupGetSvmCount@gCSvmAdmin@@QEBAHH@Z
?GroupGetSvmIndex@gCSvmAdmin@@QEBAHHH@Z
?GroupRemoveSvm@gCSvmAdmin@@QEAA_NHH@Z
?Halt@gCMusicModule2@@QEAAXXZ
?HandleDeprecatedProperty@gCBook_PS@@UEAA_NAEBVbCString@@0AEAVbCIStream@@@Z
?HandleDeprecatedProperty@gCCollisionCircle_PS@@UEAA_NAEBVbCString@@0AEAVbCIStream@@@Z
?HandleDeprecatedProperty@gCInfoCommandDescription@@UEAA_NAEBVbCString@@0AEAVbCIStream@@@Z
?HandleDeprecatedProperty@gCInfoCommandSay@@UEAA_NAEBVbCString@@0AEAVbCIStream@@@Z
?HandleDeprecatedProperty@gCInfoCommandShowSubtitle@@UEAA_NAEBVbCString@@0AEAVbCIStream@@@Z
?HandleDeprecatedProperty@gCLetter_PS@@UEAA_NAEBVbCString@@0AEAVbCIStream@@@Z
?HandleDeprecatedProperty@gCNavHelper_PS@@MEAA_NAEBVbCString@@0AEAVbCIStream@@@Z
?HandleDeprecatedProperty@gCNavPath_PS@@MEAA_NAEBVbCString@@0AEAVbCIStream@@@Z
?HandleDeprecatedProperty@gCNavigation_PS@@UEAA_NAEBVbCString@@0AEAVbCIStream@@@Z
?HandleDeprecatedProperty@gCNegZone_PS@@MEAA_NAEBVbCString@@0AEAVbCIStream@@@Z
?HandleDeprecatedProperty@gCPrefPath_PS@@MEAA_NAEBVbCString@@0AEAVbCIStream@@@Z
?HandlePageChange@gCHudSystem2@@AEAAXW4gEHudPage@@_N@Z
?HasAdditionalMovementVelo@gCCharacterMovement_PS@@QEBA_NXZ
?HasCommentInfo@gCInfoSystem@@QEAA_NPEAVeCEntity@@@Z
?HasImportantInfo@gCInfoSystem@@QEAA_NPEAVeCEntity@@@Z
?HasInfos@gCInfoSystem@@QEAA_NPEAVeCEntity@@@Z
?HasMoveAttackCombo@gCCombatSystem_PS@@QEAA_NXZ
?HasMoved@gCCharacterMovement_PS@@QEBA_NM@Z
?HasNPCallRequiredItems@gCQuest@@QEAA_NAEBVbCPropertyID@@@Z
?HasNPCpartOfRequiredItems@gCQuest@@QEAA_NAEBVbCPropertyID@@@Z
?HasNewsInfo@gCInfoSystem@@QEAA_NPEAVeCEntity@@@Z
?HasOpenWay@gCNavPath_PS@@QEAA_NAEBVbCVector@@0@Z
?HasReachedClimbFinalTarget@gCCharacterMovement_PS@@QEAA_NXZ
?HasReachedClimbJumpTarget@gCCharacterMovement_PS@@QEAA_NXZ
?HasReachedJumpEnd@gCCharacterMovement_PS@@QEAA_NXZ
?HasReachedLevitationBounds@gCCharacterMovement_PS@@QEBA_NXZ
?HasRefuseInfo@gCInfoSystem@@QEAA_NPEAVeCEntity@@@Z
?HasRequiredSkill@gCSkills_PS@@QEBA_NAEBVgCSkillValue@@PEAUgSMissingSkill@@@Z
?HasRequiredSkills@gCItem_PS@@QEBA_NPEAVeCEntity@@AEAV?$bTObjArray@UgSMissingSkill@@@@@Z
?HasRequiredSkills@gCSkills_PS@@QEBA_NAEBV?$bTObjArray@VgCSkillValue@@@@PEAV?$bTObjArray@UgSMissingSkill@@@@@Z
?HasRoutinePointRoamOrPatrol@gCNavigation_PS@@QEAA_NXZ
?HasSector@gCLayerBase@@QEBA_NXZ
?HasStatusEffect@gCNPC_PS@@QEBA_NW4gEStatusEffect@@@Z
?HasSystemLayers@gCWorld@@QEBA_NXZ
?HasSystemSector@gCWorld@@QEBA_NXZ
?HasWaterContact@gCNavigation_PS@@QEBA_NXZ
?HaveNPCsAllRequiredItems@gCQuest@@QEAA_NAEBVbCPropertyID@@0@Z
?HideDialogManager@gCInfoSystem@@IEAAXXZ
?HideModal@gCHudSystem2@@QEAAX_N@Z
?HidePicture@gCHudSystem2@@QEAAXXZ
?HitTargets@gCCombatMoveMelee@@QEAA_NPEAUgSCombatMoveInstanceMelee@1@@Z
?HitWater@gCCombatMoveMelee@@QEAA_NPEAUgSCombatMoveInstanceMelee@1@@Z
?HoldStackLeftHand@gCInventory_PS@@QEAA_NH@Z
?HoldStackRightHand@gCInventory_PS@@QEAA_NH@Z
?HoldStacks@gCInventory_PS@@QEAA_NHH@Z
?Import@gCWorkspace@@QEAA?AW4bEResult@@AEBVbCString@@@Z
?ImportDynamicLayer@gCSector@@QEAAPEAVgCDynamicLayer@@AEAVeCArchiveFile@@@Z
?ImportDynamicLayer@gCSector@@QEAAPEAVgCDynamicLayer@@AEBVbCString@@@Z
?ImportOldData@gCQuest@@QEAA_NAEBVbCString@@AEAV2@@Z
?ImportOldQuestsFromInis@gCQuestManager@@IEAA_NXZ
?ImportProject@gCWorkspace@@QEAAPEAVgCProject@@AEAVeCArchiveFile@@@Z
?ImportProject@gCWorkspace@@QEAAPEAVgCProject@@AEBVbCString@@@Z
?ImportSector@gCWorld@@QEAAPEAVgCSector@@AEBVbCString@@_N@Z
?ImportWorld@gCProject@@QEAAPEAVgCWorld@@AEAVeCArchiveFile@@@Z
?ImportWorld@gCProject@@QEAAPEAVgCWorld@@AEBVbCString@@@Z
?IndexToIconName@gCInventoryList@@QEBA?AVbCString@@H@Z
?IndexToStack@gCInventoryList@@QEBAHH@Z
?InitElements@gCInventoryList@@UEAAXXZ
?InitFirstPose@gCCharacterMovement_PS@@IEAAXXZ
?InitProgress@gCWorldEventSource@@QEAAXAEAUgSWorldEventLoad@@H@Z
?Initialize@CSteamAchievements@@QEAAXXZ
?Initialize@eCAIHelperAdmin@@UEAA?AW4bEResult@@XZ
?Initialize@gCActionAdmin@@UEAA?AW4bEResult@@XZ
?Initialize@gCCameraAdmin@@UEAA?AW4bEResult@@XZ
?Initialize@gCCombatAdmin@@UEAA?AW4bEResult@@XZ
?Initialize@gCDummyCollectorAdmin@@UEAA?AW4bEResult@@XZ
?Initialize@gCEffectModule@@UEAA?AW4bEResult@@XZ
?Initialize@gCFocusModule2@@UEAA?AW4bEResult@@XZ
?Initialize@gCHudModule2@@UEAA?AW4bEResult@@XZ
?Initialize@gCInfoModule@@UEAA?AW4bEResult@@XZ
?Initialize@gCMusicModule2@@UEAA?AW4bEResult@@XZ
?Initialize@gCNavigationAdmin@@UEAA?AW4bEResult@@XZ
?Initialize@gCPartyAdmin@@UEAA?AW4bEResult@@XZ
?Initialize@gCScriptAdmin@@UEAA?AW4bEResult@@XZ
?InitializeWayList@gCNavigationMapNavigator@@IEAAXAEAV?$bTPtrArray@PEAUgSNavWay@gCNavigationMapTypes@@@@AEBVbCVector@@1AEBUgSNavArea@gCNavigationMapTypes@@2AEBH3AEB_N_N@Z
?InsertComSeqItem@gCInfo@@QEAAHPEAVgCInfoCommand@@@Z
?InsertComSeqItem@gCInfo@@QEAAHVbCString@@@Z
?InsertComSeqItem@gCInfo@@QEAAHW4gEInfoCommand@@@Z
?InsertCondSeqItem@gCInfo@@QEAAHPEAVgCInfoCondition@@@Z
?InsertDynamicLayer@gCSector@@QEAA?AW4eEResult@eCProcessibleElement@@PEAVgCDynamicLayer@@@Z
?InsertEntity@gCMap_PS@@QEAA_NAEBVbCString@@0@Z
?InsertItem@gCEffectCommandSequence2@@QEAAHPEAVgCEffectCommand@@@Z
?InsertNewDatabase@gCWorkspace@@QEAAPEAVgCDatabase@@AEBVbCString@@@Z
?InsertNewDynamicLayer@gCSector@@QEAAPEAVgCDynamicLayer@@AEBVbCString@@W4gEEntityType@@@Z
?InsertNewProject@gCWorkspace@@QEAAPEAVgCProject@@AEBVbCString@@_N@Z
?InsertNewSector@gCWorld@@QEAAPEAVgCSector@@AEBVbCString@@0@Z
?InsertNewState@gCStateGraph_PS@@QEAAPEAVgCStateGraphState@@AEBVbCString@@@Z
?InsertNewWorld@gCProject@@QEAAPEAVgCWorld@@AEBVbCString@@_N@Z
?InsertQuest@gCMap_PS@@QEAA_NAEBVbCString@@@Z
?InsertQuestActor@gCQuestManager@@QEAA_NAEBVbCString@@AEBVgCQuestActor@@@Z
?InsertSector@gCWorld@@QEAA?AW4eEResult@eCProcessibleElement@@PEAVgCSector@@@Z
?InsertStack@gCInventory_PS@@QEAAHPEAVeCEntity@@@Z
?InsertWorld@gCProject@@QEAA?AW4eEResult@eCProcessibleElement@@PEAVgCWorld@@@Z
?Intersects@gCCollisionCircle_PSObj@@QEAA_NPEAV1@@Z
?Intersects@gCCollisionCircle_PSObj@@QEAA_NPEAVbCInfCylinder@@@Z
?Intersects@gCCollisionCircle_PSObj@@QEAA_NPEAVbCInfDoubleCylinder@@@Z
?IntersectsArea@gCCollisionCircle_PSObj@@QEAA_NAEBVbCVector@@M@Z
?IntersectsArea@gCNegZone_PSObj@@QEAA_NAEBVbCVector@@M@Z
?IntersectsArea@gCPrefPath_PSObj@@QEAA_NAEBVbCVector@@M@Z
?IntersectsPoint@gCCollisionCircle_PSObj@@QEAA_NAEBVbCVector@@_N@Z
?IntersectsPoint@gCNegZone_PSObj@@QEAA_NAEBVbCVector@@_N@Z
?IntersectsStretch@gCCollisionCircle_PSObj@@QEAA_NAEBVbCStretch@@AEAM_N@Z
?IntersectsStretch@gCNavZone_PS@@QEAA_NAEBVbCStretch@@AEAMPEAVgCNavigation_PS@@_N@Z
?IntersectsStretch@gCNegZone_PSObj@@QEAA_NAEBVbCStretch@@AEAMPEAVgCNavigation_PS@@_N@Z
?Interupt@gCCombatMove@@UEAAXPEAUgSCombatMoveInstance@@@Z
?Interupt@gCCombatMoveMelee@@UEAAXPEAUgSCombatMoveInstance@@@Z
?InteruptCurrentMove@gCCombatSystem_PS@@QEAAXXZ
?InteruptPowerRaise@gCCombatMoveMelee@@QEAA_NPEAUgSCombatMoveInstance@@@Z
?InvItemFrom@gCInventoryList@@MEAA?AUSInvItem@1@HPEBVgCInventoryStack@@H@Z
?Invalidate@eCAIHelperAdmin@@IEAAXXZ
?Invalidate@gCAIHelper_FreePoint_PS@@IEAAXXZ
?Invalidate@gCAIHelper_Label_PS@@IEAAXXZ
?Invalidate@gCAIZone_PS@@IEAAXXZ
?Invalidate@gCAchievementAdmin@@IEAAXXZ
?Invalidate@gCActionAdmin@@IEAAXXZ
?Invalidate@gCAnchor_PS@@IEAAXXZ
?Invalidate@gCArena_PS@@IEAAXXZ
?Invalidate@gCBook_PS@@IEAAXXZ
?Invalidate@gCCameraAdmin@@QEAAXXZ
?Invalidate@gCCastInfo_PS@@IEAAXXZ
?Invalidate@gCCharacterControl@@IEAAXXZ
?Invalidate@gCCharacterMovement_PS@@IEAAXXZ
?Invalidate@gCCharacterSensor@@IEAAXXZ
?Invalidate@gCClock_PS@@IEAAXXZ
?Invalidate@gCCollisionCircle_PS@@IEAAXXZ
?Invalidate@gCCollisionCircle_PSObj@@IEAAXXZ
?Invalidate@gCCombatAI@@IEAAXXZ
?Invalidate@gCCombatAIMelee@@IEAAXXZ
?Invalidate@gCCombatAIRanged@@IEAAXXZ
?Invalidate@gCCombatAdmin@@IEAAXXZ
?Invalidate@gCCombatMove@@IEAAXXZ
?Invalidate@gCCombatMoveAim@@IEAAXXZ
?Invalidate@gCCombatMoveComboSwitch@@IEAAXXZ
?Invalidate@gCCombatMoveFinishing@@IEAAXXZ
?Invalidate@gCCombatMoveMelee@@IEAAXXZ
?Invalidate@gCCombatMoveOverlayStumble@@IEAAXXZ
?Invalidate@gCCombatMoveParade@@IEAAXXZ
?Invalidate@gCCombatMoveReload@@IEAAXXZ
?Invalidate@gCCombatMoveScriptState@@IEAAXXZ
?Invalidate@gCCombatMoveShoot@@IEAAXXZ
?Invalidate@gCCombatMoveStumble@@IEAAXXZ
?Invalidate@gCCombatSpecies@@IEAAXXZ
?Invalidate@gCCombatStyle@@IEAAXXZ
?Invalidate@gCCombatStyleMelee@@IEAAXXZ
?Invalidate@gCCombatStyleRanged@@IEAAXXZ
?Invalidate@gCCombatSystem_PS@@IEAAXXZ
?Invalidate@gCDamage_PS@@IEAAXXZ
?Invalidate@gCDatabase@@IEAAXXZ
?Invalidate@gCDialog_PS@@IEAAXXZ
?Invalidate@gCDoor_PS@@IEAAXXZ
?Invalidate@gCDummyCollectorAdmin@@QEAAXXZ
?Invalidate@gCDummyVisualBase_PS@@IEAAXXZ
?Invalidate@gCDynamicCollisionCircle_PS@@IEAAXXZ
?Invalidate@gCEditorEntityPropertySet@@IEAAXXZ
?Invalidate@gCEffect@@IEAAXXZ
?Invalidate@gCEffectCommand@@IEAAXXZ
?Invalidate@gCEffectCommandEarthquake@@IEAAXXZ
?Invalidate@gCEffectCommandKillEntity@@IEAAXXZ
?Invalidate@gCEffectCommandKillEntityRange@@IEAAXXZ
?Invalidate@gCEffectCommandModifyEntity@@IEAAXXZ
?Invalidate@gCEffectCommandPlaySound@@IEAAXXZ
?Invalidate@gCEffectCommandPlayVoice@@IEAAXXZ
?Invalidate@gCEffectCommandRunScript@@IEAAXXZ
?Invalidate@gCEffectCommandSaySVM@@IEAAXXZ
?Invalidate@gCEffectCommandSequence2@@IEAAXXZ
?Invalidate@gCEffectCommandSpawnEntity@@IEAAXXZ
?Invalidate@gCEffectCommandSpawnEntityList@@IEAAXXZ
?Invalidate@gCEffectCommandSpawnEntitySwitch@@IEAAXXZ
?Invalidate@gCEffectCommandStartImageEffect@@IEAAXXZ
?Invalidate@gCEffectCommandTriggerEntity@@IEAAXXZ
?Invalidate@gCEffectModule@@IEAAXXZ
?Invalidate@gCEffectSystem@@IEAAXXZ
?Invalidate@gCEffect_PS@@IEAAXXZ
?Invalidate@gCEntityDummyVisual_PS@@IEAAXXZ
?Invalidate@gCFlightPathBallistic@@IEAAXXZ
?Invalidate@gCFlightPathBase@@IEAAXXZ
?Invalidate@gCFlightPathSeeking@@IEAAXXZ
?Invalidate@gCGUIEntityRenderer@@IEAAXXZ
?Invalidate@gCGameApp@@IEAAXXZ
?Invalidate@gCGameScript_PS@@IEAAXXZ
?Invalidate@gCInfo@@IEAAXXZ
?Invalidate@gCInfoCommand@@IEAAXXZ
?Invalidate@gCInfoCommandAddInfoSystemEndScript@@IEAAXXZ
?Invalidate@gCInfoCommandAddLogText@@IEAAXXZ
?Invalidate@gCInfoCommandAttack@@IEAAXXZ
?Invalidate@gCInfoCommandBack@@IEAAXXZ
?Invalidate@gCInfoCommandBoostAttribs@@IEAAXXZ
?Invalidate@gCInfoCommandClearGameEvent@@IEAAXXZ
?Invalidate@gCInfoCommandCloseQuest@@IEAAXXZ
?Invalidate@gCInfoCommandCreateItem@@IEAAXXZ
?Invalidate@gCInfoCommandDescription@@IEAAXXZ
?Invalidate@gCInfoCommandDestroyItem@@IEAAXXZ
?Invalidate@gCInfoCommandDoLoot@@IEAAXXZ
?Invalidate@gCInfoCommandDoTrade@@IEAAXXZ
?Invalidate@gCInfoCommandEnd@@IEAAXXZ
?Invalidate@gCInfoCommandEndGame@@IEAAXXZ
?Invalidate@gCInfoCommandFullStop@@IEAAXXZ
?Invalidate@gCInfoCommandGive@@IEAAXXZ
?Invalidate@gCInfoCommandGiveXP@@IEAAXXZ
?Invalidate@gCInfoCommandHeal@@IEAAXXZ
?Invalidate@gCInfoCommandInfoWait@@IEAAXXZ
?Invalidate@gCInfoCommandKillNPC@@IEAAXXZ
?Invalidate@gCInfoCommandMoveTo@@IEAAXXZ
?Invalidate@gCInfoCommandPickPocket@@IEAAXXZ
?Invalidate@gCInfoCommandPlayMusic@@IEAAXXZ
?Invalidate@gCInfoCommandRemoveNPC@@IEAAXXZ
?Invalidate@gCInfoCommandRunAIScript@@IEAAXXZ
?Invalidate@gCInfoCommandRunInfo@@IEAAXXZ
?Invalidate@gCInfoCommandRunQuest@@IEAAXXZ
?Invalidate@gCInfoCommandRunScript@@IEAAXXZ
?Invalidate@gCInfoCommandSay@@IEAAXXZ
?Invalidate@gCInfoCommandSayConfirm@@IEAAXXZ
?Invalidate@gCInfoCommandSayHoldingPosition@@IEAAXXZ
?Invalidate@gCInfoCommandSayKeepItUp@@IEAAXXZ
?Invalidate@gCInfoCommandSaySVM@@IEAAXXZ
?Invalidate@gCInfoCommandSaySound@@IEAAXXZ
?Invalidate@gCInfoCommandSetGameEvent@@IEAAXXZ
?Invalidate@gCInfoCommandSetGuardStatus@@IEAAXXZ
?Invalidate@gCInfoCommandSetMobEnabled@@IEAAXXZ
?Invalidate@gCInfoCommandSetPartyEnabled@@IEAAXXZ
?Invalidate@gCInfoCommandSetRelaxingPoint@@IEAAXXZ
?Invalidate@gCInfoCommandSetRoutine@@IEAAXXZ
?Invalidate@gCInfoCommandSetSectorStatus@@IEAAXXZ
?Invalidate@gCInfoCommandSetSlaveryEnabled@@IEAAXXZ
?Invalidate@gCInfoCommandSetSleepingPoint@@IEAAXXZ
?Invalidate@gCInfoCommandSetTeachEnabled@@IEAAXXZ
?Invalidate@gCInfoCommandSetTradeEnabled@@IEAAXXZ
?Invalidate@gCInfoCommandSetWorkingPoint@@IEAAXXZ
?Invalidate@gCInfoCommandShowPicture@@IEAAXXZ
?Invalidate@gCInfoCommandShowSubtitle@@IEAAXXZ
?Invalidate@gCInfoCommandSleep@@IEAAXXZ
?Invalidate@gCInfoCommandStartEffect@@IEAAXXZ
?Invalidate@gCInfoCommandStartFixCamera@@IEAAXXZ
?Invalidate@gCInfoCommandStartTutorial@@IEAAXXZ
?Invalidate@gCInfoCommandStopFixCamera@@IEAAXXZ
?Invalidate@gCInfoCommandSucceedQuest@@IEAAXXZ
?Invalidate@gCInfoCommandTeach@@IEAAXXZ
?Invalidate@gCInfoCommandTeleportNPC@@IEAAXXZ
?Invalidate@gCInfoCommandThink@@IEAAXXZ
?Invalidate@gCInfoCommandTrigger@@IEAAXXZ
?Invalidate@gCInfoCommandUse@@IEAAXXZ
?Invalidate@gCInfoCommandWear@@IEAAXXZ
?Invalidate@gCInfoCondition@@IEAAXXZ
?Invalidate@gCInfoConditionCanTeachSkill@@IEAAXXZ
?Invalidate@gCInfoConditionItemAmount@@IEAAXXZ
?Invalidate@gCInfoConditionNPCStatus@@IEAAXXZ
?Invalidate@gCInfoConditionOwnerInArea@@IEAAXXZ
?Invalidate@gCInfoConditionOwnerNearEntity@@IEAAXXZ
?Invalidate@gCInfoConditionPlayerKnows@@IEAAXXZ
?Invalidate@gCInfoConditionPlayerNotKnows@@IEAAXXZ
?Invalidate@gCInfoConditionQuestStatus@@IEAAXXZ
?Invalidate@gCInfoConditionScript@@IEAAXXZ
?Invalidate@gCInfoConditionSkillValue@@IEAAXXZ
?Invalidate@gCInfoConditionTeachEnabled@@IEAAXXZ
?Invalidate@gCInfoModule@@IEAAXXZ
?Invalidate@gCInfoSystem@@IEAAXXZ
?Invalidate@gCInteraction@@IEAAXXZ
?Invalidate@gCInteractionAdmin@@QEAAXXZ
?Invalidate@gCInteraction_PS@@IEAAXXZ
?Invalidate@gCInventoryList@@QEAAXXZ
?Invalidate@gCInventorySlot@@IEAAXXZ
?Invalidate@gCInventoryStack@@IEAAXXZ
?Invalidate@gCInventory_PS@@IEAAXXZ
?Invalidate@gCItem_PS@@IEAAXXZ
?Invalidate@gCLayerBase@@IEAAXXZ
?Invalidate@gCLetter_PS@@IEAAXXZ
?Invalidate@gCLock_PS@@IEAAXXZ
?Invalidate@gCMapInfo_PS@@IEAAXXZ
?Invalidate@gCMap_PS@@IEAAXXZ
?Invalidate@gCNPC_PS@@IEAAXXZ
?Invalidate@gCNavHelper_PS@@IEAAXXZ
?Invalidate@gCNavOffset_PS@@IEAAXXZ
?Invalidate@gCNavPath_PS@@IEAAXXZ
?Invalidate@gCNavZone_PS@@IEAAXXZ
?Invalidate@gCNavigationAdmin@@QEAAXXZ
?Invalidate@gCNavigationMap@@QEAAXXZ
?Invalidate@gCNavigation_PS@@IEAAXXZ
?Invalidate@gCNegZone_PS@@IEAAXXZ
?Invalidate@gCNegZone_PSObj@@IEAAXXZ
?Invalidate@gCPartyAdmin@@QEAAXXZ
?Invalidate@gCParty_PS@@IEAAXXZ
?Invalidate@gCPrefPath_PS@@IEAAXXZ
?Invalidate@gCPrefPath_PSObj@@IEAAXXZ
?Invalidate@gCProject@@IEAAXXZ
?Invalidate@gCProjectile2_PS@@IEAAXXZ
?Invalidate@gCPropertyDummyVisual_PS@@IEAAXXZ
?Invalidate@gCQuest@@IEAAXXZ
?Invalidate@gCQuestManager@@IEAAXXZ
?Invalidate@gCRecipe_PS@@IEAAXXZ
?Invalidate@gCRuntimeInfo@@IEAAXXZ
?Invalidate@gCScriptProcessingUnit@@QEAAXXZ
?Invalidate@gCScriptRoutine_PS@@IEAAXXZ
?Invalidate@gCSector@@IEAAXXZ
?Invalidate@gCSectorPersistence_PS@@IEAAXXZ
?Invalidate@gCSession@@QEAAXXZ
?Invalidate@gCSessionCheats@@QEAAXXZ
?Invalidate@gCSessionInfo@@QEAAXXZ
?Invalidate@gCSkills_PS@@IEAAXXZ
?Invalidate@gCStateGraphAction@@IEAAXXZ
?Invalidate@gCStateGraphActionCallScript@@IEAAXXZ
?Invalidate@gCStateGraphActionEventDispatcher@@IEAAXXZ
?Invalidate@gCStateGraphActionFollowState@@IEAAXXZ
?Invalidate@gCStateGraphActionPauseAni@@IEAAXXZ
?Invalidate@gCStateGraphActionPlayAni@@IEAAXXZ
?Invalidate@gCStateGraphActionStartEffect@@IEAAXXZ
?Invalidate@gCStateGraphActionStop@@IEAAXXZ
?Invalidate@gCStateGraphActionTrigger@@IEAAXXZ
?Invalidate@gCStateGraphActionTriggerState@@IEAAXXZ
?Invalidate@gCStateGraphActionUnTrigger@@IEAAXXZ
?Invalidate@gCStateGraphActionVisibility@@IEAAXXZ
?Invalidate@gCStateGraphActionWait@@IEAAXXZ
?Invalidate@gCStateGraphEventFilter@@IEAAXXZ
?Invalidate@gCStateGraphEventFilterCollisionShape@@IEAAXXZ
?Invalidate@gCStateGraphEventFilterDamageAmount@@IEAAXXZ
?Invalidate@gCStateGraphEventFilterIsEntity@@IEAAXXZ
?Invalidate@gCStateGraphEventFilterIsNPC@@IEAAXXZ
?Invalidate@gCStateGraphEventFilterIsPlayer@@IEAAXXZ
?Invalidate@gCStateGraphEventFilterScript@@IEAAXXZ
?Invalidate@gCStateGraphEventFilterTemplate@@IEAAXXZ
?Invalidate@gCStateGraphState@@IEAAXXZ
?Invalidate@gCStateGraphTransition@@IEAAXXZ
?Invalidate@gCStateGraph_PS@@IEAAXXZ
?Invalidate@gCTutorialAdmin@@IEAAXXZ
?Invalidate@gCWaterSubZone_PS@@IEAAXXZ
?Invalidate@gCWaterZone_PS@@IEAAXXZ
?Invalidate@gCWorkspace@@IEAAXXZ
?Invalidate@gCWorld@@IEAAXXZ
?InvalidateComSeq@gCInfo@@IEAAXXZ
?InvalidateCondSeq@gCInfo@@IEAAXXZ
?IsActive@gCProjectile2_PS@@QEBA_NXZ
?IsActive@gCWorld@@UEAA_NXZ
?IsApplyToTemplateEnabled@gCDummyCollectorAdmin@@QEBA_NXZ
?IsApplyToTemplateInstancesEnabled@gCDummyCollectorAdmin@@QEBA_NXZ
?IsAttached@gCInteraction_PS@@QEBA_NPEAVeCEntity@@@Z
?IsAutoKillEnabled@gCEffect_PS@@UEBA_NXZ
?IsAutoUpdateEnabled@gCFocusModule2@@QEBA_NXZ
?IsAutoUpdateEnabled@gCMusicModule2@@QEBA_NXZ
?IsAvailable@gCInfo@@QEAA_NXZ
?IsBraking@gCCharacterMovement_PS@@QEBA_NXZ
?IsBrowsing@gCHudSystem2@@QEBA_NXZ
?IsBrowsingGame@gCHudSystem2@@QEBA_NXZ
?IsBrowsingMap@gCHudSystem2@@QEBA_NXZ
?IsBrowsingMenu@gCHudSystem2@@QEBA_NXZ
?IsCameraInDestinationPose@gCCameraAdmin@@QEBA_NXZ
?IsCameraTargetOriented@gCCameraAdmin@@QEBA_NXZ
?IsChanged@gCSaveGameManager@@QEAA_NXZ
?IsCharacterControlMoveEnabled@gCCameraAdmin@@QEAA_NXZ
?IsCharacterControlRotationEnabled@gCCameraAdmin@@QEAA_NXZ
?IsCharacterMoveInCameraSpaceEnabled@gCCameraAdmin@@QEAA_NXZ
?IsCharacterRotationInCameraSpaceEnabled@gCCameraAdmin@@QEAA_NXZ
?IsChildInfo@gCInfo@@QEBA_NXZ
?IsChildInfo@gCRuntimeInfo@@QEBA_NXZ
?IsClassProcessible@gCCharacterMovement_PS@@UEBA_NXZ
?IsClassProcessible@gCClock_PS@@UEBA_NXZ
?IsClassProcessible@gCCombatSystem_PS@@UEBA_NXZ
?IsClassProcessible@gCEffect_PS@@UEBA_NXZ
?IsClassProcessible@gCGameScript_PS@@UEBA_NXZ
?IsClassProcessible@gCNPC_PS@@UEBA_NXZ
?IsClassProcessible@gCNavigation_PS@@UEBA_NXZ
?IsClassProcessible@gCScriptRoutine_PS@@UEBA_NXZ
?IsClassProcessible@gCStateGraph_PS@@UEBA_NXZ
?IsClassProcessingEnabled@gCCharacterMovement_PS@@UEBA_NXZ
?IsClassProcessingEnabled@gCClock_PS@@UEBA_NXZ
?IsClassProcessingEnabled@gCCombatSystem_PS@@UEBA_NXZ
?IsClassProcessingEnabled@gCEffect_PS@@UEBA_NXZ
?IsClassProcessingEnabled@gCGameScript_PS@@UEBA_NXZ
?IsClassProcessingEnabled@gCNPC_PS@@UEBA_NXZ
?IsClassProcessingEnabled@gCNavigation_PS@@UEBA_NXZ
?IsClassProcessingEnabled@gCScriptRoutine_PS@@UEBA_NXZ
?IsClassProcessingEnabled@gCStateGraph_PS@@UEBA_NXZ
?IsClimbing@gCCharacterMovement_PS@@QEBA_NXZ
?IsCollecting@gCDummyCollectorAdmin@@QEBA_NXZ
?IsCombatMovementEnabledFromSPU@gCCharacterMovement_PS@@QEBA_NXZ
?IsCombatRotationEnabledFromSPU@gCCharacterMovement_PS@@QEBA_NXZ
?IsControledByAnimation@gCCharacterMovement_PS@@QEBA_NXZ
?IsControllerMode@gCActionAdmin@@QEBA_NXZ
?IsCurrentMoveInteruptable@gCCombatSystem_PS@@QEAA_NXZ
?IsDataAvailable@gCLayerBase@@UEBA_NXZ
?IsDataAvailable@gCProject@@UEBA_NXZ
?IsDataAvailable@gCSector@@UEBA_NXZ
?IsDataAvailable@gCWorkspace@@QEBA_NXZ
?IsDataAvailable@gCWorld@@UEBA_NXZ
?IsDead@gCGUIEntityRenderer@@IEBA_NPEBVeCEntity@@@Z
?IsDead@gCInfo@@QEBA_NPEAVeCEntity@@@Z
?IsDead@gCNPC_PS@@QEAA_NXZ
?IsDead@gCQuest@@IEBA_NAEBVbCPropertyID@@@Z
?IsDead@gCQuest@@IEBA_NAEBVbCString@@@Z
?IsDead@gCQuest@@IEBA_NPEAVeCEntity@@@Z
?IsDebuggingEnabled@gCScriptRoutine_PS@@QEBA_NXZ
?IsDefaultTip@gCHudPopUp2@@UEBA_NXZ
?IsDialogCameraActive@gCCameraAdmin@@QEBA_NXZ
?IsDialogInfo@gCInfoSystem@@QEBA_NAEBVgCInfo@@@Z
?IsDisplaySlot@gCInventory_PS@@QEBA_NW4gESlot@@@Z
?IsDisplayStack@gCInventory_PS@@QEBA_NH@Z
?IsDisposable@gCInventoryStack@@QEBA_NXZ
?IsDiving@gCCharacterMovement_PS@@QEBA_NXZ
?IsDown@gCNPC_PS@@QEAA_NXZ
?IsEditing@gCHudSystem2@@QEBA_NXZ
?IsEditorRelevant@gCCharacterMovement_PS@@UEBA_NXZ
?IsEditorRelevant@gCEditorEntityPropertySet@@UEBA_NXZ
?IsEditorRelevant@gCEffect_PS@@UEBA_NXZ
?IsEditorRelevant@gCRecipe_PS@@UEBA_NXZ
?IsEditorRelevant@gCSkills_PS@@UEBA_NXZ
?IsEffectFinished@gCEffectSystem@@UEAA_NPEAX@Z
?IsEffectValid@gCEffectSystem@@UEAA_NPEAX@Z
?IsEmpty@gCInventoryStack@@QEBA_NXZ
?IsEnabled@gCLayerBase@@QEBA_NXZ
?IsEnabled@gCSector@@QEBA_NXZ
?IsEntityDeliveryEntity@gCQuest@@QEBA_NAEBVbCString@@@Z
?IsEntityListener@gCAIHelper_FreePoint_PS@@UEBA_NXZ
?IsEntityListener@gCAnchor_PS@@MEBA_NXZ
?IsEntityListener@gCCollisionCircle_PS@@UEBA_NXZ
?IsEntityListener@gCDoor_PS@@UEBA_NXZ
?IsEntityListener@gCDynamicCollisionCircle_PS@@UEBA_NXZ
?IsEntityListener@gCInteraction_PS@@MEBA_NXZ
?IsEntityListener@gCNavOffset_PS@@UEBA_NXZ
?IsEntityListener@gCNavPath_PS@@UEBA_NXZ
?IsEntityListener@gCNavZone_PS@@UEBA_NXZ
?IsEntityListener@gCNavigation_PS@@UEBA_NXZ
?IsEntityListener@gCNegZone_PS@@UEBA_NXZ
?IsEntityListener@gCPrefPath_PS@@UEBA_NXZ
?IsEntityListener@gCWaterZone_PS@@UEBA_NXZ
?IsEqualEntity@gCQuest@@QEBA_NAEBVbCString@@0@Z
?IsEqualEntity@gCQuest@@QEBA_NAEBVeCEntity@@AEBVbCString@@@Z
?IsEquipped@gCInventoryStack@@QEBA_NXZ
?IsEquipped@gCItem_PS@@QEBA_NXZ
?IsEquippedInAlternative@gCInventoryStack@@QEBA_NXZ
?IsEquippedInPrimary@gCInventoryStack@@QEBA_NXZ
?IsEquippedToSlot@gCInventoryStack@@QEBA_NW4gEEquipSlot@@@Z
?IsExternalCamera@gCCameraAdmin@@QEAA_NXZ
?IsExternalCameraFreezed@gCCameraAdmin@@QEAA_NXZ
?IsFalling@gCCharacterMovement_PS@@QEBA_NXZ
?IsFinished@gCEffect@@QEBA_NXZ
?IsFinished@gCQuest@@QEBA_NXZ
?IsFixCameraActive@gCCameraAdmin@@QEBA_NXZ
?IsFloorDetectionFailed@gCNavigation_PS@@QEBA_NXZ
?IsFloorFixed@gCCharacterMovement_PS@@QEAA_NXZ
?IsFocus@gCGUIEntityRenderer@@IEBA_NPEBVeCEntity@@@Z
?IsFocusHighlightingActive@gCFocusModule2@@QEAA_NXZ
?IsFocusNameActive@gCFocusModule2@@QEAA_NXZ
?IsFree@gCInteractionSlot@@QEBA_NXZ
?IsFreeDestination@gCInteraction_PS@@QEBA_NPEAVeCEntity@@@Z
?IsFreeLOS@gCCombatAI@@QEAA_NPEAVgCCombatSystem_PS@@PEAVeCGeometryEntity@@@Z
?IsFreeLOSAndSurrounding@gCCharacterMovement_PS@@QEAA_NPEAVeCEntity@@_N@Z
?IsFreeLOSAndSurrounding@gCCharacterMovement_PS@@QEAA_NVbCVector@@0_NPEAVeCEntity@@@Z
?IsFreePointInCollisionCircle@gCNavigationMapTester@@IEAA_NAEBVgCAIHelper_FreePoint_PS@@PEAVgCNavZone_PS@@AEA_N@Z
?IsFreePointInNegZone@gCNavigationMapTester@@IEAA_NAEBVgCAIHelper_FreePoint_PS@@PEAVgCNavZone_PS@@@Z
?IsFreePointOutsider@gCNavigationMapTester@@IEAA_NAEBVgCAIHelper_FreePoint_PS@@AEAVbCPropertyID@@AEA_N@Z
?IsGameLogEnable@gCAchievementAdmin@@QEBA_NXZ
?IsGameRunning@gCGameApp@@UEBA_NXZ
?IsGameRunning@gCSession@@QEBA_NXZ
?IsGravitationEnabled@gCCharacterMovement_PS@@QEBA_NXZ
?IsHitTarget@gCCombatMoveMelee@@QEAA?AW4gEHitTargetResult@1@PEAVgCCombatSystem_PS@@HPEAVeCGeometryEntity@@MVbCVector@@@Z
?IsHitTarget@gCCombatMoveMelee@@QEAA?AW4gEHitTargetResult@1@PEAVgCCombatSystem_PS@@PEAVeCGeometryEntity@@M@Z
?IsInAdvancedTestMode@gCSession@@QEBA_NXZ
?IsInAttack@gCCombatMove@@UEAA_NPEAVgCCombatSystem_PS@@PEAVeCGeometryEntity@@AEAM@Z
?IsInAttack@gCCombatMoveMelee@@UEAA_NPEAVgCCombatSystem_PS@@PEAVeCGeometryEntity@@AEAM@Z
?IsInChapterRange@gCQuest@@QEBA_NXZ
?IsInFinalState@gCQuest@@QEBA_NXZ
?IsInFreeNavigationJump@gCCharacterMovement_PS@@QEBA_NXZ
?IsInMovingState@gCCharacterMovement_PS@@QEBA_NXZ
?IsInOutputStage@gCGameApp@@UEAA_NXZ
?IsInParade@gCCombatMove@@UEAA_NPEAUgSCombatMoveInstance@@W4gECombatParadeType@@AEBVbCVector@@@Z
?IsInParade@gCCombatMoveMelee@@UEAA_NPEAUgSCombatMoveInstance@@W4gECombatParadeType@@AEBVbCVector@@@Z
?IsInParade@gCCombatMoveParade@@UEAA_NPEAUgSCombatMoveInstance@@W4gECombatParadeType@@AEBVbCVector@@@Z
?IsInParade@gCCombatSystem_PS@@QEAA_NPEAV1@AEBVbCVector@@@Z
?IsInParade@gCCombatSystem_PS@@QEAA_NW4gECombatParadeType@@AEBVbCVector@@@Z
?IsInParadeAngle@gCCombatMoveParade@@IEBA_NAEBVbCVector@@0@Z
?IsInProcessingRange@gCNavigation_PS@@QEBA_NXZ
?IsInState@gCStateGraph_PS@@QEAA_NAEBVbCString@@@Z
?IsInTestMode@gCSession@@QEBA_NXZ
?IsInUpdateCollection@gCDummyCollectorEntity@@UEBA_NXZ
?IsInUpdateCollection@gCDummyCollectorPSet_Base@@UEBA_NXZ
?IsInZone@gCAIHelper_Label_PS@@UEBA_NXZ
?IsInZone@gCNavigationMap@@QEAA_NAEBVbCVector@@MAEBVbCPropertyID@@_N2PEAV2@@Z
?IsInteruptable@gCCombatMove@@UEBA_NPEAUgSCombatMoveInstance@@@Z
?IsInteruptable@gCCombatMoveMelee@@UEBA_NPEAUgSCombatMoveInstance@@@Z
?IsInteruptable@gCCombatMoveOverlayStumble@@UEBA_NPEAUgSCombatMoveInstance@@@Z
?IsInteruptable@gCCombatMoveParade@@UEBA_NPEAUgSCombatMoveInstance@@@Z
?IsJumping@gCCharacterMovement_PS@@QEBA_NXZ
?IsLabelRenderingEnabled@eCAIHelperAdmin@@QEBA_NXZ
?IsLevitating@gCCharacterMovement_PS@@QEBA_NXZ
?IsLinked@gCInventorySlot@@QEBA_NXZ
?IsLoading@gCHudSystem2@@QEBA_NXZ
?IsLocked@gCLayerBase@@QEBA_NXZ
?IsLocked@gCMusicModule2@@QEBA_NXZ
?IsMergable@gCInventoryStack@@QEBA_NXZ
?IsMounted@gCCharacterMovement_PS@@QEBA_NXZ
?IsMovementEnabledFromSPU@gCCharacterMovement_PS@@QEAA_NXZ
?IsNavOffsetOutsider@gCNavigationMapTester@@IEAA_NAEBVgCNavOffset_PS@@AEAVbCPropertyID@@AEA_N@Z
?IsNavPathBlocked@gCNavigationMapTester@@IEAA_NAEBVgCNavPath_PS@@@Z
?IsNavZoneInConflict@gCNavigationMapTester@@IEAA_NAEBVgCNavZone_PS@@@Z
?IsNavigateBackModusActive@gCNavigation_PS@@QEBA_NXZ
?IsNearAndCanSee@gCInfoCommandSay@@QEAA_NPEAVeCGeometryEntity@@0@Z
?IsNegZoneOutsider@gCNavigationMapTester@@IEAA_NAEBVgCNegZone_PS@@AEAVbCPropertyID@@@Z
?IsOnMainMenu@gCSession@@QEBA_NXZ
?IsOnNavPath@gCNavigationMap@@QEAA_NAEBVbCVector@@MAEAVgCNavPath_PS@@@Z
?IsOnPrefPath@gCNavigationMap@@QEAA_NAEBVbCVector@@MAEAVgCPrefPath_PS@@@Z
?IsOutOfNavigationArea@gCInteraction_PS@@QEBA_NXZ
?IsOutputPlaying@gCScriptProcessingUnit@@QEBA_NXZ
?IsOutputPlaying@gCScriptRoutine_PS@@QEBA_NXZ
?IsOverlayPlaying@gCMusicModule2@@QEBA_NXZ
?IsOvertime@gCQuest@@QEBA_NXZ
?IsOwnerPlayer@gCInfo@@QEBA_NXZ
?IsParentInfoAvailable@gCInfoSystem@@QEBA_NAEAVgCInfo@@@Z
?IsPartyNameValid@gCPartyAdmin@@QEAA_NAEBVbCString@@@Z
?IsPathIllegal@gCNavPath_PS@@QEBA_N_N@Z
?IsPathIllegal@gCPrefPath_PS@@QEBA_N_N@Z
?IsPaused@gCClock_PS@@QEBA_NXZ
?IsPaused@gCSession@@QEBA_NXZ
?IsPermanent@gCInventorySlot@@QEBA_NXZ
?IsPermanent@gCRuntimeInfo@@QEBA_NXZ
?IsPermanentEnabled@gCEffect@@QEBA_NXZ
?IsPlayerInRange@gCEffect@@QEBA_NXZ
?IsPlaying@gCPlayList@@QEAA_NXZ
?IsPlayingMusic@gCPlayList@@SA_NXZ
?IsPrefPathBlocked@gCNavigationMapTester@@IEAA_NAEBVgCPrefPath_PS@@@Z
?IsPrefPathOutsider@gCNavigationMapTester@@IEAA_NAEBVgCPrefPath_PS@@AEAVbCPropertyID@@@Z
?IsProcessingEnabled@gCRuntimeInfo@@QEBA_NXZ
?IsReadOnly@gCSector@@QEBA_NXZ
?IsReferencedByTemplate@gCAIHelper_Label_PS@@UEBA_NXZ
?IsReferencedByTemplate@gCAIZone_PS@@UEBA_NXZ
?IsReferencedByTemplate@gCAnchor_PS@@UEBA_NXZ
?IsReferencedByTemplate@gCCollisionCircle_PS@@UEBA_NXZ
?IsReferencedByTemplate@gCCombatSystem_PS@@UEBA_NXZ
?IsReferencedByTemplate@gCEffect_PS@@UEBA_NXZ
?IsReferencedByTemplate@gCGameScript_PS@@UEBA_NXZ
?IsReferencedByTemplate@gCInteraction_PS@@UEBA_NXZ
?IsReferencedByTemplate@gCInventory_PS@@UEBA_NXZ
?IsReferencedByTemplate@gCItem_PS@@UEBA_NXZ
?IsReferencedByTemplate@gCLock_PS@@UEBA_NXZ
?IsReferencedByTemplate@gCNPC_PS@@UEBA_NXZ
?IsReferencedByTemplate@gCNavHelper_PS@@UEBA_NXZ
?IsReferencedByTemplate@gCNavPath_PS@@UEBA_NXZ
?IsReferencedByTemplate@gCNavZone_PS@@UEBA_NXZ
?IsReferencedByTemplate@gCNavigation_PS@@UEBA_NXZ
?IsReferencedByTemplate@gCNegZone_PS@@UEBA_NXZ
?IsReferencedByTemplate@gCParty_PS@@MEBA_NXZ
?IsReferencedByTemplate@gCPrefPath_PS@@UEBA_NXZ
?IsReferencedByTemplate@gCProjectile2_PS@@UEBA_NXZ
?IsReferencedByTemplate@gCScriptRoutine_PS@@UEBA_NXZ
?IsReferencedByTemplate@gCStateGraph_PS@@UEBA_NXZ
?IsReferencedByTemplate@gCWaterZone_PS@@UEBA_NXZ
?IsRotationEnabledFromSPU@gCCharacterMovement_PS@@QEAA_NXZ
?IsRunning@gCCharacterMovement_PS@@QEBA_NXZ
?IsRunning@gCInfoSystem@@QEAA_NXZ
?IsRunning@gCTutorialAdmin@@QEBA_NVbCString@@@Z
?IsRunningWithCompiledData@gCNavigationMap@@QEAA_NXZ
?IsRuntimeEffectStarted@gCEffect_PS@@QEAA_NAEBVbCString@@@Z
?IsSatisfied@gCInfoCondition@@UEAA_NAEBVgCInfo@@@Z
?IsSatisfied@gCInfoConditionCanTeachSkill@@UEAA_NAEBVgCInfo@@@Z
?IsSatisfied@gCInfoConditionItemAmount@@UEAA_NAEBVgCInfo@@@Z
?IsSatisfied@gCInfoConditionNPCStatus@@UEAA_NAEBVgCInfo@@@Z
?IsSatisfied@gCInfoConditionOwnerInArea@@UEAA_NAEBVgCInfo@@@Z
?IsSatisfied@gCInfoConditionOwnerNearEntity@@UEAA_NAEBVgCInfo@@@Z
?IsSatisfied@gCInfoConditionPlayerKnows@@UEAA_NAEBVgCInfo@@@Z
?IsSatisfied@gCInfoConditionPlayerNotKnows@@UEAA_NAEBVgCInfo@@@Z
?IsSatisfied@gCInfoConditionQuestStatus@@UEAA_NAEBVgCInfo@@@Z
?IsSatisfied@gCInfoConditionScript@@UEAA_NAEBVgCInfo@@@Z
?IsSatisfied@gCInfoConditionSkillValue@@UEAA_NAEBVgCInfo@@@Z
?IsSatisfied@gCInfoConditionTeachEnabled@@UEAA_NAEBVgCInfo@@@Z
?IsSaveAllowed@gCSession@@QEBA_NXZ
?IsSaved@gCSaveGameManager@@QEAA_NXZ
?IsScriptDLLLoaded@gCScriptAdmin@@QEBA_NAEBVbCString@@@Z
?IsSectorFolderEnabled@gCWorld@@QEBA_NAEBVbCString@@@Z
?IsSneaking@gCCharacterMovement_PS@@QEBA_NXZ
?IsSprinting@gCCharacterMovement_PS@@QEBA_NXZ
?IsStanding@gCCharacterMovement_PS@@QEBA_NXZ
?IsSucceeded@gCQuest@@QEBA_NXZ
?IsSuccessOrFailedInfoAvailable@gCInfoSystem@@QEBA_NAEBVgCQuest@@@Z
?IsSwimming@gCCharacterMovement_PS@@QEBA_NXZ
?IsSysLayer@gCDynamicLayer@@QEBA_NXZ
?IsSysSector@gCSector@@QEBA_NXZ
?IsSysTempLayer@gCDynamicLayer@@QEBA_NXZ
?IsTeleportingMode@gCHudSystem2@@QEAA_NXZ
?IsToFar@gCCombatAI@@QEAA_NPEAVgCCombatSystem_PS@@PEAVeCGeometryEntity@@@Z
?IsToFar@gCCombatAI@@UEAA_NPEAVgCCombatSystem_PS@@M@Z
?IsToFar@gCCombatSystem_PS@@QEAA_NMM@Z
?IsToNear@gCCombatAI@@QEAA_NPEAVgCCombatSystem_PS@@PEAVeCGeometryEntity@@@Z
?IsToNear@gCCombatAI@@UEAA_NPEAVgCCombatSystem_PS@@M@Z
?IsToNear@gCCombatAIMelee@@UEAA_NPEAVgCCombatSystem_PS@@M@Z
?IsToNear@gCCombatSystem_PS@@QEAA_NMM@Z
?IsToNearMeleeDistance@gCCombatSystem_PS@@QEAA_NMM@Z
?IsToolTipVisible@gCHudPopUp2@@QEAA_NXZ
?IsValid@gCActionAdmin@@UEBA_NXZ
?IsValid@gCCameraAdmin@@UEBA_NXZ
?IsValid@gCDummyCollectorAdmin@@UEBA_NXZ
?IsValid@gCInfoCommand@@UEBA_NAEAVbCString@@AEBVgCInfo@@@Z
?IsValid@gCInfoCommandAddInfoSystemEndScript@@UEBA_NAEAVbCString@@AEBVgCInfo@@@Z
?IsValid@gCInfoCommandAddLogText@@UEBA_NAEAVbCString@@AEBVgCInfo@@@Z
?IsValid@gCInfoCommandAddNPCInfo@@UEBA_NAEAVbCString@@AEBVgCInfo@@@Z
?IsValid@gCInfoCommandAddQuestActor@@UEBA_NAEAVbCString@@AEBVgCInfo@@@Z
?IsValid@gCInfoCommandAttack@@UEBA_NAEAVbCString@@AEBVgCInfo@@@Z
?IsValid@gCInfoCommandBack@@UEBA_NAEAVbCString@@AEBVgCInfo@@@Z
?IsValid@gCInfoCommandBoostAttribs@@UEBA_NAEAVbCString@@AEBVgCInfo@@@Z
?IsValid@gCInfoCommandClearGameEvent@@UEBA_NAEAVbCString@@AEBVgCInfo@@@Z
?IsValid@gCInfoCommandCloseQuest@@UEBA_NAEAVbCString@@AEBVgCInfo@@@Z
?IsValid@gCInfoCommandCreateItem@@UEBA_NAEAVbCString@@AEBVgCInfo@@@Z
?IsValid@gCInfoCommandDescription@@UEBA_NAEAVbCString@@AEBVgCInfo@@@Z
?IsValid@gCInfoCommandDestroyItem@@UEBA_NAEAVbCString@@AEBVgCInfo@@@Z
?IsValid@gCInfoCommandDoLoot@@UEBA_NAEAVbCString@@AEBVgCInfo@@@Z
?IsValid@gCInfoCommandDoTrade@@UEBA_NAEAVbCString@@AEBVgCInfo@@@Z
?IsValid@gCInfoCommandEnd@@UEBA_NAEAVbCString@@AEBVgCInfo@@@Z
?IsValid@gCInfoCommandEndGame@@UEBA_NAEAVbCString@@AEBVgCInfo@@@Z
?IsValid@gCInfoCommandFullStop@@UEBA_NAEAVbCString@@AEBVgCInfo@@@Z
?IsValid@gCInfoCommandGive@@UEBA_NAEAVbCString@@AEBVgCInfo@@@Z
?IsValid@gCInfoCommandGiveXP@@UEBA_NAEAVbCString@@AEBVgCInfo@@@Z
?IsValid@gCInfoCommandHeal@@UEBA_NAEAVbCString@@AEBVgCInfo@@@Z
?IsValid@gCInfoCommandInfoWait@@UEBA_NAEAVbCString@@AEBVgCInfo@@@Z
?IsValid@gCInfoCommandKillNPC@@UEBA_NAEAVbCString@@AEBVgCInfo@@@Z
?IsValid@gCInfoCommandMoveTo@@UEBA_NAEAVbCString@@AEBVgCInfo@@@Z
?IsValid@gCInfoCommandPickPocket@@UEBA_NAEAVbCString@@AEBVgCInfo@@@Z
?IsValid@gCInfoCommandPlayMusic@@UEBA_NAEAVbCString@@AEBVgCInfo@@@Z
?IsValid@gCInfoCommandRemoveNPC@@UEBA_NAEAVbCString@@AEBVgCInfo@@@Z
?IsValid@gCInfoCommandRemoveNPCInfo@@UEBA_NAEAVbCString@@AEBVgCInfo@@@Z
?IsValid@gCInfoCommandRemoveQuestActor@@UEBA_NAEAVbCString@@AEBVgCInfo@@@Z
?IsValid@gCInfoCommandRunAIScript@@UEBA_NAEAVbCString@@AEBVgCInfo@@@Z
?IsValid@gCInfoCommandRunInfo@@UEBA_NAEAVbCString@@AEBVgCInfo@@@Z
?IsValid@gCInfoCommandRunQuest@@UEBA_NAEAVbCString@@AEBVgCInfo@@@Z
?IsValid@gCInfoCommandRunScript@@UEBA_NAEAVbCString@@AEBVgCInfo@@@Z
?IsValid@gCInfoCommandSay@@UEBA_NAEAVbCString@@AEBVgCInfo@@@Z
?IsValid@gCInfoCommandSayConfirm@@UEBA_NAEAVbCString@@AEBVgCInfo@@@Z
?IsValid@gCInfoCommandSayHoldingPosition@@UEBA_NAEAVbCString@@AEBVgCInfo@@@Z
?IsValid@gCInfoCommandSayKeepItUp@@UEBA_NAEAVbCString@@AEBVgCInfo@@@Z
?IsValid@gCInfoCommandSaySVM@@UEBA_NAEAVbCString@@AEBVgCInfo@@@Z
?IsValid@gCInfoCommandSaySound@@UEBA_NAEAVbCString@@AEBVgCInfo@@@Z
?IsValid@gCInfoCommandSetGameEvent@@UEBA_NAEAVbCString@@AEBVgCInfo@@@Z
?IsValid@gCInfoCommandSetGuardStatus@@UEBA_NAEAVbCString@@AEBVgCInfo@@@Z
?IsValid@gCInfoCommandSetMobEnabled@@UEBA_NAEAVbCString@@AEBVgCInfo@@@Z
?IsValid@gCInfoCommandSetPartyEnabled@@UEBA_NAEAVbCString@@AEBVgCInfo@@@Z
?IsValid@gCInfoCommandSetRelaxingPoint@@UEBA_NAEAVbCString@@AEBVgCInfo@@@Z
?IsValid@gCInfoCommandSetRoutine@@UEBA_NAEAVbCString@@AEBVgCInfo@@@Z
?IsValid@gCInfoCommandSetSectorStatus@@UEBA_NAEAVbCString@@AEBVgCInfo@@@Z
?IsValid@gCInfoCommandSetSlaveryEnabled@@UEBA_NAEAVbCString@@AEBVgCInfo@@@Z
?IsValid@gCInfoCommandSetSleepingPoint@@UEBA_NAEAVbCString@@AEBVgCInfo@@@Z
?IsValid@gCInfoCommandSetTeachEnabled@@UEBA_NAEAVbCString@@AEBVgCInfo@@@Z
?IsValid@gCInfoCommandSetTradeEnabled@@UEBA_NAEAVbCString@@AEBVgCInfo@@@Z
?IsValid@gCInfoCommandSetWorkingPoint@@UEBA_NAEAVbCString@@AEBVgCInfo@@@Z
?IsValid@gCInfoCommandShowPicture@@UEBA_NAEAVbCString@@AEBVgCInfo@@@Z
?IsValid@gCInfoCommandShowSubtitle@@UEBA_NAEAVbCString@@AEBVgCInfo@@@Z
?IsValid@gCInfoCommandSleep@@UEBA_NAEAVbCString@@AEBVgCInfo@@@Z
?IsValid@gCInfoCommandStartEffect@@UEBA_NAEAVbCString@@AEBVgCInfo@@@Z
?IsValid@gCInfoCommandStartFixCamera@@UEBA_NAEAVbCString@@AEBVgCInfo@@@Z
?IsValid@gCInfoCommandStartTutorial@@UEBA_NAEAVbCString@@AEBVgCInfo@@@Z
?IsValid@gCInfoCommandStopFixCamera@@UEBA_NAEAVbCString@@AEBVgCInfo@@@Z
?IsValid@gCInfoCommandSucceedQuest@@UEBA_NAEAVbCString@@AEBVgCInfo@@@Z
?IsValid@gCInfoCommandTeach@@UEBA_NAEAVbCString@@AEBVgCInfo@@@Z
?IsValid@gCInfoCommandTeleportNPC@@UEBA_NAEAVbCString@@AEBVgCInfo@@@Z
?IsValid@gCInfoCommandThink@@UEBA_NAEAVbCString@@AEBVgCInfo@@@Z
?IsValid@gCInfoCommandTrigger@@UEBA_NAEAVbCString@@AEBVgCInfo@@@Z
?IsValid@gCInfoCommandUse@@UEBA_NAEAVbCString@@AEBVgCInfo@@@Z
?IsValid@gCInfoCommandWear@@UEBA_NAEAVbCString@@AEBVgCInfo@@@Z
?IsValid@gCInfoCondition@@UEBA_NAEAVbCString@@AEBVgCInfo@@@Z
?IsValid@gCInfoConditionCanTeachSkill@@UEBA_NAEAVbCString@@AEBVgCInfo@@@Z
?IsValid@gCInfoConditionItemAmount@@UEBA_NAEAVbCString@@AEBVgCInfo@@@Z
?IsValid@gCInfoConditionNPCStatus@@UEBA_NAEAVbCString@@AEBVgCInfo@@@Z
?IsValid@gCInfoConditionOwnerInArea@@UEBA_NAEAVbCString@@AEBVgCInfo@@@Z
?IsValid@gCInfoConditionOwnerNearEntity@@UEBA_NAEAVbCString@@AEBVgCInfo@@@Z
?IsValid@gCInfoConditionPlayerKnows@@UEBA_NAEAVbCString@@AEBVgCInfo@@@Z
?IsValid@gCInfoConditionPlayerNotKnows@@UEBA_NAEAVbCString@@AEBVgCInfo@@@Z
?IsValid@gCInfoConditionQuestStatus@@UEBA_NAEAVbCString@@AEBVgCInfo@@@Z
?IsValid@gCInfoConditionScript@@UEBA_NAEAVbCString@@AEBVgCInfo@@@Z
?IsValid@gCInfoConditionSkillValue@@UEBA_NAEAVbCString@@AEBVgCInfo@@@Z
?IsValid@gCInfoConditionTeachEnabled@@UEBA_NAEAVbCString@@AEBVgCInfo@@@Z
?IsValid@gCInfoSystem@@QEBA_NPEAXAEAVbCString@@@Z
?IsValid@gCIterator@gCInteractionAdmin@@QEBA_NXZ
?IsValid@gCLayerBase@@UEBA_NXZ
?IsValid@gCNavigationAdmin@@UEBA_NXZ
?IsValid@gCPartyAdmin@@UEBA_NXZ
?IsValid@gCRuntimeInfo@@QEBA_NAEAVbCString@@@Z
?IsValid@gCScriptAdmin@@UEBA_NXZ
?IsValid@gCTutorialEvent@@UEBA_NXZ
?IsValidComSeq@gCInfo@@QEBA_NAEAVbCString@@AEBV1@@Z
?IsValidComSeqIndex@gCInfo@@QEBA_NH@Z
?IsValidCondSeq@gCInfo@@QEBA_NAEAVbCString@@AEBV1@@Z
?IsValidCondSeqIndex@gCInfo@@QEBA_NH@Z
?IsValidEntityKeyword@gCInfo@@QEBA_NAEBVbCString@@@Z
?IsValidEntityKeyword@gCQuest@@QEBA_NAEBVbCString@@@Z
?IsValidIndex@gCEffectCommandSequence2@@QEBA_NH@Z
?IsValidIndex@gCInventory_PS@@QEBA_NH@Z
?IsVisible@gCHudSystem2@@QEBA_NW4gEHudPage@@@Z
?IsVisible@gCItem_PS@@QEBA_NXZ
?IsVisual@gCAIHelper_FreePoint_PS@@UEBA_NXZ
?IsVisual@gCAnchor_PS@@UEBA_NXZ
?IsVisual@gCInteraction_PS@@MEBA_NXZ
?IsWalking@gCCharacterMovement_PS@@QEBA_NXZ
?IsZoneIllegal@gCNavZone_PS@@QEBA_N_N@Z
?IsZoneIllegal@gCNegZone_PS@@QEBA_N_N@Z
?IsZoneIllegal@gCNegZone_PSObj@@QEAA_NXZ
?KeyPressed@gCActionAdmin@@UEAAXK@Z
?KeyReleased@gCActionAdmin@@UEAAXK@Z
?Kill@gCEffectCommandEntity@@IEBAXAEAV?$bTObjMap@HVeCEntityProxy@@@@H_N@Z
?KillAll@gCEffectCommandEntity@@IEBAXAEAV?$bTObjMap@HVeCEntityProxy@@@@_N@Z
?KillRange@gCEffectCommandEntity@@IEBAXAEAV?$bTObjMap@HVeCEntityProxy@@@@HH_N@Z
?KillSpawnees@gCEffect@@IEAAXXZ
?LazyCreateCollections@gCDummyCollectorAdmin@@IEAAXXZ
?LiftUpToMinHeightAndMoveFwd@gCCharacterMovement_PS@@QEAAXMMM_N@Z
?LinkDefaultItemToSlot@gCInventory_PS@@IEAA_NW4gESlot@@@Z
?LinkDefaultItems@gCInventory_PS@@IEAA_NXZ
?LinkStackToSlot@gCInventory_PS@@QEAA_NHW4gESlot@@@Z
?LinkToSlot@gCInventorySlot@@QEAA_NPEAVeCEntity@@W4gESlot@@@Z
?Load@gCInfoSystem@@QEAA_NXZ
?Load@gCSaveGameManager@@AEAA_NAEBVbCString@@PEAVIFFFileStream2@@@Z
?Load@gCSaveGameManager@@QEAA_NAEBVbCString@@@Z
?LoadAllScriptGame@gCScriptAdmin@@IEAA_NXZ
?LoadBinary@gCCombatSpecies@@SAPEAV1@AEAVbCIStream@@@Z
?LoadBinary@gCEffectCommandSequence2@@SAPEAV1@AEAVbCIStream@@@Z
?LoadBinary@gCHudDialog2@@SAPEAV1@AEAVbCIStream@@@Z
?LoadBinary@gCHudPage2@@SAPEAV1@AEAVbCIStream@@@Z
?LoadBinary@gCHudPopUp2@@SAPEAV1@AEAVbCIStream@@@Z
?LoadBinary@gCInfo@@SAPEAV1@AEAVbCIStream@@@Z
?LoadBinary@gCQuest@@SAPEAV1@AEAVbCIStream@@@Z
?LoadBinary@gCTutorialEvent@@SAPEAV1@AEAVbCIStream@@@Z
?LoadBinary@gCTutorialHintCollection@@SAPEAV1@AEAVbCIStream@@@Z
?LoadConfiguration@gCGameApp@@UEAA_NXZ
?LoadDocuments@gCTutorialAdmin@@QEAA_NXZ
?LoadDump@gCCameraAdmin@@QEAA_NAEBVbCString@@PEAUgSCameraDumpData@@@Z
?LoadGame@gCHUDFileManager@@AEAA_NAEBVbCString@@@Z
?LoadInfos@gCInfoSystem@@IEAA_N_N@Z
?LoadRaw@gCCombatSpecies@@SAPEAV1@AEBVbCString@@@Z
?LoadRaw@gCEffectCommandSequence2@@SAPEAV1@AEBVbCString@@@Z
?LoadRaw@gCHudDialog2@@SAPEAV1@AEBVbCString@@@Z
?LoadRaw@gCHudPage2@@SAPEAV1@AEBVbCString@@@Z
?LoadRaw@gCHudPopUp2@@SAPEAV1@AEBVbCString@@@Z
?LoadRaw@gCInfo@@SAPEAV1@AEBVbCString@@@Z
?LoadRaw@gCQuest@@SAPEAV1@AEBVbCString@@@Z
?LoadRaw@gCTutorialEvent@@SAPEAV1@AEBVbCString@@@Z
?LoadRaw@gCTutorialHintCollection@@SAPEAV1@AEBVbCString@@@Z
?LoadRawCameraEffect@gCCameraAdmin@@QEAAXAEBVbCString@@_N@Z
?LoadRawCameraType@gCCameraAdmin@@QEAAXAEBVbCString@@_N@Z
?LoadRawEffect@gCEffectSystem@@QEAAPEAVgCEffectCommandSequence2@@AEBVbCString@@_N@Z
?LoadRawInfo@gCInfoSystem@@QEAAPEAVgCInfo@@AEBVbCString@@_N@Z
?LoadRawQuest@gCQuestManager@@QEAAPEAVgCQuest@@AEBVbCString@@_N@Z
?LoadRawSpecies@gCCombatAdmin@@QEAAPEAVgCCombatSpecies@@AEBVbCString@@_N@Z
?LoadScriptDLL@gCScriptAdmin@@QEAA_NAEBVbCString@@@Z
?LoadSpecieses@gCCombatAdmin@@QEAA_NXZ
?LoadWindows@gCHudSystem2@@QEAA_NXZ
?Lock@gCLayerBase@@QEAAGXZ
?Lock@gCMusicModule2@@QEAAX_N@Z
?LootSelections@gCInventory_PS@@QEAA_NPEAV1@@Z
?MarkSpatialStateAsUninited@gCCharacterMovement_PS@@QEAAX_N@Z
?Merge@gCInventoryStack@@QEAA_NAEAV1@@Z
?MergeStacks@gCInventory_PS@@QEAAXXZ
?ModifySkillValue@gCSkills_PS@@QEAAXAEBVgCModifySkill@@_N@Z
?ModifySkillValues@gCSkills_PS@@QEAAXAEBV?$bTObjArray@VgCModifySkill@@@@_N@Z
?Mouse_Increment@gCActionAdmin@@AEAAMMMM@Z
?MoveProjectile@gCFlightPathBallistic@@UEAA_NAEAVbCVector@@0M@Z
?MoveProjectile@gCFlightPathBase@@UEAA_NAEAVbCVector@@0M@Z
?MoveProjectile@gCFlightPathSeeking@@UEAA_NAEAVbCVector@@0M@Z
?MsgProcW@gCHudDialog2@@UEAA_JPEAVIFFGuiWnd2@@I_J1@Z
?MsgProcW@gCHudPage2@@MEAA_JPEAVIFFGuiWnd2@@I_J1@Z
?MsgProcW@gCInventoryList@@MEAA_JPEAVIFFGuiWnd2@@I_J1@Z
?MsgProcW@gCQuestLogFrame2@@MEAA_JPEAVIFFGuiWnd2@@I_J1@Z
?MustSplitBeforeLinking@gCInventoryStack@@QEBA_NW4gESlot@@PEAVeCEntity@@@Z
?NPCstatusToString@gCInfo@@SA?AVbCString@@W4gEInfoNPCStatus@@@Z
?NeedsComplexStaticCollisionTests@gCCharacterMovement_PS@@IEAA_NPEAV?$bTPtrArray@PEAVgCCharacterMovement_PS@@@@@Z
?NewGame@gCHUDFileManager@@AEAA_NXZ
?NextStepCanSlideBack@gCCharacterMovement_PS@@QEBA_NAEBVbCVector@@0@Z
?NotifyBuddy@gCSpinButton@@AEAAXXZ
?NotifyListeners@gCInventory_PS@@IEAAXW4EEvent@1@HPEBVgCInventoryStack@@@Z
?NotifyParentChanged@gCInfoSystem@@QEAAXPEAVgCInfo@@00@Z
?NotifyScript@gCSpinButton@@AEAAXW4gESpinButtonAction@@@Z
?NotifySlave@gCSpinButton@@AEAAXXZ
?OldFormatRead@gCInfoCommand@@UEAAXHAEBVbCString@@0000@Z
?OldFormatWrite@gCInfoCommand@@UEBAXAEAVbCString@@0000@Z
?OnAchievementStored@CSteamAchievements@@QEAAXPEAUUserAchievementStored_t@@@Z
?OnAction@gCCameraAdmin@@QEAAHAEBUgSAction@@@Z
?OnAction@gCCharacterControl@@QEAA_NPEAVeCGeometryEntity@@AEBUgSAction@@@Z
?OnAction@gCCharacterMovement_PS@@UEAAHAEBUgSAction@@@Z
?OnAction@gCCombatMove@@UEAAXAEBUgSAction@@PEAUgSCombatMoveInstance@@@Z
?OnAction@gCCombatMoveParade@@UEAAXAEBUgSAction@@PEAUgSCombatMoveInstance@@@Z
?OnAction@gCCombatSystem_PS@@QEAAXAEBUgSAction@@@Z
?OnAppInitialized@gCFocusModule2@@UEAAXXZ
?OnAppInitialized@gCHudModule2@@UEAAXXZ
?OnAppInitialized@gCHudSystem2@@QEAAXXZ
?OnAppStateChanged@gCHUDFileManager@@QEAAXW4eEAppState@@0@Z
?OnAttachedToInfo@gCInfoCommand@@UEAAXAEBVgCInfo@@@Z
?OnAttachedToInfo@gCInfoCommandAddQuestActor@@UEAAXAEBVgCInfo@@@Z
?OnAttachedToInfo@gCInfoCommandPickPocket@@UEAAXAEBVgCInfo@@@Z
?OnAttachedToInfo@gCInfoCommandRemoveQuestActor@@UEAAXAEBVgCInfo@@@Z
?OnAttachedToInfo@gCInfoCommandSay@@UEAAXAEBVgCInfo@@@Z
?OnAttachedToInfo@gCInfoCommandStartFixCamera@@UEAAXAEBVgCInfo@@@Z
?OnBeginFrame@gCGUIEntityRenderer@@UEAAXPEAVeCGuiDevice2@@PEAVeCSprite@@@Z
?OnBeginRenderAlpha@gCHudModule2@@UEAAXXZ
?OnBeginRenderSolid@gCHudModule2@@UEAAXXZ
?OnCacheIn@gCInteraction_PS@@UEAAXXZ
?OnCacheIn@gCInventory_PS@@MEAAXXZ
?OnCacheIn@gCStateGraph_PS@@UEAAXXZ
?OnCacheOut@gCEffect_PS@@UEAAXXZ
?OnCacheOut@gCInteraction_PS@@UEAAXXZ
?OnCacheOut@gCInventory_PS@@MEAAXXZ
?OnCacheOut@gCStateGraph_PS@@UEAAXXZ
?OnCommandCompleted@gCRuntimeInfo@@QEAA_N_N@Z
?OnControlEntity@gCSession@@QEAAXPEAVeCEntity@@@Z
?OnControllerNotifyNext@gCSpinButton@@QEAAXXZ
?OnControllerNotifyPrevious@gCSpinButton@@QEAAXXZ
?OnCopyFrom@gCCombatSpecies@@UEAA_NAEBVbCObjectBase@@@Z
?OnCopyFrom@gCEffect_PS@@UEAA_NAEBVbCObjectBase@@@Z
?OnCopyFrom@gCInfo@@UEAA_NAEBVbCObjectBase@@@Z
?OnCopyFrom@gCInteraction_PS@@UEAA_NAEBVbCObjectBase@@@Z
?OnCopyFrom@gCInventory_PS@@UEAA_NAEBVbCObjectBase@@@Z
?OnCopyFrom@gCItem_PS@@UEAA_NAEBVbCObjectBase@@@Z
?OnCopyFrom@gCSkills_PS@@UEAA_NAEBVbCObjectBase@@@Z
?OnCopyFrom@gCStateGraphAction@@UEAA_NAEBVbCObjectBase@@@Z
?OnCopyFrom@gCStateGraphState@@UEAA_NAEBVbCObjectBase@@@Z
?OnCopyFrom@gCStateGraph_PS@@UEAA_NAEBVbCObjectBase@@@Z
?OnCopyPatchableOnly@gCInventory_PS@@UEAA_NAEBVbCObjectBase@@@Z
?OnCopyPatchableOnly@gCStateGraphAction@@UEAA_NAEBVbCObjectBase@@@Z
?OnCopyPatchableOnly@gCStateGraphState@@UEAA_NAEBVbCObjectBase@@@Z
?OnCopyPatchableOnly@gCStateGraph_PS@@UEAA_NAEBVbCObjectBase@@@Z
?OnCreateContext@gCDynamicLayer@@MEAAPEAVbCObjectBase@@XZ
?OnCreateContext@gCLayerBase@@MEAAPEAVbCObjectBase@@XZ
?OnCreateData@gCLayerBase@@MEAA_NXZ
?OnDamage@gCInteraction_PS@@MEAAXPEAVeCEntity@@0HHAEAVeCContactIterator@@@Z
?OnDamage@gCStateGraph_PS@@MEAAXPEAVeCEntity@@0HHAEAVeCContactIterator@@@Z
?OnDelivery@gCRuntimeInfo@@QEAA_NXZ
?OnDeserialize@gCCombatSpecies@@UEAA_NPEAVbCXMLParserNode@@@Z
?OnDeserialize@gCInfo@@UEAA_NPEAVbCXMLParserNode@@@Z
?OnDestroyEngine@gCGameApp@@MEAAXXZ
?OnDestroyInventory@gCInventoryList@@UEAAXXZ
?OnDestroyInventory@gCInventory_PS@@UEAAXXZ
?OnDestroyWorkspace@gCDummyCollectorAdmin@@UEAA?AW4bEResult@@XZ
?OnDestroyWorkspace@gCGameApp@@MEAAXXZ
?OnDragEnter@gCInventoryList@@MEAA_NPEAVIFFGuiDataObject2@@KUtagPOINT@@PEAK@Z
?OnDrop@gCInventoryList@@MEAA_NPEAVIFFGuiDataObject2@@KUtagPOINT@@PEAK@Z
?OnEnable@gCSector@@IEAA_N_N@Z
?OnEndFrame@gCGUIEntityRenderer@@UEAAXPEAVeCGuiDevice2@@PEAVeCSprite@@@Z
?OnEndInfo@gCRuntimeInfo@@QEAAXXZ
?OnEndInfoSystem@gCInfoSystem@@QEAAXXZ
?OnEndRenderAlpha@gCHudModule2@@UEAAXXZ
?OnEndRenderSolid@gCHudModule2@@UEAAXXZ
?OnEngineCreated@gCGameApp@@MEAAXXZ
?OnEngineReadyForBenchmark@gCGameApp@@MEAAXXZ
?OnEnter@gCQuest@@QEAAXAEBVeCEntity@@AEBVbCString@@@Z
?OnEnter@gCQuestManager@@QEAA_NAEBVeCEntity@@AEBVbCString@@@Z
?OnEnter@gCStateGraphAction@@UEAAXXZ
?OnEnter@gCStateGraphActionCallScript@@UEAAXXZ
?OnEnter@gCStateGraphActionEventDispatcher@@UEAAXXZ
?OnEnter@gCStateGraphActionPauseAni@@UEAAXXZ
?OnEnter@gCStateGraphActionPlayAni@@UEAAXXZ
?OnEnter@gCStateGraphActionStartEffect@@UEAAXXZ
?OnEnter@gCStateGraphActionStop@@UEAAXXZ
?OnEnter@gCStateGraphActionTrigger@@UEAAXXZ
?OnEnter@gCStateGraphActionTriggerState@@UEAAXXZ
?OnEnter@gCStateGraphActionUnTrigger@@UEAAXXZ
?OnEnter@gCStateGraphActionVisibility@@UEAAXXZ
?OnEnter@gCStateGraphState@@QEAAXXZ
?OnEnterModal@gCHudDialog2@@MEAAXXZ
?OnEnterProcessingRange@gCCharacterMovement_PS@@MEAAXXZ
?OnEnterProcessingRange@gCDynamicCollisionCircle_PS@@UEAAXXZ
?OnEnterProcessingRange@gCEffect_PS@@UEAAXXZ
?OnEnterProcessingRange@gCInteraction_PS@@MEAAXXZ
?OnEnterProcessingRange@gCNavigation_PS@@MEAAXXZ
?OnEnterProcessingRange@gCProjectile2_PS@@MEAAXXZ
?OnEvent@gCStateGraphAction@@UEAAXW4gEStateGraphEventType@@PEAVeCEntity@@PEAX@Z
?OnEvent@gCStateGraphActionCallScript@@UEAAXW4gEStateGraphEventType@@PEAVeCEntity@@PEAX@Z
?OnEvent@gCStateGraphActionEventDispatcher@@UEAAXW4gEStateGraphEventType@@PEAVeCEntity@@PEAX@Z
?OnEvent@gCStateGraphActionFollowState@@UEAAXW4gEStateGraphEventType@@PEAVeCEntity@@PEAX@Z
?OnEvent@gCStateGraphState@@QEAAXW4gEStateGraphEventType@@PEAVeCEntity@@PEAX@Z
?OnExit@gCStateGraphAction@@UEAAXXZ
?OnExit@gCStateGraphActionCallScript@@UEAAXXZ
?OnExit@gCStateGraphActionPauseAni@@UEAAXXZ
?OnExit@gCStateGraphActionPlayAni@@UEAAXXZ
?OnExit@gCStateGraphActionStartEffect@@UEAAXXZ
?OnExit@gCStateGraphActionTrigger@@UEAAXXZ
?OnExit@gCStateGraphActionTriggerState@@UEAAXXZ
?OnExit@gCStateGraphActionUnTrigger@@UEAAXXZ
?OnExit@gCStateGraphState@@QEAAXXZ
?OnExitProcessingRange@gCCharacterMovement_PS@@MEAAXXZ
?OnExitProcessingRange@gCEffect_PS@@UEAAXXZ
?OnExitProcessingRange@gCInteraction_PS@@MEAAXXZ
?OnExitProcessingRange@gCNavigation_PS@@MEAAXXZ
?OnExitProcessingRange@gCProjectile2_PS@@MEAAXXZ
?OnFloorMaterialChanged@gCCharacterMovement_PS@@IEAAXW4eEShapeMaterial@@@Z
?OnGameMessage@gCHudDialog2@@UEAA_NH_J0@Z
?OnGameMessage@gCHudPage2@@MEAA_NH_J0@Z
?OnGameMessage@gCInventoryList@@MEAA_NH_J0@Z
?OnGameMessage@gCQuestLogFrame2@@MEAA_NH_J0@Z
?OnGameMessage@gCSpinButton@@MEAA_NH_J0@Z
?OnGoalChanged@gCCharacterMovement_PS@@IEAAX_N@Z
?OnHandleMessage@gCGameApp@@MEAA_NI_K_JPEA_J@Z
?OnHandleMessage@gCHudSystem2@@UEAA_NIIJ@Z
?OnImportAchievements@gCAchievementAdmin@@AEAA_NXZ
?OnInfoFinished@gCInfoSystem@@QEAAXPEBVgCRuntimeInfo@@@Z
?OnInfoStarted@gCInfoSystem@@QEAAXAEBVbCString@@@Z
?OnInit@gCHudSystem2@@QEAAXXZ
?OnInitialize@gCHudPage2@@MEAAXXZ
?OnInitializeEngine@gCGameApp@@MEAA?AW4bEResult@@XZ
?OnIntersect@gCCharacterMovement_PS@@UEAAXPEAVeCEntity@@AEAVeCContactIterator@@@Z
?OnIntersect@gCInteraction_PS@@MEAAXPEAVeCEntity@@AEAVeCContactIterator@@@Z
?OnIntersect@gCNavPath_PS@@MEAAXPEAVeCEntity@@AEAVeCContactIterator@@@Z
?OnIntersect@gCNavZone_PS@@MEAAXPEAVeCEntity@@AEAVeCContactIterator@@@Z
?OnIntersect@gCNavigation_PS@@MEAAXPEAVeCEntity@@AEAVeCContactIterator@@@Z
?OnIntersect@gCWaterZone_PS@@MEAAXPEAVeCEntity@@AEAVeCContactIterator@@@Z
?OnInventoryStackChange@gCQuest@@QEAAXPEBVgCInventoryStack@@@Z
?OnLeave@gCQuest@@QEAAXAEBVeCEntity@@AEBVbCString@@@Z
?OnLeave@gCQuestManager@@QEAA_NAEBVeCEntity@@AEBVbCString@@@Z
?OnListenEntityEvent@gCAIHelper_FreePoint_PS@@UEAA_NAEBUeSEntityListenerEvent@@@Z
?OnListenEntityEvent@gCAnchor_PS@@MEAA_NAEBUeSEntityListenerEvent@@@Z
?OnListenEntityEvent@gCCollisionCircle_PS@@UEAA_NAEBUeSEntityListenerEvent@@@Z
?OnListenEntityEvent@gCCombatSystem_PS@@MEAA_NAEBUeSEntityListenerEvent@@@Z
?OnListenEntityEvent@gCDoor_PS@@UEAA_NAEBUeSEntityListenerEvent@@@Z
?OnListenEntityEvent@gCDynamicCollisionCircle_PS@@UEAA_NAEBUeSEntityListenerEvent@@@Z
?OnListenEntityEvent@gCInteraction_PS@@MEAA_NAEBUeSEntityListenerEvent@@@Z
?OnListenEntityEvent@gCNavOffset_PS@@UEAA_NAEBUeSEntityListenerEvent@@@Z
?OnListenEntityEvent@gCNavPath_PS@@UEAA_NAEBUeSEntityListenerEvent@@@Z
?OnListenEntityEvent@gCNavZone_PS@@UEAA_NAEBUeSEntityListenerEvent@@@Z
?OnListenEntityEvent@gCNavigation_PS@@UEAA_NAEBUeSEntityListenerEvent@@@Z
?OnListenEntityEvent@gCNegZone_PS@@UEAA_NAEBUeSEntityListenerEvent@@@Z
?OnListenEntityEvent@gCParty_PS@@UEAA_NAEBUeSEntityListenerEvent@@@Z
?OnListenEntityEvent@gCPrefPath_PS@@UEAA_NAEBUeSEntityListenerEvent@@@Z
?OnListenEntityEvent@gCWaterZone_PS@@UEAA_NAEBUeSEntityListenerEvent@@@Z
?OnLoadDynamicContext@gCWorld@@IEAA_NAEAVbCIStream@@AEAVgCDynamicLayer@@_N@Z
?OnMovementModeChanged@gCCharacterMovement_PS@@IEAAXXZ
?OnNPCDefeated@gCQuest@@QEAAXAEBVeCEntity@@@Z
?OnNPCDefeated@gCQuestManager@@QEAA_NAEBVeCEntity@@@Z
?OnNPCKilled@gCInfoSystem@@QEAA_NAEBVeCEntity@@@Z
?OnNPCKilled@gCQuest@@QEAAXAEBVeCEntity@@@Z
?OnNPCKilled@gCQuestManager@@QEAA_NAEBVeCEntity@@@Z
?OnNotifyPropertyValueChangedEnterEx@gCNavigation_PS@@UEAA_NPEBD_N@Z
?OnNotifyPropertyValueChangedEnterEx@gCQuest@@UEAA_NPEBD_N@Z
?OnNotifyPropertyValueChangedExitEx@gCCharacterMovement_PS@@MEAA_NPEBD_N@Z
?OnNotifyPropertyValueChangedExitEx@gCClock_PS@@UEAA_NPEBD_N@Z
?OnNotifyPropertyValueChangedExitEx@gCCollisionCircle_PS@@UEAA_NPEBD_N@Z
?OnNotifyPropertyValueChangedExitEx@gCCombatSystem_PS@@UEAA_NPEBD_N@Z
?OnNotifyPropertyValueChangedExitEx@gCInfoCommandClearGameEvent@@MEAA_NPEBD_N@Z
?OnNotifyPropertyValueChangedExitEx@gCInfoCommandSetGameEvent@@MEAA_NPEBD_N@Z
?OnNotifyPropertyValueChangedExitEx@gCInfoConditionPlayerKnows@@MEAA_NPEBD_N@Z
?OnNotifyPropertyValueChangedExitEx@gCInfoConditionPlayerNotKnows@@MEAA_NPEBD_N@Z
?OnNotifyPropertyValueChangedExitEx@gCInteraction_PS@@UEAA_NPEBD_N@Z
?OnNotifyPropertyValueChangedExitEx@gCLock_PS@@UEAA_NPEBD_N@Z
?OnNotifyPropertyValueChangedExitEx@gCNPC_PS@@UEAA_NPEBD_N@Z
?OnNotifyPropertyValueChangedExitEx@gCNavPath_PS@@MEAA_NPEBD_N@Z
?OnNotifyPropertyValueChangedExitEx@gCNavZone_PS@@MEAA_NPEBD_N@Z
?OnNotifyPropertyValueChangedExitEx@gCNavigation_PS@@UEAA_NPEBD_N@Z
?OnNotifyPropertyValueChangedExitEx@gCNegZone_PS@@MEAA_NPEBD_N@Z
?OnNotifyPropertyValueChangedExitEx@gCPrefPath_PS@@MEAA_NPEBD_N@Z
?OnNotifyPropertyValueChangedExitEx@gCQuest@@UEAA_NPEBD_N@Z
?OnNotifyPropertyValueChangedExitEx@gCStateGraph_PS@@UEAA_NPEBD_N@Z
?OnPopUp@gCHudPopUp2@@MEAAXXZ
?OnPopulate@gCInventoryList@@MEAAXXZ
?OnPostCopy@gCNPC_PS@@UEAAXAEBVeCEntityPropertySet@@@Z
?OnPostCopy@gCNavigation_PS@@UEAAXAEBVeCEntityPropertySet@@@Z
?OnPostCopy@gCScriptRoutine_PS@@UEAAXAEBVeCEntityPropertySet@@@Z
?OnPostRead@gCCharacterMovement_PS@@MEAAXXZ
?OnPostRead@gCCollisionCircle_PS@@UEAAXXZ
?OnPostRead@gCDynamicCollisionCircle_PS@@UEAAXXZ
?OnPostRead@gCGameScript_PS@@UEAAXXZ
?OnPostRead@gCNPC_PS@@UEAAXXZ
?OnPostRead@gCNavOffset_PS@@UEAAXXZ
?OnPostRead@gCNavPath_PS@@UEAAXXZ
?OnPostRead@gCNavZone_PS@@UEAAXXZ
?OnPostRead@gCNavigation_PS@@UEAAXXZ
?OnPostRead@gCScriptRoutine_PS@@UEAAXXZ
?OnPostRender@gCFocusModule2@@UEAAXXZ
?OnPostRender@gCHudModule2@@UEAAXXZ
?OnPrefetch@gCCharacterMovement_PS@@MEAAXAEBVbCVector@@@Z
?OnPrefetch@gCEffect_PS@@UEAAXAEBVbCVector@@@Z
?OnPrefetch@gCInventory_PS@@MEAAXAEBVbCVector@@@Z
?OnProcess@gCCharacterMovement_PS@@MEAAXXZ
?OnProcess@gCClock_PS@@UEAAXXZ
?OnProcess@gCCombatSystem_PS@@UEAAXXZ
?OnProcess@gCEffectCommand@@MEBA_NAEAUgSEffectCommandInstance@@@Z
?OnProcess@gCEffectCommandPlaySound@@MEBA_NAEAUgSEffectCommandInstance@@@Z
?OnProcess@gCEffectCommandPlayVoice@@MEBA_NAEAUgSEffectCommandInstance@@@Z
?OnProcess@gCEffectCommandRunScript@@MEBA_NAEAUgSEffectCommandInstance@@@Z
?OnProcess@gCEffectCommandStartImageEffect@@MEBA_NAEAUgSEffectCommandInstance@@@Z
?OnProcess@gCEffect_PS@@UEAAXXZ
?OnProcess@gCGameScript_PS@@UEAAXXZ
?OnProcess@gCHudSystem2@@QEAAXXZ
?OnProcess@gCNPC_PS@@UEAAXXZ
?OnProcess@gCNavigation_PS@@UEAAXXZ
?OnProcess@gCProjectile2_PS@@MEAAXXZ
?OnProcess@gCScriptRoutine_PS@@UEAAXXZ
?OnProcess@gCStateGraphAction@@UEAA_NXZ
?OnProcess@gCStateGraphActionCallScript@@UEAA_NXZ
?OnProcess@gCStateGraphActionPauseAni@@UEAA_NXZ
?OnProcess@gCStateGraphActionPlayAni@@UEAA_NXZ
?OnProcess@gCStateGraphActionStartEffect@@UEAA_NXZ
?OnProcess@gCStateGraphActionStop@@UEAA_NXZ
?OnProcess@gCStateGraphActionTrigger@@UEAA_NXZ
?OnProcess@gCStateGraphActionTriggerState@@UEAA_NXZ
?OnProcess@gCStateGraphActionUnTrigger@@UEAA_NXZ
?OnProcess@gCStateGraphActionVisibility@@UEAA_NXZ
?OnProcess@gCStateGraphActionWait@@UEAA_NXZ
?OnProcess@gCStateGraphState@@QEAAXXZ
?OnProcess@gCStateGraph_PS@@MEAAXXZ
?OnProcessEvent@gCHUDFileManager@@AEAAXXZ
?OnQueryNodesCollect@gCDummyCollectorAdmin@@KA_N_KPEAX@Z
?OnRead@eCAIHelperAdmin@@UEAA_NAEAVbCIStream@@@Z
?OnRead@gCAIHelper_FreePoint_PS@@UEAA_NAEAVbCIStream@@@Z
?OnRead@gCAIHelper_Label_PS@@UEAA_NAEAVbCIStream@@@Z
?OnRead@gCAIZone_PS@@UEAA_NAEAVbCIStream@@@Z
?OnRead@gCAnchor_PS@@UEAA_NAEAVbCIStream@@@Z
?OnRead@gCArena_PS@@UEAA_NAEAVbCIStream@@@Z
?OnRead@gCBook_PS@@UEAA_NAEAVbCIStream@@@Z
?OnRead@gCCastInfo_PS@@UEAA_NAEAVbCIStream@@@Z
?OnRead@gCCharacterControl@@UEAA_NAEAVbCIStream@@@Z
?OnRead@gCCharacterMovement_PS@@UEAA_NAEAVbCIStream@@@Z
?OnRead@gCCharacterSensor@@UEAA_NAEAVbCIStream@@@Z
?OnRead@gCClock_PS@@UEAA_NAEAVbCIStream@@@Z
?OnRead@gCCollisionCircle_PS@@UEAA_NAEAVbCIStream@@@Z
?OnRead@gCCombatSpecies@@UEAA_NAEAVbCIStream@@@Z
?OnRead@gCDamage_PS@@UEAA_NAEAVbCIStream@@@Z
?OnRead@gCDialog_PS@@UEAA_NAEAVbCIStream@@@Z
?OnRead@gCDoor_PS@@UEAA_NAEAVbCIStream@@@Z
?OnRead@gCDynamicCollisionCircle_PS@@UEAA_NAEAVbCIStream@@@Z
?OnRead@gCDynamicLayer@@UEAA_NAEAVbCIStream@@@Z
?OnRead@gCEffectCommandEarthquake@@UEAA_NAEAVbCIStream@@@Z
?OnRead@gCEffectCommandPlaySound@@UEAA_NAEAVbCIStream@@@Z
?OnRead@gCEffectCommandRunScript@@UEAA_NAEAVbCIStream@@@Z
?OnRead@gCEffectCommandSaySVM@@UEAA_NAEAVbCIStream@@@Z
?OnRead@gCEffectCommandSequence2@@UEAA_NAEAVbCIStream@@@Z
?OnRead@gCEffect_PS@@UEAA_NAEAVbCIStream@@@Z
?OnRead@gCFlightPathBallistic@@UEAA_NAEAVbCIStream@@@Z
?OnRead@gCFlightPathBase@@UEAA_NAEAVbCIStream@@@Z
?OnRead@gCFlightPathSeeking@@UEAA_NAEAVbCIStream@@@Z
?OnRead@gCGameScript_PS@@UEAA_NAEAVbCIStream@@@Z
?OnRead@gCInfo@@UEAA_NAEAVbCIStream@@@Z
?OnRead@gCInteraction_PS@@UEAA_NAEAVbCIStream@@@Z
?OnRead@gCInventorySlot@@UEAA_NAEAVbCIStream@@@Z
?OnRead@gCInventory_PS@@UEAA_NAEAVbCIStream@@@Z
?OnRead@gCItem_PS@@UEAA_NAEAVbCIStream@@@Z
?OnRead@gCLetter_PS@@UEAA_NAEAVbCIStream@@@Z
?OnRead@gCLock_PS@@UEAA_NAEAVbCIStream@@@Z
?OnRead@gCMapInfo_PS@@UEAA_NAEAVbCIStream@@@Z
?OnRead@gCMap_PS@@UEAA_NAEAVbCIStream@@@Z
?OnRead@gCNPC_PS@@UEAA_NAEAVbCIStream@@@Z
?OnRead@gCNavHelper_PS@@UEAA_NAEAVbCIStream@@@Z
?OnRead@gCNavOffset_PS@@UEAA_NAEAVbCIStream@@@Z
?OnRead@gCNavPath_PS@@UEAA_NAEAVbCIStream@@@Z
?OnRead@gCNavZone_PS@@UEAA_NAEAVbCIStream@@@Z
?OnRead@gCNavigation_PS@@UEAA_NAEAVbCIStream@@@Z
?OnRead@gCNegZone_PS@@UEAA_NAEAVbCIStream@@@Z
?OnRead@gCParty_PS@@UEAA_NAEAVbCIStream@@@Z
?OnRead@gCPrefPath_PS@@UEAA_NAEAVbCIStream@@@Z
?OnRead@gCProject@@UEAA_NAEAVbCIStream@@@Z
?OnRead@gCProjectile2_PS@@UEAA_NAEAVbCIStream@@@Z
?OnRead@gCQuest@@UEAA_NAEAVbCIStream@@@Z
?OnRead@gCRecipe_PS@@UEAA_NAEAVbCIStream@@@Z
?OnRead@gCScriptRoutine_PS@@UEAA_NAEAVbCIStream@@@Z
?OnRead@gCSector@@UEAA_NAEAVbCIStream@@@Z
?OnRead@gCSectorPersistence_PS@@UEAA_NAEAVbCIStream@@@Z
?OnRead@gCSkills_PS@@UEAA_NAEAVbCIStream@@@Z
?OnRead@gCStateGraphAction@@UEAA_NAEAVbCIStream@@@Z
?OnRead@gCStateGraphState@@UEAA_NAEAVbCIStream@@@Z
?OnRead@gCStateGraph_PS@@UEAA_NAEAVbCIStream@@@Z
?OnRead@gCWaterSubZone_PS@@UEAA_NAEAVbCIStream@@@Z
?OnRead@gCWaterZone_PS@@UEAA_NAEAVbCIStream@@@Z
?OnRead@gCWorld@@UEAA_NAEAVbCIStream@@@Z
?OnReadAchievements@gCAchievementAdmin@@AEAA_N_N@Z
?OnReleaseData@gCDynamicLayer@@MEAA_NXZ
?OnReleaseData@gCProject@@MEAA_NXZ
?OnReleaseData@gCSector@@MEAA_NXZ
?OnReleaseData@gCWorld@@MEAA_NXZ
?OnRenderDebug@gCAIHelper_FreePoint_PS@@MEAAXXZ
?OnRenderDebug@gCAnchor_PS@@MEAAXXZ
?OnRenderDebug@gCCharacterMovement_PS@@UEAAXXZ
?OnRenderDebug@gCInteraction_PS@@MEAAXXZ
?OnRenderDebug@gCNavigation_PS@@UEAAXXZ
?OnRenderDebug@gCScriptRoutine_PS@@MEAAXXZ
?OnRenderDebug@gCStateGraph_PS@@UEAAXXZ
?OnSaveGameEntityPostRead@gCGameScript_PS@@UEAAXXZ
?OnSaveGameEntityPostRead@gCNPC_PS@@UEAAXXZ
?OnSaveGameEntityPostRead@gCNavigation_PS@@UEAAXXZ
?OnSaveGameEntityPostRead@gCScriptRoutine_PS@@UEAAXXZ
?OnSerialize@gCCombatSpecies@@UEAA_NPEAVbCXMLParserNode@@@Z
?OnSerialize@gCInfo@@UEAA_NPEAVbCXMLParserNode@@@Z
?OnShowWindow@gCHudPage2@@IEAAX_N@Z
?OnSize@gCGameApp@@MEAAH_K_J@Z
?OnSortInventory@gCInventoryList@@UEAAXXZ
?OnSortInventory@gCInventory_PS@@UEAAXXZ
?OnStackChange@gCInventoryList@@UEAAXHPEBVgCInventoryStack@@@Z
?OnStackChange@gCInventory_PS@@UEAAXHPEBVgCInventoryStack@@@Z
?OnStackCreate@gCInventoryList@@UEAAXHPEBVgCInventoryStack@@@Z
?OnStackCreate@gCInventory_PS@@UEAAXHPEBVgCInventoryStack@@@Z
?OnStackDelete@gCInventoryList@@UEAAXHPEBVgCInventoryStack@@@Z
?OnStackDelete@gCInventory_PS@@UEAAXHPEBVgCInventoryStack@@@Z
?OnStakesChanged@gCNavZone_PS@@QEAAXXZ
?OnStakesChanged@gCNegZone_PS@@QEAAXXZ
?OnStakesChanged@gCNegZone_PSObj@@QEAAXXZ
?OnStart@gCEffectCommand@@MEBAXAEAUgSEffectCommandInstance@@@Z
?OnStart@gCEffectCommandEarthquake@@MEBAXAEAUgSEffectCommandInstance@@@Z
?OnStart@gCEffectCommandKillEntity@@UEBAXAEAUgSEffectCommandInstance@@@Z
?OnStart@gCEffectCommandKillEntityRange@@UEBAXAEAUgSEffectCommandInstance@@@Z
?OnStart@gCEffectCommandModifyEntity@@UEBAXAEAUgSEffectCommandInstance@@@Z
?OnStart@gCEffectCommandPlaySound@@MEBAXAEAUgSEffectCommandInstance@@@Z
?OnStart@gCEffectCommandPlayVoice@@MEBAXAEAUgSEffectCommandInstance@@@Z
?OnStart@gCEffectCommandRunScript@@MEBAXAEAUgSEffectCommandInstance@@@Z
?OnStart@gCEffectCommandSaySVM@@MEBAXAEAUgSEffectCommandInstance@@@Z
?OnStart@gCEffectCommandSpawnEntity@@UEBAXAEAUgSEffectCommandInstance@@@Z
?OnStart@gCEffectCommandSpawnEntityList@@UEBAXAEAUgSEffectCommandInstance@@@Z
?OnStart@gCEffectCommandSpawnEntitySwitch@@UEBAXAEAUgSEffectCommandInstance@@@Z
?OnStart@gCEffectCommandStartImageEffect@@MEBAXAEAUgSEffectCommandInstance@@@Z
?OnStart@gCEffectCommandTriggerEntity@@UEBAXAEAUgSEffectCommandInstance@@@Z
?OnStateFinished@gCStateGraphAction@@UEAAXXZ
?OnStateFinished@gCStateGraphActionFollowState@@UEAAXXZ
?OnStop@gCEffectCommand@@MEBAXAEAUgSEffectCommandInstance@@@Z
?OnStop@gCEffectCommandPlaySound@@MEBAXAEAUgSEffectCommandInstance@@@Z
?OnStop@gCEffectCommandPlayVoice@@MEBAXAEAUgSEffectCommandInstance@@@Z
?OnStop@gCEffectCommandRunScript@@MEBAXAEAUgSEffectCommandInstance@@@Z
?OnStop@gCEffectCommandStartImageEffect@@MEBAXAEAUgSEffectCommandInstance@@@Z
?OnToggleFixedCam@gCCameraAdmin@@QEAAXXZ
?OnToggleFreeFlyCam@gCCameraAdmin@@QEAAXXZ
?OnTouch@gCCharacterMovement_PS@@UEAAXPEAVeCEntity@@AEAVeCContactIterator@@@Z
?OnTouch@gCInteraction_PS@@MEAAXPEAVeCEntity@@AEAVeCContactIterator@@@Z
?OnTouch@gCNavPath_PS@@MEAAXPEAVeCEntity@@AEAVeCContactIterator@@@Z
?OnTouch@gCNavZone_PS@@MEAAXPEAVeCEntity@@AEAVeCContactIterator@@@Z
?OnTouch@gCNavigation_PS@@MEAAXPEAVeCEntity@@AEAVeCContactIterator@@@Z
?OnTouch@gCStateGraph_PS@@MEAAXPEAVeCEntity@@AEAVeCContactIterator@@@Z
?OnTouch@gCWaterZone_PS@@MEAAXPEAVeCEntity@@AEAVeCContactIterator@@@Z
?OnTrack@gCHudPopUp2@@MEAAXAEA_N@Z
?OnTrigger@gCEffect_PS@@MEAAXPEAVeCEntity@@0@Z
?OnTrigger@gCInteraction_PS@@MEAAXPEAVeCEntity@@0@Z
?OnTrigger@gCStateGraph_PS@@MEAAXPEAVeCEntity@@0@Z
?OnUntouch@gCCharacterMovement_PS@@UEAAXPEAVeCEntity@@AEAVeCContactIterator@@@Z
?OnUntouch@gCInteraction_PS@@MEAAXPEAVeCEntity@@AEAVeCContactIterator@@@Z
?OnUntouch@gCNavPath_PS@@MEAAXPEAVeCEntity@@AEAVeCContactIterator@@@Z
?OnUntouch@gCNavZone_PS@@MEAAXPEAVeCEntity@@AEAVeCContactIterator@@@Z
?OnUntouch@gCNavigation_PS@@MEAAXPEAVeCEntity@@AEAVeCContactIterator@@@Z
?OnUntouch@gCStateGraph_PS@@MEAAXPEAVeCEntity@@AEAVeCContactIterator@@@Z
?OnUntouch@gCWaterZone_PS@@MEAAXPEAVeCEntity@@AEAVeCContactIterator@@@Z
?OnUntrigger@gCEffect_PS@@MEAAXPEAVeCEntity@@0@Z
?OnUntrigger@gCInteraction_PS@@MEAAXPEAVeCEntity@@0@Z
?OnUntrigger@gCStateGraph_PS@@MEAAXPEAVeCEntity@@0@Z
?OnUpdateOverlays@gCInventoryList@@MEAAXHH@Z
?OnUpdatedWorldMatrix@gCCharacterMovement_PS@@MEAAXAEBVbCMatrix@@0@Z
?OnUpdatedWorldMatrix@gCDummyCollectorAdmin@@IEAAXAEAVeCDynamicEntity@@@Z
?OnUpdatedWorldMatrix@gCEditorEntityPropertySet@@MEAAXAEBVbCMatrix@@0@Z
?OnUpdatedWorldMatrix@gCEntityDummyVisual_PS@@MEAAXAEBVbCMatrix@@0@Z
?OnUpdatedWorldMatrix@gCInteraction_PS@@MEAAXAEBVbCMatrix@@0@Z
?OnUpdatedWorldMatrix@gCPropertyDummyVisual_PS@@MEAAXAEBVbCMatrix@@0@Z
?OnUserStatsReceived@CSteamAchievements@@QEAAXPEAUUserStatsReceived_t@@@Z
?OnUserStatsStored@CSteamAchievements@@QEAAXPEAUUserStatsStored_t@@@Z
?OnWndCmd@gCSpinButton@@MEAA_NG@Z
?OnWndNotify@gCInventoryList@@MEAA_NPEAUtagUI_NMHDR@@@Z
?OnWorldActivate@gCHudSystem2@@QEAAXXZ
?OnWorldEvent@gCHUDFileManager@@UEAAXIPEAX0@Z
?OnWrite@eCAIHelperAdmin@@UEAA_NAEAVbCOStream@@@Z
?OnWrite@gCAIHelper_FreePoint_PS@@UEAA_NAEAVbCOStream@@@Z
?OnWrite@gCAIHelper_Label_PS@@UEAA_NAEAVbCOStream@@@Z
?OnWrite@gCAIZone_PS@@UEAA_NAEAVbCOStream@@@Z
?OnWrite@gCAnchor_PS@@UEAA_NAEAVbCOStream@@@Z
?OnWrite@gCArena_PS@@UEAA_NAEAVbCOStream@@@Z
?OnWrite@gCBook_PS@@UEAA_NAEAVbCOStream@@@Z
?OnWrite@gCCastInfo_PS@@UEAA_NAEAVbCOStream@@@Z
?OnWrite@gCCharacterControl@@UEAA_NAEAVbCOStream@@@Z
?OnWrite@gCCharacterMovement_PS@@UEAA_NAEAVbCOStream@@@Z
?OnWrite@gCCharacterSensor@@UEAA_NAEAVbCOStream@@@Z
?OnWrite@gCClock_PS@@UEAA_NAEAVbCOStream@@@Z
?OnWrite@gCCollisionCircle_PS@@UEAA_NAEAVbCOStream@@@Z
?OnWrite@gCCombatSpecies@@UEAA_NAEAVbCOStream@@@Z
?OnWrite@gCDamage_PS@@UEAA_NAEAVbCOStream@@@Z
?OnWrite@gCDialog_PS@@UEAA_NAEAVbCOStream@@@Z
?OnWrite@gCDoor_PS@@UEAA_NAEAVbCOStream@@@Z
?OnWrite@gCDynamicCollisionCircle_PS@@UEAA_NAEAVbCOStream@@@Z
?OnWrite@gCDynamicLayer@@UEAA_NAEAVbCOStream@@@Z
?OnWrite@gCEffectCommandEarthquake@@UEAA_NAEAVbCOStream@@@Z
?OnWrite@gCEffectCommandPlaySound@@UEAA_NAEAVbCOStream@@@Z
?OnWrite@gCEffectCommandRunScript@@UEAA_NAEAVbCOStream@@@Z
?OnWrite@gCEffectCommandSaySVM@@UEAA_NAEAVbCOStream@@@Z
?OnWrite@gCEffectCommandSequence2@@UEAA_NAEAVbCOStream@@@Z
?OnWrite@gCEffect_PS@@UEAA_NAEAVbCOStream@@@Z
?OnWrite@gCFlightPathBallistic@@UEAA_NAEAVbCOStream@@@Z
?OnWrite@gCFlightPathBase@@UEAA_NAEAVbCOStream@@@Z
?OnWrite@gCFlightPathSeeking@@UEAA_NAEAVbCOStream@@@Z
?OnWrite@gCGameScript_PS@@UEAA_NAEAVbCOStream@@@Z
?OnWrite@gCInfo@@UEAA_NAEAVbCOStream@@@Z
?OnWrite@gCInteraction_PS@@UEAA_NAEAVbCOStream@@@Z
?OnWrite@gCInventorySlot@@UEAA_NAEAVbCOStream@@@Z
?OnWrite@gCInventory_PS@@UEAA_NAEAVbCOStream@@@Z
?OnWrite@gCItem_PS@@UEAA_NAEAVbCOStream@@@Z
?OnWrite@gCLetter_PS@@UEAA_NAEAVbCOStream@@@Z
?OnWrite@gCLock_PS@@UEAA_NAEAVbCOStream@@@Z
?OnWrite@gCMapInfo_PS@@UEAA_NAEAVbCOStream@@@Z
?OnWrite@gCMap_PS@@UEAA_NAEAVbCOStream@@@Z
?OnWrite@gCNPC_PS@@UEAA_NAEAVbCOStream@@@Z
?OnWrite@gCNavHelper_PS@@UEAA_NAEAVbCOStream@@@Z
?OnWrite@gCNavOffset_PS@@UEAA_NAEAVbCOStream@@@Z
?OnWrite@gCNavPath_PS@@UEAA_NAEAVbCOStream@@@Z
?OnWrite@gCNavZone_PS@@UEAA_NAEAVbCOStream@@@Z
?OnWrite@gCNavigation_PS@@UEAA_NAEAVbCOStream@@@Z
?OnWrite@gCNegZone_PS@@UEAA_NAEAVbCOStream@@@Z
?OnWrite@gCParty_PS@@UEAA_NAEAVbCOStream@@@Z
?OnWrite@gCPrefPath_PS@@UEAA_NAEAVbCOStream@@@Z
?OnWrite@gCProject@@UEAA_NAEAVbCOStream@@@Z
?OnWrite@gCProjectile2_PS@@UEAA_NAEAVbCOStream@@@Z
?OnWrite@gCQuest@@UEAA_NAEAVbCOStream@@@Z
?OnWrite@gCRecipe_PS@@UEAA_NAEAVbCOStream@@@Z
?OnWrite@gCScriptRoutine_PS@@UEAA_NAEAVbCOStream@@@Z
?OnWrite@gCSector@@UEAA_NAEAVbCOStream@@@Z
?OnWrite@gCSectorPersistence_PS@@UEAA_NAEAVbCOStream@@@Z
?OnWrite@gCSkills_PS@@UEAA_NAEAVbCOStream@@@Z
?OnWrite@gCStateGraphAction@@UEAA_NAEAVbCOStream@@@Z
?OnWrite@gCStateGraphState@@UEAA_NAEAVbCOStream@@@Z
?OnWrite@gCStateGraph_PS@@UEAA_NAEAVbCOStream@@@Z
?OnWrite@gCWaterSubZone_PS@@UEAA_NAEAVbCOStream@@@Z
?OnWrite@gCWaterZone_PS@@UEAA_NAEAVbCOStream@@@Z
?OnWrite@gCWorld@@UEAA_NAEAVbCOStream@@@Z
?OnWriteAchievements@gCAchievementAdmin@@AEAA_N_N@Z
?Open@gCHudSystem2@@QEAA_NW4gEHudPage@@@Z
?OpenQuest@gCQuestManager@@QEAA_NAEBVbCString@@@Z
?OpenQuest@gCQuestManager@@QEAA_NPEAVgCQuest@@@Z
?OpenSaveGame@gCSaveGameManager@@AEAA_NAEBVbCString@@AEAVeCArchiveFile@@AEAVgCSaveGame@@AEAKAEAUSToc@@PEAVIFFFileStream2@@@Z
?Pause@gCSession@@QEAAXXZ
?PauseNavigation@gCNavigationAdmin@@IEAAXXZ
?PauseProcessing@gCNavigationAdmin@@QEAA?AW4bEResult@@_N@Z
?Play@gCPlayList@@QEAA_NXZ
?PlayMusic@gCPlayList@@SAXAEBVbCString@@@Z
?PopulateSvmTable@gCSvmAdmin@@QEBA_NXZ
?PopulateTableColumn@gCSvmAdmin@@IEBA_NPEAVCFXTable@@HW4ETableAppendixColumn@1@AEBV?$bTObjArray@USCombination@gCSvmAdmin@@@@@Z
?PopulateTableColumn@gCSvmAdmin@@IEBA_NPEAVCFXTable@@HW4ETableLanguageColumn@1@AEBVbCString@@AEBV?$bTObjArray@USCombination@gCSvmAdmin@@@@@Z
?PostAutoSave@gCHUDFileManager@@QEAAXAEBVbCString@@@Z
?PostGameEvent@gCHUDFileManager@@AEAAXW4gEEventID@1@AEBVbCUnicodeString@@H@Z
?PostInitialize@gCAchievementAdmin@@UEAA?AW4bEResult@@XZ
?PostInitialize@gCCameraAdmin@@UEAA?AW4bEResult@@XZ
?PostInitialize@gCCombatAdmin@@UEAA?AW4bEResult@@XZ
?PostInitialize@gCDummyCollectorAdmin@@UEAA?AW4bEResult@@XZ
?PostInitialize@gCEffectModule@@UEAA?AW4bEResult@@XZ
?PostInitialize@gCInfoModule@@UEAA?AW4bEResult@@XZ
?PostInitialize@gCMusicModule2@@UEAA?AW4bEResult@@XZ
?PostInitialize@gCNavigationAdmin@@UEAA?AW4bEResult@@XZ
?PostInitialize@gCPartyAdmin@@UEAA?AW4bEResult@@XZ
?PostInitialize@gCQuestManager@@UEAA?AW4bEResult@@XZ
?PostInitialize@gCScriptAdmin@@UEAA?AW4bEResult@@XZ
?PostInitialize@gCSession@@UEAA?AW4bEResult@@XZ
?PostInitialize@gCTutorialAdmin@@UEAA?AW4bEResult@@XZ
?PostInitializeProperties@gCAchievement@@UEAA?AW4bEResult@@XZ
?PostInitializeProperties@gCBook_PS@@UEAA?AW4bEResult@@XZ
?PostInitializeProperties@gCCastInfo_PS@@UEAA?AW4bEResult@@XZ
?PostInitializeProperties@gCCharacterMovement_PS@@UEAA?AW4bEResult@@XZ
?PostInitializeProperties@gCCharacterSensor@@UEAA?AW4bEResult@@XZ
?PostInitializeProperties@gCClock_PS@@UEAA?AW4bEResult@@XZ
?PostInitializeProperties@gCCollisionCircle_PS@@UEAA?AW4bEResult@@XZ
?PostInitializeProperties@gCCombatAI@@UEAA?AW4bEResult@@XZ
?PostInitializeProperties@gCCombatAIMelee@@UEAA?AW4bEResult@@XZ
?PostInitializeProperties@gCCombatAIRanged@@UEAA?AW4bEResult@@XZ
?PostInitializeProperties@gCCombatMove@@UEAA?AW4bEResult@@XZ
?PostInitializeProperties@gCCombatMoveAim@@UEAA?AW4bEResult@@XZ
?PostInitializeProperties@gCCombatMoveComboSwitch@@UEAA?AW4bEResult@@XZ
?PostInitializeProperties@gCCombatMoveFinishing@@UEAA?AW4bEResult@@XZ
?PostInitializeProperties@gCCombatMoveMelee@@UEAA?AW4bEResult@@XZ
?PostInitializeProperties@gCCombatMoveOverlayStumble@@UEAA?AW4bEResult@@XZ
?PostInitializeProperties@gCCombatMoveParade@@UEAA?AW4bEResult@@XZ
?PostInitializeProperties@gCCombatMoveReload@@UEAA?AW4bEResult@@XZ
?PostInitializeProperties@gCCombatMoveScriptState@@UEAA?AW4bEResult@@XZ
?PostInitializeProperties@gCCombatMoveShoot@@UEAA?AW4bEResult@@XZ
?PostInitializeProperties@gCCombatMoveStumble@@UEAA?AW4bEResult@@XZ
?PostInitializeProperties@gCCombatSpecies@@UEAA?AW4bEResult@@XZ
?PostInitializeProperties@gCCombatStyle@@UEAA?AW4bEResult@@XZ
?PostInitializeProperties@gCCombatStyleMelee@@UEAA?AW4bEResult@@XZ
?PostInitializeProperties@gCCombatStyleRanged@@UEAA?AW4bEResult@@XZ
?PostInitializeProperties@gCCombatSystem_PS@@UEAA?AW4bEResult@@XZ
?PostInitializeProperties@gCDamage_PS@@UEAA?AW4bEResult@@XZ
?PostInitializeProperties@gCDialog_PS@@UEAA?AW4bEResult@@XZ
?PostInitializeProperties@gCDoor_PS@@UEAA?AW4bEResult@@XZ
?PostInitializeProperties@gCEffectCommandEarthquake@@UEAA?AW4bEResult@@XZ
?PostInitializeProperties@gCEffectCommandPlaySound@@UEAA?AW4bEResult@@XZ
?PostInitializeProperties@gCEffectCommandPlayVoice@@UEAA?AW4bEResult@@XZ
?PostInitializeProperties@gCEffectCommandRunScript@@UEAA?AW4bEResult@@XZ
?PostInitializeProperties@gCEffectCommandSaySVM@@UEAA?AW4bEResult@@XZ
?PostInitializeProperties@gCEffectCommandSequence2@@MEAA?AW4bEResult@@XZ
?PostInitializeProperties@gCEffect_PS@@UEAA?AW4bEResult@@XZ
?PostInitializeProperties@gCFlightPathBallistic@@UEAA?AW4bEResult@@XZ
?PostInitializeProperties@gCFlightPathBase@@UEAA?AW4bEResult@@XZ
?PostInitializeProperties@gCFlightPathSeeking@@UEAA?AW4bEResult@@XZ
?PostInitializeProperties@gCGameScript_PS@@UEAA?AW4bEResult@@XZ
?PostInitializeProperties@gCHudDialog2@@MEAA?AW4bEResult@@XZ
?PostInitializeProperties@gCHudPage2@@MEAA?AW4bEResult@@XZ
?PostInitializeProperties@gCHudPopUp2@@MEAA?AW4bEResult@@XZ
?PostInitializeProperties@gCInfo@@UEAA?AW4bEResult@@XZ
?PostInitializeProperties@gCInfoCommandAddInfoSystemEndScript@@UEAA?AW4bEResult@@XZ
?PostInitializeProperties@gCInfoCommandRunScript@@UEAA?AW4bEResult@@XZ
?PostInitializeProperties@gCInteraction_PS@@UEAA?AW4bEResult@@XZ
?PostInitializeProperties@gCInventoryList@@UEAA?AW4bEResult@@XZ
?PostInitializeProperties@gCInventorySlot@@UEAA?AW4bEResult@@XZ
?PostInitializeProperties@gCInventoryStack@@UEAA?AW4bEResult@@XZ
?PostInitializeProperties@gCItem_PS@@UEAA?AW4bEResult@@XZ
?PostInitializeProperties@gCLayerBase@@UEAA?AW4bEResult@@XZ
?PostInitializeProperties@gCLetter_PS@@UEAA?AW4bEResult@@XZ
?PostInitializeProperties@gCLock_PS@@UEAA?AW4bEResult@@XZ
?PostInitializeProperties@gCMapInfo_PS@@UEAA?AW4bEResult@@XZ
?PostInitializeProperties@gCMap_PS@@UEAA?AW4bEResult@@XZ
?PostInitializeProperties@gCNavPath_PS@@UEAA?AW4bEResult@@XZ
?PostInitializeProperties@gCNavZone_PS@@UEAA?AW4bEResult@@XZ
?PostInitializeProperties@gCNavigation_PS@@MEAA?AW4bEResult@@XZ
?PostInitializeProperties@gCProject@@UEAA?AW4bEResult@@XZ
?PostInitializeProperties@gCProjectile2_PS@@UEAA?AW4bEResult@@XZ
?PostInitializeProperties@gCQuest@@UEAA?AW4bEResult@@XZ
?PostInitializeProperties@gCQuestLogFrame2@@MEAA?AW4bEResult@@XZ
?PostInitializeProperties@gCQuestManager@@UEAA?AW4bEResult@@XZ
?PostInitializeProperties@gCRecipe_PS@@UEAA?AW4bEResult@@XZ
?PostInitializeProperties@gCScriptRoutine_PS@@UEAA?AW4bEResult@@XZ
?PostInitializeProperties@gCSector@@UEAA?AW4bEResult@@XZ
?PostInitializeProperties@gCSessionCheats@@UEAA?AW4bEResult@@XZ
?PostInitializeProperties@gCSessionInfo@@UEAA?AW4bEResult@@XZ
?PostInitializeProperties@gCSkills_PS@@UEAA?AW4bEResult@@XZ
?PostInitializeProperties@gCSpinButton@@MEAA?AW4bEResult@@XZ
?PostInitializeProperties@gCStateGraphActionEventDispatcher@@UEAA?AW4bEResult@@XZ
?PostInitializeProperties@gCStateGraphActionTrigger@@UEAA?AW4bEResult@@XZ
?PostInitializeProperties@gCStateGraphActionTriggerState@@UEAA?AW4bEResult@@XZ
?PostInitializeProperties@gCStateGraphActionUnTrigger@@UEAA?AW4bEResult@@XZ
?PostInitializeProperties@gCStateGraphActionWait@@UEAA?AW4bEResult@@XZ
?PostInitializeProperties@gCStateGraph_PS@@UEAA?AW4bEResult@@XZ
?PostInitializeProperties@gCTutorialEvent@@UEAA?AW4bEResult@@XZ
?PostInitializeProperties@gCTutorialHint@@UEAA?AW4bEResult@@XZ
?PostInitializeProperties@gCTutorialHintCollection@@UEAA?AW4bEResult@@XZ
?PostInitializeProperties@gCWaterZone_PS@@UEAA?AW4bEResult@@XZ
?PostInitializeProperties@gCWorld@@UEAA?AW4bEResult@@XZ
?PostLoad@gCHUDFileManager@@QEAAXAEBVbCUnicodeString@@H@Z
?PostNewGame@gCHUDFileManager@@QEAAXXZ
?PostPrefetch@gCHUDFileManager@@QEAAXXZ
?PostProcessMovements@gCCharacterSensor@@IEAAXXZ
?PostQuickLoad@gCHUDFileManager@@QEAAXXZ
?PostQuickSave@gCHUDFileManager@@QEAAXXZ
?PostSave@gCHUDFileManager@@QEAAXAEBVbCUnicodeString@@H@Z
?PreCreateWindowW@gCQuestLogFrame2@@MEAA_NAEAUtagUI_CREATESTRUCTW@@@Z
?PreHandleMessage@gCHudSystem2@@UEAA_NIIJ@Z
?PreShutdown@gCWorkspace@@UEAA?AW4bEResult@@XZ
?Prefetch@gCEffectCommand@@UEAA_NXZ
?Prefetch@gCEffectCommandPlaySound@@UEAA_NXZ
?Prefetch@gCEffectCommandPlayVoice@@UEAA_NXZ
?Prefetch@gCEffectCommandSpawnEntity@@UEAA_NXZ
?Prefetch@gCEffectCommandSpawnEntityList@@UEAA_NXZ
?Prefetch@gCEffectCommandSpawnEntitySwitch@@UEAA_NXZ
?Prefetch@gCHUDFileManager@@AEAAXXZ
?PrefetchEffect@gCEffectSystem@@UEAA_NAEBVbCString@@@Z
?PrepareExecute@gCRuntimeInfo@@IEAA_NAEA_N@Z
?PrepareSpecialPlayerGoto@gCNavigationMapNavigator@@IEAA?AW4bEResult@@PEAVgCNavigation_PS@@AEBVbCVector@@AEBVbCString@@@Z
?PrepareSpecialTargetGoto@gCNavigationMapNavigator@@IEAA?AW4bEResult@@PEAVgCNavigation_PS@@AEBVbCVector@@AEAV4@AEAVbCPropertyID@@AEA_NAEBVbCString@@4@Z
?PrintGameLog@gCHudSystem2@@QEAA_NAEBVbCUnicodeString@@W4gELogMessageType@@PEAVIFFGuiBitmap2@@_NPEAD@Z
?PrintItemLog@gCHudSystem2@@QEAA_NPEAVeCEntity@@H@Z
?ProceedWithStandardTraveling@gCNavigationMapNavigator@@IEAA_NPEAVgCNavigation_PS@@PEAVgCCharacterMovement_PS@@_N@Z
?ProceedWithTraveling@gCNavigationMapNavigator@@IEAA_NPEAVgCNavigation_PS@@PEAVgCCharacterMovement_PS@@_N@Z
?Process@gCAchievementAdmin@@UEAAXXZ
?Process@gCCameraAdmin@@UEAAXXZ
?Process@gCCombatAdmin@@UEAAXXZ
?Process@gCDummyCollectorAdmin@@UEAAXXZ
?Process@gCEffect@@QEAA_NM@Z
?Process@gCEffectCommand@@QEBA_NAEAUgSEffectCommandInstance@@@Z
?Process@gCEffectModule@@UEAAXXZ
?Process@gCEffectSystem@@QEAAXM@Z
?Process@gCFocusModule2@@UEAAXXZ
?Process@gCHudModule2@@UEAAXXZ
?Process@gCInfoModule@@UEAAXXZ
?Process@gCInfoSystem@@QEAAXXZ
?Process@gCMusicModule2@@UEAAXXZ
?Process@gCNavigationAdmin@@UEAAXXZ
?Process@gCRuntimeInfo@@QEAAXXZ
?Process@gCScriptAdmin@@UEAAXXZ
?Process@gCSession@@UEAAXXZ
?Process@gCSessionCheats@@QEAAXXZ
?Process@gCSessionInfo@@QEAAXXZ
?Process@gCTutorialAdmin@@UEAAXXZ
?ProcessAdditionalMovementVelo@gCCharacterMovement_PS@@IEAAXXZ
?ProcessAnimationMovements@gCCharacterMovement_PS@@IEAAXXZ
?ProcessBegin@gCActionAdmin@@UEAAXXZ
?ProcessClimbHigh@gCCharacterMovement_PS@@IEAAXXZ
?ProcessClimbStandard@gCCharacterMovement_PS@@IEAAXXZ
?ProcessControledMovements@gCCharacterMovement_PS@@IEAAXXZ
?ProcessControledRotation@gCCharacterMovement_PS@@IEAAXXZ
?ProcessControledRotationLookAt@gCCharacterMovement_PS@@IEAAXAEAVbCVector@@@Z
?ProcessControledRotationToTarget@gCCharacterMovement_PS@@IEAAXXZ
?ProcessControledTranslation@gCCharacterMovement_PS@@IEAAXXZ
?ProcessDebugKeys@gCActionAdmin@@IEAAXXZ
?ProcessEnd@gCActionAdmin@@UEAAXXZ
?ProcessEvents@gCTutorialAdmin@@AEAA_NXZ
?ProcessExitScript@gCScriptProcessingUnit@@QEAAXXZ
?ProcessFreeNavigationJump@gCCharacterMovement_PS@@IEAAXXZ
?ProcessHints@gCTutorialAdmin@@QEAA_NXZ
?ProcessInfo@gCInfoSystem@@QEAA_NPEAX@Z
?ProcessInfoSystemEndScriptList@gCInfoSystem@@QEAA_NXZ
?ProcessMovementAnimation@gCCharacterMovement_PS@@IEAAXXZ
?ProcessMovements@gCCharacterControl@@QEAAXPEAVeCGeometryEntity@@@Z
?ProcessMovements@gCCharacterMovement_PS@@IEAAXXZ
?ProcessPhysicsMovements@gCCharacterMovement_PS@@IEAAXXZ
?ProcessPlayerMovements@gCCharacterSensor@@IEAAXPEAVeCGeometryEntity@@@Z
?ProcessQuadrupedXRotation@gCCharacterMovement_PS@@IEAAXAEAVbCQuaternion@@_N@Z
?ProcessScript@gCScriptProcessingUnit@@QEAA?AW4bEResult@@XZ
?ProcessSensorMovements@gCCharacterMovement_PS@@QEAAXXZ
?ProcessStatusEffect@gCNPC_PS@@IEAAXHK@Z
?ProcessStatusEffects@gCNPC_PS@@IEAAXXZ
?ProcessSubStep@gCProjectile2_PS@@IEAA_NXZ
?ProcessWorldTorchTimer@gCSession@@QEAAJXZ
?PurgeListeners@gCInventory_PS@@IEAAXXZ
?PutToGround@gCCharacterMovement_PS@@QEAAM_N0@Z
?QueryInterface@gCBaseDropData@@UEAAKAEBUFFGUID@@PEAPEAX@Z
?QueryInterface@gCInfoDropData@@UEAAKAEBUFFGUID@@PEAPEAX@Z
?QueryParty@gCPartyAdmin@@QEAAPEAVgCParty@@AEBVbCString@@AEBVeCEntityProxy@@@Z
?QueryScript@gCScriptProxyAICallback@@MEAAPEAUeSScriptBase@@AEBVbCString@@@Z
?QueryScript@gCScriptProxyAIFunction@@MEAAPEAUeSScriptBase@@AEBVbCString@@@Z
?QueryScript@gCScriptProxyAIState@@MEAAPEAUeSScriptBase@@AEBVbCString@@@Z
?QuestBegin@gCQuestManager@@QEBA?AVbCConstIterator@?$bTValMap@VbCString@@PEAVgCQuest@@@@XZ
?QuestEnd@gCQuestManager@@QEBA?AVbCConstIterator@?$bTValMap@VbCString@@PEAVgCQuest@@@@XZ
?QuickSave@gCSaveGameManager@@QEAA_NAEBVbCString@@AEAVgCSaveGame@@@Z
?ReBuildSlot@gCInventorySlot@@QEAA_NPEAVeCEntity@@@Z
?ReSize@gCHudSystem2@@QEAAXHH@Z
?Read@gCSaveGame@@AEAA_NAEAVbCIStream@@AEBVbCString@@@Z
?Read@gCStateGraphTransition@@QEAAXAEAVbCIStream@@@Z
?Read@gCSvmAdmin@@IEAA_NAEAVbCIStream@@@Z
?Read@gCSvmAdmin@@QEAA_NXZ
?ReadActionMap@gCActionAdmin@@IEAA_NXZ
?ReadCameraDocs@gCCameraAdmin@@QEAA_NXZ
?ReadCompiledComSeq@gCInfo@@QEAAXAEAVbCIStream@@@Z
?ReadCompiledCondSeq@gCInfo@@QEAAXAEAVbCIStream@@@Z
?ReadConfigUser@gCTutorialAdmin@@QEAA_NXZ
?ReadDebugKeyMap@gCActionAdmin@@IEAA_NXZ
?ReadEffects@gCEffectSystem@@QEAA_NXZ
?ReadLists@gCNavigationMapCompiler@@IEAA?AW4bEResult@@XZ
?ReadQuests@gCQuestManager@@QEAA_NXZ
?ReadRuntimeData@gCInfo@@UEAA?AW4bEResult@@AEAVbCIStream@@@Z
?ReadRuntimeData@gCQuest@@QEAA?AW4bEResult@@AEAVbCIStream@@@Z
?ReadSaveGame@gCCameraAdmin@@MEAA?AW4bEResult@@AEAVbCIStream@@@Z
?ReadSaveGame@gCClock_PS@@UEAA?AW4bEResult@@AEAVbCIStream@@@Z
?ReadSaveGame@gCDynamicLayer@@UEAA_NAEAVeCArchiveFile@@AEBV?$bTObjMap@VbCString@@K@@_J@Z
?ReadSaveGame@gCEffect_PS@@UEAA?AW4bEResult@@AEAVbCIStream@@@Z
?ReadSaveGame@gCGameScript_PS@@UEAA?AW4bEResult@@AEAVbCIStream@@@Z
?ReadSaveGame@gCInfoModule@@MEAA?AW4bEResult@@AEAVbCIStream@@@Z
?ReadSaveGame@gCInfoSystem@@UEAA?AW4bEResult@@AEAVbCIStream@@@Z
?ReadSaveGame@gCInteraction_PS@@UEAA?AW4bEResult@@AEAVbCIStream@@@Z
?ReadSaveGame@gCInventory_PS@@UEAA?AW4bEResult@@AEAVbCIStream@@@Z
?ReadSaveGame@gCLayerBase@@UEAA_NAEAVeCArchiveFile@@AEBV?$bTObjMap@VbCString@@K@@_J@Z
?ReadSaveGame@gCLock_PS@@UEAA?AW4bEResult@@AEAVbCIStream@@@Z
?ReadSaveGame@gCNPC_PS@@UEAA?AW4bEResult@@AEAVbCIStream@@@Z
?ReadSaveGame@gCNavigation_PS@@UEAA?AW4bEResult@@AEAVbCIStream@@@Z
?ReadSaveGame@gCQuestManager@@MEAA?AW4bEResult@@AEAVbCIStream@@@Z
?ReadSaveGame@gCScriptRoutine_PS@@UEAA?AW4bEResult@@AEAVbCIStream@@@Z
?ReadSaveGame@gCSector@@QEAAXAEAVeCArchiveFile@@AEBV?$bTObjMap@VbCString@@K@@_J@Z
?ReadSaveGame@gCSession@@MEAA?AW4bEResult@@AEAVbCIStream@@@Z
?ReadSaveGame@gCSkills_PS@@UEAA?AW4bEResult@@AEAVbCIStream@@@Z
?ReadSaveGame@gCStateGraph_PS@@UEAA?AW4bEResult@@AEAVbCIStream@@@Z
?ReadSaveGame@gCTutorialAdmin@@MEAA?AW4bEResult@@AEAVbCIStream@@@Z
?ReadSaveGame@gCWorld@@QEAA_NAEAVeCArchiveFile@@@Z
?ReadSaveGameHeader@gCSaveGameManager@@AEAA_NAEAVeCArchiveFile@@AEAVgCSaveGame@@AEAKAEAUSToc@@PEAVIFFFileStream2@@@Z
?ReadSvmTable@gCSvmAdmin@@QEAA_NXZ
?ReadV212@gCInventory_PS@@IEAA_NAEAVbCIStream@@@Z
?RecompilationNeeded@gCNavigationMapCompiler@@IEAA_NAEBVbCString@@AEBVbCDateTime@@@Z
?RecompileStaticNavigationScene@gCNavigationMapCompiler@@IEAA?AW4bEResult@@_NAEBVbCString@@AEBVbCDateTime@@@Z
?Refresh@gCDummyCollectorFreepoint@@UEAA?AW4bEResult@@AEAVeCDynamicEntity@@@Z
?Refresh@gCDummyCollectorFreepoint@@UEAA?AW4bEResult@@AEBVbCBox@@@Z
?Refresh@gCDummyCollectorNavOffset@@UEAA?AW4bEResult@@AEAVeCDynamicEntity@@@Z
?Refresh@gCDummyCollectorNavOffset@@UEAA?AW4bEResult@@AEBVbCBox@@@Z
?Refresh@gCDummyCollectorNavPath@@UEAA?AW4bEResult@@AEAVeCDynamicEntity@@@Z
?Refresh@gCDummyCollectorNavPath@@UEAA?AW4bEResult@@AEBVbCBox@@@Z
?Refresh@gCDummyCollectorNavZone@@UEAA?AW4bEResult@@AEAVeCDynamicEntity@@@Z
?Refresh@gCDummyCollectorNavZone@@UEAA?AW4bEResult@@AEBVbCBox@@@Z
?Refresh@gCDummyCollectorNegZone@@UEAA?AW4bEResult@@AEAVeCDynamicEntity@@@Z
?Refresh@gCDummyCollectorNegZone@@UEAA?AW4bEResult@@AEBVbCBox@@@Z
?Refresh@gCDummyCollectorPSet_Base@@UEAA?AW4bEResult@@AEAVeCDynamicEntity@@@Z
?Refresh@gCDummyCollectorPSet_Base@@UEAA?AW4bEResult@@AEBVbCBox@@@Z
?Refresh@gCDummyCollectorPrefPath@@UEAA?AW4bEResult@@AEAVeCDynamicEntity@@@Z
?Refresh@gCDummyCollectorPrefPath@@UEAA?AW4bEResult@@AEBVbCBox@@@Z
?RefreshAdditionalProperties@gCDummyCollectorNavZone@@IEAAXPEAVeCEntityPropertySet@@H@Z
?RefreshAdditionalProperties@gCDummyCollectorNegZone@@IEAAXPEAVeCEntityPropertySet@@H@Z
?RefreshAdditionalProperties@gCDummyCollectorPrefPath@@IEAAXPEAVeCEntityPropertySet@@H@Z
?RefreshCollector@gCDummyCollectorAdmin@@QEAAXW4eEPropertySetType@@AEBVbCBox@@@Z
?RefreshIndexToNameMap@gCHUDFileManager@@QEAAXXZ
?RefreshParentChildInfos@gCInfo@@QEAAXXZ
?RefreshParentChildInfos@gCInfoSystem@@QEAAXXZ
?RefreshPropertySet@gCDummyCollectorPSet_Base@@IEAA?AW4bEResult@@AEBVbCBox@@AEBW4eEPropertySetType@@@Z
?RefreshSaveGameImage@gCHUDFileManager@@QEAAXAEBVbCString@@@Z
?RefreshSaveGameList@gCHUDFileManager@@QEAAXXZ
?RegisterAllNavHelpers@gCNavigationMapCompiler@@IEAA?AW4bEResult@@AEAV?$bTObjArray@VbCString@@@@0@Z
?RegisterAnchorPS@gCNavigationAdmin@@QEAA?AW4bEResult@@PEAVgCAnchor_PS@@@Z
?RegisterClient@gCWorldEventSource@@QEAA_NPEAVgIWorldEventClient@@@Z
?RegisterCollisionCirclePS@gCNavigationAdmin@@QEAA?AW4bEResult@@PEAVgCCollisionCircle_PS@@@Z
?RegisterCollisionCirclePS@gCNavigationMap@@QEAA?AW4bEResult@@PEAVgCCollisionCircle_PS@@@Z
?RegisterCollisionCirclePSObject@gCNavZone_PS@@QEAA?AW4bEResult@@PEAVgCCollisionCircle_PSObj@@@Z
?RegisterDCCPS@gCNavPath_PS@@QEAA?AW4bEResult@@PEAVgCDynamicCollisionCircle_PS@@@Z
?RegisterDCCPS@gCNavZone_PS@@QEAA?AW4bEResult@@PEAVgCDynamicCollisionCircle_PS@@@Z
?RegisterDoorPS@gCNavigationAdmin@@QEAA?AW4bEResult@@PEAVgCDoor_PS@@@Z
?RegisterFreePointPS@gCNavigationAdmin@@QEAA?AW4bEResult@@PEAVgCAIHelper_FreePoint_PS@@@Z
?RegisterFreePointPS@gCNavigationMap@@QEAA?AW4bEResult@@PEAVgCAIHelper_FreePoint_PS@@@Z
?RegisterInteractionPS@gCNavigationAdmin@@QEAA?AW4bEResult@@PEAVgCInteraction_PS@@@Z
?RegisterInteractionPS@gCNavigationMap@@QEAA?AW4bEResult@@PEAVgCInteraction_PS@@@Z
?RegisterNavOffsetPS@gCNavigationAdmin@@QEAA?AW4bEResult@@PEAVgCNavOffset_PS@@@Z
?RegisterNavOffsetPS@gCNavigationMap@@QEAA?AW4bEResult@@PEAVgCNavOffset_PS@@@Z
?RegisterNavPathPS@gCNavigationAdmin@@QEAA?AW4bEResult@@PEAVgCNavPath_PS@@@Z
?RegisterNavPathPS@gCNavigationMap@@QEAA?AW4bEResult@@PEAVgCNavPath_PS@@@Z
?RegisterNavZonePS@gCNavigationAdmin@@QEAA?AW4bEResult@@PEAVgCNavZone_PS@@@Z
?RegisterNavZonePS@gCNavigationMap@@QEAA?AW4bEResult@@PEAVgCNavZone_PS@@@Z
?RegisterNavigationPS@gCNavigationAdmin@@QEAA?AW4bEResult@@PEAVgCNavigation_PS@@@Z
?RegisterNavigationPSInROI@gCNavigationAdmin@@QEAA?AW4bEResult@@PEAVgCNavigation_PS@@@Z
?RegisterNegZonePS@gCNavigationAdmin@@QEAA?AW4bEResult@@PEAVgCNegZone_PS@@@Z
?RegisterNegZonePS@gCNavigationMap@@QEAA?AW4bEResult@@PEAVgCNegZone_PS@@@Z
?RegisterNegZonePSObject@gCNavZone_PS@@QEAA?AW4bEResult@@PEAVgCNegZone_PSObj@@@Z
?RegisterPopUps@gCHudSystem2@@AEAAXXZ
?RegisterPrefPathPS@gCNavigationAdmin@@QEAA?AW4bEResult@@PEAVgCPrefPath_PS@@@Z
?RegisterPrefPathPS@gCNavigationMap@@QEAA?AW4bEResult@@PEAVgCPrefPath_PS@@@Z
?RegisterPrefPathPSObject@gCNavZone_PS@@QEAA?AW4bEResult@@PEAVgCPrefPath_PSObj@@@Z
?RegisterQuestByName@gCQuestManager@@IEAAXPEAVgCQuest@@@Z
?RegisterScript@gCScriptAdmin@@MEAAPEAUgSScript@@AEBVbCString@@@Z
?RegisterScriptAICallback@gCScriptAdmin@@IEAAPEAUgSScriptAICallback@@AEBVbCString@@@Z
?RegisterScriptAIFunction@gCScriptAdmin@@IEAAPEAUgSScriptAIFunction@@AEBVbCString@@@Z
?RegisterScriptAIState@gCScriptAdmin@@IEAAPEAUgSScriptAIState@@AEBVbCString@@@Z
?RegisterWaterZonePS@gCNavigationAdmin@@QEAA?AW4bEResult@@PEAVgCWaterZone_PS@@@Z
?Release@gCBaseDropData@@UEAAKXZ
?Release@gCInfoDropData@@UEAAKXZ
?ReleaseParty@gCPartyAdmin@@QEAAPEAVgCParty@@AEBVbCString@@AEBVeCEntityProxy@@@Z
?ReleaseScript@gCScriptProxyAICallback@@MEAAXPEAUeSScriptBase@@@Z
?ReleaseScript@gCScriptProxyAIFunction@@MEAAXPEAUeSScriptBase@@@Z
?ReleaseScript@gCScriptProxyAIState@@MEAAXPEAUeSScriptBase@@@Z
?Reload@gCDynamicLayer@@UEAA_NXZ
?Reload@gCLayerBase@@UEAA_NXZ
?Reload@gCSector@@QEAAXXZ
?Reload@gCWorld@@QEAAXXZ
?ReloadControllerReq@gCActionAdmin@@QEAAXXZ
?ReloadLocalePage@gCHudSystem2@@QEAAXXZ
?ReloadRawInfos@gCInfoSystem@@QEAA_NXZ
?RemoveAction@gCStateGraphState@@QEAA_NPEAVgCStateGraphAction@@@Z
?RemoveAll@gCProject@@QEAAXXZ
?RemoveAll@gCSector@@QEAA_NXZ
?RemoveAll@gCWorkspace@@QEAAXXZ
?RemoveAll@gCWorld@@QEAAXXZ
?RemoveAllComSeqItems@gCInfo@@QEAAXXZ
?RemoveAllCondSeqItems@gCInfo@@QEAAXXZ
?RemoveAllItems@gCEffectCommandSequence2@@QEAAXXZ
?RemoveCharacter@gCInventoryList@@QEAAXXZ
?RemoveChildInfo@gCInfo@@QEAAXPEAV1@@Z
?RemoveComSeqItem@gCInfo@@QEAA_NH@Z
?RemoveComSeqItem@gCInfo@@QEAA_NPEAVgCInfoCommand@@@Z
?RemoveCondSeqItem@gCInfo@@QEAA_NH@Z
?RemoveCondSeqItem@gCInfo@@QEAA_NPEAVgCInfoCondition@@@Z
?RemoveCurrentDestination@gCNavigationMapNavigator@@IEAAXPEAVgCNavigation_PS@@@Z
?RemoveDuplicatedInfos@gCInfoSystem@@SAXAEAV?$bTValArray@PEAVgCInfo@@@@W4gEInfoCondType@@@Z
?RemoveDuplicatedInfos@gCInfoSystem@@SAXAEAV?$bTValArray@PEAVgCRuntimeInfo@@@@W4gEInfoCondType@@@Z
?RemoveDynamicLayer@gCSector@@QEAA?AW4eEResult@eCProcessibleElement@@PEAVgCDynamicLayer@@@Z
?RemoveDynamicLayerInternal@gCSector@@IEAA?AW4eEResult@eCProcessibleElement@@PEAVgCDynamicLayer@@@Z
?RemoveEntity@gCDummyCollectorAdmin@@QEAAXAEAVeCDynamicEntity@@@Z
?RemoveEntity@gCMap_PS@@QEAA_NAEBVbCString@@0@Z
?RemoveFightAI@gCCombatSpecies@@QEAAXPEAVgCCombatAI@@@Z
?RemoveFromCollection@gCDummyCollectorEntity@@UEAA?AW4bEResult@@AEAVeCDynamicEntity@@@Z
?RemoveFromCollection@gCDummyCollectorPSet_Base@@QEAA?AW4bEResult@@H@Z
?RemoveFromCollection@gCDummyCollectorPSet_Base@@UEAA?AW4bEResult@@AEAVeCDynamicEntity@@@Z
?RemoveFromCollectionInternal@gCDummyCollectorPSet_Base@@MEAAXAEAVeCDynamicEntity@@AEAV?$bTValArray@PEAVeCDynamicEntity@@@@@Z
?RemoveGameVariable@gCInfoSystem@@QEAA_NAEBVbCString@@@Z
?RemoveInfo@gCInfoSystem@@QEAA_NAEBVbCString@@@Z
?RemoveInteractPoint@gCAnchor_PS@@IEAAXPEAVgCInteraction_PS@@@Z
?RemoveInteraction@gCInteraction_PS@@QEAAXPEAVgCInteraction@@@Z
?RemoveInteractionInROI@gCInteractionAdmin@@QEAA_NPEAVgCInteraction_PS@@@Z
?RemoveInventoryListener@gCQuest@@QEAA_NXZ
?RemoveItem@gCEffectCommandSequence2@@QEAA_NH@Z
?RemoveItem@gCEffectCommandSequence2@@QEAA_NPEAVgCEffectCommand@@@Z
?RemoveListener@gCInventory_PS@@UEAAXPEAVgCInventoryListener@@@Z
?RemoveMove@gCCombatSpecies@@QEAAXPEAVgCCombatMove@@@Z
?RemoveNPCInfo@gCInfoSystem@@QEAAXAEBUgSNPCInfo@@@Z
?RemoveQuest@gCMap_PS@@QEAA_NAEBVbCString@@@Z
?RemoveQuest@gCQuestManager@@QEAA_NAEBVbCString@@@Z
?RemoveQuest@gCQuestManager@@QEAA_NPEAVgCQuest@@@Z
?RemoveQuestActor@gCQuestManager@@QEAA_NAEBVbCString@@AEBVgCQuestActor@@@Z
?RemoveQuestByType@gCQuestManager@@IEAAXPEAVgCQuest@@@Z
?RemoveSector@gCWorld@@QEAA?AW4eEResult@eCProcessibleElement@@PEAVgCSector@@@Z
?RemoveSectorInternal@gCWorld@@IEAA?AW4eEResult@eCProcessibleElement@@PEAVgCSector@@@Z
?RemoveSpecies@gCCombatAdmin@@QEAAXPEAVgCCombatSpecies@@@Z
?RemoveStyle@gCCombatSpecies@@QEAAXPEAVgCCombatStyle@@@Z
?RemoveTalkedToBy@gCDialog_PS@@QEAA_NPEAVeCEntity@@@Z
?RemoveTransition@gCStateGraphState@@QEAA_NPEAV1@@Z
?RemoveWorld@gCProject@@QEAA?AW4eEResult@eCProcessibleElement@@PEAVgCWorld@@@Z
?Rename@gCSaveGameManager@@QEAA_NAEBVbCString@@0@Z
?RenameGroup@gCSvmAdmin@@QEAA_NHAEBVbCString@@@Z
?RenameQuest@gCQuestManager@@QEAA_NAEBVbCString@@0@Z
?RenameSpecies@gCCombatAdmin@@QEAA_NAEBVbCString@@0@Z
?RenameSvm@gCSvmAdmin@@QEAA_NHAEBVbCString@@@Z
?RenameVoice@gCSvmAdmin@@QEAA_NHAEBVbCString@@@Z
?Request@gCMusicModule2@@QEAAXAEBVbCString@@W4gEMusicLocationTheme@@M@Z
?RequestActiveStatus@gCCombatSystem_PS@@QEAA_NXZ
?RequestDayTime@gCMusicModule2@@QEAAXW4gEMusicLocationTheme@@@Z
?RequestLocation@gCMusicModule2@@QEAAXAEBVbCString@@@Z
?RequestSituation@gCMusicModule2@@QEAAXM@Z
?RequestStats@CSteamAchievements@@QEAA_NXZ
?Reset@gCEffect@@IEAAXXZ
?Reset@gCEffect_PS@@IEAAXXZ
?Reset@gCInfoSystem@@QEAA_NXZ
?Reset@gCNavigation_PS@@QEAAX_N00@Z
?Reset@gCQuest@@QEAAXXZ
?Reset@gCRuntimeInfo@@IEAAXXZ
?ResetAnimations@gCCombatMoveShoot@@IEAAXPEAVeCAnimation_PS@@@Z
?ResetCameraEntity@gCCameraAdmin@@QEAAXXZ
?ResetCurrentCamera@gCCameraAdmin@@IEAA_NXZ
?ResetFallDistance@gCCharacterMovement_PS@@QEAAXXZ
?ResetFreeGotoTrail@gCNavigation_PS@@QEAAXXZ
?ResetFreeNavigationOpt@gCNavigationAdmin@@QEAAXXZ
?ResetInfoSystemEndScriptList@gCInfoSystem@@QEAA_NXZ
?ResetIsProcessing@gCCharacterMovement_PS@@QEAAXXZ
?ResetKeyStates@gCActionAdmin@@QEAAXXZ
?ResetLists@gCNavigationMapCompiler@@IEAA?AW4bEResult@@XZ
?ResetNavigation@gCNavigationAdmin@@IEAAXXZ
?ResetProcessing@gCNavigationAdmin@@QEAA?AW4bEResult@@XZ
?ResetProxies@gCInfoCommand@@UEAAXXZ
?ResetProxies@gCInfoCommandAttack@@UEAAXXZ
?ResetProxies@gCInfoCommandBoostAttribs@@UEAAXXZ
?ResetProxies@gCInfoCommandCreateItem@@UEAAXXZ
?ResetProxies@gCInfoCommandDestroyItem@@UEAAXXZ
?ResetProxies@gCInfoCommandDoLoot@@UEAAXXZ
?ResetProxies@gCInfoCommandDoTrade@@UEAAXXZ
?ResetProxies@gCInfoCommandFullStop@@UEAAXXZ
?ResetProxies@gCInfoCommandGive@@UEAAXXZ
?ResetProxies@gCInfoCommandHeal@@UEAAXXZ
?ResetProxies@gCInfoCommandKillNPC@@UEAAXXZ
?ResetProxies@gCInfoCommandMoveTo@@UEAAXXZ
?ResetProxies@gCInfoCommandPickPocket@@UEAAXXZ
?ResetProxies@gCInfoCommandRemoveNPC@@UEAAXXZ
?ResetProxies@gCInfoCommandRunAIScript@@UEAAXXZ
?ResetProxies@gCInfoCommandRunScript@@UEAAXXZ
?ResetProxies@gCInfoCommandSay@@UEAAXXZ
?ResetProxies@gCInfoCommandSayConfirm@@UEAAXXZ
?ResetProxies@gCInfoCommandSayHoldingPosition@@UEAAXXZ
?ResetProxies@gCInfoCommandSayKeepItUp@@UEAAXXZ
?ResetProxies@gCInfoCommandSaySVM@@UEAAXXZ
?ResetProxies@gCInfoCommandSaySound@@UEAAXXZ
?ResetProxies@gCInfoCommandSetGuardStatus@@UEAAXXZ
?ResetProxies@gCInfoCommandSetMobEnabled@@UEAAXXZ
?ResetProxies@gCInfoCommandSetPartyEnabled@@UEAAXXZ
?ResetProxies@gCInfoCommandSetRelaxingPoint@@UEAAXXZ
?ResetProxies@gCInfoCommandSetRoutine@@UEAAXXZ
?ResetProxies@gCInfoCommandSetSlaveryEnabled@@UEAAXXZ
?ResetProxies@gCInfoCommandSetSleepingPoint@@UEAAXXZ
?ResetProxies@gCInfoCommandSetTeachEnabled@@UEAAXXZ
?ResetProxies@gCInfoCommandSetTradeEnabled@@UEAAXXZ
?ResetProxies@gCInfoCommandSetWorkingPoint@@UEAAXXZ
?ResetProxies@gCInfoCommandSleep@@UEAAXXZ
?ResetProxies@gCInfoCommandStartEffect@@UEAAXXZ
?ResetProxies@gCInfoCommandStartFixCamera@@UEAAXXZ
?ResetProxies@gCInfoCommandTeach@@UEAAXXZ
?ResetProxies@gCInfoCommandTeleportNPC@@UEAAXXZ
?ResetProxies@gCInfoCommandThink@@UEAAXXZ
?ResetProxies@gCInfoCommandTrigger@@UEAAXXZ
?ResetProxies@gCInfoCommandUse@@UEAAXXZ
?ResetProxies@gCInfoCommandWear@@UEAAXXZ
?ResetProxies@gCInfoConditionScript@@QEAAXXZ
?ResetQuests@gCQuestManager@@QEAAXXZ
?ResetRuntimeInfo@gCInfo@@QEAAXXZ
?ResetSlideDistance@gCCharacterMovement_PS@@QEAAXXZ
?ResetWorldTorchTimer@gCSession@@QEAAXJ@Z
?ResizeToolTip@gCHudPopUp2@@QEAA_NPEAVIFFGuiDataObject2@@@Z
?Resolve@gCFocusModule2@@QEAAXAEAVgCFocusCollectorProxy2@@AEBVbCString@@@Z
?Resolve@gCFocusModule2@@QEAAXAEAVgCFocusIndicatorProxy2@@AEBVbCString@@@Z
?Restart@gCWorld@@QEAA_NXZ
?RestoreFiles@gCSector@@QEAA_NAEBVbCString@@@Z
?RestoreFiles@gCWorld@@QEAA_NAEBVbCString@@@Z
?RestoreUserPageMode@gCHudSystem2@@QEAAXXZ
?RestoreWorldTorch@gCSession@@QEAAXXZ
?Resume@gCSession@@QEAAXXZ
?RevertResolution@gCHudResolutionManager2@@QEAAXXZ
?RichPresenceTime@gCSession@@QEAA_NXZ
?RunAdvancedClusterNavigation@gCNavigationMapNavigator@@IEAA_NPEAVgCNavigation_PS@@PEAVgCNavZone_PS@@AEAVbCStretch@@AEBV?$bTValArray@PEAVgCCollisionCircle_PSObj@@@@AEACM_NAEAHAEBH777AEBM8AEAVbCVector@@@Z
?RunAdvancedNavigation@gCNavigationAdmin@@IEAAXAEAH@Z
?RunArrivedAtFinalDestination@gCNavigationMapNavigator@@IEAAXPEAVgCNavigation_PS@@AEBVbCVector@@@Z
?RunCameraEffects@gCCameraAdmin@@IEAAXXZ
?RunDragDrop@gCInventoryList@@AEAA?AW4bEResult@@HAEBVbCString@@AEBUtagPOINT@@@Z
?RunDynamicNavigation@gCNavigationAdmin@@IEAA?AW4bEResult@@XZ
?RunFreeNavigation@gCNavigation_PS@@QEAA_NAEAM@Z
?RunHeightCorrectionInProcessingRange@gCNavigation_PS@@QEAAXXZ
?RunIntersectionDetection@gCNavigationAdmin@@QEAA?AW4bEResult@@_NPEAVgCNavPath_PS@@PEAVgCNavZone_PS@@@Z
?RunIntersectionDetection@gCNavigationMapCompiler@@QEAA?AW4bEResult@@_NPEAVgCNavPath_PS@@PEAVgCNavZone_PS@@@Z
?RunLocalCallback@gCScriptProcessingUnit@@IEAAXPEAVgCScriptAdmin@@PEAVgCScriptRoutine_PS@@@Z
?RunNPCInZoneNavigation@gCNegZone_PSObj@@IEAAAEBVbCVector2@@_N@Z
?RunNPCNavigation@gCNavigationMapNavigator@@QEAA?AW4bEResult@@PEAVgCNavigation_PS@@PEAVgCCharacterMovement_PS@@_N@Z
?RunNPCTeleportToNavArea@gCNavigation_PS@@QEAA_NH@Z
?RunNavPathEnterAndExitCorrection@gCNavigationMapNavigator@@IEAA?AW4bEResult@@PEAVgCNavigation_PS@@_N@Z
?RunNextFreeGotoStep@gCNavigation_PS@@QEAA_NPEAVeCGeometryEntity@@_N1@Z
?RunOnGameEndScript@gCGameScript_PS@@QEAAHXZ
?RunOnGameInitScript@gCGameScript_PS@@QEAAHXZ
?RunOnGamePauseEndScript@gCGameScript_PS@@QEAAHXZ
?RunOnGamePauseProcessScript@gCGameScript_PS@@QEAAHXZ
?RunOnGamePauseStartScript@gCGameScript_PS@@QEAAHXZ
?RunOnGameProcessScript@gCGameScript_PS@@QEAAHXZ
?RunOnGameStartScript@gCGameScript_PS@@QEAAHXZ
?RunPreferredPath@gCNavigationMapNavigator@@IEAA?AW4bEResult@@PEAVgCNavigation_PS@@_N@Z
?RunQuadDetection@gCNavigationMapCompiler@@IEAA?AW4bEResult@@XZ
?RunQuest@gCQuestManager@@QEAA_NAEBVbCString@@@Z
?RunQuest@gCQuestManager@@QEAA_NPEAVgCQuest@@@Z
?RunScript@gCScriptAdmin@@IEAA_JAEBVbCString@@PEAVgCScriptProcessingUnit@@@Z
?RunScript@gCScriptAdmin@@IEAA_JPEAUgSScript@@PEAVgCScriptProcessingUnit@@@Z
?RunScriptCallback@gCScriptAdmin@@IEAA_NAEBVbCString@@PEAVgCScriptProcessingUnit@@@Z
?RunScriptCallback@gCScriptAdmin@@IEAA_NPEAUgSScriptAICallback@@PEAVgCScriptProcessingUnit@@@Z
?RunScriptFromScript@gCScriptAdmin@@IEAA_JAEBVbCString@@PEAVgCScriptProcessingUnit@@PEAX2_J@Z
?RunScriptFromScript@gCScriptAdmin@@IEAA_JPEAUgSScript@@PEAVgCScriptProcessingUnit@@PEAX2_J@Z
?RunScriptFunction@gCScriptAdmin@@IEAA_NAEBVbCString@@AEAV?$bTObjStack@UgScriptRunTimeSingleState@@@@PEAVgCScriptProcessingUnit@@@Z
?RunScriptFunction@gCScriptAdmin@@IEAA_NPEAUgSScriptAIFunction@@AEAV?$bTObjStack@UgScriptRunTimeSingleState@@@@PEAVgCScriptProcessingUnit@@@Z
?RunScriptState@gCScriptAdmin@@IEAA_NAEBVbCString@@AEAV?$bTObjStack@UgScriptRunTimeSingleState@@@@PEAVgCScriptProcessingUnit@@@Z
?RunScriptState@gCScriptAdmin@@IEAA_NPEAUgSScriptAIState@@AEAV?$bTObjStack@UgScriptRunTimeSingleState@@@@PEAVgCScriptProcessingUnit@@@Z
?RunSimpleClusterNavigation@gCNavigationMapNavigator@@IEAA_NPEAVgCNavigation_PS@@PEAVgCNavZone_PS@@AEAVbCStretch@@AEBV?$bTValArray@PEAVgCCollisionCircle_PSObj@@@@AEAC_NAEAHAEBH777AEBM8@Z
?RunSimpleMovement@gCNavigation_PS@@QEAA_NXZ
?RunSimpleNavigation@gCNavigationAdmin@@IEAAXAEAH0K@Z
?RunSingleObstacleNavigation@gCNavigationMapNavigator@@IEAAXAEBHPEAVgCNavZone_PS@@AEACAEAVbCVector@@AEAVbCPropertyID@@AEBVbCVector2@@@Z
?RunTargetBehindZoneNavigation@gCNegZone_PSObj@@IEAAAEBVbCVector2@@XZ
?RunTargetInZoneNavigation@gCNegZone_PSObj@@IEAAAEBVbCVector2@@_N@Z
?RunTaskCallback@gCScriptProcessingUnit@@IEAAXPEAVgCScriptAdmin@@PEAVgCScriptRoutine_PS@@@Z
?RunTextOutputs@gCQuestManager@@QEAAXXZ
?RunZoneDetectionForAllCCs@gCNavigationMapCompiler@@IEAA?AW4bEResult@@XZ
?RunZoneDetectionForAllInteracts@gCNavigationMapCompiler@@IEAA?AW4bEResult@@AEAV?$bTObjArray@VbCString@@@@@Z
?RunZoneDetectionForAllNavPaths@gCNavigationMapCompiler@@IEAA?AW4bEResult@@AEAV?$bTObjArray@VbCString@@@@0@Z
?RunZoneDetectionForAllNegZones@gCNavigationMapCompiler@@IEAA?AW4bEResult@@AEAV?$bTObjArray@VbCString@@@@0@Z
?RunZoneDetectionForAllPrefPaths@gCNavigationMapCompiler@@IEAA?AW4bEResult@@AEAV?$bTObjArray@VbCString@@@@0@Z
?S_GetHeightCorr@gCCharacterMovement_PS@@SA_NXZ
?S_SetHeightCorr@gCCharacterMovement_PS@@SAX_N@Z
?Save@gCSaveGameManager@@AEAA_NAEBVbCString@@AEBVbCUnicodeString@@K_NAEAVgCSaveGame@@@Z
?Save@gCSaveGameManager@@QEAA_NAEBVbCString@@AEBVbCUnicodeString@@_NAEAVgCSaveGame@@2@Z
?SaveConfiguration@gCGameApp@@UEAA_NXZ
?SaveDummies@gCTutorialAdmin@@QEAA_NXZ
?SaveDump@gCCameraAdmin@@QEAA_NAEBVbCUnicodeString@@0@Z
?SaveFrameStates@gCCharacterMovement_PS@@IEAAXXZ
?SaveFrameStates@gCCharacterSensor@@IEAAXXZ
?SaveGameExists@gCHUDFileManager@@QEBA_NAEBVbCString@@@Z
?SaveRawEffect@gCEffectSystem@@QEAA_NAEBVbCString@@@Z
?SaveRawEffectAs@gCEffectSystem@@QEAA_NAEBVbCString@@0@Z
?SaveRawInfo@gCInfoSystem@@QEBA_NAEBVbCString@@@Z
?SaveRawInfoAs@gCInfoSystem@@QEBA_NAEBVbCString@@0@Z
?SaveRawQuest@gCQuestManager@@QEAA_NAEBVbCString@@@Z
?SaveRawQuestAs@gCQuestManager@@QEAA_NAEBVbCString@@0@Z
?SaveRawSpecies@gCCombatAdmin@@QEAA_NAEBVbCString@@@Z
?SaveRawSpeciesAs@gCCombatAdmin@@QEAA_NAEBVbCString@@0@Z
?ScanForTestMode@gCActionAdmin@@QEAAX_W@Z
?Scroll@gCQuestLogFrame2@@QEAAXH@Z
?SelectComboMove@gCCombatAI@@UEAA?AW4gECombatMove@@PEAVgCCombatSystem_PS@@PEAVeCGeometryEntity@@W42@@Z
?SelectComboMove@gCCombatAIMelee@@UEAA?AW4gECombatMove@@PEAVgCCombatSystem_PS@@PEAVeCGeometryEntity@@W42@@Z
?SelectComboMove@gCCombatAIRanged@@UEAA?AW4gECombatMove@@PEAVgCCombatSystem_PS@@PEAVeCGeometryEntity@@W42@@Z
?SelectFOV@gCHudResolutionManager2@@QEAAXM@Z
?SelectNextMove@gCCombatAI@@UEAA?AW4gECombatMove@@PEAVgCCombatSystem_PS@@PEAVeCGeometryEntity@@W42@@Z
?SelectNextMove@gCCombatAIMelee@@UEAA?AW4gECombatMove@@PEAVgCCombatSystem_PS@@PEAVeCGeometryEntity@@W42@@Z
?SelectNextMove@gCCombatAIRanged@@UEAA?AW4gECombatMove@@PEAVgCCombatSystem_PS@@PEAVeCGeometryEntity@@W42@@Z
?SelectNextMove@gCCombatSystem_PS@@QEAA_NW4gECombatMove@@@Z
?SelectRefreshRate@gCHudResolutionManager2@@QEAAXH@Z
?SelectResolution@gCHudResolutionManager2@@QEAAXH@Z
?SelectSample@gCEffectCommandPlaySound@@QEBAHXZ
?SelectTemplate@gCEffectCommandSpawnEntitySwitch@@AEBAHXZ
?SelectVsync@gCHudResolutionManager2@@QEAAX_N@Z
?SendActionEvent@gCActionAdmin@@IEAAXAEBUgSAction@@@Z
?SendEvent@gCWorldEventSource@@QEAAXIPEAX0@Z
?SendGameMessage@gCHudSystem2@@QEAA_NH_J0W4gEHudPage@@_N@Z
?Serialize@gCCombatObject@@UEAA_NPEAVbCXMLParserNode@@@Z
?SetAIDelay@gCScriptRoutine_PS@@QEAAXAEBJ@Z
?SetAIFunction@gCCombatMoveScriptState@@QEAAXAEBVgCScriptProxyAIFunction@@@Z
?SetAIMode@gCScriptRoutine_PS@@QEAAXAEBV?$bTPropertyContainer@W4gEAIMode@@@@@Z
?SetAIScriptName@gCInfoCommandRunAIScript@@QEAAXAEBVbCString@@@Z
?SetAcceptModalActionMap@gCActionAdmin@@QEAAXXZ
?SetAchieved@gCAchievement@@QEAAXAEB_N@Z
?SetAchieved@gCAchievementAdmin@@QEAAXK@Z
?SetAchievement@CSteamAchievements@@QEAA_NPEBD@Z
?SetAchievementInfo@CSteamAchievements@@QEAA?AUAchievement_t@@HVbCString@@@Z
?SetAction@gCCombatMoveMelee@@QEAAXAEBV?$bTPropertyContainer@W4gECombatAction@@@@@Z
?SetActionKeyScript@gCActionAdmin@@QEAAXAEBVeCScriptProxyScript@@@Z
?SetActionKeyScriptTrade@gCActionAdmin@@QEAAXXZ
?SetActionString@gCScriptRoutine_PS@@QEAAXAEBVbCString@@@Z
?SetActionTarget@gCScriptRoutine_PS@@QEAAXAEBVeCEntityProxy@@@Z
?SetActivationTime_Day@gCQuest@@QEAAXAEBK@Z
?SetActivationTime_Hour@gCQuest@@QEAAXAEBK@Z
?SetActivationTime_Year@gCQuest@@QEAAXAEBK@Z
?SetActiveAttacker@gCCombatSystem_PS@@QEAAXAEBVeCEntityProxy@@@Z
?SetActiveFightAI@gCCombatStyle@@QEAAXAEBVbCString@@@Z
?SetActiveFightAI@gCCombatSystem_PS@@QEAAXAEBVbCString@@@Z
?SetActiveSector@gCWorld@@QEAAXAEBVbCString@@@Z
?SetActiveWorld@gCProject@@QEAAXAEBVbCString@@@Z
?SetActor@gCInfoCommandAddQuestActor@@QEAAXAEBVgCQuestActor@@@Z
?SetActor@gCInfoCommandRemoveQuestActor@@QEAAXAEBVgCQuestActor@@@Z
?SetActor@gCQuestActor@@QEAAXAEBVeCEntityStringProxy@@@Z
?SetActorType@gCQuestActor@@QEAAXAEBV?$bTPropertyContainer@W4gEQuestActor@@@@@Z
?SetActors@gCQuest@@QEAAXAEBV?$bTObjArray@VgCQuestActor@@@@@Z
?SetAdditionalMovementVelo@gCCharacterMovement_PS@@QEAAXAEBVbCVector@@MMM@Z
?SetAdvancedTestMode@gCSession@@QEAAX_N@Z
?SetAggressiveness@gCCombatAIMelee@@QEAAXAEBM@Z
?SetAgressor@gCDamage_PS@@QEAAXAEBVeCEntityProxy@@@Z
?SetAim@gCCombatStyleRanged@@QEAAXAEBVbCString@@@Z
?SetAlignToTarget@gCCombatMoveMelee@@QEAAXAEBV?$bTPropertyContainer@W4gEAlignToTarget@@@@@Z
?SetAlignmentLookAt@gCCharacterMovement_PS@@QEAAXAEBVbCVector@@_N@Z
?SetAlignmentSpeed@gCCharacterMovement_PS@@QEAAXM@Z
?SetAlignmentTarget@gCCharacterMovement_PS@@QEAAXPEBVeCEntity@@_N@Z
?SetAlpha@gCStateGraphActionVisibility@@QEAAXAEBM@Z
?SetAmbientAction@gCScriptRoutine_PS@@QEAAXAEBV?$bTPropertyContainer@W4gEAmbientAction@@@@@Z
?SetAmount@gCInfoCommandCreateItem@@QEAAXAEBK@Z
?SetAmount@gCInfoCommandDestroyItem@@QEAAXAEBK@Z
?SetAmount@gCInfoCommandGive@@QEAAXAEBK@Z
?SetAmount@gCInfoCommandGiveXP@@QEAAXAEBK@Z
?SetAmount@gCInventoryStack@@QEAAXAEBH@Z
?SetAmount@gCInventory_PS@@QEAAXHAEBH_N@Z
?SetAmount@gCItem_PS@@QEAAXAEBK@Z
?SetAmount@gCSkillValue@@QEAAXAEBJ@Z
?SetAnchorPoint@gCInteraction_PS@@QEAAXPEAVeCEntity@@@Z
?SetAnchorType@gCAnchor_PS@@QEAAXAEBV?$bTPropertyContainer@W4gEAnchorType@@@@@Z
?SetAniDirection@gCNavOffset_PS@@QEAAXAEBV?$bTValArray@W4gEDirection@@@@@Z
?SetAniDuration@gCCombatMoveShoot@@QEAAXAEBM@Z
?SetAniPose@gCCombatStyle@@QEAAXAEBVgCCombatStyleAniPose@@@Z
?SetAniState@gCScriptRoutine_PS@@QEAAXAEBV?$bTPropertyContainer@W4gEAniState@@@@@Z
?SetAniStopTime@gCCharacterMovement_PS@@IEAAXM@Z
?SetAnimation@gCStateGraphActionPauseAni@@QEAAXAEBVbCString@@@Z
?SetAnimation@gCStateGraphActionPlayAni@@QEAAXAEBVbCString@@@Z
?SetAnimationBearing@gCNPC_PS@@QEAAXAEBVbCString@@@Z
?SetAnimationFile@gCCombatMoveFinishing@@QEAAXAEBVbCString@@@Z
?SetAnimationFile@gCCombatMoveMelee@@QEAAXAEBVbCString@@@Z
?SetAnimationFile@gCCombatMoveOverlayStumble@@QEAAXAEBVbCString@@@Z
?SetAnimationFile@gCCombatMoveStumble@@QEAAXAEBVbCString@@@Z
?SetAnimationFileDown@gCCombatMoveShoot@@QEAAXAEBVbCString@@@Z
?SetAnimationFileFwd@gCCombatMoveShoot@@QEAAXAEBVbCString@@@Z
?SetAnimationFileUp@gCCombatMoveShoot@@QEAAXAEBVbCString@@@Z
?SetApplyGravity@gCCharacterMovement_PS@@QEAAXAEB_N@Z
?SetArcherEffect@gCCombatMoveAim@@QEAAXAEBVbCString@@@Z
?SetAreaPropertyName@gCInfoConditionOwnerInArea@@QEAAXAEBVbCString@@@Z
?SetAttachedSlotScript@gCInteraction_PS@@QEAAXAEBVeCScriptProxyScript@@@Z
?SetAttack@gCCombatStyle@@QEAAXAEBVbCString@@@Z
?SetAttackLeft@gCCombatStyleMelee@@QEAAXAEBVbCString@@@Z
?SetAttackRight@gCCombatStyleMelee@@QEAAXAEBVbCString@@@Z
?SetAttackSec@gCCombatStyleMelee@@QEAAXAEBVbCString@@@Z
?SetAttackSec@gCCombatStyleRanged@@QEAAXAEBVbCString@@@Z
?SetAttackSpeed@gCCombatAIMelee@@QEAAXAEBM@Z
?SetAttackSpeed@gCCombatAIRanged@@QEAAXAEBM@Z
?SetAttackStumble@gCCombatStyleMelee@@QEAAXAEBVbCString@@@Z
?SetAttackStumbleLeft@gCCombatStyleMelee@@QEAAXAEBVbCString@@@Z
?SetAttackStumbleRight@gCCombatStyleMelee@@QEAAXAEBVbCString@@@Z
?SetAttackStumbleType@gCCombatMoveMelee@@QEAAXAEBV?$bTPropertyContainer@W4gECombatAttackStumble@@@@@Z
?SetAttackType@gCCombatMoveMelee@@QEAAXAEBV?$bTPropertyContainer@W4gECombatParadeType@@@@@Z
?SetAttackType@gCCombatStyle@@QEAAXAEBV?$bTPropertyContainer@W4gECombatParadeType@@@@@Z
?SetAttitudeLock@gCNPC_PS@@QEAAXAEBV?$bTPropertyContainer@W4gEAttitude@@@@@Z
?SetAuthorColor@gCQuestLogFrame2@@QEAAXAEBVbCByteAlphaColor@@@Z
?SetAutoFocusTargetSize@gCCameraAdmin@@QEAAXM@Z
?SetAutoRejoin@gCParty_PS@@QEAAXAEB_N@Z
?SetAutoTrigger@gCTutorialEvent@@QEAAXAEB_N@Z
?SetBackTrail@gCNavigation_PS@@QEAAXAEBV?$bTObjArray@UgSTrailElement@gCNavigation_PS@@@@@Z
?SetBackupIndex@gCInventoryList@@QEAAXH@Z
?SetBackwardSpeedMax@gCCharacterMovement_PS@@QEAAXAEBM@Z
?SetBeastModeActionMap@gCActionAdmin@@QEAAXXZ
?SetBestDistance@gCInfoCommandStartFixCamera@@QEAAXAEBM@Z
?SetBlendAniDuration@gCCombatMoveParade@@QEAAXAEBM@Z
?SetBlendAnimations@gCCombatMoveShoot@@QEAAXAEB_N@Z
?SetBlendInAnimationFile@gCCombatMoveParade@@QEAAXAEBVbCString@@@Z
?SetBlendInTime@gCCombatMoveFinishing@@QEAAXAEBM@Z
?SetBlendInTime@gCCombatMoveMelee@@QEAAXAEBM@Z
?SetBlendInTime@gCCombatMoveOverlayStumble@@QEAAXAEBM@Z
?SetBlendInTime@gCCombatMoveParade@@QEAAXAEBM@Z
?SetBlendInTime@gCCombatMoveShoot@@QEAAXAEBM@Z
?SetBlendInTime@gCCombatMoveStumble@@QEAAXAEBM@Z
?SetBlendInTime@gCEffectCommandStartImageEffect@@QEAAXAEBM@Z
?SetBlendOutTime@gCCombatMoveOverlayStumble@@QEAAXAEBM@Z
?SetBlendOutTime@gCCombatMoveParade@@QEAAXAEBM@Z
?SetBlendOutTime@gCEffectCommandStartImageEffect@@QEAAXAEBM@Z
?SetBlockApplyExternal@gCPropertyDummyVisual_PS@@QEAAX_N@Z
?SetBlockApplyInternal@gCPropertyDummyVisual_PS@@IEAAX_N@Z
?SetBoneName@gCEffectCommandPlaySound@@QEAAXAEBVbCString@@@Z
?SetBoneName@gCEffectCommandSpawnEntity@@QEAAXAEBVbCString@@@Z
?SetBoneName@gCEffectCommandSpawnEntityList@@QEAAXAEBVbCString@@@Z
?SetBoneName@gCEffectCommandSpawnEntitySwitch@@QEAAXAEBVbCString@@@Z
?SetBoostTarget@gCInfoCommandBoostAttribs@@QEAAXAEBV?$bTPropertyContainer@W4gEBoostTarget@@@@@Z
?SetBottomToleranz@gCNavPath_PS@@QEAAXAEBM@Z
?SetBottomToleranz@gCNavZone_PS@@QEAAXAEBM@Z
?SetBowAnimationFile@gCCombatMoveAim@@QEAAXAEBVbCString@@@Z
?SetBowAnimationFile@gCCombatMoveReload@@QEAAXAEBVbCString@@@Z
?SetBowEffect@gCCombatMoveAim@@QEAAXAEBVbCString@@@Z
?SetBowModeActionMap@gCActionAdmin@@QEAAXXZ
?SetBraveryOverride@gCNPC_PS@@QEAAXAEBV?$bTPropertyContainer@W4gEBraveryOverride@@@@@Z
?SetCalcRotation@gCMapInfo_PS@@QEAAXAEB_N@Z
?SetCameraCurrentFOVbyName@gCCameraAdmin@@QEAAXAEBVbCString@@@Z
?SetCameraDistanceForFixTargetRotation@gCCameraAdmin@@IEAA_NM@Z
?SetCameraEffectFileDirty@gCCameraAdmin@@IEAAXAEBVbCString@@@Z
?SetCameraEffectName@gCEffectCommandEarthquake@@QEAAXAEBVbCString@@@Z
?SetCameraFOV@gCCameraAdmin@@QEAAXAEBM@Z
?SetCameraPitchAngle@gCInfoCommandStartFixCamera@@QEAAXAEBM@Z
?SetCameraPosition@gCInfoCommandStartFixCamera@@QEAAXAEBVbCString@@@Z
?SetCameraSens@gCActionAdmin@@QEAAXM@Z
?SetCameraTarget@gCInfoCommandStartFixCamera@@QEAAXAEBVbCString@@@Z
?SetCameraTargetSpace@gCCameraAdmin@@IEAA_NAEBVbCMatrix@@@Z
?SetCameraTargets@gCCameraAdmin@@QEAAXPEBVeCEntity@@0_NAEBVbCVector@@10M@Z
?SetCameraTypeFileDirty@gCCameraAdmin@@IEAAXAEBVbCString@@@Z
?SetCameraYawAngle@gCInfoCommandStartFixCamera@@QEAAXAEBM@Z
?SetCanAttachSlotScript@gCInteraction_PS@@QEAAXAEBVeCScriptProxyScript@@@Z
?SetCanBePushedWhileIdle@gCCharacterMovement_PS@@QEAAXAEB_N@Z
?SetCanEquipScript@gCItem_PS@@QEAAXAEBVeCScriptProxyScript@@@Z
?SetCanInteractScript@gCInteraction@@QEAAXAEBVeCScriptProxyScript@@@Z
?SetCanStrafe@gCCombatSpecies@@QEAAXAEB_N@Z
?SetCanUse@gCMap_PS@@QEAAXAEBVeCScriptProxyScript@@@Z
?SetCancelled@gCQuest@@QEAA_NXZ
?SetCancelledQuestScript@gCQuest@@QEAAXAEBVeCScriptProxyScript@@@Z
?SetCastAmmo@gCCastInfo_PS@@QEAAXAEBVeCTemplateEntityProxy@@@Z
?SetCastFail@gCCastInfo_PS@@QEAAXAEBVeCTemplateEntityProxy@@@Z
?SetCastInfo@gCCastInfo_PS@@QEAAXAEBVbCString@@@Z
?SetCastItem@gCCastInfo_PS@@QEAAXAEBVeCTemplateEntityProxy@@@Z
?SetCastModeActionMap@gCActionAdmin@@QEAAXXZ
?SetCategory@gCItem_PS@@QEAAXAEBV?$bTPropertyContainer@W4gEItemCategory@@@@@Z
?SetCategoryFilter@gCInventoryList@@QEAAXAEBVeCScriptProxyScript@@@Z
?SetChange@gCSaveGameManager@@QEAAX_N@Z
?SetChangedCallback@gCSkills_PS@@SAXP6AXPEAV1@W4gESkill@@@Z@Z
?SetCharacter@gCInventoryList@@QEAAXAEBV?$bTPropertyContainer@W4gESpecialEntity@@@@@Z
?SetCharacterModeActionMap@gCActionAdmin@@QEAAXXZ
?SetCharacterMovement@gCDynamicCollisionCircle_PS@@QEAAXPEAVgCCharacterMovement_PS@@@Z
?SetCharacterMovement@gCNavigation_PS@@QEAAXPEAVgCCharacterMovement_PS@@@Z
?SetCheatGodEnabled@gCSessionCheats@@QEAAXAEB_N@Z
?SetCheatInvisibleEnabled@gCSessionCheats@@QEAAXAEB_N@Z
?SetChildMode@gCInfoSystem@@QEAAX_N@Z
?SetCircleCount@gCCollisionCircle_PS@@QEAAXAEBK@Z
?SetClearChildren@gCInfo@@QEAAXAEB_N@Z
?SetClimbFlightForwardTime@gCCharacterMovement_PS@@QEAAXAEBM@Z
?SetClimbFlightGravity@gCCharacterMovement_PS@@QEAAXAEBM@Z
?SetClimbFrontDepth1@gCCharacterMovement_PS@@QEAAXAEBM@Z
?SetClimbFrontDepth2@gCCharacterMovement_PS@@QEAAXAEBM@Z
?SetClimbFrontDepth3@gCCharacterMovement_PS@@QEAAXAEBM@Z
?SetClimbHeightHigh@gCCharacterMovement_PS@@QEAAXAEBM@Z
?SetClimbHeightLow@gCCharacterMovement_PS@@QEAAXAEBM@Z
?SetClimbHeightMid@gCCharacterMovement_PS@@QEAAXAEBM@Z
?SetClimbHeightMin@gCCharacterMovement_PS@@QEAAXAEBM@Z
?SetClimbTargetGroundAngleMax@gCCharacterMovement_PS@@QEAAXAEBM@Z
?SetComSeqItemCount@gCInfo@@QEAAXH@Z
?SetComSeqItemIndex@gCInfo@@QEAA_NPEAVgCInfoCommand@@H@Z
?SetCombatHitRangeOffset@gCItem_PS@@QEAAXAEBM@Z
?SetCombatMode@gCCombatStyle@@QEAAXAEBV?$bTPropertyContainer@W4gECombatMode@@@@@Z
?SetCombatSpecies@gCCombatMove@@IEAAXPEAVgCCombatSpecies@@@Z
?SetCombatSpecies@gCCombatStyle@@IEAAXPEAVgCCombatSpecies@@@Z
?SetCombatSpecies@gCCombatSystem_PS@@QEAAXAEBVbCString@@@Z
?SetCombatWalkMode@gCCombatAI@@QEAAXAEBV?$bTPropertyContainer@W4gEWalkMode@@@@@Z
?SetCombo@gCCombatMoveMelee@@QEAAXAEBVbCString@@@Z
?SetComboAttack@gCCombatMoveAim@@QEAAXAEBVbCString@@@Z
?SetComboAttack@gCCombatMoveShoot@@QEAAXAEBVbCString@@@Z
?SetComboAttackBeginTime@gCCombatMoveAim@@QEAAXAEBVbCRange1@@@Z
?SetComboBegin@gCCombatMoveMelee@@QEAAXAEBM@Z
?SetComboEnd@gCCombatMoveMelee@@QEAAXAEBM@Z
?SetComboLeft@gCCombatMoveMelee@@QEAAXAEBVbCString@@@Z
?SetComboMoves@gCCombatMoveComboSwitch@@QEAAXAEBV?$bTObjArray@VgCCombatMoveSwitch@@@@@Z
?SetComboParade@gCCombatMoveMelee@@QEAAXAEBV?$bTPropertyContainer@W4gECombatComboParade@@@@@Z
?SetComboPower@gCCombatMoveMelee@@QEAAXAEBVbCString@@@Z
?SetComboRight@gCCombatMoveMelee@@QEAAXAEBVbCString@@@Z
?SetComboSec@gCCombatMoveMelee@@QEAAXAEBVbCString@@@Z
?SetCommandSequence@gCEffect@@QEAAXPEAVgCEffectCommandSequence2@@@Z
?SetCommandTime@gCScriptRoutine_PS@@QEAAXAEBJ@Z
?SetCommands@gCEffectCommandSequence2@@QEAAXAEBV?$bTRefPropertyArray@PEAVgCEffectCommand@@@@@Z
?SetCompareOperation@gCInfoConditionSkillValue@@QEAAXAEBV?$bTPropertyContainer@W4gECompareOperation@@@@@Z
?SetCompleted@gCTutorialEvent@@QEAAXAEBVeCScriptProxyScript@@@Z
?SetCondSeqItemCount@gCInfo@@QEAAXH@Z
?SetCondSeqItemIndex@gCInfo@@QEAA_NPEAVgCInfoCondition@@H@Z
?SetCondType@gCInfoConditionQuestStatus@@QEAAXAEBV?$bTPropertyContainer@W4gEInfoCondType@@@@@Z
?SetCondition@gCTutorialEvent@@QEAAXAEBVeCScriptProxyScript@@@Z
?SetConditionType@gCInfo@@QEAAXAEBV?$bTPropertyContainer@W4gEInfoCondType@@@@@Z
?SetConsumeItem@gCCastInfo_PS@@QEAAXAEB_N@Z
?SetContext@gCLayerBase@@IEAA?AW4eEResult@eCProcessibleElement@@PEAVeCContextBase@@@Z
?SetCoolDown@gCEffectCommandEarthquake@@QEAAXAEBM@Z
?SetCoordinateSystem@gCEffectCommandPlaySound@@QEAAXAEBV?$bTPropertyContainer@W4gEEffectLink@@@@@Z
?SetCoordinateSystem@gCEffectCommandSpawnEntity@@QEAAXAEBV?$bTPropertyContainer@W4gEEffectLink@@@@@Z
?SetCoordinateSystem@gCEffectCommandSpawnEntityList@@QEAAXAEBV?$bTPropertyContainer@W4gEEffectLink@@@@@Z
?SetCoordinateSystem@gCEffectCommandSpawnEntitySwitch@@QEAAXAEBV?$bTPropertyContainer@W4gEEffectLink@@@@@Z
?SetCorrectedPose@gCDynamicCollisionCircle_PS@@QEAAXAEBV?$bTValArray@VbCMotion@@@@@Z
?SetCostFactor@gCNavPath_PS@@QEAAXAEBM@Z
?SetCostFactor@gCNavZone_PS@@QEAAXAEBM@Z
?SetCounterAttack@gCCombatStyleMelee@@QEAAXAEBVbCString@@@Z
?SetCounterParade@gCCombatStyleMelee@@QEAAXAEBVbCString@@@Z
?SetCoveringPoint@gCWaterSubZone_PS@@QEAAXAEBV?$bTValArray@VbCVector@@@@@Z
?SetCraft@gCRecipe_PS@@QEAAXAEBV?$bTPropertyContainer@W4gERecipeCategory@@@@@Z
?SetCraftIngredients@gCRecipe_PS@@QEAAXAEBV?$bTObjArray@VgCCraftIngredient@@@@@Z
?SetCraftModeActionMap@gCActionAdmin@@QEAAXXZ
?SetCreatorTemplate@gCStateGraphEventFilterTemplate@@QEAAXAEBVeCTemplateEntityProxy@@@Z
?SetCredits@gCAchievement@@QEAAXAEBK@Z
?SetCrossBowModeActionMap@gCActionAdmin@@QEAAXXZ
?SetCurrentAIState@gCScriptProcessingUnit@@IEAA?AW4bEResult@@AEAVbCString@@@Z
?SetCurrentAniDirection@gCNavigation_PS@@QEAAXW4gEDirection@@@Z
?SetCurrentAttackerEntity@gCNPC_PS@@QEAAXAEBVeCEntityProxy@@@Z
?SetCurrentBreakBlock@gCScriptRoutine_PS@@QEAAXAEBJ@Z
?SetCurrentCameraByName@gCCameraAdmin@@QEAA_NAEBVbCString@@_N1@Z
?SetCurrentChapter@gCQuestManager@@QEAAXK_N@Z
?SetCurrentDestinationPointProxy@gCNavigation_PS@@QEAAXAEBVeCEntityProxy@@@Z
?SetCurrentInfoCommandIndex@gCInfo@@QEAAXAEBH@Z
?SetCurrentInteractionTarget@gCInteraction_PS@@IEAAXPEAVeCEntity@@PEAVgCInteraction@@H@Z
?SetCurrentMovementAni@gCNPC_PS@@QEAAXAEBVbCString@@@Z
?SetCurrentPosition@gCCharacterMovement_PS@@IEAAXAEBVbCVector@@_N1@Z
?SetCurrentRelaxingPoint@gCNavigation_PS@@QEAA_NPEAVeCEntity@@@Z
?SetCurrentRoutine@gCNavigation_PS@@QEAAXAEBJ@Z
?SetCurrentSleepingPoint@gCNavigation_PS@@QEAA_NPEAVeCEntity@@@Z
?SetCurrentSpeedModifier@gCCharacterMovement_PS@@QEAAXM@Z
?SetCurrentState@gCScriptRoutine_PS@@QEAAXAEBVbCString@@@Z
?SetCurrentState@gCStateGraph_PS@@QEAAXPEAVgCStateGraphState@@@Z
?SetCurrentTarget@gCCombatSystem_PS@@QEAA_NPEAVeCEntity@@@Z
?SetCurrentTarget@gCNavigationMapNavigator@@IEAA_NPEAVgCNavigation_PS@@PEAVgCCharacterMovement_PS@@_N@Z
?SetCurrentTarget@gCNavigation_PS@@QEAAXAEBVbCVector@@@Z
?SetCurrentTargetEntity@gCNPC_PS@@QEAAXAEBVeCEntityProxy@@@Z
?SetCurrentTask@gCScriptRoutine_PS@@QEAAXAEBVbCString@@@Z
?SetCurrentUser@gCInteraction_PS@@IEAAXPEAVeCEntity@@@Z
?SetCurrentVelocity@gCCharacterMovement_PS@@IEAAXAEBVbCVector@@@Z
?SetCurrentWorkingPoint@gCNavigation_PS@@QEAA_NPEAVeCEntity@@@Z
?SetCurrentZoneEntityProxy@gCNavigation_PS@@QEAAXAEBVeCEntityProxy@@@Z
?SetDCC@gCNavigation_PS@@QEAAXPEAVgCDynamicCollisionCircle_PS@@@Z
?SetDCCEnabled@gCDynamicCollisionCircle_PS@@QEAAX_N@Z
?SetDamageAmount@gCDamage_PS@@QEAAXAEBJ@Z
?SetDamageAmount@gCStateGraphEventFilterDamageAmount@@QEAAXAEBH@Z
?SetDamageBonus@gCDamage_PS@@QEAAXAEBJ@Z
?SetDamageCalculationType@gCNPC_PS@@QEAAXAEBV?$bTPropertyContainer@W4gEDamageCalculationType@@@@@Z
?SetDamageMultiplier@gCDamage_PS@@QEAAXAEBM@Z
?SetDamageScript@gCDamage_PS@@QEAAXAEBVeCScriptProxyScript@@@Z
?SetDamageScript@gCInteraction_PS@@QEAAXAEBVeCScriptProxyScript@@@Z
?SetDamageType@gCDamage_PS@@QEAAXAEBV?$bTPropertyContainer@W4gEDamageType@@@@@Z
?SetDay@gCClock_PS@@QEAAXAEBK@Z
?SetDaysPlayed@gCClock_PS@@QEAAXAEBK@Z
?SetDeactivationVelocity@gCFlightPathBallistic@@QEAAXAEBM@Z
?SetDebugMode@gCCameraAdmin@@QEAAX_N@Z
?SetDebugMode@gCCharacterMovement_PS@@QEAAX_N@Z
?SetDecay@gCEffectCommandKillEntity@@QEAAXAEB_N@Z
?SetDecay@gCEffectCommandKillEntityRange@@QEAAXAEB_N@Z
?SetDecayMode@gCEffect_PS@@QEAAXAEBV?$bTPropertyContainer@W4gEEffectDecayMode@@@@@Z
?SetDefaultCtrlID@gCHudPage2@@QEAAXAEBG@Z
?SetDefaultItem@gCInventory_PS@@QEAAXW4gESlot@@AEBVbCPropertyID@@@Z
?SetDefaultMarkerImage@gCMap_PS@@QEAAXAEBVeCGuiBitmapProxy2@@@Z
?SetDefaultRadius@gCCollisionCircle_PS@@QEAAXAEBM@Z
?SetDefaultState@gCStateGraph_PS@@QEAAXAEBVbCString@@@Z
?SetDefaultTip@gCHudPopUp2@@QEAAXAEB_N@Z
?SetDefeatedByPlayer@gCNPC_PS@@QEAAXAEB_N@Z
?SetDeliveryEntities@gCQuest@@QEAAXAEBV?$bTObjArray@UgSDeliveryEntity@gCQuest@@@@@Z
?SetDeliveryEntitiesStatusCheckTriggered@gCQuest@@QEAAX_N@Z
?SetDeliveryEntitiesStatusCheckTriggered@gCQuestManager@@QEAAX_N@Z
?SetDemoRelevant@gCSector@@QEAAXAEB_N@Z
?SetDepthRange@gCWaterZone_PS@@QEAAXAEBM@Z
?SetDescription@gCAchievement@@QEAAXAEBVeCLocString@@@Z
?SetDescription@gCInfoCommandAddNPCInfo@@QEAAXAEBVgCNPCInfoLocString@@@Z
?SetDescription@gCItem_PS@@QEAAXAEBVbCUnicodeString@@@Z
?SetDescription@gCTutorialEvent@@QEAAXAEBVeCLocString@@@Z
?SetDesiredDistanceToTarget@gCCombatMoveFinishing@@QEAAXAEBM@Z
?SetDestinationEntity@gCQuest@@QEAAXAEBVbCString@@@Z
?SetDetachedSlotScript@gCInteraction_PS@@QEAAXAEBVeCScriptProxyScript@@@Z
?SetDialogModeActionMap@gCActionAdmin@@QEAAXXZ
?SetDialogRoles@gCCameraAdmin@@QEAAXPEAVeCEntity@@0_N1@Z
?SetDifficulty@gCInfoCommandPickPocket@@QEAAXAEBK@Z
?SetDifficulty@gCLock_PS@@QEAAXAEBH@Z
?SetDisableInput@gCHudPage2@@QEAAXAEB_N@Z
?SetDisableRotation@gCCharacterMovement_PS@@QEAAXAEB_N@Z
?SetDisableTranslation@gCCharacterMovement_PS@@QEAAXAEB_N@Z
?SetDiscovered@gCNPC_PS@@QEAAXAEB_N@Z
?SetDispatchEventSource@gCStateGraphActionEventDispatcher@@QEAAXAEB_N@Z
?SetDistToPlayer@gCEffectCommandSequence2@@QEAAXAEBM@Z
?SetDistanceToImpact@gCProjectile2_PS@@QEAAXAEBM@Z
?SetDoHeightCorrection@gCCharacterMovement_PS@@QEAAXAEB_N@Z
?SetDoUntrigger@gCInfoCommandTrigger@@QEAAXAEB_N@Z
?SetDontStopFallAngleMin@gCCharacterMovement_PS@@QEAAXAEBM@Z
?SetDoorEntity@gCNavPath_PS@@QEAAXPEAVeCEntity@@AEBVbCVector@@@Z
?SetDropped@gCItem_PS@@QEAAXAEB_N@Z
?SetDummy@gCEffectCommandEntity@@QEAAXAEBH@Z
?SetDuration@gCEffectCommandRunScript@@QEAAXAEBM@Z
?SetDuration@gCEffectCommandStartImageEffect@@QEAAXAEBM@Z
?SetDuration@gCTutorialEvent@@QEAAXAEBH@Z
?SetEditorPlayer@gCSession@@QEAAXPEAVeCEntity@@@Z
?SetEffect@gCEffect_PS@@QEAAXAEBVbCString@@@Z
?SetEffect@gCStateGraphActionStartEffect@@QEAAXAEBVbCString@@@Z
?SetEffectDuration@gCEffectCommandEarthquake@@QEAAXAEBM@Z
?SetEffectHigh@gCEffect_PS@@QEAAXAEBVbCString@@@Z
?SetEffectMaterial@gCItem_PS@@QEAAXAEBVbCString@@@Z
?SetEffectMaterial@gCNPC_PS@@QEAAXAEBVbCString@@@Z
?SetEffectMaterial@gCWaterZone_PS@@QEAAXAEBVbCString@@@Z
?SetEffectMedium@gCEffect_PS@@QEAAXAEBVbCString@@@Z
?SetEffectName@gCInfoCommandStartEffect@@QEAAXAEBVbCString@@@Z
?SetEffectOffset@gCCombatMoveParade@@QEAAXAEBVbCVector@@@Z
?SetEffectSpecies@gCNPC_PS@@QEAAXAEBVbCString@@@Z
?SetEffectWeight@gCEffectCommandEarthquake@@QEAAXAEBM@Z
?SetEffectsByMode@gCCharacterMovement_PS@@IEAA_NW4gECharMovementMode@@@Z
?SetElevationAngle@gCCombatMoveAim@@QEAAXAEBVbCRange1@@@Z
?SetElevationAngle@gCCombatMoveShoot@@QEAAXAEBVbCRange1@@@Z
?SetEmitter@gCWaterZone_PS@@QEAAXAEBVeCEntityProxy@@@Z
?SetEmitterTemplate@gCWaterZone_PS@@QEAAXAEBVeCTemplateEntityProxy@@@Z
?SetEnableAttackSec@gCCombatStyleMelee@@QEAAXAEB_N@Z
?SetEnableDragDrop@gCInventoryList@@QEAAXAEB_N@Z
?SetEnablePowerRaise@gCCombatStyleMelee@@QEAAXAEB_N@Z
?SetEnableSideAttacks@gCCombatStyleMelee@@QEAAXAEB_N@Z
?SetEnableSpining@gCProjectile2_PS@@QEAAXAEB_N@Z
?SetEnableSweepTest@gCProjectile2_PS@@QEAAXAEB_N@Z
?SetEnabled@gCCollisionCircle_PSObj@@QEAAX_N@Z
?SetEnabled@gCDynamicCollisionCircle_PS@@QEAAX_N@Z
?SetEnabled@gCEffect_PS@@QEAAXAEB_N@Z
?SetEnabled@gCNavigation_PS@@QEAAX_N@Z
?SetEnabledAsObstacle@gCCollisionCircle_PS@@QEAAXAEB_N@Z
?SetEnabledOnStartup@gCSector@@QEAAXAEB_N@Z
?SetEndAttackTimestamp@gCScriptRoutine_PS@@QEAAXAEBM@Z
?SetEndChapter@gCInfo@@QEAAXAEBJ@Z
?SetEndChapter@gCQuest@@QEAAXAEBJ@Z
?SetEndDialogTimestamp@gCDialog_PS@@QEAAXAEBM@Z
?SetEnterROIScript@gCInteraction_PS@@QEAAXAEBVeCScriptProxyScript@@@Z
?SetEnterScript@gCStateGraphActionCallScript@@QEAAXAEBVeCScriptProxyScript@@@Z
?SetEntity1@gCInfoCommandAttack@@QEAAXAEBVbCString@@@Z
?SetEntity1@gCInfoCommandBoostAttribs@@QEAAXAEBVbCString@@@Z
?SetEntity1@gCInfoCommandCreateItem@@QEAAXAEBVbCString@@@Z
?SetEntity1@gCInfoCommandDestroyItem@@QEAAXAEBVbCString@@@Z
?SetEntity1@gCInfoCommandDoLoot@@QEAAXAEBVbCString@@@Z
?SetEntity1@gCInfoCommandDoTrade@@QEAAXAEBVbCString@@@Z
?SetEntity1@gCInfoCommandFullStop@@QEAAXAEBVbCString@@@Z
?SetEntity1@gCInfoCommandGive@@QEAAXAEBVbCString@@@Z
?SetEntity1@gCInfoCommandHeal@@QEAAXAEBVbCString@@@Z
?SetEntity1@gCInfoCommandMoveTo@@QEAAXAEBVbCString@@@Z
?SetEntity1@gCInfoCommandSetGuardStatus@@QEAAXAEBVbCString@@@Z
?SetEntity1@gCInfoCommandSetMobEnabled@@QEAAXAEBVbCString@@@Z
?SetEntity1@gCInfoCommandSetPartyEnabled@@QEAAXAEBVbCString@@@Z
?SetEntity1@gCInfoCommandSetRelaxingPoint@@QEAAXAEBVbCString@@@Z
?SetEntity1@gCInfoCommandSetRoutine@@QEAAXAEBVbCString@@@Z
?SetEntity1@gCInfoCommandSetSlaveryEnabled@@QEAAXAEBVbCString@@@Z
?SetEntity1@gCInfoCommandSetSleepingPoint@@QEAAXAEBVbCString@@@Z
?SetEntity1@gCInfoCommandSetTeachEnabled@@QEAAXAEBVbCString@@@Z
?SetEntity1@gCInfoCommandSetTradeEnabled@@QEAAXAEBVbCString@@@Z
?SetEntity1@gCInfoCommandSetWorkingPoint@@QEAAXAEBVbCString@@@Z
?SetEntity1@gCInfoCommandSleep@@QEAAXAEBVbCString@@@Z
?SetEntity1@gCInfoCommandStartEffect@@QEAAXAEBVbCString@@@Z
?SetEntity1@gCInfoCommandTeach@@QEAAXAEBVbCString@@@Z
?SetEntity1@gCInfoCommandUse@@QEAAXAEBVbCString@@@Z
?SetEntity1@gCInfoCommandWear@@QEAAXAEBVbCString@@@Z
?SetEntity2@gCInfoCommandAttack@@QEAAXAEBVbCString@@@Z
?SetEntity2@gCInfoCommandDoLoot@@QEAAXAEBVbCString@@@Z
?SetEntity2@gCInfoCommandDoTrade@@QEAAXAEBVbCString@@@Z
?SetEntity2@gCInfoCommandGive@@QEAAXAEBVbCString@@@Z
?SetEntity2@gCInfoCommandHeal@@QEAAXAEBVbCString@@@Z
?SetEntity2@gCInfoCommandMoveTo@@QEAAXAEBVbCString@@@Z
?SetEntity2@gCInfoCommandSetRelaxingPoint@@QEAAXAEBVbCString@@@Z
?SetEntity2@gCInfoCommandSetSleepingPoint@@QEAAXAEBVbCString@@@Z
?SetEntity2@gCInfoCommandSetWorkingPoint@@QEAAXAEBVbCString@@@Z
?SetEntity@gCInfoConditionOwnerNearEntity@@QEAAXAEBVeCEntityStringProxy@@@Z
?SetEntity@gCInfoConditionSkillValue@@QEAAXAEBVbCString@@@Z
?SetEntity@gCMapEntry@@QEAAXAEBVeCEntityStringProxy@@@Z
?SetEntity@gCParty_PS@@UEAAXPEAVeCEntity@@@Z
?SetEntity@gCStateGraphEventFilterIsEntity@@QEAAXAEBVeCEntityProxy@@@Z
?SetEntityID@gCCollisionCircle_PSObj@@QEAAXAEBVbCPropertyID@@@Z
?SetEntityID@gCNegZone_PSObj@@QEAAXAEBVbCPropertyID@@@Z
?SetEntityID@gCPrefPath_PSObj@@QEAAXAEBVbCPropertyID@@@Z
?SetEntityIndex@gCEffectCommandKillEntity@@QEAAXAEBH@Z
?SetEntityIndex@gCEffectCommandModifyEntity@@QEAAXAEBH@Z
